
rtthread-flash.elf:     file format elf64-littleriscv


Disassembly of section .init:

0000000030000000 <_start>:
    30000000:	50005197          	auipc	gp,0x50005
    30000004:	9c818193          	addi	gp,gp,-1592 # 800049c8 <__global_pointer$>
    30000008:	51000117          	auipc	sp,0x51000
    3000000c:	ff810113          	addi	sp,sp,-8 # 81000000 <__stack_start__>
    30000010:	0000d517          	auipc	a0,0xd
    30000014:	c5850513          	addi	a0,a0,-936 # 3000cc68 <_data_lma>
    30000018:	50000597          	auipc	a1,0x50000
    3000001c:	fe858593          	addi	a1,a1,-24 # 80000000 <__fsym___cmd_reboot>
    30000020:	81018613          	addi	a2,gp,-2032 # 800041d8 <rt_tick>
    30000024:	00c5fc63          	bgeu	a1,a2,3000003c <_start+0x3c>
    30000028:	00052283          	lw	t0,0(a0)
    3000002c:	0055a023          	sw	t0,0(a1)
    30000030:	00450513          	addi	a0,a0,4
    30000034:	00458593          	addi	a1,a1,4
    30000038:	fec5e8e3          	bltu	a1,a2,30000028 <_start+0x28>
    3000003c:	81018513          	addi	a0,gp,-2032 # 800041d8 <rt_tick>
    30000040:	5000d597          	auipc	a1,0x5000d
    30000044:	46858593          	addi	a1,a1,1128 # 8000d4a8 <__bss_end>
    30000048:	00b57863          	bgeu	a0,a1,30000058 <_start+0x58>
    3000004c:	00052023          	sw	zero,0(a0)
    30000050:	00450513          	addi	a0,a0,4
    30000054:	feb56ce3          	bltu	a0,a1,3000004c <_start+0x4c>
    30000058:	00000097          	auipc	ra,0x0
    3000005c:	ff010113          	addi	sp,sp,-16
    30000060:	00113423          	sd	ra,8(sp)
    30000064:	00000513          	li	a0,0
    30000068:	00000593          	li	a1,0
    3000006c:	30405073          	csrwi	mie,0
    30000070:	34405073          	csrwi	mip,0
    30000074:	00005297          	auipc	t0,0x5
    30000078:	36c28293          	addi	t0,t0,876 # 300053e0 <trap_entry>
    3000007c:	30529073          	csrw	mtvec,t0
    30000080:	320020ef          	jal	ra,300023a0 <entry>
    30000084:	0000006f          	j	30000084 <_start+0x84>

Disassembly of section .text:

0000000030000088 <main>:
    30000088:	ff010113          	addi	sp,sp,-16
    3000008c:	50000517          	auipc	a0,0x50000
    30000090:	61450513          	addi	a0,a0,1556 # 800006a0 <_uart_ops+0x60>
    30000094:	00113423          	sd	ra,8(sp)
    30000098:	285010ef          	jal	ra,30001b1c <rt_kprintf>
    3000009c:	3b0000ef          	jal	ra,3000044c <thread_sample>
    300000a0:	00813083          	ld	ra,8(sp)
    300000a4:	00000513          	li	a0,0
    300000a8:	01010113          	addi	sp,sp,16
    300000ac:	00008067          	ret

00000000300000b0 <plic_claim>:
    300000b0:	f14027f3          	csrr	a5,mhartid
    300000b4:	00c7971b          	slliw	a4,a5,0xc
    300000b8:	0c2007b7          	lui	a5,0xc200
    300000bc:	00e787b3          	add	a5,a5,a4
    300000c0:	0047a503          	lw	a0,4(a5) # c200004 <__stack_size+0xc1ff804>
    300000c4:	00008067          	ret

00000000300000c8 <plic_complete>:
    300000c8:	f14027f3          	csrr	a5,mhartid
    300000cc:	00c7971b          	slliw	a4,a5,0xc
    300000d0:	0c2007b7          	lui	a5,0xc200
    300000d4:	00e787b3          	add	a5,a5,a4
    300000d8:	00a7a223          	sw	a0,4(a5) # c200004 <__stack_size+0xc1ff804>
    300000dc:	00008067          	ret

00000000300000e0 <rt_hw_cpu_reset>:
    300000e0:	00000513          	li	a0,0
    300000e4:	00000593          	li	a1,0
    300000e8:	00000613          	li	a2,0
    300000ec:	00000693          	li	a3,0
    300000f0:	00000713          	li	a4,0
    300000f4:	00000813          	li	a6,0
    300000f8:	00800893          	li	a7,8
    300000fc:	00000073          	ecall
    30000100:	0000006f          	j	30000100 <rt_hw_cpu_reset+0x20>

0000000030000104 <rt_hw_board_init>:
    30000104:	ff010113          	addi	sp,sp,-16
    30000108:	00113423          	sd	ra,8(sp)
    3000010c:	00813023          	sd	s0,0(sp)
    30000110:	569040ef          	jal	ra,30004e78 <rt_hw_interrupt_init>
    30000114:	170000ef          	jal	ra,30000284 <rt_hw_uart_init>
    30000118:	5640d617          	auipc	a2,0x5640d
    3000011c:	39060613          	addi	a2,a2,912 # 8640d4a8 <__stack_start__+0x540d4a8>
    30000120:	5000d417          	auipc	s0,0x5000d
    30000124:	38840413          	addi	s0,s0,904 # 8000d4a8 <__bss_end>
    30000128:	00060593          	mv	a1,a2
    3000012c:	00040513          	mv	a0,s0
    30000130:	434040ef          	jal	ra,30004564 <rt_system_heap_init>
    30000134:	50000517          	auipc	a0,0x50000
    30000138:	47450513          	addi	a0,a0,1140 # 800005a8 <__rt_init_end>
    3000013c:	171010ef          	jal	ra,30001aac <rt_console_set_device>
    30000140:	258050ef          	jal	ra,30005398 <rt_hw_tick_init>
    30000144:	00040593          	mv	a1,s0
    30000148:	5640d617          	auipc	a2,0x5640d
    3000014c:	36060613          	addi	a2,a2,864 # 8640d4a8 <__stack_start__+0x540d4a8>
    30000150:	50000517          	auipc	a0,0x50000
    30000154:	46050513          	addi	a0,a0,1120 # 800005b0 <__rt_init_end+0x8>
    30000158:	1c5010ef          	jal	ra,30001b1c <rt_kprintf>
    3000015c:	00013403          	ld	s0,0(sp)
    30000160:	00813083          	ld	ra,8(sp)
    30000164:	01010113          	addi	sp,sp,16
    30000168:	0f00206f          	j	30002258 <rt_components_board_init>

000000003000016c <drv_uart_putc>:
    3000016c:	00058513          	mv	a0,a1
    30000170:	10000737          	lui	a4,0x10000
    30000174:	00574783          	lbu	a5,5(a4) # 10000005 <__stack_size+0xffff805>
    30000178:	0207f793          	andi	a5,a5,32
    3000017c:	fe078ce3          	beqz	a5,30000174 <drv_uart_putc+0x8>
    30000180:	00a70023          	sb	a0,0(a4)
    30000184:	00008067          	ret

0000000030000188 <drv_uart_getc>:
    30000188:	10000737          	lui	a4,0x10000
    3000018c:	00574783          	lbu	a5,5(a4) # 10000005 <__stack_size+0xffff805>
    30000190:	fff00513          	li	a0,-1
    30000194:	0017f793          	andi	a5,a5,1
    30000198:	00078663          	beqz	a5,300001a4 <drv_uart_getc+0x1c>
    3000019c:	00074503          	lbu	a0,0(a4)
    300001a0:	0ff57513          	zext.b	a0,a0
    300001a4:	00008067          	ret

00000000300001a8 <rt_uart_configure>:
    300001a8:	fe010113          	addi	sp,sp,-32
    300001ac:	00813823          	sd	s0,16(sp)
    300001b0:	00913423          	sd	s1,8(sp)
    300001b4:	00113c23          	sd	ra,24(sp)
    300001b8:	00050413          	mv	s0,a0
    300001bc:	00058493          	mv	s1,a1
    300001c0:	00051e63          	bnez	a0,300001dc <rt_uart_configure+0x34>
    300001c4:	03a00613          	li	a2,58
    300001c8:	50000597          	auipc	a1,0x50000
    300001cc:	45058593          	addi	a1,a1,1104 # 80000618 <__FUNCTION__.3513>
    300001d0:	50000517          	auipc	a0,0x50000
    300001d4:	42050513          	addi	a0,a0,1056 # 800005f0 <__fsym___cmd_reboot_name+0x10>
    300001d8:	2c1010ef          	jal	ra,30001c98 <rt_assert_handler>
    300001dc:	0004a783          	lw	a5,0(s1)
    300001e0:	01813083          	ld	ra,24(sp)
    300001e4:	00000513          	li	a0,0
    300001e8:	08f42423          	sw	a5,136(s0)
    300001ec:	0044a783          	lw	a5,4(s1)
    300001f0:	00813483          	ld	s1,8(sp)
    300001f4:	08f42623          	sw	a5,140(s0)
    300001f8:	01013403          	ld	s0,16(sp)
    300001fc:	02010113          	addi	sp,sp,32
    30000200:	00008067          	ret

0000000030000204 <uart_control>:
    30000204:	07853783          	ld	a5,120(a0)
    30000208:	02079a63          	bnez	a5,3000023c <uart_control+0x38>
    3000020c:	ff010113          	addi	sp,sp,-16
    30000210:	50000517          	auipc	a0,0x50000
    30000214:	3f850513          	addi	a0,a0,1016 # 80000608 <__fsym___cmd_reboot_name+0x28>
    30000218:	04700613          	li	a2,71
    3000021c:	50000597          	auipc	a1,0x50000
    30000220:	41458593          	addi	a1,a1,1044 # 80000630 <__FUNCTION__.3521>
    30000224:	00113423          	sd	ra,8(sp)
    30000228:	271010ef          	jal	ra,30001c98 <rt_assert_handler>
    3000022c:	00813083          	ld	ra,8(sp)
    30000230:	00000513          	li	a0,0
    30000234:	01010113          	addi	sp,sp,16
    30000238:	00008067          	ret
    3000023c:	00000513          	li	a0,0
    30000240:	00008067          	ret

0000000030000244 <virt_uart_init>:
    30000244:	100007b7          	lui	a5,0x10000
    30000248:	000780a3          	sb	zero,1(a5) # 10000001 <__stack_size+0xffff801>
    3000024c:	0037c703          	lbu	a4,3(a5)
    30000250:	f8076713          	ori	a4,a4,-128
    30000254:	0ff77713          	zext.b	a4,a4
    30000258:	00e781a3          	sb	a4,3(a5)
    3000025c:	00100713          	li	a4,1
    30000260:	00e78023          	sb	a4,0(a5)
    30000264:	000780a3          	sb	zero,1(a5)
    30000268:	00300713          	li	a4,3
    3000026c:	00e781a3          	sb	a4,3(a5)
    30000270:	0017c703          	lbu	a4,1(a5)
    30000274:	0ff77713          	zext.b	a4,a4
    30000278:	00176713          	ori	a4,a4,1
    3000027c:	00e780a3          	sb	a4,1(a5)
    30000280:	00008067          	ret

0000000030000284 <rt_hw_uart_init>:
    30000284:	ff010113          	addi	sp,sp,-16
    30000288:	00113423          	sd	ra,8(sp)
    3000028c:	95818513          	addi	a0,gp,-1704 # 80004320 <serial1>
    30000290:	50000797          	auipc	a5,0x50000
    30000294:	3b078793          	addi	a5,a5,944 # 80000640 <_uart_ops>
    30000298:	08f53023          	sd	a5,128(a0)
    3000029c:	50004797          	auipc	a5,0x50004
    300002a0:	f347b783          	ld	a5,-204(a5) # 800041d0 <soft_timer_status+0x8>
    300002a4:	9f818693          	addi	a3,gp,-1544 # 800043c0 <uart1>
    300002a8:	08f53423          	sd	a5,136(a0)
    300002ac:	100007b7          	lui	a5,0x10000
    300002b0:	00f6b023          	sd	a5,0(a3)
    300002b4:	00a00793          	li	a5,10
    300002b8:	00f6a423          	sw	a5,8(a3)
    300002bc:	f89ff0ef          	jal	ra,30000244 <virt_uart_init>
    300002c0:	9f818693          	addi	a3,gp,-1544 # 800043c0 <uart1>
    300002c4:	04300613          	li	a2,67
    300002c8:	50000597          	auipc	a1,0x50000
    300002cc:	2e058593          	addi	a1,a1,736 # 800005a8 <__rt_init_end>
    300002d0:	95818513          	addi	a0,gp,-1704 # 80004320 <serial1>
    300002d4:	0b90c0ef          	jal	ra,3000cb8c <rt_hw_serial_register>
    300002d8:	00813083          	ld	ra,8(sp)
    300002dc:	00000513          	li	a0,0
    300002e0:	01010113          	addi	sp,sp,16
    300002e4:	00008067          	ret

00000000300002e8 <atoi>:
    300002e8:	00050793          	mv	a5,a0
    300002ec:	02000713          	li	a4,32
    300002f0:	0007c683          	lbu	a3,0(a5) # 10000000 <__stack_size+0xffff800>
    300002f4:	02e68263          	beq	a3,a4,30000318 <atoi+0x30>
    300002f8:	00000513          	li	a0,0
    300002fc:	00900613          	li	a2,9
    30000300:	00a00593          	li	a1,10
    30000304:	0007c683          	lbu	a3,0(a5)
    30000308:	fd06871b          	addiw	a4,a3,-48
    3000030c:	0ff77713          	zext.b	a4,a4
    30000310:	00e67863          	bgeu	a2,a4,30000320 <atoi+0x38>
    30000314:	00008067          	ret
    30000318:	00178793          	addi	a5,a5,1
    3000031c:	fd5ff06f          	j	300002f0 <atoi+0x8>
    30000320:	02a5853b          	mulw	a0,a1,a0
    30000324:	00178793          	addi	a5,a5,1
    30000328:	00d5053b          	addw	a0,a0,a3
    3000032c:	fd05051b          	addiw	a0,a0,-48
    30000330:	fd5ff06f          	j	30000304 <atoi+0x1c>

0000000030000334 <strlen>:
    30000334:	0f00106f          	j	30001424 <rt_strlen>

0000000030000338 <strcpy>:
    30000338:	00050793          	mv	a5,a0
    3000033c:	0005c703          	lbu	a4,0(a1)
    30000340:	00071663          	bnez	a4,3000034c <strcpy+0x14>
    30000344:	00078023          	sb	zero,0(a5)
    30000348:	00008067          	ret
    3000034c:	00e78023          	sb	a4,0(a5)
    30000350:	00158593          	addi	a1,a1,1
    30000354:	00178793          	addi	a5,a5,1
    30000358:	fe5ff06f          	j	3000033c <strcpy+0x4>

000000003000035c <strncpy>:
    3000035c:	0200106f          	j	3000137c <rt_strncpy>

0000000030000360 <strcat>:
    30000360:	fe010113          	addi	sp,sp,-32
    30000364:	00113c23          	sd	ra,24(sp)
    30000368:	00813823          	sd	s0,16(sp)
    3000036c:	00b13423          	sd	a1,8(sp)
    30000370:	00050413          	mv	s0,a0
    30000374:	0b0010ef          	jal	ra,30001424 <rt_strlen>
    30000378:	00813583          	ld	a1,8(sp)
    3000037c:	00a40533          	add	a0,s0,a0
    30000380:	fb9ff0ef          	jal	ra,30000338 <strcpy>
    30000384:	01813083          	ld	ra,24(sp)
    30000388:	00040513          	mv	a0,s0
    3000038c:	01013403          	ld	s0,16(sp)
    30000390:	02010113          	addi	sp,sp,32
    30000394:	00008067          	ret

0000000030000398 <strcmp>:
    30000398:	0680106f          	j	30001400 <rt_strcmp>

000000003000039c <strncmp>:
    3000039c:	0240106f          	j	300013c0 <rt_strncmp>

00000000300003a0 <memset>:
    300003a0:	5910006f          	j	30001130 <rt_memset>

00000000300003a4 <memcpy>:
    300003a4:	6510006f          	j	300011f4 <rt_memcpy>

00000000300003a8 <memcmp>:
    300003a8:	7a10006f          	j	30001348 <rt_memcmp>

00000000300003ac <strstr>:
    300003ac:	0940106f          	j	30001440 <rt_strstr>

00000000300003b0 <strrchr>:
    300003b0:	00050c63          	beqz	a0,300003c8 <strrchr+0x18>
    300003b4:	00050793          	mv	a5,a0
    300003b8:	0ff5f593          	zext.b	a1,a1
    300003bc:	00000513          	li	a0,0
    300003c0:	0007c703          	lbu	a4,0(a5)
    300003c4:	00071463          	bnez	a4,300003cc <strrchr+0x1c>
    300003c8:	00008067          	ret
    300003cc:	00e59463          	bne	a1,a4,300003d4 <strrchr+0x24>
    300003d0:	00078513          	mv	a0,a5
    300003d4:	00178793          	addi	a5,a5,1
    300003d8:	fe9ff06f          	j	300003c0 <strrchr+0x10>

00000000300003dc <low_prior_entry>:
    300003dc:	fd010113          	addi	sp,sp,-48
    300003e0:	00913c23          	sd	s1,24(sp)
    300003e4:	01213823          	sd	s2,16(sp)
    300003e8:	02113423          	sd	ra,40(sp)
    300003ec:	02813023          	sd	s0,32(sp)
    300003f0:	00000613          	li	a2,0
    300003f4:	0005059b          	sext.w	a1,a0
    300003f8:	00700913          	li	s2,7
    300003fc:	50000497          	auipc	s1,0x50000
    30000400:	26c48493          	addi	s1,s1,620 # 80000668 <_uart_ops+0x28>
    30000404:	03260463          	beq	a2,s2,3000042c <low_prior_entry+0x50>
    30000408:	00048513          	mv	a0,s1
    3000040c:	0016041b          	addiw	s0,a2,1
    30000410:	00b13423          	sd	a1,8(sp)
    30000414:	708010ef          	jal	ra,30001b1c <rt_kprintf>
    30000418:	02800513          	li	a0,40
    3000041c:	4dd020ef          	jal	ra,300030f8 <rt_thread_mdelay>
    30000420:	00813583          	ld	a1,8(sp)
    30000424:	00040613          	mv	a2,s0
    30000428:	fddff06f          	j	30000404 <low_prior_entry+0x28>
    3000042c:	02013403          	ld	s0,32(sp)
    30000430:	02813083          	ld	ra,40(sp)
    30000434:	01813483          	ld	s1,24(sp)
    30000438:	01013903          	ld	s2,16(sp)
    3000043c:	50000517          	auipc	a0,0x50000
    30000440:	24450513          	addi	a0,a0,580 # 80000680 <_uart_ops+0x40>
    30000444:	03010113          	addi	sp,sp,48
    30000448:	6d40106f          	j	30001b1c <rt_kprintf>

000000003000044c <thread_sample>:
    3000044c:	ff010113          	addi	sp,sp,-16
    30000450:	00500793          	li	a5,5
    30000454:	00300713          	li	a4,3
    30000458:	20000693          	li	a3,512
    3000045c:	00100613          	li	a2,1
    30000460:	00000597          	auipc	a1,0x0
    30000464:	f7c58593          	addi	a1,a1,-132 # 300003dc <low_prior_entry>
    30000468:	50000517          	auipc	a0,0x50000
    3000046c:	22850513          	addi	a0,a0,552 # 80000690 <_uart_ops+0x50>
    30000470:	00113423          	sd	ra,8(sp)
    30000474:	131020ef          	jal	ra,30002da4 <rt_thread_create>
    30000478:	00050463          	beqz	a0,30000480 <thread_sample+0x34>
    3000047c:	56d020ef          	jal	ra,300031e8 <rt_thread_startup>
    30000480:	00500793          	li	a5,5
    30000484:	00300713          	li	a4,3
    30000488:	20000693          	li	a3,512
    3000048c:	00200613          	li	a2,2
    30000490:	00000597          	auipc	a1,0x0
    30000494:	f4c58593          	addi	a1,a1,-180 # 300003dc <low_prior_entry>
    30000498:	50000517          	auipc	a0,0x50000
    3000049c:	20050513          	addi	a0,a0,512 # 80000698 <_uart_ops+0x58>
    300004a0:	105020ef          	jal	ra,30002da4 <rt_thread_create>
    300004a4:	00050463          	beqz	a0,300004ac <thread_sample+0x60>
    300004a8:	541020ef          	jal	ra,300031e8 <rt_thread_startup>
    300004ac:	00813083          	ld	ra,8(sp)
    300004b0:	00000513          	li	a0,0
    300004b4:	01010113          	addi	sp,sp,16
    300004b8:	00008067          	ret

00000000300004bc <rt_ipc_list_resume.isra.0>:
    300004bc:	ff010113          	addi	sp,sp,-16
    300004c0:	fd850513          	addi	a0,a0,-40
    300004c4:	00113423          	sd	ra,8(sp)
    300004c8:	44d020ef          	jal	ra,30003114 <rt_thread_resume>
    300004cc:	00813083          	ld	ra,8(sp)
    300004d0:	00000513          	li	a0,0
    300004d4:	01010113          	addi	sp,sp,16
    300004d8:	00008067          	ret

00000000300004dc <rt_ipc_list_suspend>:
    300004dc:	fe010113          	addi	sp,sp,-32
    300004e0:	00913423          	sd	s1,8(sp)
    300004e4:	01213023          	sd	s2,0(sp)
    300004e8:	00050493          	mv	s1,a0
    300004ec:	00060913          	mv	s2,a2
    300004f0:	00058513          	mv	a0,a1
    300004f4:	00813823          	sd	s0,16(sp)
    300004f8:	00113c23          	sd	ra,24(sp)
    300004fc:	00058413          	mv	s0,a1
    30000500:	235020ef          	jal	ra,30002f34 <rt_thread_suspend>
    30000504:	02090463          	beqz	s2,3000052c <rt_ipc_list_suspend+0x50>
    30000508:	00100793          	li	a5,1
    3000050c:	04f90a63          	beq	s2,a5,30000560 <rt_ipc_list_suspend+0x84>
    30000510:	07f00613          	li	a2,127
    30000514:	50000597          	auipc	a1,0x50000
    30000518:	33c58593          	addi	a1,a1,828 # 80000850 <__FUNCTION__.2633>
    3000051c:	50000517          	auipc	a0,0x50000
    30000520:	19450513          	addi	a0,a0,404 # 800006b0 <_uart_ops+0x70>
    30000524:	774010ef          	jal	ra,30001c98 <rt_assert_handler>
    30000528:	01c0006f          	j	30000544 <rt_ipc_list_suspend+0x68>
    3000052c:	0084b703          	ld	a4,8(s1)
    30000530:	02840793          	addi	a5,s0,40
    30000534:	00f73023          	sd	a5,0(a4)
    30000538:	02e43823          	sd	a4,48(s0)
    3000053c:	00f4b423          	sd	a5,8(s1)
    30000540:	02943423          	sd	s1,40(s0)
    30000544:	01813083          	ld	ra,24(sp)
    30000548:	01013403          	ld	s0,16(sp)
    3000054c:	00813483          	ld	s1,8(sp)
    30000550:	00013903          	ld	s2,0(sp)
    30000554:	00000513          	li	a0,0
    30000558:	02010113          	addi	sp,sp,32
    3000055c:	00008067          	ret
    30000560:	0004b783          	ld	a5,0(s1)
    30000564:	00978863          	beq	a5,s1,30000574 <rt_ipc_list_suspend+0x98>
    30000568:	06944683          	lbu	a3,105(s0)
    3000056c:	0417c703          	lbu	a4,65(a5)
    30000570:	02e6f063          	bgeu	a3,a4,30000590 <rt_ipc_list_suspend+0xb4>
    30000574:	0087b683          	ld	a3,8(a5)
    30000578:	02840713          	addi	a4,s0,40
    3000057c:	00e6b023          	sd	a4,0(a3)
    30000580:	02d43823          	sd	a3,48(s0)
    30000584:	00e7b423          	sd	a4,8(a5)
    30000588:	02f43423          	sd	a5,40(s0)
    3000058c:	fb9ff06f          	j	30000544 <rt_ipc_list_suspend+0x68>
    30000590:	0007b783          	ld	a5,0(a5)
    30000594:	fd1ff06f          	j	30000564 <rt_ipc_list_suspend+0x88>

0000000030000598 <rt_sem_init>:
    30000598:	fd010113          	addi	sp,sp,-48
    3000059c:	02813023          	sd	s0,32(sp)
    300005a0:	00913c23          	sd	s1,24(sp)
    300005a4:	01213823          	sd	s2,16(sp)
    300005a8:	01313423          	sd	s3,8(sp)
    300005ac:	02113423          	sd	ra,40(sp)
    300005b0:	00050413          	mv	s0,a0
    300005b4:	00058993          	mv	s3,a1
    300005b8:	00060493          	mv	s1,a2
    300005bc:	00068913          	mv	s2,a3
    300005c0:	00051e63          	bnez	a0,300005dc <rt_sem_init+0x44>
    300005c4:	0d500613          	li	a2,213
    300005c8:	50000597          	auipc	a1,0x50000
    300005cc:	2a058593          	addi	a1,a1,672 # 80000868 <__FUNCTION__.2652>
    300005d0:	50000517          	auipc	a0,0x50000
    300005d4:	0e850513          	addi	a0,a0,232 # 800006b8 <_uart_ops+0x78>
    300005d8:	6c0010ef          	jal	ra,30001c98 <rt_assert_handler>
    300005dc:	000107b7          	lui	a5,0x10
    300005e0:	00f4ee63          	bltu	s1,a5,300005fc <rt_sem_init+0x64>
    300005e4:	0d600613          	li	a2,214
    300005e8:	50000597          	auipc	a1,0x50000
    300005ec:	28058593          	addi	a1,a1,640 # 80000868 <__FUNCTION__.2652>
    300005f0:	50000517          	auipc	a0,0x50000
    300005f4:	0d850513          	addi	a0,a0,216 # 800006c8 <_uart_ops+0x88>
    300005f8:	6a0010ef          	jal	ra,30001c98 <rt_assert_handler>
    300005fc:	00040513          	mv	a0,s0
    30000600:	00098613          	mv	a2,s3
    30000604:	00200593          	li	a1,2
    30000608:	6b8030ef          	jal	ra,30003cc0 <rt_object_init>
    3000060c:	02840793          	addi	a5,s0,40
    30000610:	02941c23          	sh	s1,56(s0)
    30000614:	01240aa3          	sb	s2,21(s0)
    30000618:	02813083          	ld	ra,40(sp)
    3000061c:	02f43823          	sd	a5,48(s0)
    30000620:	02f43423          	sd	a5,40(s0)
    30000624:	02013403          	ld	s0,32(sp)
    30000628:	01813483          	ld	s1,24(sp)
    3000062c:	01013903          	ld	s2,16(sp)
    30000630:	00813983          	ld	s3,8(sp)
    30000634:	00000513          	li	a0,0
    30000638:	03010113          	addi	sp,sp,48
    3000063c:	00008067          	ret

0000000030000640 <rt_sem_take>:
    30000640:	fc010113          	addi	sp,sp,-64
    30000644:	02813823          	sd	s0,48(sp)
    30000648:	02113c23          	sd	ra,56(sp)
    3000064c:	02913423          	sd	s1,40(sp)
    30000650:	03213023          	sd	s2,32(sp)
    30000654:	01313c23          	sd	s3,24(sp)
    30000658:	00b12623          	sw	a1,12(sp)
    3000065c:	00050413          	mv	s0,a0
    30000660:	00051e63          	bnez	a0,3000067c <rt_sem_take+0x3c>
    30000664:	15300613          	li	a2,339
    30000668:	50000597          	auipc	a1,0x50000
    3000066c:	21058593          	addi	a1,a1,528 # 80000878 <__FUNCTION__.2676>
    30000670:	50000517          	auipc	a0,0x50000
    30000674:	04850513          	addi	a0,a0,72 # 800006b8 <_uart_ops+0x78>
    30000678:	620010ef          	jal	ra,30001c98 <rt_assert_handler>
    3000067c:	00040513          	mv	a0,s0
    30000680:	1b1030ef          	jal	ra,30004030 <rt_object_get_type>
    30000684:	00200793          	li	a5,2
    30000688:	00f50e63          	beq	a0,a5,300006a4 <rt_sem_take+0x64>
    3000068c:	15400613          	li	a2,340
    30000690:	50000597          	auipc	a1,0x50000
    30000694:	1e858593          	addi	a1,a1,488 # 80000878 <__FUNCTION__.2676>
    30000698:	50000517          	auipc	a0,0x50000
    3000069c:	04850513          	addi	a0,a0,72 # 800006e0 <_uart_ops+0xa0>
    300006a0:	5f8010ef          	jal	ra,30001c98 <rt_assert_handler>
    300006a4:	8c01b783          	ld	a5,-1856(gp) # 80004288 <rt_object_trytake_hook>
    300006a8:	00078663          	beqz	a5,300006b4 <rt_sem_take+0x74>
    300006ac:	00040513          	mv	a0,s0
    300006b0:	000780e7          	jalr	a5 # 10000 <__stack_size+0xf800>
    300006b4:	62d040ef          	jal	ra,300054e0 <rt_hw_interrupt_disable>
    300006b8:	03845783          	lhu	a5,56(s0)
    300006bc:	00050993          	mv	s3,a0
    300006c0:	02078663          	beqz	a5,300006ec <rt_sem_take+0xac>
    300006c4:	fff7879b          	addiw	a5,a5,-1
    300006c8:	02f41c23          	sh	a5,56(s0)
    300006cc:	61d040ef          	jal	ra,300054e8 <rt_hw_interrupt_enable>
    300006d0:	8b81b783          	ld	a5,-1864(gp) # 80004280 <rt_object_take_hook>
    300006d4:	00000513          	li	a0,0
    300006d8:	02078263          	beqz	a5,300006fc <rt_sem_take+0xbc>
    300006dc:	00040513          	mv	a0,s0
    300006e0:	000780e7          	jalr	a5
    300006e4:	00000513          	li	a0,0
    300006e8:	0140006f          	j	300006fc <rt_sem_take+0xbc>
    300006ec:	00c12783          	lw	a5,12(sp)
    300006f0:	02079463          	bnez	a5,30000718 <rt_sem_take+0xd8>
    300006f4:	5f5040ef          	jal	ra,300054e8 <rt_hw_interrupt_enable>
    300006f8:	ffe00513          	li	a0,-2
    300006fc:	03813083          	ld	ra,56(sp)
    30000700:	03013403          	ld	s0,48(sp)
    30000704:	02813483          	ld	s1,40(sp)
    30000708:	02013903          	ld	s2,32(sp)
    3000070c:	01813983          	ld	s3,24(sp)
    30000710:	04010113          	addi	sp,sp,64
    30000714:	00008067          	ret
    30000718:	5c9040ef          	jal	ra,300054e0 <rt_hw_interrupt_disable>
    3000071c:	00050493          	mv	s1,a0
    30000720:	580020ef          	jal	ra,30002ca0 <rt_thread_self>
    30000724:	02051863          	bnez	a0,30000754 <rt_sem_take+0x114>
    30000728:	50000597          	auipc	a1,0x50000
    3000072c:	15058593          	addi	a1,a1,336 # 80000878 <__FUNCTION__.2676>
    30000730:	50000517          	auipc	a0,0x50000
    30000734:	05050513          	addi	a0,a0,80 # 80000780 <_uart_ops+0x140>
    30000738:	3e4010ef          	jal	ra,30001b1c <rt_kprintf>
    3000073c:	17400613          	li	a2,372
    30000740:	50000597          	auipc	a1,0x50000
    30000744:	13858593          	addi	a1,a1,312 # 80000878 <__FUNCTION__.2676>
    30000748:	50000517          	auipc	a0,0x50000
    3000074c:	f6850513          	addi	a0,a0,-152 # 800006b0 <_uart_ops+0x70>
    30000750:	548010ef          	jal	ra,30001c98 <rt_assert_handler>
    30000754:	58d040ef          	jal	ra,300054e0 <rt_hw_interrupt_disable>
    30000758:	00050913          	mv	s2,a0
    3000075c:	73c000ef          	jal	ra,30000e98 <rt_interrupt_get_nest>
    30000760:	02050863          	beqz	a0,30000790 <rt_sem_take+0x150>
    30000764:	50000597          	auipc	a1,0x50000
    30000768:	11458593          	addi	a1,a1,276 # 80000878 <__FUNCTION__.2676>
    3000076c:	50000517          	auipc	a0,0x50000
    30000770:	fec50513          	addi	a0,a0,-20 # 80000758 <_uart_ops+0x118>
    30000774:	3a8010ef          	jal	ra,30001b1c <rt_kprintf>
    30000778:	17400613          	li	a2,372
    3000077c:	50000597          	auipc	a1,0x50000
    30000780:	0fc58593          	addi	a1,a1,252 # 80000878 <__FUNCTION__.2676>
    30000784:	50000517          	auipc	a0,0x50000
    30000788:	f2c50513          	addi	a0,a0,-212 # 800006b0 <_uart_ops+0x70>
    3000078c:	50c010ef          	jal	ra,30001c98 <rt_assert_handler>
    30000790:	00090513          	mv	a0,s2
    30000794:	555040ef          	jal	ra,300054e8 <rt_hw_interrupt_enable>
    30000798:	00048513          	mv	a0,s1
    3000079c:	54d040ef          	jal	ra,300054e8 <rt_hw_interrupt_enable>
    300007a0:	500020ef          	jal	ra,30002ca0 <rt_thread_self>
    300007a4:	06053023          	sd	zero,96(a0)
    300007a8:	01544603          	lbu	a2,21(s0)
    300007ac:	00050593          	mv	a1,a0
    300007b0:	00050493          	mv	s1,a0
    300007b4:	02840513          	addi	a0,s0,40
    300007b8:	d25ff0ef          	jal	ra,300004dc <rt_ipc_list_suspend>
    300007bc:	00c12783          	lw	a5,12(sp)
    300007c0:	02f05063          	blez	a5,300007e0 <rt_sem_take+0x1a0>
    300007c4:	08848913          	addi	s2,s1,136
    300007c8:	00c10613          	addi	a2,sp,12
    300007cc:	00000593          	li	a1,0
    300007d0:	00090513          	mv	a0,s2
    300007d4:	7e9020ef          	jal	ra,300037bc <rt_timer_control>
    300007d8:	00090513          	mv	a0,s2
    300007dc:	59d020ef          	jal	ra,30003578 <rt_timer_start>
    300007e0:	00098513          	mv	a0,s3
    300007e4:	505040ef          	jal	ra,300054e8 <rt_hw_interrupt_enable>
    300007e8:	759010ef          	jal	ra,30002740 <rt_schedule>
    300007ec:	0604b503          	ld	a0,96(s1)
    300007f0:	ee0500e3          	beqz	a0,300006d0 <rt_sem_take+0x90>
    300007f4:	f09ff06f          	j	300006fc <rt_sem_take+0xbc>

00000000300007f8 <rt_sem_release>:
    300007f8:	fd010113          	addi	sp,sp,-48
    300007fc:	02813023          	sd	s0,32(sp)
    30000800:	02113423          	sd	ra,40(sp)
    30000804:	00913c23          	sd	s1,24(sp)
    30000808:	00050413          	mv	s0,a0
    3000080c:	00051e63          	bnez	a0,30000828 <rt_sem_release+0x30>
    30000810:	1c000613          	li	a2,448
    30000814:	50000597          	auipc	a1,0x50000
    30000818:	07458593          	addi	a1,a1,116 # 80000888 <__FUNCTION__.2687>
    3000081c:	50000517          	auipc	a0,0x50000
    30000820:	e9c50513          	addi	a0,a0,-356 # 800006b8 <_uart_ops+0x78>
    30000824:	474010ef          	jal	ra,30001c98 <rt_assert_handler>
    30000828:	00040513          	mv	a0,s0
    3000082c:	005030ef          	jal	ra,30004030 <rt_object_get_type>
    30000830:	00200793          	li	a5,2
    30000834:	00f50e63          	beq	a0,a5,30000850 <rt_sem_release+0x58>
    30000838:	1c100613          	li	a2,449
    3000083c:	50000597          	auipc	a1,0x50000
    30000840:	04c58593          	addi	a1,a1,76 # 80000888 <__FUNCTION__.2687>
    30000844:	50000517          	auipc	a0,0x50000
    30000848:	e9c50513          	addi	a0,a0,-356 # 800006e0 <_uart_ops+0xa0>
    3000084c:	44c010ef          	jal	ra,30001c98 <rt_assert_handler>
    30000850:	8b01b783          	ld	a5,-1872(gp) # 80004278 <rt_object_put_hook>
    30000854:	00078663          	beqz	a5,30000860 <rt_sem_release+0x68>
    30000858:	00040513          	mv	a0,s0
    3000085c:	000780e7          	jalr	a5
    30000860:	481040ef          	jal	ra,300054e0 <rt_hw_interrupt_disable>
    30000864:	02843783          	ld	a5,40(s0)
    30000868:	02840713          	addi	a4,s0,40
    3000086c:	00050493          	mv	s1,a0
    30000870:	02e78863          	beq	a5,a4,300008a0 <rt_sem_release+0xa8>
    30000874:	00078513          	mv	a0,a5
    30000878:	c45ff0ef          	jal	ra,300004bc <rt_ipc_list_resume.isra.0>
    3000087c:	00100413          	li	s0,1
    30000880:	00048513          	mv	a0,s1
    30000884:	465040ef          	jal	ra,300054e8 <rt_hw_interrupt_enable>
    30000888:	00000513          	li	a0,0
    3000088c:	02040e63          	beqz	s0,300008c8 <rt_sem_release+0xd0>
    30000890:	00a13423          	sd	a0,8(sp)
    30000894:	6ad010ef          	jal	ra,30002740 <rt_schedule>
    30000898:	00813503          	ld	a0,8(sp)
    3000089c:	02c0006f          	j	300008c8 <rt_sem_release+0xd0>
    300008a0:	03845783          	lhu	a5,56(s0)
    300008a4:	00010737          	lui	a4,0x10
    300008a8:	fff70713          	addi	a4,a4,-1 # ffff <__stack_size+0xf7ff>
    300008ac:	00e78a63          	beq	a5,a4,300008c0 <rt_sem_release+0xc8>
    300008b0:	0017879b          	addiw	a5,a5,1
    300008b4:	02f41c23          	sh	a5,56(s0)
    300008b8:	00000413          	li	s0,0
    300008bc:	fc5ff06f          	j	30000880 <rt_sem_release+0x88>
    300008c0:	429040ef          	jal	ra,300054e8 <rt_hw_interrupt_enable>
    300008c4:	ffd00513          	li	a0,-3
    300008c8:	02813083          	ld	ra,40(sp)
    300008cc:	02013403          	ld	s0,32(sp)
    300008d0:	01813483          	ld	s1,24(sp)
    300008d4:	03010113          	addi	sp,sp,48
    300008d8:	00008067          	ret

00000000300008dc <rt_mutex_init>:
    300008dc:	fe010113          	addi	sp,sp,-32
    300008e0:	00813823          	sd	s0,16(sp)
    300008e4:	00913423          	sd	s1,8(sp)
    300008e8:	00113c23          	sd	ra,24(sp)
    300008ec:	00050413          	mv	s0,a0
    300008f0:	00058493          	mv	s1,a1
    300008f4:	00051e63          	bnez	a0,30000910 <rt_mutex_init+0x34>
    300008f8:	22a00613          	li	a2,554
    300008fc:	50000597          	auipc	a1,0x50000
    30000900:	f9c58593          	addi	a1,a1,-100 # 80000898 <__FUNCTION__.2701>
    30000904:	50000517          	auipc	a0,0x50000
    30000908:	eb450513          	addi	a0,a0,-332 # 800007b8 <_uart_ops+0x178>
    3000090c:	38c010ef          	jal	ra,30001c98 <rt_assert_handler>
    30000910:	00040513          	mv	a0,s0
    30000914:	00048613          	mv	a2,s1
    30000918:	00300593          	li	a1,3
    3000091c:	3a4030ef          	jal	ra,30003cc0 <rt_object_init>
    30000920:	02840793          	addi	a5,s0,40
    30000924:	02f43823          	sd	a5,48(s0)
    30000928:	02f43423          	sd	a5,40(s0)
    3000092c:	00ff07b7          	lui	a5,0xff0
    30000930:	0017879b          	addiw	a5,a5,1 # ff0001 <__stack_size+0xfef801>
    30000934:	02f42c23          	sw	a5,56(s0)
    30000938:	00100793          	li	a5,1
    3000093c:	01813083          	ld	ra,24(sp)
    30000940:	04043023          	sd	zero,64(s0)
    30000944:	00f40aa3          	sb	a5,21(s0)
    30000948:	01013403          	ld	s0,16(sp)
    3000094c:	00813483          	ld	s1,8(sp)
    30000950:	00000513          	li	a0,0
    30000954:	02010113          	addi	sp,sp,32
    30000958:	00008067          	ret

000000003000095c <rt_mutex_take>:
    3000095c:	fc010113          	addi	sp,sp,-64
    30000960:	02813823          	sd	s0,48(sp)
    30000964:	02913423          	sd	s1,40(sp)
    30000968:	02113c23          	sd	ra,56(sp)
    3000096c:	03213023          	sd	s2,32(sp)
    30000970:	01313c23          	sd	s3,24(sp)
    30000974:	00050413          	mv	s0,a0
    30000978:	00b12623          	sw	a1,12(sp)
    3000097c:	365040ef          	jal	ra,300054e0 <rt_hw_interrupt_disable>
    30000980:	00050493          	mv	s1,a0
    30000984:	31c020ef          	jal	ra,30002ca0 <rt_thread_self>
    30000988:	02051863          	bnez	a0,300009b8 <rt_mutex_take+0x5c>
    3000098c:	50000597          	auipc	a1,0x50000
    30000990:	f1c58593          	addi	a1,a1,-228 # 800008a8 <__FUNCTION__.2725>
    30000994:	50000517          	auipc	a0,0x50000
    30000998:	dec50513          	addi	a0,a0,-532 # 80000780 <_uart_ops+0x140>
    3000099c:	180010ef          	jal	ra,30001b1c <rt_kprintf>
    300009a0:	2aa00613          	li	a2,682
    300009a4:	50000597          	auipc	a1,0x50000
    300009a8:	f0458593          	addi	a1,a1,-252 # 800008a8 <__FUNCTION__.2725>
    300009ac:	50000517          	auipc	a0,0x50000
    300009b0:	d0450513          	addi	a0,a0,-764 # 800006b0 <_uart_ops+0x70>
    300009b4:	2e4010ef          	jal	ra,30001c98 <rt_assert_handler>
    300009b8:	329040ef          	jal	ra,300054e0 <rt_hw_interrupt_disable>
    300009bc:	00050913          	mv	s2,a0
    300009c0:	4d8000ef          	jal	ra,30000e98 <rt_interrupt_get_nest>
    300009c4:	02050863          	beqz	a0,300009f4 <rt_mutex_take+0x98>
    300009c8:	50000597          	auipc	a1,0x50000
    300009cc:	ee058593          	addi	a1,a1,-288 # 800008a8 <__FUNCTION__.2725>
    300009d0:	50000517          	auipc	a0,0x50000
    300009d4:	d8850513          	addi	a0,a0,-632 # 80000758 <_uart_ops+0x118>
    300009d8:	144010ef          	jal	ra,30001b1c <rt_kprintf>
    300009dc:	2aa00613          	li	a2,682
    300009e0:	50000597          	auipc	a1,0x50000
    300009e4:	ec858593          	addi	a1,a1,-312 # 800008a8 <__FUNCTION__.2725>
    300009e8:	50000517          	auipc	a0,0x50000
    300009ec:	cc850513          	addi	a0,a0,-824 # 800006b0 <_uart_ops+0x70>
    300009f0:	2a8010ef          	jal	ra,30001c98 <rt_assert_handler>
    300009f4:	00090513          	mv	a0,s2
    300009f8:	2f1040ef          	jal	ra,300054e8 <rt_hw_interrupt_enable>
    300009fc:	00048513          	mv	a0,s1
    30000a00:	2e9040ef          	jal	ra,300054e8 <rt_hw_interrupt_enable>
    30000a04:	00041e63          	bnez	s0,30000a20 <rt_mutex_take+0xc4>
    30000a08:	2ad00613          	li	a2,685
    30000a0c:	50000597          	auipc	a1,0x50000
    30000a10:	e9c58593          	addi	a1,a1,-356 # 800008a8 <__FUNCTION__.2725>
    30000a14:	50000517          	auipc	a0,0x50000
    30000a18:	da450513          	addi	a0,a0,-604 # 800007b8 <_uart_ops+0x178>
    30000a1c:	27c010ef          	jal	ra,30001c98 <rt_assert_handler>
    30000a20:	00040513          	mv	a0,s0
    30000a24:	60c030ef          	jal	ra,30004030 <rt_object_get_type>
    30000a28:	00300793          	li	a5,3
    30000a2c:	00f50e63          	beq	a0,a5,30000a48 <rt_mutex_take+0xec>
    30000a30:	2ae00613          	li	a2,686
    30000a34:	50000597          	auipc	a1,0x50000
    30000a38:	e7458593          	addi	a1,a1,-396 # 800008a8 <__FUNCTION__.2725>
    30000a3c:	50000517          	auipc	a0,0x50000
    30000a40:	d9450513          	addi	a0,a0,-620 # 800007d0 <_uart_ops+0x190>
    30000a44:	254010ef          	jal	ra,30001c98 <rt_assert_handler>
    30000a48:	258020ef          	jal	ra,30002ca0 <rt_thread_self>
    30000a4c:	00050493          	mv	s1,a0
    30000a50:	291040ef          	jal	ra,300054e0 <rt_hw_interrupt_disable>
    30000a54:	8c01b783          	ld	a5,-1856(gp) # 80004288 <rt_object_trytake_hook>
    30000a58:	00050913          	mv	s2,a0
    30000a5c:	00078663          	beqz	a5,30000a68 <rt_mutex_take+0x10c>
    30000a60:	00040513          	mv	a0,s0
    30000a64:	000780e7          	jalr	a5
    30000a68:	04043503          	ld	a0,64(s0)
    30000a6c:	0604b023          	sd	zero,96(s1)
    30000a70:	02951e63          	bne	a0,s1,30000aac <rt_mutex_take+0x150>
    30000a74:	03b44783          	lbu	a5,59(s0)
    30000a78:	0ff00713          	li	a4,255
    30000a7c:	04e78863          	beq	a5,a4,30000acc <rt_mutex_take+0x170>
    30000a80:	0017879b          	addiw	a5,a5,1
    30000a84:	02f40da3          	sb	a5,59(s0)
    30000a88:	00090513          	mv	a0,s2
    30000a8c:	25d040ef          	jal	ra,300054e8 <rt_hw_interrupt_enable>
    30000a90:	8b81b783          	ld	a5,-1864(gp) # 80004280 <rt_object_take_hook>
    30000a94:	00000513          	li	a0,0
    30000a98:	04078063          	beqz	a5,30000ad8 <rt_mutex_take+0x17c>
    30000a9c:	00040513          	mv	a0,s0
    30000aa0:	000780e7          	jalr	a5
    30000aa4:	00000513          	li	a0,0
    30000aa8:	0300006f          	j	30000ad8 <rt_mutex_take+0x17c>
    30000aac:	03845783          	lhu	a5,56(s0)
    30000ab0:	04078263          	beqz	a5,30000af4 <rt_mutex_take+0x198>
    30000ab4:	fff7879b          	addiw	a5,a5,-1
    30000ab8:	02f41c23          	sh	a5,56(s0)
    30000abc:	04943023          	sd	s1,64(s0)
    30000ac0:	0694c783          	lbu	a5,105(s1)
    30000ac4:	02f40d23          	sb	a5,58(s0)
    30000ac8:	fadff06f          	j	30000a74 <rt_mutex_take+0x118>
    30000acc:	00090513          	mv	a0,s2
    30000ad0:	219040ef          	jal	ra,300054e8 <rt_hw_interrupt_enable>
    30000ad4:	ffd00513          	li	a0,-3
    30000ad8:	03813083          	ld	ra,56(sp)
    30000adc:	03013403          	ld	s0,48(sp)
    30000ae0:	02813483          	ld	s1,40(sp)
    30000ae4:	02013903          	ld	s2,32(sp)
    30000ae8:	01813983          	ld	s3,24(sp)
    30000aec:	04010113          	addi	sp,sp,64
    30000af0:	00008067          	ret
    30000af4:	00c12783          	lw	a5,12(sp)
    30000af8:	00079e63          	bnez	a5,30000b14 <rt_mutex_take+0x1b8>
    30000afc:	ffe00793          	li	a5,-2
    30000b00:	00090513          	mv	a0,s2
    30000b04:	06f4b023          	sd	a5,96(s1)
    30000b08:	1e1040ef          	jal	ra,300054e8 <rt_hw_interrupt_enable>
    30000b0c:	ffe00513          	li	a0,-2
    30000b10:	fc9ff06f          	j	30000ad8 <rt_mutex_take+0x17c>
    30000b14:	0694c703          	lbu	a4,105(s1)
    30000b18:	06954783          	lbu	a5,105(a0)
    30000b1c:	00f77863          	bgeu	a4,a5,30000b2c <rt_mutex_take+0x1d0>
    30000b20:	06948613          	addi	a2,s1,105
    30000b24:	00200593          	li	a1,2
    30000b28:	77c020ef          	jal	ra,300032a4 <rt_thread_control>
    30000b2c:	01544603          	lbu	a2,21(s0)
    30000b30:	00048593          	mv	a1,s1
    30000b34:	02840513          	addi	a0,s0,40
    30000b38:	9a5ff0ef          	jal	ra,300004dc <rt_ipc_list_suspend>
    30000b3c:	00c12783          	lw	a5,12(sp)
    30000b40:	02f05063          	blez	a5,30000b60 <rt_mutex_take+0x204>
    30000b44:	08848993          	addi	s3,s1,136
    30000b48:	00c10613          	addi	a2,sp,12
    30000b4c:	00000593          	li	a1,0
    30000b50:	00098513          	mv	a0,s3
    30000b54:	469020ef          	jal	ra,300037bc <rt_timer_control>
    30000b58:	00098513          	mv	a0,s3
    30000b5c:	21d020ef          	jal	ra,30003578 <rt_timer_start>
    30000b60:	00090513          	mv	a0,s2
    30000b64:	185040ef          	jal	ra,300054e8 <rt_hw_interrupt_enable>
    30000b68:	3d9010ef          	jal	ra,30002740 <rt_schedule>
    30000b6c:	0604b503          	ld	a0,96(s1)
    30000b70:	f60514e3          	bnez	a0,30000ad8 <rt_mutex_take+0x17c>
    30000b74:	16d040ef          	jal	ra,300054e0 <rt_hw_interrupt_disable>
    30000b78:	00050913          	mv	s2,a0
    30000b7c:	f0dff06f          	j	30000a88 <rt_mutex_take+0x12c>

0000000030000b80 <rt_mutex_release>:
    30000b80:	fd010113          	addi	sp,sp,-48
    30000b84:	02813023          	sd	s0,32(sp)
    30000b88:	02113423          	sd	ra,40(sp)
    30000b8c:	00913c23          	sd	s1,24(sp)
    30000b90:	01213823          	sd	s2,16(sp)
    30000b94:	00050413          	mv	s0,a0
    30000b98:	00051e63          	bnez	a0,30000bb4 <rt_mutex_release+0x34>
    30000b9c:	35400613          	li	a2,852
    30000ba0:	50000597          	auipc	a1,0x50000
    30000ba4:	d1858593          	addi	a1,a1,-744 # 800008b8 <__FUNCTION__.2736>
    30000ba8:	50000517          	auipc	a0,0x50000
    30000bac:	c1050513          	addi	a0,a0,-1008 # 800007b8 <_uart_ops+0x178>
    30000bb0:	0e8010ef          	jal	ra,30001c98 <rt_assert_handler>
    30000bb4:	00040513          	mv	a0,s0
    30000bb8:	478030ef          	jal	ra,30004030 <rt_object_get_type>
    30000bbc:	00300793          	li	a5,3
    30000bc0:	00f50e63          	beq	a0,a5,30000bdc <rt_mutex_release+0x5c>
    30000bc4:	35500613          	li	a2,853
    30000bc8:	50000597          	auipc	a1,0x50000
    30000bcc:	cf058593          	addi	a1,a1,-784 # 800008b8 <__FUNCTION__.2736>
    30000bd0:	50000517          	auipc	a0,0x50000
    30000bd4:	c0050513          	addi	a0,a0,-1024 # 800007d0 <_uart_ops+0x190>
    30000bd8:	0c0010ef          	jal	ra,30001c98 <rt_assert_handler>
    30000bdc:	105040ef          	jal	ra,300054e0 <rt_hw_interrupt_disable>
    30000be0:	00050493          	mv	s1,a0
    30000be4:	0bc020ef          	jal	ra,30002ca0 <rt_thread_self>
    30000be8:	02051863          	bnez	a0,30000c18 <rt_mutex_release+0x98>
    30000bec:	50000597          	auipc	a1,0x50000
    30000bf0:	ccc58593          	addi	a1,a1,-820 # 800008b8 <__FUNCTION__.2736>
    30000bf4:	50000517          	auipc	a0,0x50000
    30000bf8:	b8c50513          	addi	a0,a0,-1140 # 80000780 <_uart_ops+0x140>
    30000bfc:	721000ef          	jal	ra,30001b1c <rt_kprintf>
    30000c00:	35a00613          	li	a2,858
    30000c04:	50000597          	auipc	a1,0x50000
    30000c08:	cb458593          	addi	a1,a1,-844 # 800008b8 <__FUNCTION__.2736>
    30000c0c:	50000517          	auipc	a0,0x50000
    30000c10:	aa450513          	addi	a0,a0,-1372 # 800006b0 <_uart_ops+0x70>
    30000c14:	084010ef          	jal	ra,30001c98 <rt_assert_handler>
    30000c18:	0c9040ef          	jal	ra,300054e0 <rt_hw_interrupt_disable>
    30000c1c:	00050913          	mv	s2,a0
    30000c20:	278000ef          	jal	ra,30000e98 <rt_interrupt_get_nest>
    30000c24:	02050863          	beqz	a0,30000c54 <rt_mutex_release+0xd4>
    30000c28:	50000597          	auipc	a1,0x50000
    30000c2c:	c9058593          	addi	a1,a1,-880 # 800008b8 <__FUNCTION__.2736>
    30000c30:	50000517          	auipc	a0,0x50000
    30000c34:	b2850513          	addi	a0,a0,-1240 # 80000758 <_uart_ops+0x118>
    30000c38:	6e5000ef          	jal	ra,30001b1c <rt_kprintf>
    30000c3c:	35a00613          	li	a2,858
    30000c40:	50000597          	auipc	a1,0x50000
    30000c44:	c7858593          	addi	a1,a1,-904 # 800008b8 <__FUNCTION__.2736>
    30000c48:	50000517          	auipc	a0,0x50000
    30000c4c:	a6850513          	addi	a0,a0,-1432 # 800006b0 <_uart_ops+0x70>
    30000c50:	048010ef          	jal	ra,30001c98 <rt_assert_handler>
    30000c54:	00090513          	mv	a0,s2
    30000c58:	091040ef          	jal	ra,300054e8 <rt_hw_interrupt_enable>
    30000c5c:	00048513          	mv	a0,s1
    30000c60:	089040ef          	jal	ra,300054e8 <rt_hw_interrupt_enable>
    30000c64:	03c020ef          	jal	ra,30002ca0 <rt_thread_self>
    30000c68:	00050913          	mv	s2,a0
    30000c6c:	075040ef          	jal	ra,300054e0 <rt_hw_interrupt_disable>
    30000c70:	8b01b783          	ld	a5,-1872(gp) # 80004278 <rt_object_put_hook>
    30000c74:	00050493          	mv	s1,a0
    30000c78:	00078663          	beqz	a5,30000c84 <rt_mutex_release+0x104>
    30000c7c:	00040513          	mv	a0,s0
    30000c80:	000780e7          	jalr	a5
    30000c84:	04043783          	ld	a5,64(s0)
    30000c88:	03278863          	beq	a5,s2,30000cb8 <rt_mutex_release+0x138>
    30000c8c:	fff00793          	li	a5,-1
    30000c90:	00048513          	mv	a0,s1
    30000c94:	06f93023          	sd	a5,96(s2)
    30000c98:	051040ef          	jal	ra,300054e8 <rt_hw_interrupt_enable>
    30000c9c:	fff00513          	li	a0,-1
    30000ca0:	02813083          	ld	ra,40(sp)
    30000ca4:	02013403          	ld	s0,32(sp)
    30000ca8:	01813483          	ld	s1,24(sp)
    30000cac:	01013903          	ld	s2,16(sp)
    30000cb0:	03010113          	addi	sp,sp,48
    30000cb4:	00008067          	ret
    30000cb8:	03b44783          	lbu	a5,59(s0)
    30000cbc:	fff7879b          	addiw	a5,a5,-1
    30000cc0:	0ff7f793          	zext.b	a5,a5
    30000cc4:	02f40da3          	sb	a5,59(s0)
    30000cc8:	08079e63          	bnez	a5,30000d64 <rt_mutex_release+0x1e4>
    30000ccc:	03a44703          	lbu	a4,58(s0)
    30000cd0:	06994783          	lbu	a5,105(s2)
    30000cd4:	00f70a63          	beq	a4,a5,30000ce8 <rt_mutex_release+0x168>
    30000cd8:	03a40613          	addi	a2,s0,58
    30000cdc:	00200593          	li	a1,2
    30000ce0:	00090513          	mv	a0,s2
    30000ce4:	5c0020ef          	jal	ra,300032a4 <rt_thread_control>
    30000ce8:	02843503          	ld	a0,40(s0)
    30000cec:	02840793          	addi	a5,s0,40
    30000cf0:	04f50863          	beq	a0,a5,30000d40 <rt_mutex_release+0x1c0>
    30000cf4:	fd850793          	addi	a5,a0,-40
    30000cf8:	04f43023          	sd	a5,64(s0)
    30000cfc:	04154783          	lbu	a5,65(a0)
    30000d00:	0ff00713          	li	a4,255
    30000d04:	02f40d23          	sb	a5,58(s0)
    30000d08:	03b44783          	lbu	a5,59(s0)
    30000d0c:	06e78063          	beq	a5,a4,30000d6c <rt_mutex_release+0x1ec>
    30000d10:	0017879b          	addiw	a5,a5,1
    30000d14:	02f40da3          	sb	a5,59(s0)
    30000d18:	fa4ff0ef          	jal	ra,300004bc <rt_ipc_list_resume.isra.0>
    30000d1c:	00100413          	li	s0,1
    30000d20:	00048513          	mv	a0,s1
    30000d24:	7c4040ef          	jal	ra,300054e8 <rt_hw_interrupt_enable>
    30000d28:	00000513          	li	a0,0
    30000d2c:	f6040ae3          	beqz	s0,30000ca0 <rt_mutex_release+0x120>
    30000d30:	00a13423          	sd	a0,8(sp)
    30000d34:	20d010ef          	jal	ra,30002740 <rt_schedule>
    30000d38:	00813503          	ld	a0,8(sp)
    30000d3c:	f65ff06f          	j	30000ca0 <rt_mutex_release+0x120>
    30000d40:	03845783          	lhu	a5,56(s0)
    30000d44:	00010737          	lui	a4,0x10
    30000d48:	fff70713          	addi	a4,a4,-1 # ffff <__stack_size+0xf7ff>
    30000d4c:	02e78063          	beq	a5,a4,30000d6c <rt_mutex_release+0x1ec>
    30000d50:	0017879b          	addiw	a5,a5,1
    30000d54:	02f41c23          	sh	a5,56(s0)
    30000d58:	fff00793          	li	a5,-1
    30000d5c:	04043023          	sd	zero,64(s0)
    30000d60:	02f40d23          	sb	a5,58(s0)
    30000d64:	00000413          	li	s0,0
    30000d68:	fb9ff06f          	j	30000d20 <rt_mutex_release+0x1a0>
    30000d6c:	00048513          	mv	a0,s1
    30000d70:	778040ef          	jal	ra,300054e8 <rt_hw_interrupt_enable>
    30000d74:	ffd00513          	li	a0,-3
    30000d78:	f29ff06f          	j	30000ca0 <rt_mutex_release+0x120>

0000000030000d7c <rt_tick_get>:
    30000d7c:	8101a503          	lw	a0,-2032(gp) # 800041d8 <rt_tick>
    30000d80:	00008067          	ret

0000000030000d84 <rt_tick_increase>:
    30000d84:	ff010113          	addi	sp,sp,-16
    30000d88:	00113423          	sd	ra,8(sp)
    30000d8c:	00813023          	sd	s0,0(sp)
    30000d90:	750040ef          	jal	ra,300054e0 <rt_hw_interrupt_disable>
    30000d94:	8101a783          	lw	a5,-2032(gp) # 800041d8 <rt_tick>
    30000d98:	0017879b          	addiw	a5,a5,1
    30000d9c:	80f1a823          	sw	a5,-2032(gp) # 800041d8 <rt_tick>
    30000da0:	00050413          	mv	s0,a0
    30000da4:	6fd010ef          	jal	ra,30002ca0 <rt_thread_self>
    30000da8:	08053783          	ld	a5,128(a0)
    30000dac:	fff78793          	addi	a5,a5,-1
    30000db0:	08f53023          	sd	a5,128(a0)
    30000db4:	02079a63          	bnez	a5,30000de8 <rt_tick_increase+0x64>
    30000db8:	07853783          	ld	a5,120(a0)
    30000dbc:	08f53023          	sd	a5,128(a0)
    30000dc0:	06854783          	lbu	a5,104(a0)
    30000dc4:	0087e793          	ori	a5,a5,8
    30000dc8:	06f50423          	sb	a5,104(a0)
    30000dcc:	00040513          	mv	a0,s0
    30000dd0:	718040ef          	jal	ra,300054e8 <rt_hw_interrupt_enable>
    30000dd4:	16d010ef          	jal	ra,30002740 <rt_schedule>
    30000dd8:	00013403          	ld	s0,0(sp)
    30000ddc:	00813083          	ld	ra,8(sp)
    30000de0:	01010113          	addi	sp,sp,16
    30000de4:	2d10206f          	j	300038b4 <rt_timer_check>
    30000de8:	00040513          	mv	a0,s0
    30000dec:	6fc040ef          	jal	ra,300054e8 <rt_hw_interrupt_enable>
    30000df0:	fe9ff06f          	j	30000dd8 <rt_tick_increase+0x54>

0000000030000df4 <rt_tick_from_millisecond>:
    30000df4:	02054663          	bltz	a0,30000e20 <rt_tick_from_millisecond+0x2c>
    30000df8:	3e800713          	li	a4,1000
    30000dfc:	02e547bb          	divw	a5,a0,a4
    30000e00:	06400693          	li	a3,100
    30000e04:	02e5653b          	remw	a0,a0,a4
    30000e08:	02d5053b          	mulw	a0,a0,a3
    30000e0c:	3e75051b          	addiw	a0,a0,999
    30000e10:	02e5453b          	divw	a0,a0,a4
    30000e14:	02d787bb          	mulw	a5,a5,a3
    30000e18:	00f5053b          	addw	a0,a0,a5
    30000e1c:	00008067          	ret
    30000e20:	fff00513          	li	a0,-1
    30000e24:	00008067          	ret

0000000030000e28 <rt_interrupt_enter>:
    30000e28:	fe010113          	addi	sp,sp,-32
    30000e2c:	00113c23          	sd	ra,24(sp)
    30000e30:	6b0040ef          	jal	ra,300054e0 <rt_hw_interrupt_disable>
    30000e34:	8281c783          	lbu	a5,-2008(gp) # 800041f0 <rt_interrupt_nest>
    30000e38:	0017879b          	addiw	a5,a5,1
    30000e3c:	82f18423          	sb	a5,-2008(gp) # 800041f0 <rt_interrupt_nest>
    30000e40:	8181b783          	ld	a5,-2024(gp) # 800041e0 <rt_interrupt_enter_hook>
    30000e44:	00078863          	beqz	a5,30000e54 <rt_interrupt_enter+0x2c>
    30000e48:	00a13423          	sd	a0,8(sp)
    30000e4c:	000780e7          	jalr	a5
    30000e50:	00813503          	ld	a0,8(sp)
    30000e54:	01813083          	ld	ra,24(sp)
    30000e58:	02010113          	addi	sp,sp,32
    30000e5c:	68c0406f          	j	300054e8 <rt_hw_interrupt_enable>

0000000030000e60 <rt_interrupt_leave>:
    30000e60:	fe010113          	addi	sp,sp,-32
    30000e64:	00113c23          	sd	ra,24(sp)
    30000e68:	678040ef          	jal	ra,300054e0 <rt_hw_interrupt_disable>
    30000e6c:	8201b783          	ld	a5,-2016(gp) # 800041e8 <rt_interrupt_leave_hook>
    30000e70:	00078863          	beqz	a5,30000e80 <rt_interrupt_leave+0x20>
    30000e74:	00a13423          	sd	a0,8(sp)
    30000e78:	000780e7          	jalr	a5
    30000e7c:	00813503          	ld	a0,8(sp)
    30000e80:	8281c783          	lbu	a5,-2008(gp) # 800041f0 <rt_interrupt_nest>
    30000e84:	01813083          	ld	ra,24(sp)
    30000e88:	fff7879b          	addiw	a5,a5,-1
    30000e8c:	82f18423          	sb	a5,-2008(gp) # 800041f0 <rt_interrupt_nest>
    30000e90:	02010113          	addi	sp,sp,32
    30000e94:	6540406f          	j	300054e8 <rt_hw_interrupt_enable>

0000000030000e98 <rt_interrupt_get_nest>:
    30000e98:	ff010113          	addi	sp,sp,-16
    30000e9c:	00113423          	sd	ra,8(sp)
    30000ea0:	00813023          	sd	s0,0(sp)
    30000ea4:	63c040ef          	jal	ra,300054e0 <rt_hw_interrupt_disable>
    30000ea8:	8281c403          	lbu	s0,-2008(gp) # 800041f0 <rt_interrupt_nest>
    30000eac:	63c040ef          	jal	ra,300054e8 <rt_hw_interrupt_enable>
    30000eb0:	00813083          	ld	ra,8(sp)
    30000eb4:	00040513          	mv	a0,s0
    30000eb8:	00013403          	ld	s0,0(sp)
    30000ebc:	01010113          	addi	sp,sp,16
    30000ec0:	00008067          	ret

0000000030000ec4 <print_number>:
    30000ec4:	04087893          	andi	a7,a6,64
    30000ec8:	ff010113          	addi	sp,sp,-16
    30000ecc:	50000f97          	auipc	t6,0x50000
    30000ed0:	c4cf8f93          	addi	t6,t6,-948 # 80000b18 <small_digits.2783>
    30000ed4:	00088663          	beqz	a7,30000ee0 <print_number+0x1c>
    30000ed8:	50000f97          	auipc	t6,0x50000
    30000edc:	c28f8f93          	addi	t6,t6,-984 # 80000b00 <large_digits.2784>
    30000ee0:	01087893          	andi	a7,a6,16
    30000ee4:	0008829b          	sext.w	t0,a7
    30000ee8:	04088c63          	beqz	a7,30000f40 <print_number+0x7c>
    30000eec:	ffe87813          	andi	a6,a6,-2
    30000ef0:	02000e93          	li	t4,32
    30000ef4:	00287893          	andi	a7,a6,2
    30000ef8:	10088463          	beqz	a7,30001000 <print_number+0x13c>
    30000efc:	04065c63          	bgez	a2,30000f54 <print_number+0x90>
    30000f00:	40c00633          	neg	a2,a2
    30000f04:	02d00313          	li	t1,45
    30000f08:	00010f13          	mv	t5,sp
    30000f0c:	00000893          	li	a7,0
    30000f10:	00a00393          	li	t2,10
    30000f14:	0e769a63          	bne	a3,t2,30001008 <print_number+0x144>
    30000f18:	02d67e33          	remu	t3,a2,a3
    30000f1c:	02d65633          	divu	a2,a2,a3
    30000f20:	000e0e1b          	sext.w	t3,t3
    30000f24:	01cf8e33          	add	t3,t6,t3
    30000f28:	000e4e03          	lbu	t3,0(t3)
    30000f2c:	0018889b          	addiw	a7,a7,1
    30000f30:	001f0f13          	addi	t5,t5,1
    30000f34:	ffcf0fa3          	sb	t3,-1(t5)
    30000f38:	fc061ee3          	bnez	a2,30000f14 <print_number+0x50>
    30000f3c:	0400006f          	j	30000f7c <print_number+0xb8>
    30000f40:	00187893          	andi	a7,a6,1
    30000f44:	02000e93          	li	t4,32
    30000f48:	fa0886e3          	beqz	a7,30000ef4 <print_number+0x30>
    30000f4c:	03000e93          	li	t4,48
    30000f50:	fa5ff06f          	j	30000ef4 <print_number+0x30>
    30000f54:	00487893          	andi	a7,a6,4
    30000f58:	02b00313          	li	t1,43
    30000f5c:	00089863          	bnez	a7,30000f6c <print_number+0xa8>
    30000f60:	00887313          	andi	t1,a6,8
    30000f64:	00603333          	snez	t1,t1
    30000f68:	00531313          	slli	t1,t1,0x5
    30000f6c:	f8061ee3          	bnez	a2,30000f08 <print_number+0x44>
    30000f70:	03000693          	li	a3,48
    30000f74:	00d10023          	sb	a3,0(sp)
    30000f78:	00100893          	li	a7,1
    30000f7c:	00088693          	mv	a3,a7
    30000f80:	00f8d463          	bge	a7,a5,30000f88 <print_number+0xc4>
    30000f84:	00078693          	mv	a3,a5
    30000f88:	01187813          	andi	a6,a6,17
    30000f8c:	00068e1b          	sext.w	t3,a3
    30000f90:	40d706bb          	subw	a3,a4,a3
    30000f94:	04081063          	bnez	a6,30000fd4 <print_number+0x110>
    30000f98:	00030663          	beqz	t1,30000fa4 <print_number+0xe0>
    30000f9c:	00d05463          	blez	a3,30000fa4 <print_number+0xe0>
    30000fa0:	fff6869b          	addiw	a3,a3,-1
    30000fa4:	00050713          	mv	a4,a0
    30000fa8:	00a6883b          	addw	a6,a3,a0
    30000fac:	02000f13          	li	t5,32
    30000fb0:	40e8063b          	subw	a2,a6,a4
    30000fb4:	06c04063          	bgtz	a2,30001014 <print_number+0x150>
    30000fb8:	00068713          	mv	a4,a3
    30000fbc:	0006d463          	bgez	a3,30000fc4 <print_number+0x100>
    30000fc0:	00000713          	li	a4,0
    30000fc4:	0007061b          	sext.w	a2,a4
    30000fc8:	fff6869b          	addiw	a3,a3,-1
    30000fcc:	00c50533          	add	a0,a0,a2
    30000fd0:	40e686bb          	subw	a3,a3,a4
    30000fd4:	00030a63          	beqz	t1,30000fe8 <print_number+0x124>
    30000fd8:	00b57463          	bgeu	a0,a1,30000fe0 <print_number+0x11c>
    30000fdc:	00650023          	sb	t1,0(a0)
    30000fe0:	fff6869b          	addiw	a3,a3,-1
    30000fe4:	00150513          	addi	a0,a0,1
    30000fe8:	06028863          	beqz	t0,30001058 <print_number+0x194>
    30000fec:	00050713          	mv	a4,a0
    30000ff0:	000e061b          	sext.w	a2,t3
    30000ff4:	01c5033b          	addw	t1,a0,t3
    30000ff8:	03000e93          	li	t4,48
    30000ffc:	0740006f          	j	30001070 <print_number+0x1ac>
    30001000:	00000313          	li	t1,0
    30001004:	f69ff06f          	j	30000f6c <print_number+0xa8>
    30001008:	00f67e13          	andi	t3,a2,15
    3000100c:	00465613          	srli	a2,a2,0x4
    30001010:	f15ff06f          	j	30000f24 <print_number+0x60>
    30001014:	00b77463          	bgeu	a4,a1,3000101c <print_number+0x158>
    30001018:	01e70023          	sb	t5,0(a4)
    3000101c:	00170713          	addi	a4,a4,1
    30001020:	f91ff06f          	j	30000fb0 <print_number+0xec>
    30001024:	00b77463          	bgeu	a4,a1,3000102c <print_number+0x168>
    30001028:	01d70023          	sb	t4,0(a4)
    3000102c:	00170713          	addi	a4,a4,1
    30001030:	40e8063b          	subw	a2,a6,a4
    30001034:	fec048e3          	bgtz	a2,30001024 <print_number+0x160>
    30001038:	00068713          	mv	a4,a3
    3000103c:	0006d463          	bgez	a3,30001044 <print_number+0x180>
    30001040:	00000713          	li	a4,0
    30001044:	0007061b          	sext.w	a2,a4
    30001048:	fff6869b          	addiw	a3,a3,-1
    3000104c:	00c50533          	add	a0,a0,a2
    30001050:	40e686bb          	subw	a3,a3,a4
    30001054:	f99ff06f          	j	30000fec <print_number+0x128>
    30001058:	00050713          	mv	a4,a0
    3000105c:	00d5083b          	addw	a6,a0,a3
    30001060:	fd1ff06f          	j	30001030 <print_number+0x16c>
    30001064:	00b77463          	bgeu	a4,a1,3000106c <print_number+0x1a8>
    30001068:	01d70023          	sb	t4,0(a4)
    3000106c:	00170713          	addi	a4,a4,1
    30001070:	40e3083b          	subw	a6,t1,a4
    30001074:	ff08c8e3          	blt	a7,a6,30001064 <print_number+0x1a0>
    30001078:	00000713          	li	a4,0
    3000107c:	011e4863          	blt	t3,a7,3000108c <print_number+0x1c8>
    30001080:	4116073b          	subw	a4,a2,a7
    30001084:	02071713          	slli	a4,a4,0x20
    30001088:	02075713          	srli	a4,a4,0x20
    3000108c:	00e50533          	add	a0,a0,a4
    30001090:	0008871b          	sext.w	a4,a7
    30001094:	00e05463          	blez	a4,3000109c <print_number+0x1d8>
    30001098:	00079a63          	bnez	a5,300010ac <print_number+0x1e8>
    3000109c:	00050793          	mv	a5,a0
    300010a0:	00a6863b          	addw	a2,a3,a0
    300010a4:	02000813          	li	a6,32
    300010a8:	02c0006f          	j	300010d4 <print_number+0x210>
    300010ac:	00b57863          	bgeu	a0,a1,300010bc <print_number+0x1f8>
    300010b0:	01110733          	add	a4,sp,a7
    300010b4:	fff74703          	lbu	a4,-1(a4)
    300010b8:	00e50023          	sb	a4,0(a0)
    300010bc:	00150513          	addi	a0,a0,1
    300010c0:	fff88893          	addi	a7,a7,-1
    300010c4:	fcdff06f          	j	30001090 <print_number+0x1cc>
    300010c8:	00b7f463          	bgeu	a5,a1,300010d0 <print_number+0x20c>
    300010cc:	01078023          	sb	a6,0(a5)
    300010d0:	00178793          	addi	a5,a5,1
    300010d4:	40f6073b          	subw	a4,a2,a5
    300010d8:	fee048e3          	bgtz	a4,300010c8 <print_number+0x204>
    300010dc:	0006879b          	sext.w	a5,a3
    300010e0:	0006d463          	bgez	a3,300010e8 <print_number+0x224>
    300010e4:	00000793          	li	a5,0
    300010e8:	00f50533          	add	a0,a0,a5
    300010ec:	01010113          	addi	sp,sp,16
    300010f0:	00008067          	ret

00000000300010f4 <rt_set_errno>:
    300010f4:	ff010113          	addi	sp,sp,-16
    300010f8:	00813023          	sd	s0,0(sp)
    300010fc:	00113423          	sd	ra,8(sp)
    30001100:	00050413          	mv	s0,a0
    30001104:	d95ff0ef          	jal	ra,30000e98 <rt_interrupt_get_nest>
    30001108:	00050c63          	beqz	a0,30001120 <rt_set_errno+0x2c>
    3000110c:	8281a623          	sw	s0,-2004(gp) # 800041f4 <__rt_errno>
    30001110:	00813083          	ld	ra,8(sp)
    30001114:	00013403          	ld	s0,0(sp)
    30001118:	01010113          	addi	sp,sp,16
    3000111c:	00008067          	ret
    30001120:	381010ef          	jal	ra,30002ca0 <rt_thread_self>
    30001124:	fe0504e3          	beqz	a0,3000110c <rt_set_errno+0x18>
    30001128:	06853023          	sd	s0,96(a0)
    3000112c:	fe5ff06f          	j	30001110 <rt_set_errno+0x1c>

0000000030001130 <rt_memset>:
    30001130:	00700713          	li	a4,7
    30001134:	00050793          	mv	a5,a0
    30001138:	00c77663          	bgeu	a4,a2,30001144 <rt_memset+0x14>
    3000113c:	00757713          	andi	a4,a0,7
    30001140:	00070863          	beqz	a4,30001150 <rt_memset+0x20>
    30001144:	00c78633          	add	a2,a5,a2
    30001148:	0ac79063          	bne	a5,a2,300011e8 <rt_memset+0xb8>
    3000114c:	00008067          	ret
    30001150:	00800793          	li	a5,8
    30001154:	0ff5f693          	zext.b	a3,a1
    30001158:	00871713          	slli	a4,a4,0x8
    3000115c:	fff7879b          	addiw	a5,a5,-1
    30001160:	00e6e733          	or	a4,a3,a4
    30001164:	fe079ae3          	bnez	a5,30001158 <rt_memset+0x28>
    30001168:	00050793          	mv	a5,a0
    3000116c:	00c508b3          	add	a7,a0,a2
    30001170:	01f00693          	li	a3,31
    30001174:	40f88833          	sub	a6,a7,a5
    30001178:	0506e663          	bltu	a3,a6,300011c4 <rt_memset+0x94>
    3000117c:	00565793          	srli	a5,a2,0x5
    30001180:	fe000693          	li	a3,-32
    30001184:	02d786b3          	mul	a3,a5,a3
    30001188:	00579793          	slli	a5,a5,0x5
    3000118c:	00f507b3          	add	a5,a0,a5
    30001190:	00700813          	li	a6,7
    30001194:	00c68633          	add	a2,a3,a2
    30001198:	00c78333          	add	t1,a5,a2
    3000119c:	00078693          	mv	a3,a5
    300011a0:	40d308b3          	sub	a7,t1,a3
    300011a4:	03186c63          	bltu	a6,a7,300011dc <rt_memset+0xac>
    300011a8:	00365713          	srli	a4,a2,0x3
    300011ac:	ff800693          	li	a3,-8
    300011b0:	02d706b3          	mul	a3,a4,a3
    300011b4:	00371713          	slli	a4,a4,0x3
    300011b8:	00e787b3          	add	a5,a5,a4
    300011bc:	00c68633          	add	a2,a3,a2
    300011c0:	f85ff06f          	j	30001144 <rt_memset+0x14>
    300011c4:	00e7b023          	sd	a4,0(a5)
    300011c8:	00e7b423          	sd	a4,8(a5)
    300011cc:	00e7b823          	sd	a4,16(a5)
    300011d0:	00e7bc23          	sd	a4,24(a5)
    300011d4:	02078793          	addi	a5,a5,32
    300011d8:	f9dff06f          	j	30001174 <rt_memset+0x44>
    300011dc:	00868693          	addi	a3,a3,8
    300011e0:	fee6bc23          	sd	a4,-8(a3)
    300011e4:	fbdff06f          	j	300011a0 <rt_memset+0x70>
    300011e8:	00178793          	addi	a5,a5,1
    300011ec:	feb78fa3          	sb	a1,-1(a5)
    300011f0:	f59ff06f          	j	30001148 <rt_memset+0x18>

00000000300011f4 <rt_memcpy>:
    300011f4:	0006079b          	sext.w	a5,a2
    300011f8:	01f00693          	li	a3,31
    300011fc:	00050713          	mv	a4,a0
    30001200:	00f6fa63          	bgeu	a3,a5,30001214 <rt_memcpy+0x20>
    30001204:	00a5e733          	or	a4,a1,a0
    30001208:	00777713          	andi	a4,a4,7
    3000120c:	08070e63          	beqz	a4,300012a8 <rt_memcpy+0xb4>
    30001210:	00050713          	mv	a4,a0
    30001214:	00000693          	li	a3,0
    30001218:	0006861b          	sext.w	a2,a3
    3000121c:	0af61c63          	bne	a2,a5,300012d4 <rt_memcpy+0xe0>
    30001220:	00008067          	ret
    30001224:	0006b303          	ld	t1,0(a3)
    30001228:	02068693          	addi	a3,a3,32
    3000122c:	02080813          	addi	a6,a6,32
    30001230:	fe683023          	sd	t1,-32(a6)
    30001234:	fe86b303          	ld	t1,-24(a3)
    30001238:	fe683423          	sd	t1,-24(a6)
    3000123c:	ff06b303          	ld	t1,-16(a3)
    30001240:	fe683823          	sd	t1,-16(a6)
    30001244:	ff86b303          	ld	t1,-8(a3)
    30001248:	fe683c23          	sd	t1,-8(a6)
    3000124c:	40de033b          	subw	t1,t3,a3
    30001250:	fc68eae3          	bltu	a7,t1,30001224 <rt_memcpy+0x30>
    30001254:	0057d81b          	srliw	a6,a5,0x5
    30001258:	0057d79b          	srliw	a5,a5,0x5
    3000125c:	00579793          	slli	a5,a5,0x5
    30001260:	00f506b3          	add	a3,a0,a5
    30001264:	00f585b3          	add	a1,a1,a5
    30001268:	fe000793          	li	a5,-32
    3000126c:	030787bb          	mulw	a5,a5,a6
    30001270:	00c7863b          	addw	a2,a5,a2
    30001274:	0006089b          	sext.w	a7,a2
    30001278:	00700793          	li	a5,7
    3000127c:	40e8883b          	subw	a6,a7,a4
    30001280:	0307ce63          	blt	a5,a6,300012bc <rt_memcpy+0xc8>
    30001284:	0036589b          	srliw	a7,a2,0x3
    30001288:	ff800793          	li	a5,-8
    3000128c:	031787bb          	mulw	a5,a5,a7
    30001290:	0036581b          	srliw	a6,a2,0x3
    30001294:	00381813          	slli	a6,a6,0x3
    30001298:	01068733          	add	a4,a3,a6
    3000129c:	010585b3          	add	a1,a1,a6
    300012a0:	00c787bb          	addw	a5,a5,a2
    300012a4:	f71ff06f          	j	30001214 <rt_memcpy+0x20>
    300012a8:	00058693          	mv	a3,a1
    300012ac:	00050813          	mv	a6,a0
    300012b0:	00f58e3b          	addw	t3,a1,a5
    300012b4:	01f00893          	li	a7,31
    300012b8:	f95ff06f          	j	3000124c <rt_memcpy+0x58>
    300012bc:	00e58833          	add	a6,a1,a4
    300012c0:	00083303          	ld	t1,0(a6)
    300012c4:	00e68833          	add	a6,a3,a4
    300012c8:	00870713          	addi	a4,a4,8
    300012cc:	00683023          	sd	t1,0(a6)
    300012d0:	fadff06f          	j	3000127c <rt_memcpy+0x88>
    300012d4:	00d58633          	add	a2,a1,a3
    300012d8:	00064803          	lbu	a6,0(a2)
    300012dc:	00d70633          	add	a2,a4,a3
    300012e0:	00168693          	addi	a3,a3,1
    300012e4:	01060023          	sb	a6,0(a2)
    300012e8:	f31ff06f          	j	30001218 <rt_memcpy+0x24>

00000000300012ec <rt_memmove>:
    300012ec:	04a5fa63          	bgeu	a1,a0,30001340 <rt_memmove+0x54>
    300012f0:	00c586b3          	add	a3,a1,a2
    300012f4:	04d57663          	bgeu	a0,a3,30001340 <rt_memmove+0x54>
    300012f8:	fff64593          	not	a1,a2
    300012fc:	00000793          	li	a5,0
    30001300:	fff78793          	addi	a5,a5,-1
    30001304:	00f59463          	bne	a1,a5,3000130c <rt_memmove+0x20>
    30001308:	00008067          	ret
    3000130c:	00f68733          	add	a4,a3,a5
    30001310:	00074803          	lbu	a6,0(a4)
    30001314:	00f60733          	add	a4,a2,a5
    30001318:	00e50733          	add	a4,a0,a4
    3000131c:	01070023          	sb	a6,0(a4)
    30001320:	fe1ff06f          	j	30001300 <rt_memmove+0x14>
    30001324:	00f58733          	add	a4,a1,a5
    30001328:	00074683          	lbu	a3,0(a4)
    3000132c:	00f50733          	add	a4,a0,a5
    30001330:	00178793          	addi	a5,a5,1
    30001334:	00d70023          	sb	a3,0(a4)
    30001338:	fef616e3          	bne	a2,a5,30001324 <rt_memmove+0x38>
    3000133c:	00008067          	ret
    30001340:	00000793          	li	a5,0
    30001344:	ff5ff06f          	j	30001338 <rt_memmove+0x4c>

0000000030001348 <rt_memcmp>:
    30001348:	00050693          	mv	a3,a0
    3000134c:	00000713          	li	a4,0
    30001350:	00e61663          	bne	a2,a4,3000135c <rt_memcmp+0x14>
    30001354:	00000513          	li	a0,0
    30001358:	0200006f          	j	30001378 <rt_memcmp+0x30>
    3000135c:	00e687b3          	add	a5,a3,a4
    30001360:	00e58533          	add	a0,a1,a4
    30001364:	0007c783          	lbu	a5,0(a5)
    30001368:	00054503          	lbu	a0,0(a0)
    3000136c:	00170713          	addi	a4,a4,1
    30001370:	40a7853b          	subw	a0,a5,a0
    30001374:	fc050ee3          	beqz	a0,30001350 <rt_memcmp+0x8>
    30001378:	00008067          	ret

000000003000137c <rt_strncpy>:
    3000137c:	04060063          	beqz	a2,300013bc <rt_strncpy+0x40>
    30001380:	00050793          	mv	a5,a0
    30001384:	0005c683          	lbu	a3,0(a1)
    30001388:	00158593          	addi	a1,a1,1
    3000138c:	00178793          	addi	a5,a5,1
    30001390:	fed78fa3          	sb	a3,-1(a5)
    30001394:	00060713          	mv	a4,a2
    30001398:	fff60613          	addi	a2,a2,-1
    3000139c:	00069e63          	bnez	a3,300013b8 <rt_strncpy+0x3c>
    300013a0:	00e78733          	add	a4,a5,a4
    300013a4:	00178793          	addi	a5,a5,1
    300013a8:	00e79463          	bne	a5,a4,300013b0 <rt_strncpy+0x34>
    300013ac:	00008067          	ret
    300013b0:	fe078fa3          	sb	zero,-1(a5)
    300013b4:	ff1ff06f          	j	300013a4 <rt_strncpy+0x28>
    300013b8:	fc0616e3          	bnez	a2,30001384 <rt_strncpy+0x8>
    300013bc:	00008067          	ret

00000000300013c0 <rt_strncmp>:
    300013c0:	00050693          	mv	a3,a0
    300013c4:	00000713          	li	a4,0
    300013c8:	00e61663          	bne	a2,a4,300013d4 <rt_strncmp+0x14>
    300013cc:	00000513          	li	a0,0
    300013d0:	02c0006f          	j	300013fc <rt_strncmp+0x3c>
    300013d4:	00e687b3          	add	a5,a3,a4
    300013d8:	0007c803          	lbu	a6,0(a5)
    300013dc:	00e587b3          	add	a5,a1,a4
    300013e0:	0007c783          	lbu	a5,0(a5)
    300013e4:	40f807bb          	subw	a5,a6,a5
    300013e8:	0187951b          	slliw	a0,a5,0x18
    300013ec:	4185551b          	sraiw	a0,a0,0x18
    300013f0:	00051663          	bnez	a0,300013fc <rt_strncmp+0x3c>
    300013f4:	00170713          	addi	a4,a4,1
    300013f8:	fc0818e3          	bnez	a6,300013c8 <rt_strncmp+0x8>
    300013fc:	00008067          	ret

0000000030001400 <rt_strcmp>:
    30001400:	00054783          	lbu	a5,0(a0)
    30001404:	0005c703          	lbu	a4,0(a1)
    30001408:	00078463          	beqz	a5,30001410 <rt_strcmp+0x10>
    3000140c:	00e78663          	beq	a5,a4,30001418 <rt_strcmp+0x18>
    30001410:	40e7853b          	subw	a0,a5,a4
    30001414:	00008067          	ret
    30001418:	00150513          	addi	a0,a0,1
    3000141c:	00158593          	addi	a1,a1,1
    30001420:	fe1ff06f          	j	30001400 <rt_strcmp>

0000000030001424 <rt_strlen>:
    30001424:	00050793          	mv	a5,a0
    30001428:	0007c703          	lbu	a4,0(a5)
    3000142c:	00071663          	bnez	a4,30001438 <rt_strlen+0x14>
    30001430:	40a78533          	sub	a0,a5,a0
    30001434:	00008067          	ret
    30001438:	00178793          	addi	a5,a5,1
    3000143c:	fedff06f          	j	30001428 <rt_strlen+0x4>

0000000030001440 <rt_strstr>:
    30001440:	fd010113          	addi	sp,sp,-48
    30001444:	02813023          	sd	s0,32(sp)
    30001448:	00050413          	mv	s0,a0
    3000144c:	00058513          	mv	a0,a1
    30001450:	00913c23          	sd	s1,24(sp)
    30001454:	01213823          	sd	s2,16(sp)
    30001458:	02113423          	sd	ra,40(sp)
    3000145c:	01313423          	sd	s3,8(sp)
    30001460:	00058913          	mv	s2,a1
    30001464:	fc1ff0ef          	jal	ra,30001424 <rt_strlen>
    30001468:	0005049b          	sext.w	s1,a0
    3000146c:	00048e63          	beqz	s1,30001488 <rt_strstr+0x48>
    30001470:	00040513          	mv	a0,s0
    30001474:	fb1ff0ef          	jal	ra,30001424 <rt_strlen>
    30001478:	008509bb          	addw	s3,a0,s0
    3000147c:	408987bb          	subw	a5,s3,s0
    30001480:	0297d463          	bge	a5,s1,300014a8 <rt_strstr+0x68>
    30001484:	00000413          	li	s0,0
    30001488:	02813083          	ld	ra,40(sp)
    3000148c:	00040513          	mv	a0,s0
    30001490:	02013403          	ld	s0,32(sp)
    30001494:	01813483          	ld	s1,24(sp)
    30001498:	01013903          	ld	s2,16(sp)
    3000149c:	00813983          	ld	s3,8(sp)
    300014a0:	03010113          	addi	sp,sp,48
    300014a4:	00008067          	ret
    300014a8:	00048613          	mv	a2,s1
    300014ac:	00090593          	mv	a1,s2
    300014b0:	00040513          	mv	a0,s0
    300014b4:	e95ff0ef          	jal	ra,30001348 <rt_memcmp>
    300014b8:	fc0508e3          	beqz	a0,30001488 <rt_strstr+0x48>
    300014bc:	00140413          	addi	s0,s0,1
    300014c0:	fbdff06f          	j	3000147c <rt_strstr+0x3c>

00000000300014c4 <rt_strdup>:
    300014c4:	fe010113          	addi	sp,sp,-32
    300014c8:	00113c23          	sd	ra,24(sp)
    300014cc:	00813823          	sd	s0,16(sp)
    300014d0:	00a13423          	sd	a0,8(sp)
    300014d4:	f51ff0ef          	jal	ra,30001424 <rt_strlen>
    300014d8:	00150613          	addi	a2,a0,1
    300014dc:	00060513          	mv	a0,a2
    300014e0:	00c13023          	sd	a2,0(sp)
    300014e4:	1e0030ef          	jal	ra,300046c4 <rt_malloc>
    300014e8:	00050413          	mv	s0,a0
    300014ec:	00050863          	beqz	a0,300014fc <rt_strdup+0x38>
    300014f0:	00013603          	ld	a2,0(sp)
    300014f4:	00813583          	ld	a1,8(sp)
    300014f8:	cfdff0ef          	jal	ra,300011f4 <rt_memcpy>
    300014fc:	01813083          	ld	ra,24(sp)
    30001500:	00040513          	mv	a0,s0
    30001504:	01013403          	ld	s0,16(sp)
    30001508:	02010113          	addi	sp,sp,32
    3000150c:	00008067          	ret

0000000030001510 <rt_vsnprintf>:
    30001510:	fa010113          	addi	sp,sp,-96
    30001514:	04813823          	sd	s0,80(sp)
    30001518:	03613023          	sd	s6,32(sp)
    3000151c:	01713c23          	sd	s7,24(sp)
    30001520:	01813823          	sd	s8,16(sp)
    30001524:	04113c23          	sd	ra,88(sp)
    30001528:	04913423          	sd	s1,72(sp)
    3000152c:	05213023          	sd	s2,64(sp)
    30001530:	03313c23          	sd	s3,56(sp)
    30001534:	03413823          	sd	s4,48(sp)
    30001538:	03513423          	sd	s5,40(sp)
    3000153c:	01913423          	sd	s9,8(sp)
    30001540:	00b50b33          	add	s6,a0,a1
    30001544:	00050b93          	mv	s7,a0
    30001548:	00068413          	mv	s0,a3
    3000154c:	00058c13          	mv	s8,a1
    30001550:	00ab7663          	bgeu	s6,a0,3000155c <rt_vsnprintf+0x4c>
    30001554:	fff54c13          	not	s8,a0
    30001558:	fff00b13          	li	s6,-1
    3000155c:	000104b7          	lui	s1,0x10
    30001560:	000b8513          	mv	a0,s7
    30001564:	02b00913          	li	s2,43
    30001568:	02000993          	li	s3,32
    3000156c:	02300a13          	li	s4,35
    30001570:	fff48493          	addi	s1,s1,-1 # ffff <__stack_size+0xf7ff>
    30001574:	0240006f          	j	30001598 <rt_vsnprintf+0x88>
    30001578:	02500713          	li	a4,37
    3000157c:	06e78463          	beq	a5,a4,300015e4 <rt_vsnprintf+0xd4>
    30001580:	01657463          	bgeu	a0,s6,30001588 <rt_vsnprintf+0x78>
    30001584:	00f50023          	sb	a5,0(a0)
    30001588:	00150713          	addi	a4,a0,1
    3000158c:	00060a93          	mv	s5,a2
    30001590:	001a8613          	addi	a2,s5,1
    30001594:	00070513          	mv	a0,a4
    30001598:	00064783          	lbu	a5,0(a2)
    3000159c:	fc079ee3          	bnez	a5,30001578 <rt_vsnprintf+0x68>
    300015a0:	000c0663          	beqz	s8,300015ac <rt_vsnprintf+0x9c>
    300015a4:	47657e63          	bgeu	a0,s6,30001a20 <rt_vsnprintf+0x510>
    300015a8:	00050023          	sb	zero,0(a0)
    300015ac:	05813083          	ld	ra,88(sp)
    300015b0:	05013403          	ld	s0,80(sp)
    300015b4:	04813483          	ld	s1,72(sp)
    300015b8:	04013903          	ld	s2,64(sp)
    300015bc:	03813983          	ld	s3,56(sp)
    300015c0:	03013a03          	ld	s4,48(sp)
    300015c4:	02813a83          	ld	s5,40(sp)
    300015c8:	02013b03          	ld	s6,32(sp)
    300015cc:	01013c03          	ld	s8,16(sp)
    300015d0:	00813c83          	ld	s9,8(sp)
    300015d4:	4175053b          	subw	a0,a0,s7
    300015d8:	01813b83          	ld	s7,24(sp)
    300015dc:	06010113          	addi	sp,sp,96
    300015e0:	00008067          	ret
    300015e4:	00000813          	li	a6,0
    300015e8:	02d00713          	li	a4,45
    300015ec:	03000693          	li	a3,48
    300015f0:	0100006f          	j	30001600 <rt_vsnprintf+0xf0>
    300015f4:	03279063          	bne	a5,s2,30001614 <rt_vsnprintf+0x104>
    300015f8:	00486813          	ori	a6,a6,4
    300015fc:	000a8613          	mv	a2,s5
    30001600:	00164783          	lbu	a5,1(a2)
    30001604:	00160a93          	addi	s5,a2,1
    30001608:	fee796e3          	bne	a5,a4,300015f4 <rt_vsnprintf+0xe4>
    3000160c:	01086813          	ori	a6,a6,16
    30001610:	fedff06f          	j	300015fc <rt_vsnprintf+0xec>
    30001614:	01379663          	bne	a5,s3,30001620 <rt_vsnprintf+0x110>
    30001618:	00886813          	ori	a6,a6,8
    3000161c:	fe1ff06f          	j	300015fc <rt_vsnprintf+0xec>
    30001620:	01479663          	bne	a5,s4,3000162c <rt_vsnprintf+0x11c>
    30001624:	02086813          	ori	a6,a6,32
    30001628:	fd5ff06f          	j	300015fc <rt_vsnprintf+0xec>
    3000162c:	00d79663          	bne	a5,a3,30001638 <rt_vsnprintf+0x128>
    30001630:	00186813          	ori	a6,a6,1
    30001634:	fc9ff06f          	j	300015fc <rt_vsnprintf+0xec>
    30001638:	fd07871b          	addiw	a4,a5,-48
    3000163c:	00900693          	li	a3,9
    30001640:	06e6e263          	bltu	a3,a4,300016a4 <rt_vsnprintf+0x194>
    30001644:	00000713          	li	a4,0
    30001648:	00900693          	li	a3,9
    3000164c:	00a00593          	li	a1,10
    30001650:	0140006f          	j	30001664 <rt_vsnprintf+0x154>
    30001654:	02e5873b          	mulw	a4,a1,a4
    30001658:	001a8a93          	addi	s5,s5,1
    3000165c:	00f7073b          	addw	a4,a4,a5
    30001660:	fd07071b          	addiw	a4,a4,-48
    30001664:	000ac783          	lbu	a5,0(s5)
    30001668:	fd07861b          	addiw	a2,a5,-48
    3000166c:	fec6f4e3          	bgeu	a3,a2,30001654 <rt_vsnprintf+0x144>
    30001670:	000ac603          	lbu	a2,0(s5)
    30001674:	02e00693          	li	a3,46
    30001678:	fff00793          	li	a5,-1
    3000167c:	06d61e63          	bne	a2,a3,300016f8 <rt_vsnprintf+0x1e8>
    30001680:	001ac783          	lbu	a5,1(s5)
    30001684:	00900693          	li	a3,9
    30001688:	001a8613          	addi	a2,s5,1
    3000168c:	fd07859b          	addiw	a1,a5,-48
    30001690:	0cb6e663          	bltu	a3,a1,3000175c <rt_vsnprintf+0x24c>
    30001694:	00000693          	li	a3,0
    30001698:	00900593          	li	a1,9
    3000169c:	00a00313          	li	t1,10
    300016a0:	03c0006f          	j	300016dc <rt_vsnprintf+0x1cc>
    300016a4:	02a00693          	li	a3,42
    300016a8:	fff00713          	li	a4,-1
    300016ac:	fcd792e3          	bne	a5,a3,30001670 <rt_vsnprintf+0x160>
    300016b0:	00042703          	lw	a4,0(s0)
    300016b4:	00260a93          	addi	s5,a2,2
    300016b8:	00840413          	addi	s0,s0,8
    300016bc:	fa075ae3          	bgez	a4,30001670 <rt_vsnprintf+0x160>
    300016c0:	40e0073b          	negw	a4,a4
    300016c4:	01086813          	ori	a6,a6,16
    300016c8:	fa9ff06f          	j	30001670 <rt_vsnprintf+0x160>
    300016cc:	02d306bb          	mulw	a3,t1,a3
    300016d0:	00160613          	addi	a2,a2,1
    300016d4:	00f686bb          	addw	a3,a3,a5
    300016d8:	fd06869b          	addiw	a3,a3,-48
    300016dc:	00064783          	lbu	a5,0(a2)
    300016e0:	fd07889b          	addiw	a7,a5,-48
    300016e4:	ff15f4e3          	bgeu	a1,a7,300016cc <rt_vsnprintf+0x1bc>
    300016e8:	0006879b          	sext.w	a5,a3
    300016ec:	0006d463          	bgez	a3,300016f4 <rt_vsnprintf+0x1e4>
    300016f0:	00000793          	li	a5,0
    300016f4:	00060a93          	mv	s5,a2
    300016f8:	000ac583          	lbu	a1,0(s5)
    300016fc:	06800693          	li	a3,104
    30001700:	0fb5f613          	andi	a2,a1,251
    30001704:	06d61e63          	bne	a2,a3,30001780 <rt_vsnprintf+0x270>
    30001708:	001a8a93          	addi	s5,s5,1
    3000170c:	000ac683          	lbu	a3,0(s5)
    30001710:	07800613          	li	a2,120
    30001714:	02d66063          	bltu	a2,a3,30001734 <rt_vsnprintf+0x224>
    30001718:	06200613          	li	a2,98
    3000171c:	06d66663          	bltu	a2,a3,30001788 <rt_vsnprintf+0x278>
    30001720:	02500613          	li	a2,37
    30001724:	28c68463          	beq	a3,a2,300019ac <rt_vsnprintf+0x49c>
    30001728:	05800613          	li	a2,88
    3000172c:	04086813          	ori	a6,a6,64
    30001730:	28c68663          	beq	a3,a2,300019bc <rt_vsnprintf+0x4ac>
    30001734:	01657663          	bgeu	a0,s6,30001740 <rt_vsnprintf+0x230>
    30001738:	02500793          	li	a5,37
    3000173c:	00f50023          	sb	a5,0(a0)
    30001740:	000ac783          	lbu	a5,0(s5)
    30001744:	00150713          	addi	a4,a0,1
    30001748:	2a078e63          	beqz	a5,30001a04 <rt_vsnprintf+0x4f4>
    3000174c:	01677463          	bgeu	a4,s6,30001754 <rt_vsnprintf+0x244>
    30001750:	00f500a3          	sb	a5,1(a0)
    30001754:	00250713          	addi	a4,a0,2
    30001758:	e39ff06f          	j	30001590 <rt_vsnprintf+0x80>
    3000175c:	02a00693          	li	a3,42
    30001760:	00d79a63          	bne	a5,a3,30001774 <rt_vsnprintf+0x264>
    30001764:	00042683          	lw	a3,0(s0)
    30001768:	002a8613          	addi	a2,s5,2
    3000176c:	00840413          	addi	s0,s0,8
    30001770:	f79ff06f          	j	300016e8 <rt_vsnprintf+0x1d8>
    30001774:	00060a93          	mv	s5,a2
    30001778:	00000793          	li	a5,0
    3000177c:	f7dff06f          	j	300016f8 <rt_vsnprintf+0x1e8>
    30001780:	00000593          	li	a1,0
    30001784:	f89ff06f          	j	3000170c <rt_vsnprintf+0x1fc>
    30001788:	f9d6869b          	addiw	a3,a3,-99
    3000178c:	0ff6f693          	zext.b	a3,a3
    30001790:	01500613          	li	a2,21
    30001794:	fad660e3          	bltu	a2,a3,30001734 <rt_vsnprintf+0x224>
    30001798:	4ffff617          	auipc	a2,0x4ffff
    3000179c:	14060613          	addi	a2,a2,320 # 800008d8 <__FUNCTION__.2736+0x20>
    300017a0:	00269693          	slli	a3,a3,0x2
    300017a4:	00c686b3          	add	a3,a3,a2
    300017a8:	0006a683          	lw	a3,0(a3)
    300017ac:	00c686b3          	add	a3,a3,a2
    300017b0:	00068067          	jr	a3
    300017b4:	01087813          	andi	a6,a6,16
    300017b8:	04081a63          	bnez	a6,3000180c <rt_vsnprintf+0x2fc>
    300017bc:	00070693          	mv	a3,a4
    300017c0:	00050793          	mv	a5,a0
    300017c4:	02000613          	li	a2,32
    300017c8:	0100006f          	j	300017d8 <rt_vsnprintf+0x2c8>
    300017cc:	0167f463          	bgeu	a5,s6,300017d4 <rt_vsnprintf+0x2c4>
    300017d0:	00c78023          	sb	a2,0(a5)
    300017d4:	00178793          	addi	a5,a5,1
    300017d8:	fff6869b          	addiw	a3,a3,-1
    300017dc:	fed048e3          	bgtz	a3,300017cc <rt_vsnprintf+0x2bc>
    300017e0:	fff7079b          	addiw	a5,a4,-1
    300017e4:	00000693          	li	a3,0
    300017e8:	00e05663          	blez	a4,300017f4 <rt_vsnprintf+0x2e4>
    300017ec:	02079693          	slli	a3,a5,0x20
    300017f0:	0206d693          	srli	a3,a3,0x20
    300017f4:	00d50533          	add	a0,a0,a3
    300017f8:	00070693          	mv	a3,a4
    300017fc:	00e04463          	bgtz	a4,30001804 <rt_vsnprintf+0x2f4>
    30001800:	00100693          	li	a3,1
    30001804:	40d7873b          	subw	a4,a5,a3
    30001808:	0017071b          	addiw	a4,a4,1
    3000180c:	00840613          	addi	a2,s0,8
    30001810:	01657663          	bgeu	a0,s6,3000181c <rt_vsnprintf+0x30c>
    30001814:	00042783          	lw	a5,0(s0)
    30001818:	00f50023          	sb	a5,0(a0)
    3000181c:	00150513          	addi	a0,a0,1
    30001820:	00070693          	mv	a3,a4
    30001824:	00050793          	mv	a5,a0
    30001828:	02000593          	li	a1,32
    3000182c:	fff6869b          	addiw	a3,a3,-1
    30001830:	02d04263          	bgtz	a3,30001854 <rt_vsnprintf+0x344>
    30001834:	00000793          	li	a5,0
    30001838:	00e05863          	blez	a4,30001848 <rt_vsnprintf+0x338>
    3000183c:	fff7071b          	addiw	a4,a4,-1
    30001840:	02071793          	slli	a5,a4,0x20
    30001844:	0207d793          	srli	a5,a5,0x20
    30001848:	00f50733          	add	a4,a0,a5
    3000184c:	00060413          	mv	s0,a2
    30001850:	d41ff06f          	j	30001590 <rt_vsnprintf+0x80>
    30001854:	0167f463          	bgeu	a5,s6,3000185c <rt_vsnprintf+0x34c>
    30001858:	00b78023          	sb	a1,0(a5)
    3000185c:	00178793          	addi	a5,a5,1
    30001860:	fcdff06f          	j	3000182c <rt_vsnprintf+0x31c>
    30001864:	00043603          	ld	a2,0(s0)
    30001868:	00840893          	addi	a7,s0,8
    3000186c:	00061663          	bnez	a2,30001878 <rt_vsnprintf+0x368>
    30001870:	4ffff617          	auipc	a2,0x4ffff
    30001874:	06060613          	addi	a2,a2,96 # 800008d0 <__FUNCTION__.2736+0x18>
    30001878:	00000593          	li	a1,0
    3000187c:	0005869b          	sext.w	a3,a1
    30001880:	00e68a63          	beq	a3,a4,30001894 <rt_vsnprintf+0x384>
    30001884:	00158593          	addi	a1,a1,1
    30001888:	00b60333          	add	t1,a2,a1
    3000188c:	fff34303          	lbu	t1,-1(t1)
    30001890:	fe0316e3          	bnez	t1,3000187c <rt_vsnprintf+0x36c>
    30001894:	00f05a63          	blez	a5,300018a8 <rt_vsnprintf+0x398>
    30001898:	00068593          	mv	a1,a3
    3000189c:	00d7d463          	bge	a5,a3,300018a4 <rt_vsnprintf+0x394>
    300018a0:	00078593          	mv	a1,a5
    300018a4:	0005869b          	sext.w	a3,a1
    300018a8:	01087813          	andi	a6,a6,16
    300018ac:	04081c63          	bnez	a6,30001904 <rt_vsnprintf+0x3f4>
    300018b0:	00050793          	mv	a5,a0
    300018b4:	0007059b          	sext.w	a1,a4
    300018b8:	00e5033b          	addw	t1,a0,a4
    300018bc:	02000e13          	li	t3,32
    300018c0:	0100006f          	j	300018d0 <rt_vsnprintf+0x3c0>
    300018c4:	0167f463          	bgeu	a5,s6,300018cc <rt_vsnprintf+0x3bc>
    300018c8:	01c78023          	sb	t3,0(a5)
    300018cc:	00178793          	addi	a5,a5,1
    300018d0:	40f3083b          	subw	a6,t1,a5
    300018d4:	ff06c8e3          	blt	a3,a6,300018c4 <rt_vsnprintf+0x3b4>
    300018d8:	40d587bb          	subw	a5,a1,a3
    300018dc:	00000593          	li	a1,0
    300018e0:	00d74663          	blt	a4,a3,300018ec <rt_vsnprintf+0x3dc>
    300018e4:	02079593          	slli	a1,a5,0x20
    300018e8:	0205d593          	srli	a1,a1,0x20
    300018ec:	00b50533          	add	a0,a0,a1
    300018f0:	fff7081b          	addiw	a6,a4,-1
    300018f4:	00000593          	li	a1,0
    300018f8:	00d74463          	blt	a4,a3,30001900 <rt_vsnprintf+0x3f0>
    300018fc:	40f005bb          	negw	a1,a5
    30001900:	0105873b          	addw	a4,a1,a6
    30001904:	00000793          	li	a5,0
    30001908:	0007859b          	sext.w	a1,a5
    3000190c:	04d5c263          	blt	a1,a3,30001950 <rt_vsnprintf+0x440>
    30001910:	00d50533          	add	a0,a0,a3
    30001914:	0006859b          	sext.w	a1,a3
    30001918:	00050793          	mv	a5,a0
    3000191c:	0007061b          	sext.w	a2,a4
    30001920:	00e5033b          	addw	t1,a0,a4
    30001924:	02000e13          	li	t3,32
    30001928:	40f3083b          	subw	a6,t1,a5
    3000192c:	0506c063          	blt	a3,a6,3000196c <rt_vsnprintf+0x45c>
    30001930:	00000793          	li	a5,0
    30001934:	00d74863          	blt	a4,a3,30001944 <rt_vsnprintf+0x434>
    30001938:	40b6063b          	subw	a2,a2,a1
    3000193c:	02061793          	slli	a5,a2,0x20
    30001940:	0207d793          	srli	a5,a5,0x20
    30001944:	00f50733          	add	a4,a0,a5
    30001948:	00088413          	mv	s0,a7
    3000194c:	c45ff06f          	j	30001590 <rt_vsnprintf+0x80>
    30001950:	00f505b3          	add	a1,a0,a5
    30001954:	0165f863          	bgeu	a1,s6,30001964 <rt_vsnprintf+0x454>
    30001958:	00f60833          	add	a6,a2,a5
    3000195c:	00084803          	lbu	a6,0(a6)
    30001960:	01058023          	sb	a6,0(a1)
    30001964:	00178793          	addi	a5,a5,1
    30001968:	fa1ff06f          	j	30001908 <rt_vsnprintf+0x3f8>
    3000196c:	0167f463          	bgeu	a5,s6,30001974 <rt_vsnprintf+0x464>
    30001970:	01c78023          	sb	t3,0(a5)
    30001974:	00178793          	addi	a5,a5,1
    30001978:	fb1ff06f          	j	30001928 <rt_vsnprintf+0x418>
    3000197c:	fff00693          	li	a3,-1
    30001980:	00d71663          	bne	a4,a3,3000198c <rt_vsnprintf+0x47c>
    30001984:	00186813          	ori	a6,a6,1
    30001988:	01000713          	li	a4,16
    3000198c:	00043603          	ld	a2,0(s0)
    30001990:	01000693          	li	a3,16
    30001994:	000b0593          	mv	a1,s6
    30001998:	00840c93          	addi	s9,s0,8
    3000199c:	d28ff0ef          	jal	ra,30000ec4 <print_number>
    300019a0:	00050713          	mv	a4,a0
    300019a4:	000c8413          	mv	s0,s9
    300019a8:	be9ff06f          	j	30001590 <rt_vsnprintf+0x80>
    300019ac:	01657463          	bgeu	a0,s6,300019b4 <rt_vsnprintf+0x4a4>
    300019b0:	00d50023          	sb	a3,0(a0)
    300019b4:	00150713          	addi	a4,a0,1
    300019b8:	bd9ff06f          	j	30001590 <rt_vsnprintf+0x80>
    300019bc:	01000693          	li	a3,16
    300019c0:	06800893          	li	a7,104
    300019c4:	00042603          	lw	a2,0(s0)
    300019c8:	00840413          	addi	s0,s0,8
    300019cc:	01159a63          	bne	a1,a7,300019e0 <rt_vsnprintf+0x4d0>
    300019d0:	00287893          	andi	a7,a6,2
    300019d4:	0006059b          	sext.w	a1,a2
    300019d8:	02089e63          	bnez	a7,30001a14 <rt_vsnprintf+0x504>
    300019dc:	0095f633          	and	a2,a1,s1
    300019e0:	02061613          	slli	a2,a2,0x20
    300019e4:	02065613          	srli	a2,a2,0x20
    300019e8:	000b0593          	mv	a1,s6
    300019ec:	cd8ff0ef          	jal	ra,30000ec4 <print_number>
    300019f0:	00050713          	mv	a4,a0
    300019f4:	b9dff06f          	j	30001590 <rt_vsnprintf+0x80>
    300019f8:	00286813          	ori	a6,a6,2
    300019fc:	00a00693          	li	a3,10
    30001a00:	fc1ff06f          	j	300019c0 <rt_vsnprintf+0x4b0>
    30001a04:	fffa8a93          	addi	s5,s5,-1
    30001a08:	b89ff06f          	j	30001590 <rt_vsnprintf+0x80>
    30001a0c:	00800693          	li	a3,8
    30001a10:	fb1ff06f          	j	300019c0 <rt_vsnprintf+0x4b0>
    30001a14:	0106161b          	slliw	a2,a2,0x10
    30001a18:	4106561b          	sraiw	a2,a2,0x10
    30001a1c:	fc5ff06f          	j	300019e0 <rt_vsnprintf+0x4d0>
    30001a20:	fe0b0fa3          	sb	zero,-1(s6)
    30001a24:	b89ff06f          	j	300015ac <rt_vsnprintf+0x9c>

0000000030001a28 <rt_snprintf>:
    30001a28:	fb010113          	addi	sp,sp,-80
    30001a2c:	02d13423          	sd	a3,40(sp)
    30001a30:	02810693          	addi	a3,sp,40
    30001a34:	00113c23          	sd	ra,24(sp)
    30001a38:	02e13823          	sd	a4,48(sp)
    30001a3c:	02f13c23          	sd	a5,56(sp)
    30001a40:	05013023          	sd	a6,64(sp)
    30001a44:	05113423          	sd	a7,72(sp)
    30001a48:	00d13423          	sd	a3,8(sp)
    30001a4c:	ac5ff0ef          	jal	ra,30001510 <rt_vsnprintf>
    30001a50:	01813083          	ld	ra,24(sp)
    30001a54:	05010113          	addi	sp,sp,80
    30001a58:	00008067          	ret

0000000030001a5c <rt_vsprintf>:
    30001a5c:	00060693          	mv	a3,a2
    30001a60:	00058613          	mv	a2,a1
    30001a64:	fff00593          	li	a1,-1
    30001a68:	aa9ff06f          	j	30001510 <rt_vsnprintf>

0000000030001a6c <rt_sprintf>:
    30001a6c:	fb010113          	addi	sp,sp,-80
    30001a70:	02c13023          	sd	a2,32(sp)
    30001a74:	02010613          	addi	a2,sp,32
    30001a78:	00113c23          	sd	ra,24(sp)
    30001a7c:	02d13423          	sd	a3,40(sp)
    30001a80:	02e13823          	sd	a4,48(sp)
    30001a84:	02f13c23          	sd	a5,56(sp)
    30001a88:	05013023          	sd	a6,64(sp)
    30001a8c:	05113423          	sd	a7,72(sp)
    30001a90:	00c13423          	sd	a2,8(sp)
    30001a94:	fc9ff0ef          	jal	ra,30001a5c <rt_vsprintf>
    30001a98:	01813083          	ld	ra,24(sp)
    30001a9c:	05010113          	addi	sp,sp,80
    30001aa0:	00008067          	ret

0000000030001aa4 <rt_console_get_device>:
    30001aa4:	8301b503          	ld	a0,-2000(gp) # 800041f8 <_console_device>
    30001aa8:	00008067          	ret

0000000030001aac <rt_console_set_device>:
    30001aac:	fe010113          	addi	sp,sp,-32
    30001ab0:	00913423          	sd	s1,8(sp)
    30001ab4:	83018493          	addi	s1,gp,-2000 # 800041f8 <_console_device>
    30001ab8:	01213023          	sd	s2,0(sp)
    30001abc:	0004b903          	ld	s2,0(s1)
    30001ac0:	00113c23          	sd	ra,24(sp)
    30001ac4:	00813823          	sd	s0,16(sp)
    30001ac8:	220000ef          	jal	ra,30001ce8 <rt_device_find>
    30001acc:	04a90263          	beq	s2,a0,30001b10 <rt_console_set_device+0x64>
    30001ad0:	00050413          	mv	s0,a0
    30001ad4:	02050063          	beqz	a0,30001af4 <rt_console_set_device+0x48>
    30001ad8:	0004b503          	ld	a0,0(s1)
    30001adc:	00050463          	beqz	a0,30001ae4 <rt_console_set_device+0x38>
    30001ae0:	3e0000ef          	jal	ra,30001ec0 <rt_device_close>
    30001ae4:	04300593          	li	a1,67
    30001ae8:	00040513          	mv	a0,s0
    30001aec:	27c000ef          	jal	ra,30001d68 <rt_device_open>
    30001af0:	0084b023          	sd	s0,0(s1)
    30001af4:	01813083          	ld	ra,24(sp)
    30001af8:	01013403          	ld	s0,16(sp)
    30001afc:	00813483          	ld	s1,8(sp)
    30001b00:	00090513          	mv	a0,s2
    30001b04:	00013903          	ld	s2,0(sp)
    30001b08:	02010113          	addi	sp,sp,32
    30001b0c:	00008067          	ret
    30001b10:	00000913          	li	s2,0
    30001b14:	fe1ff06f          	j	30001af4 <rt_console_set_device+0x48>

0000000030001b18 <rt_hw_console_output>:
    30001b18:	00008067          	ret

0000000030001b1c <rt_kprintf>:
    30001b1c:	f9010113          	addi	sp,sp,-112
    30001b20:	02b13c23          	sd	a1,56(sp)
    30001b24:	04c13023          	sd	a2,64(sp)
    30001b28:	04d13423          	sd	a3,72(sp)
    30001b2c:	00050613          	mv	a2,a0
    30001b30:	03810693          	addi	a3,sp,56
    30001b34:	0ff00593          	li	a1,255
    30001b38:	a0818513          	addi	a0,gp,-1528 # 800043d0 <rt_log_buf.2897>
    30001b3c:	04f13c23          	sd	a5,88(sp)
    30001b40:	00d13423          	sd	a3,8(sp)
    30001b44:	02113423          	sd	ra,40(sp)
    30001b48:	02813023          	sd	s0,32(sp)
    30001b4c:	00913c23          	sd	s1,24(sp)
    30001b50:	04e13823          	sd	a4,80(sp)
    30001b54:	07013023          	sd	a6,96(sp)
    30001b58:	07113423          	sd	a7,104(sp)
    30001b5c:	9b5ff0ef          	jal	ra,30001510 <rt_vsnprintf>
    30001b60:	83018793          	addi	a5,gp,-2000 # 800041f8 <_console_device>
    30001b64:	00050693          	mv	a3,a0
    30001b68:	0007b503          	ld	a0,0(a5)
    30001b6c:	02051063          	bnez	a0,30001b8c <rt_kprintf+0x70>
    30001b70:	a0818513          	addi	a0,gp,-1528 # 800043d0 <rt_log_buf.2897>
    30001b74:	fa5ff0ef          	jal	ra,30001b18 <rt_hw_console_output>
    30001b78:	02813083          	ld	ra,40(sp)
    30001b7c:	02013403          	ld	s0,32(sp)
    30001b80:	01813483          	ld	s1,24(sp)
    30001b84:	07010113          	addi	sp,sp,112
    30001b88:	00008067          	ret
    30001b8c:	02e55483          	lhu	s1,46(a0)
    30001b90:	00078413          	mv	s0,a5
    30001b94:	0404e793          	ori	a5,s1,64
    30001b98:	02f51723          	sh	a5,46(a0)
    30001b9c:	0ff00793          	li	a5,255
    30001ba0:	00d7f463          	bgeu	a5,a3,30001ba8 <rt_kprintf+0x8c>
    30001ba4:	0ff00693          	li	a3,255
    30001ba8:	a0818613          	addi	a2,gp,-1528 # 800043d0 <rt_log_buf.2897>
    30001bac:	00000593          	li	a1,0
    30001bb0:	490000ef          	jal	ra,30002040 <rt_device_write>
    30001bb4:	00043783          	ld	a5,0(s0)
    30001bb8:	02979723          	sh	s1,46(a5)
    30001bbc:	fbdff06f          	j	30001b78 <rt_kprintf+0x5c>

0000000030001bc0 <rt_show_version>:
    30001bc0:	ff010113          	addi	sp,sp,-16
    30001bc4:	4ffff517          	auipc	a0,0x4ffff
    30001bc8:	d6c50513          	addi	a0,a0,-660 # 80000930 <__FUNCTION__.2736+0x78>
    30001bcc:	00113423          	sd	ra,8(sp)
    30001bd0:	f4dff0ef          	jal	ra,30001b1c <rt_kprintf>
    30001bd4:	4ffff517          	auipc	a0,0x4ffff
    30001bd8:	d6c50513          	addi	a0,a0,-660 # 80000940 <__FUNCTION__.2736+0x88>
    30001bdc:	f41ff0ef          	jal	ra,30001b1c <rt_kprintf>
    30001be0:	4ffff517          	auipc	a0,0x4ffff
    30001be4:	d9850513          	addi	a0,a0,-616 # 80000978 <__FUNCTION__.2736+0xc0>
    30001be8:	4ffff717          	auipc	a4,0x4ffff
    30001bec:	d8070713          	addi	a4,a4,-640 # 80000968 <__FUNCTION__.2736+0xb0>
    30001bf0:	00400693          	li	a3,4
    30001bf4:	00000613          	li	a2,0
    30001bf8:	00400593          	li	a1,4
    30001bfc:	f21ff0ef          	jal	ra,30001b1c <rt_kprintf>
    30001c00:	00813083          	ld	ra,8(sp)
    30001c04:	4ffff517          	auipc	a0,0x4ffff
    30001c08:	d9450513          	addi	a0,a0,-620 # 80000998 <__FUNCTION__.2736+0xe0>
    30001c0c:	01010113          	addi	sp,sp,16
    30001c10:	f0dff06f          	j	30001b1c <rt_kprintf>

0000000030001c14 <__rt_ffs>:
    30001c14:	08050063          	beqz	a0,30001c94 <__rt_ffs+0x80>
    30001c18:	0ff57713          	zext.b	a4,a0
    30001c1c:	4ffff697          	auipc	a3,0x4ffff
    30001c20:	de468693          	addi	a3,a3,-540 # 80000a00 <__lowest_bit_bitmap>
    30001c24:	00070a63          	beqz	a4,30001c38 <__rt_ffs+0x24>
    30001c28:	00e686b3          	add	a3,a3,a4
    30001c2c:	0006c503          	lbu	a0,0(a3)
    30001c30:	0015051b          	addiw	a0,a0,1
    30001c34:	00008067          	ret
    30001c38:	000107b7          	lui	a5,0x10
    30001c3c:	f0078793          	addi	a5,a5,-256 # ff00 <__stack_size+0xf700>
    30001c40:	00f577b3          	and	a5,a0,a5
    30001c44:	00078e63          	beqz	a5,30001c60 <__rt_ffs+0x4c>
    30001c48:	4085551b          	sraiw	a0,a0,0x8
    30001c4c:	0ff57713          	zext.b	a4,a0
    30001c50:	00e68733          	add	a4,a3,a4
    30001c54:	00074503          	lbu	a0,0(a4)
    30001c58:	0095051b          	addiw	a0,a0,9
    30001c5c:	00008067          	ret
    30001c60:	00ff07b7          	lui	a5,0xff0
    30001c64:	00f577b3          	and	a5,a0,a5
    30001c68:	00078e63          	beqz	a5,30001c84 <__rt_ffs+0x70>
    30001c6c:	4105551b          	sraiw	a0,a0,0x10
    30001c70:	0ff57793          	zext.b	a5,a0
    30001c74:	00f687b3          	add	a5,a3,a5
    30001c78:	0007c503          	lbu	a0,0(a5) # ff0000 <__stack_size+0xfef800>
    30001c7c:	0115051b          	addiw	a0,a0,17
    30001c80:	00008067          	ret
    30001c84:	0185551b          	srliw	a0,a0,0x18
    30001c88:	00a68533          	add	a0,a3,a0
    30001c8c:	00054503          	lbu	a0,0(a0)
    30001c90:	0195051b          	addiw	a0,a0,25
    30001c94:	00008067          	ret

0000000030001c98 <rt_assert_handler>:
    30001c98:	fe010113          	addi	sp,sp,-32
    30001c9c:	00113c23          	sd	ra,24(sp)
    30001ca0:	000107a3          	sb	zero,15(sp)
    30001ca4:	8381b303          	ld	t1,-1992(gp) # 80004200 <rt_assert_hook>
    30001ca8:	02031a63          	bnez	t1,30001cdc <rt_assert_handler+0x44>
    30001cac:	00060693          	mv	a3,a2
    30001cb0:	00058613          	mv	a2,a1
    30001cb4:	00050593          	mv	a1,a0
    30001cb8:	4ffff517          	auipc	a0,0x4ffff
    30001cbc:	d1050513          	addi	a0,a0,-752 # 800009c8 <__FUNCTION__.2736+0x110>
    30001cc0:	e5dff0ef          	jal	ra,30001b1c <rt_kprintf>
    30001cc4:	00f14783          	lbu	a5,15(sp)
    30001cc8:	0ff7f793          	zext.b	a5,a5
    30001ccc:	fe078ce3          	beqz	a5,30001cc4 <rt_assert_handler+0x2c>
    30001cd0:	01813083          	ld	ra,24(sp)
    30001cd4:	02010113          	addi	sp,sp,32
    30001cd8:	00008067          	ret
    30001cdc:	01813083          	ld	ra,24(sp)
    30001ce0:	02010113          	addi	sp,sp,32
    30001ce4:	00030067          	jr	t1

0000000030001ce8 <rt_device_find>:
    30001ce8:	00900593          	li	a1,9
    30001cec:	3880206f          	j	30004074 <rt_object_find>

0000000030001cf0 <rt_device_register>:
    30001cf0:	02051463          	bnez	a0,30001d18 <rt_device_register+0x28>
    30001cf4:	fff00513          	li	a0,-1
    30001cf8:	00008067          	ret
    30001cfc:	fff00513          	li	a0,-1
    30001d00:	01813083          	ld	ra,24(sp)
    30001d04:	01013403          	ld	s0,16(sp)
    30001d08:	00813483          	ld	s1,8(sp)
    30001d0c:	00013903          	ld	s2,0(sp)
    30001d10:	02010113          	addi	sp,sp,32
    30001d14:	00008067          	ret
    30001d18:	fe010113          	addi	sp,sp,-32
    30001d1c:	00813823          	sd	s0,16(sp)
    30001d20:	00050413          	mv	s0,a0
    30001d24:	00058513          	mv	a0,a1
    30001d28:	00913423          	sd	s1,8(sp)
    30001d2c:	01213023          	sd	s2,0(sp)
    30001d30:	00113c23          	sd	ra,24(sp)
    30001d34:	00058493          	mv	s1,a1
    30001d38:	00060913          	mv	s2,a2
    30001d3c:	fadff0ef          	jal	ra,30001ce8 <rt_device_find>
    30001d40:	fa051ee3          	bnez	a0,30001cfc <rt_device_register+0xc>
    30001d44:	00040513          	mv	a0,s0
    30001d48:	00048613          	mv	a2,s1
    30001d4c:	00900593          	li	a1,9
    30001d50:	771010ef          	jal	ra,30003cc0 <rt_object_init>
    30001d54:	00000513          	li	a0,0
    30001d58:	03241623          	sh	s2,44(s0)
    30001d5c:	02040823          	sb	zero,48(s0)
    30001d60:	02041723          	sh	zero,46(s0)
    30001d64:	f9dff06f          	j	30001d00 <rt_device_register+0x10>

0000000030001d68 <rt_device_open>:
    30001d68:	fe010113          	addi	sp,sp,-32
    30001d6c:	00813823          	sd	s0,16(sp)
    30001d70:	01213023          	sd	s2,0(sp)
    30001d74:	00113c23          	sd	ra,24(sp)
    30001d78:	00913423          	sd	s1,8(sp)
    30001d7c:	00050413          	mv	s0,a0
    30001d80:	00058913          	mv	s2,a1
    30001d84:	00051e63          	bnez	a0,30001da0 <rt_device_open+0x38>
    30001d88:	0c900613          	li	a2,201
    30001d8c:	4ffff597          	auipc	a1,0x4ffff
    30001d90:	e6c58593          	addi	a1,a1,-404 # 80000bf8 <__FUNCTION__.2568>
    30001d94:	4ffff517          	auipc	a0,0x4ffff
    30001d98:	d9c50513          	addi	a0,a0,-612 # 80000b30 <small_digits.2783+0x18>
    30001d9c:	efdff0ef          	jal	ra,30001c98 <rt_assert_handler>
    30001da0:	00040513          	mv	a0,s0
    30001da4:	28c020ef          	jal	ra,30004030 <rt_object_get_type>
    30001da8:	00900793          	li	a5,9
    30001dac:	00f50e63          	beq	a0,a5,30001dc8 <rt_device_open+0x60>
    30001db0:	0ca00613          	li	a2,202
    30001db4:	4ffff597          	auipc	a1,0x4ffff
    30001db8:	e4458593          	addi	a1,a1,-444 # 80000bf8 <__FUNCTION__.2568>
    30001dbc:	4ffff517          	auipc	a0,0x4ffff
    30001dc0:	d8450513          	addi	a0,a0,-636 # 80000b40 <small_digits.2783+0x28>
    30001dc4:	ed5ff0ef          	jal	ra,30001c98 <rt_assert_handler>
    30001dc8:	02c45783          	lhu	a5,44(s0)
    30001dcc:	0107f793          	andi	a5,a5,16
    30001dd0:	04079c63          	bnez	a5,30001e28 <rt_device_open+0xc0>
    30001dd4:	04843783          	ld	a5,72(s0)
    30001dd8:	04078263          	beqz	a5,30001e1c <rt_device_open+0xb4>
    30001ddc:	00040513          	mv	a0,s0
    30001de0:	000780e7          	jalr	a5
    30001de4:	00050493          	mv	s1,a0
    30001de8:	02050a63          	beqz	a0,30001e1c <rt_device_open+0xb4>
    30001dec:	00050613          	mv	a2,a0
    30001df0:	00040593          	mv	a1,s0
    30001df4:	4ffff517          	auipc	a0,0x4ffff
    30001df8:	db450513          	addi	a0,a0,-588 # 80000ba8 <small_digits.2783+0x90>
    30001dfc:	d21ff0ef          	jal	ra,30001b1c <rt_kprintf>
    30001e00:	01813083          	ld	ra,24(sp)
    30001e04:	01013403          	ld	s0,16(sp)
    30001e08:	00013903          	ld	s2,0(sp)
    30001e0c:	00048513          	mv	a0,s1
    30001e10:	00813483          	ld	s1,8(sp)
    30001e14:	02010113          	addi	sp,sp,32
    30001e18:	00008067          	ret
    30001e1c:	02c45783          	lhu	a5,44(s0)
    30001e20:	0107e793          	ori	a5,a5,16
    30001e24:	02f41623          	sh	a5,44(s0)
    30001e28:	02c45783          	lhu	a5,44(s0)
    30001e2c:	0087f793          	andi	a5,a5,8
    30001e30:	00078a63          	beqz	a5,30001e44 <rt_device_open+0xdc>
    30001e34:	02e45783          	lhu	a5,46(s0)
    30001e38:	ff900493          	li	s1,-7
    30001e3c:	0087f793          	andi	a5,a5,8
    30001e40:	fc0790e3          	bnez	a5,30001e00 <rt_device_open+0x98>
    30001e44:	05043783          	ld	a5,80(s0)
    30001e48:	04078a63          	beqz	a5,30001e9c <rt_device_open+0x134>
    30001e4c:	00090593          	mv	a1,s2
    30001e50:	00040513          	mv	a0,s0
    30001e54:	000780e7          	jalr	a5
    30001e58:	00050493          	mv	s1,a0
    30001e5c:	04051c63          	bnez	a0,30001eb4 <rt_device_open+0x14c>
    30001e60:	02e45783          	lhu	a5,46(s0)
    30001e64:	0087e793          	ori	a5,a5,8
    30001e68:	02f41723          	sh	a5,46(s0)
    30001e6c:	03044783          	lbu	a5,48(s0)
    30001e70:	0017879b          	addiw	a5,a5,1
    30001e74:	0ff7f793          	zext.b	a5,a5
    30001e78:	02f40823          	sb	a5,48(s0)
    30001e7c:	f80792e3          	bnez	a5,30001e00 <rt_device_open+0x98>
    30001e80:	0f800613          	li	a2,248
    30001e84:	4ffff597          	auipc	a1,0x4ffff
    30001e88:	d7458593          	addi	a1,a1,-652 # 80000bf8 <__FUNCTION__.2568>
    30001e8c:	4ffff517          	auipc	a0,0x4ffff
    30001e90:	d5450513          	addi	a0,a0,-684 # 80000be0 <small_digits.2783+0xc8>
    30001e94:	e05ff0ef          	jal	ra,30001c98 <rt_assert_handler>
    30001e98:	f69ff06f          	j	30001e00 <rt_device_open+0x98>
    30001e9c:	000015b7          	lui	a1,0x1
    30001ea0:	f0f58593          	addi	a1,a1,-241 # f0f <__stack_size+0x70f>
    30001ea4:	00b97933          	and	s2,s2,a1
    30001ea8:	03241723          	sh	s2,46(s0)
    30001eac:	00000493          	li	s1,0
    30001eb0:	fb1ff06f          	j	30001e60 <rt_device_open+0xf8>
    30001eb4:	ffa00793          	li	a5,-6
    30001eb8:	f4f514e3          	bne	a0,a5,30001e00 <rt_device_open+0x98>
    30001ebc:	fa5ff06f          	j	30001e60 <rt_device_open+0xf8>

0000000030001ec0 <rt_device_close>:
    30001ec0:	ff010113          	addi	sp,sp,-16
    30001ec4:	00813023          	sd	s0,0(sp)
    30001ec8:	00113423          	sd	ra,8(sp)
    30001ecc:	00050413          	mv	s0,a0
    30001ed0:	00051e63          	bnez	a0,30001eec <rt_device_close+0x2c>
    30001ed4:	10a00613          	li	a2,266
    30001ed8:	4ffff597          	auipc	a1,0x4ffff
    30001edc:	d3058593          	addi	a1,a1,-720 # 80000c08 <__FUNCTION__.2573>
    30001ee0:	4ffff517          	auipc	a0,0x4ffff
    30001ee4:	c5050513          	addi	a0,a0,-944 # 80000b30 <small_digits.2783+0x18>
    30001ee8:	db1ff0ef          	jal	ra,30001c98 <rt_assert_handler>
    30001eec:	00040513          	mv	a0,s0
    30001ef0:	140020ef          	jal	ra,30004030 <rt_object_get_type>
    30001ef4:	00900793          	li	a5,9
    30001ef8:	00f50e63          	beq	a0,a5,30001f14 <rt_device_close+0x54>
    30001efc:	10b00613          	li	a2,267
    30001f00:	4ffff597          	auipc	a1,0x4ffff
    30001f04:	d0858593          	addi	a1,a1,-760 # 80000c08 <__FUNCTION__.2573>
    30001f08:	4ffff517          	auipc	a0,0x4ffff
    30001f0c:	c3850513          	addi	a0,a0,-968 # 80000b40 <small_digits.2783+0x28>
    30001f10:	d89ff0ef          	jal	ra,30001c98 <rt_assert_handler>
    30001f14:	03044783          	lbu	a5,48(s0)
    30001f18:	fff00513          	li	a0,-1
    30001f1c:	04078063          	beqz	a5,30001f5c <rt_device_close+0x9c>
    30001f20:	fff7879b          	addiw	a5,a5,-1
    30001f24:	0ff7f793          	zext.b	a5,a5
    30001f28:	02f40823          	sb	a5,48(s0)
    30001f2c:	00000513          	li	a0,0
    30001f30:	02079663          	bnez	a5,30001f5c <rt_device_close+0x9c>
    30001f34:	05843783          	ld	a5,88(s0)
    30001f38:	00079863          	bnez	a5,30001f48 <rt_device_close+0x88>
    30001f3c:	00000513          	li	a0,0
    30001f40:	02041723          	sh	zero,46(s0)
    30001f44:	0180006f          	j	30001f5c <rt_device_close+0x9c>
    30001f48:	00040513          	mv	a0,s0
    30001f4c:	000780e7          	jalr	a5
    30001f50:	fe0506e3          	beqz	a0,30001f3c <rt_device_close+0x7c>
    30001f54:	ffa00793          	li	a5,-6
    30001f58:	fef504e3          	beq	a0,a5,30001f40 <rt_device_close+0x80>
    30001f5c:	00813083          	ld	ra,8(sp)
    30001f60:	00013403          	ld	s0,0(sp)
    30001f64:	01010113          	addi	sp,sp,16
    30001f68:	00008067          	ret

0000000030001f6c <rt_device_read>:
    30001f6c:	fd010113          	addi	sp,sp,-48
    30001f70:	02813023          	sd	s0,32(sp)
    30001f74:	00913c23          	sd	s1,24(sp)
    30001f78:	01213823          	sd	s2,16(sp)
    30001f7c:	01313423          	sd	s3,8(sp)
    30001f80:	02113423          	sd	ra,40(sp)
    30001f84:	00050413          	mv	s0,a0
    30001f88:	00058493          	mv	s1,a1
    30001f8c:	00060913          	mv	s2,a2
    30001f90:	00068993          	mv	s3,a3
    30001f94:	00051e63          	bnez	a0,30001fb0 <rt_device_read+0x44>
    30001f98:	13400613          	li	a2,308
    30001f9c:	4ffff597          	auipc	a1,0x4ffff
    30001fa0:	c7c58593          	addi	a1,a1,-900 # 80000c18 <__FUNCTION__.2580>
    30001fa4:	4ffff517          	auipc	a0,0x4ffff
    30001fa8:	b8c50513          	addi	a0,a0,-1140 # 80000b30 <small_digits.2783+0x18>
    30001fac:	cedff0ef          	jal	ra,30001c98 <rt_assert_handler>
    30001fb0:	00040513          	mv	a0,s0
    30001fb4:	07c020ef          	jal	ra,30004030 <rt_object_get_type>
    30001fb8:	00900793          	li	a5,9
    30001fbc:	00f50e63          	beq	a0,a5,30001fd8 <rt_device_read+0x6c>
    30001fc0:	13500613          	li	a2,309
    30001fc4:	4ffff597          	auipc	a1,0x4ffff
    30001fc8:	c5458593          	addi	a1,a1,-940 # 80000c18 <__FUNCTION__.2580>
    30001fcc:	4ffff517          	auipc	a0,0x4ffff
    30001fd0:	b7450513          	addi	a0,a0,-1164 # 80000b40 <small_digits.2783+0x28>
    30001fd4:	cc5ff0ef          	jal	ra,30001c98 <rt_assert_handler>
    30001fd8:	03044783          	lbu	a5,48(s0)
    30001fdc:	fff00513          	li	a0,-1
    30001fe0:	02078e63          	beqz	a5,3000201c <rt_device_read+0xb0>
    30001fe4:	06043303          	ld	t1,96(s0)
    30001fe8:	02030863          	beqz	t1,30002018 <rt_device_read+0xac>
    30001fec:	00040513          	mv	a0,s0
    30001ff0:	02013403          	ld	s0,32(sp)
    30001ff4:	02813083          	ld	ra,40(sp)
    30001ff8:	00098693          	mv	a3,s3
    30001ffc:	00090613          	mv	a2,s2
    30002000:	00813983          	ld	s3,8(sp)
    30002004:	01013903          	ld	s2,16(sp)
    30002008:	00048593          	mv	a1,s1
    3000200c:	01813483          	ld	s1,24(sp)
    30002010:	03010113          	addi	sp,sp,48
    30002014:	00030067          	jr	t1
    30002018:	ffa00513          	li	a0,-6
    3000201c:	8d8ff0ef          	jal	ra,300010f4 <rt_set_errno>
    30002020:	02813083          	ld	ra,40(sp)
    30002024:	02013403          	ld	s0,32(sp)
    30002028:	01813483          	ld	s1,24(sp)
    3000202c:	01013903          	ld	s2,16(sp)
    30002030:	00813983          	ld	s3,8(sp)
    30002034:	00000513          	li	a0,0
    30002038:	03010113          	addi	sp,sp,48
    3000203c:	00008067          	ret

0000000030002040 <rt_device_write>:
    30002040:	fd010113          	addi	sp,sp,-48
    30002044:	02813023          	sd	s0,32(sp)
    30002048:	00913c23          	sd	s1,24(sp)
    3000204c:	01213823          	sd	s2,16(sp)
    30002050:	01313423          	sd	s3,8(sp)
    30002054:	02113423          	sd	ra,40(sp)
    30002058:	00050413          	mv	s0,a0
    3000205c:	00058493          	mv	s1,a1
    30002060:	00060913          	mv	s2,a2
    30002064:	00068993          	mv	s3,a3
    30002068:	00051e63          	bnez	a0,30002084 <rt_device_write+0x44>
    3000206c:	15b00613          	li	a2,347
    30002070:	4ffff597          	auipc	a1,0x4ffff
    30002074:	bb858593          	addi	a1,a1,-1096 # 80000c28 <__FUNCTION__.2587>
    30002078:	4ffff517          	auipc	a0,0x4ffff
    3000207c:	ab850513          	addi	a0,a0,-1352 # 80000b30 <small_digits.2783+0x18>
    30002080:	c19ff0ef          	jal	ra,30001c98 <rt_assert_handler>
    30002084:	00040513          	mv	a0,s0
    30002088:	7a9010ef          	jal	ra,30004030 <rt_object_get_type>
    3000208c:	00900793          	li	a5,9
    30002090:	00f50e63          	beq	a0,a5,300020ac <rt_device_write+0x6c>
    30002094:	15c00613          	li	a2,348
    30002098:	4ffff597          	auipc	a1,0x4ffff
    3000209c:	b9058593          	addi	a1,a1,-1136 # 80000c28 <__FUNCTION__.2587>
    300020a0:	4ffff517          	auipc	a0,0x4ffff
    300020a4:	aa050513          	addi	a0,a0,-1376 # 80000b40 <small_digits.2783+0x28>
    300020a8:	bf1ff0ef          	jal	ra,30001c98 <rt_assert_handler>
    300020ac:	03044783          	lbu	a5,48(s0)
    300020b0:	fff00513          	li	a0,-1
    300020b4:	02078e63          	beqz	a5,300020f0 <rt_device_write+0xb0>
    300020b8:	06843303          	ld	t1,104(s0)
    300020bc:	02030863          	beqz	t1,300020ec <rt_device_write+0xac>
    300020c0:	00040513          	mv	a0,s0
    300020c4:	02013403          	ld	s0,32(sp)
    300020c8:	02813083          	ld	ra,40(sp)
    300020cc:	00098693          	mv	a3,s3
    300020d0:	00090613          	mv	a2,s2
    300020d4:	00813983          	ld	s3,8(sp)
    300020d8:	01013903          	ld	s2,16(sp)
    300020dc:	00048593          	mv	a1,s1
    300020e0:	01813483          	ld	s1,24(sp)
    300020e4:	03010113          	addi	sp,sp,48
    300020e8:	00030067          	jr	t1
    300020ec:	ffa00513          	li	a0,-6
    300020f0:	804ff0ef          	jal	ra,300010f4 <rt_set_errno>
    300020f4:	02813083          	ld	ra,40(sp)
    300020f8:	02013403          	ld	s0,32(sp)
    300020fc:	01813483          	ld	s1,24(sp)
    30002100:	01013903          	ld	s2,16(sp)
    30002104:	00813983          	ld	s3,8(sp)
    30002108:	00000513          	li	a0,0
    3000210c:	03010113          	addi	sp,sp,48
    30002110:	00008067          	ret

0000000030002114 <rt_device_control>:
    30002114:	fe010113          	addi	sp,sp,-32
    30002118:	00813823          	sd	s0,16(sp)
    3000211c:	00913423          	sd	s1,8(sp)
    30002120:	01213023          	sd	s2,0(sp)
    30002124:	00113c23          	sd	ra,24(sp)
    30002128:	00050413          	mv	s0,a0
    3000212c:	00058493          	mv	s1,a1
    30002130:	00060913          	mv	s2,a2
    30002134:	00051e63          	bnez	a0,30002150 <rt_device_control+0x3c>
    30002138:	17c00613          	li	a2,380
    3000213c:	4ffff597          	auipc	a1,0x4ffff
    30002140:	afc58593          	addi	a1,a1,-1284 # 80000c38 <__FUNCTION__.2593>
    30002144:	4ffff517          	auipc	a0,0x4ffff
    30002148:	9ec50513          	addi	a0,a0,-1556 # 80000b30 <small_digits.2783+0x18>
    3000214c:	b4dff0ef          	jal	ra,30001c98 <rt_assert_handler>
    30002150:	00040513          	mv	a0,s0
    30002154:	6dd010ef          	jal	ra,30004030 <rt_object_get_type>
    30002158:	00900793          	li	a5,9
    3000215c:	00f50e63          	beq	a0,a5,30002178 <rt_device_control+0x64>
    30002160:	17d00613          	li	a2,381
    30002164:	4ffff597          	auipc	a1,0x4ffff
    30002168:	ad458593          	addi	a1,a1,-1324 # 80000c38 <__FUNCTION__.2593>
    3000216c:	4ffff517          	auipc	a0,0x4ffff
    30002170:	9d450513          	addi	a0,a0,-1580 # 80000b40 <small_digits.2783+0x28>
    30002174:	b25ff0ef          	jal	ra,30001c98 <rt_assert_handler>
    30002178:	07043303          	ld	t1,112(s0)
    3000217c:	02030463          	beqz	t1,300021a4 <rt_device_control+0x90>
    30002180:	00040513          	mv	a0,s0
    30002184:	01013403          	ld	s0,16(sp)
    30002188:	01813083          	ld	ra,24(sp)
    3000218c:	00090613          	mv	a2,s2
    30002190:	00048593          	mv	a1,s1
    30002194:	00013903          	ld	s2,0(sp)
    30002198:	00813483          	ld	s1,8(sp)
    3000219c:	02010113          	addi	sp,sp,32
    300021a0:	00030067          	jr	t1
    300021a4:	01813083          	ld	ra,24(sp)
    300021a8:	01013403          	ld	s0,16(sp)
    300021ac:	00813483          	ld	s1,8(sp)
    300021b0:	00013903          	ld	s2,0(sp)
    300021b4:	ffa00513          	li	a0,-6
    300021b8:	02010113          	addi	sp,sp,32
    300021bc:	00008067          	ret

00000000300021c0 <rt_device_set_rx_indicate>:
    300021c0:	fe010113          	addi	sp,sp,-32
    300021c4:	00813823          	sd	s0,16(sp)
    300021c8:	00913423          	sd	s1,8(sp)
    300021cc:	00113c23          	sd	ra,24(sp)
    300021d0:	00050413          	mv	s0,a0
    300021d4:	00058493          	mv	s1,a1
    300021d8:	00051e63          	bnez	a0,300021f4 <rt_device_set_rx_indicate+0x34>
    300021dc:	19600613          	li	a2,406
    300021e0:	4ffff597          	auipc	a1,0x4ffff
    300021e4:	a7058593          	addi	a1,a1,-1424 # 80000c50 <__FUNCTION__.2600>
    300021e8:	4ffff517          	auipc	a0,0x4ffff
    300021ec:	94850513          	addi	a0,a0,-1720 # 80000b30 <small_digits.2783+0x18>
    300021f0:	aa9ff0ef          	jal	ra,30001c98 <rt_assert_handler>
    300021f4:	00040513          	mv	a0,s0
    300021f8:	639010ef          	jal	ra,30004030 <rt_object_get_type>
    300021fc:	00900793          	li	a5,9
    30002200:	00f50e63          	beq	a0,a5,3000221c <rt_device_set_rx_indicate+0x5c>
    30002204:	19700613          	li	a2,407
    30002208:	4ffff597          	auipc	a1,0x4ffff
    3000220c:	a4858593          	addi	a1,a1,-1464 # 80000c50 <__FUNCTION__.2600>
    30002210:	4ffff517          	auipc	a0,0x4ffff
    30002214:	93050513          	addi	a0,a0,-1744 # 80000b40 <small_digits.2783+0x28>
    30002218:	a81ff0ef          	jal	ra,30001c98 <rt_assert_handler>
    3000221c:	02943c23          	sd	s1,56(s0)
    30002220:	01813083          	ld	ra,24(sp)
    30002224:	01013403          	ld	s0,16(sp)
    30002228:	00813483          	ld	s1,8(sp)
    3000222c:	00000513          	li	a0,0
    30002230:	02010113          	addi	sp,sp,32
    30002234:	00008067          	ret

0000000030002238 <rti_start>:
    30002238:	00000513          	li	a0,0
    3000223c:	00008067          	ret

0000000030002240 <rti_end>:
    30002240:	00000513          	li	a0,0
    30002244:	00008067          	ret

0000000030002248 <rti_board_start>:
    30002248:	00000513          	li	a0,0
    3000224c:	00008067          	ret

0000000030002250 <rti_board_end>:
    30002250:	00000513          	li	a0,0
    30002254:	00008067          	ret

0000000030002258 <rt_components_board_init>:
    30002258:	fe010113          	addi	sp,sp,-32
    3000225c:	00813823          	sd	s0,16(sp)
    30002260:	00913423          	sd	s1,8(sp)
    30002264:	00113c23          	sd	ra,24(sp)
    30002268:	4fffe417          	auipc	s0,0x4fffe
    3000226c:	31040413          	addi	s0,s0,784 # 80000578 <__rt_init_rti_board_start>
    30002270:	4fffe497          	auipc	s1,0x4fffe
    30002274:	31048493          	addi	s1,s1,784 # 80000580 <__rt_init_rti_board_end>
    30002278:	00946c63          	bltu	s0,s1,30002290 <rt_components_board_init+0x38>
    3000227c:	01813083          	ld	ra,24(sp)
    30002280:	01013403          	ld	s0,16(sp)
    30002284:	00813483          	ld	s1,8(sp)
    30002288:	02010113          	addi	sp,sp,32
    3000228c:	00008067          	ret
    30002290:	00043783          	ld	a5,0(s0)
    30002294:	00840413          	addi	s0,s0,8
    30002298:	000780e7          	jalr	a5
    3000229c:	fddff06f          	j	30002278 <rt_components_board_init+0x20>

00000000300022a0 <rt_components_init>:
    300022a0:	fe010113          	addi	sp,sp,-32
    300022a4:	00813823          	sd	s0,16(sp)
    300022a8:	00913423          	sd	s1,8(sp)
    300022ac:	00113c23          	sd	ra,24(sp)
    300022b0:	4fffe417          	auipc	s0,0x4fffe
    300022b4:	2d040413          	addi	s0,s0,720 # 80000580 <__rt_init_rti_board_end>
    300022b8:	4fffe497          	auipc	s1,0x4fffe
    300022bc:	2e848493          	addi	s1,s1,744 # 800005a0 <__rt_init_rti_end>
    300022c0:	00946c63          	bltu	s0,s1,300022d8 <rt_components_init+0x38>
    300022c4:	01813083          	ld	ra,24(sp)
    300022c8:	01013403          	ld	s0,16(sp)
    300022cc:	00813483          	ld	s1,8(sp)
    300022d0:	02010113          	addi	sp,sp,32
    300022d4:	00008067          	ret
    300022d8:	00043783          	ld	a5,0(s0)
    300022dc:	00840413          	addi	s0,s0,8
    300022e0:	000780e7          	jalr	a5
    300022e4:	fddff06f          	j	300022c0 <rt_components_init+0x20>

00000000300022e8 <main_thread_entry>:
    300022e8:	ff010113          	addi	sp,sp,-16
    300022ec:	00113423          	sd	ra,8(sp)
    300022f0:	fb1ff0ef          	jal	ra,300022a0 <rt_components_init>
    300022f4:	00813083          	ld	ra,8(sp)
    300022f8:	01010113          	addi	sp,sp,16
    300022fc:	d8dfd06f          	j	30000088 <main>

0000000030002300 <rt_application_init>:
    30002300:	ff010113          	addi	sp,sp,-16
    30002304:	01400793          	li	a5,20
    30002308:	00a00713          	li	a4,10
    3000230c:	000046b7          	lui	a3,0x4
    30002310:	00000613          	li	a2,0
    30002314:	00000597          	auipc	a1,0x0
    30002318:	fd458593          	addi	a1,a1,-44 # 300022e8 <main_thread_entry>
    3000231c:	4ffff517          	auipc	a0,0x4ffff
    30002320:	95450513          	addi	a0,a0,-1708 # 80000c70 <__FUNCTION__.2600+0x20>
    30002324:	00813023          	sd	s0,0(sp)
    30002328:	00113423          	sd	ra,8(sp)
    3000232c:	279000ef          	jal	ra,30002da4 <rt_thread_create>
    30002330:	00050413          	mv	s0,a0
    30002334:	00051e63          	bnez	a0,30002350 <rt_application_init+0x50>
    30002338:	0cb00613          	li	a2,203
    3000233c:	4ffff597          	auipc	a1,0x4ffff
    30002340:	94c58593          	addi	a1,a1,-1716 # 80000c88 <__FUNCTION__.2659>
    30002344:	4ffff517          	auipc	a0,0x4ffff
    30002348:	93450513          	addi	a0,a0,-1740 # 80000c78 <__FUNCTION__.2600+0x28>
    3000234c:	94dff0ef          	jal	ra,30001c98 <rt_assert_handler>
    30002350:	00040513          	mv	a0,s0
    30002354:	00013403          	ld	s0,0(sp)
    30002358:	00813083          	ld	ra,8(sp)
    3000235c:	01010113          	addi	sp,sp,16
    30002360:	6890006f          	j	300031e8 <rt_thread_startup>

0000000030002364 <rtthread_startup>:
    30002364:	ff010113          	addi	sp,sp,-16
    30002368:	00113423          	sd	ra,8(sp)
    3000236c:	174030ef          	jal	ra,300054e0 <rt_hw_interrupt_disable>
    30002370:	d95fd0ef          	jal	ra,30000104 <rt_hw_board_init>
    30002374:	84dff0ef          	jal	ra,30001bc0 <rt_show_version>
    30002378:	091010ef          	jal	ra,30003c08 <rt_system_timer_init>
    3000237c:	210000ef          	jal	ra,3000258c <rt_system_scheduler_init>
    30002380:	f81ff0ef          	jal	ra,30002300 <rt_application_init>
    30002384:	099010ef          	jal	ra,30003c1c <rt_system_timer_thread_init>
    30002388:	19c000ef          	jal	ra,30002524 <rt_thread_idle_init>
    3000238c:	360000ef          	jal	ra,300026ec <rt_system_scheduler_start>
    30002390:	00813083          	ld	ra,8(sp)
    30002394:	00000513          	li	a0,0
    30002398:	01010113          	addi	sp,sp,16
    3000239c:	00008067          	ret

00000000300023a0 <entry>:
    300023a0:	ff010113          	addi	sp,sp,-16
    300023a4:	00113423          	sd	ra,8(sp)
    300023a8:	fbdff0ef          	jal	ra,30002364 <rtthread_startup>
    300023ac:	00813083          	ld	ra,8(sp)
    300023b0:	00000513          	li	a0,0
    300023b4:	01010113          	addi	sp,sp,16
    300023b8:	00008067          	ret

00000000300023bc <rt_thread_defunct_enqueue>:
    300023bc:	50002797          	auipc	a5,0x50002
    300023c0:	bdc78793          	addi	a5,a5,-1060 # 80003f98 <_rt_thread_defunct>
    300023c4:	0007b683          	ld	a3,0(a5)
    300023c8:	02850713          	addi	a4,a0,40
    300023cc:	00e7b023          	sd	a4,0(a5)
    300023d0:	00e6b423          	sd	a4,8(a3) # 4008 <__stack_size+0x3808>
    300023d4:	02d53423          	sd	a3,40(a0)
    300023d8:	02f53823          	sd	a5,48(a0)
    300023dc:	00008067          	ret

00000000300023e0 <rt_thread_defunct_dequeue>:
    300023e0:	50002717          	auipc	a4,0x50002
    300023e4:	bb870713          	addi	a4,a4,-1096 # 80003f98 <_rt_thread_defunct>
    300023e8:	00073783          	ld	a5,0(a4)
    300023ec:	00000513          	li	a0,0
    300023f0:	02e78063          	beq	a5,a4,30002410 <rt_thread_defunct_dequeue+0x30>
    300023f4:	0007b683          	ld	a3,0(a5)
    300023f8:	0087b703          	ld	a4,8(a5)
    300023fc:	fd878513          	addi	a0,a5,-40
    30002400:	00e6b423          	sd	a4,8(a3)
    30002404:	00d73023          	sd	a3,0(a4)
    30002408:	00f7b423          	sd	a5,8(a5)
    3000240c:	00f7b023          	sd	a5,0(a5)
    30002410:	00008067          	ret

0000000030002414 <rt_thread_idle_entry>:
    30002414:	fb010113          	addi	sp,sp,-80
    30002418:	03213823          	sd	s2,48(sp)
    3000241c:	03313423          	sd	s3,40(sp)
    30002420:	03413023          	sd	s4,32(sp)
    30002424:	01513c23          	sd	s5,24(sp)
    30002428:	01613823          	sd	s6,16(sp)
    3000242c:	04113423          	sd	ra,72(sp)
    30002430:	04813023          	sd	s0,64(sp)
    30002434:	02913c23          	sd	s1,56(sp)
    30002438:	01713423          	sd	s7,8(sp)
    3000243c:	c1018993          	addi	s3,gp,-1008 # 800045d8 <rt_thread_stack>
    30002440:	4ffff917          	auipc	s2,0x4ffff
    30002444:	86890913          	addi	s2,s2,-1944 # 80000ca8 <__FUNCTION__.2651>
    30002448:	4fffea17          	auipc	s4,0x4fffe
    3000244c:	310a0a13          	addi	s4,s4,784 # 80000758 <_uart_ops+0x118>
    30002450:	4fffea97          	auipc	s5,0x4fffe
    30002454:	260a8a93          	addi	s5,s5,608 # 800006b0 <_uart_ops+0x70>
    30002458:	00100b13          	li	s6,1
    3000245c:	bf018413          	addi	s0,gp,-1040 # 800045b8 <idle_hook_list>
    30002460:	00043783          	ld	a5,0(s0)
    30002464:	00078463          	beqz	a5,3000246c <rt_thread_idle_entry+0x58>
    30002468:	000780e7          	jalr	a5
    3000246c:	00840413          	addi	s0,s0,8
    30002470:	fe8998e3          	bne	s3,s0,30002460 <rt_thread_idle_entry+0x4c>
    30002474:	06c030ef          	jal	ra,300054e0 <rt_hw_interrupt_disable>
    30002478:	00050413          	mv	s0,a0
    3000247c:	a1dfe0ef          	jal	ra,30000e98 <rt_interrupt_get_nest>
    30002480:	02050063          	beqz	a0,300024a0 <rt_thread_idle_entry+0x8c>
    30002484:	00090593          	mv	a1,s2
    30002488:	000a0513          	mv	a0,s4
    3000248c:	e90ff0ef          	jal	ra,30001b1c <rt_kprintf>
    30002490:	0cb00613          	li	a2,203
    30002494:	00090593          	mv	a1,s2
    30002498:	000a8513          	mv	a0,s5
    3000249c:	ffcff0ef          	jal	ra,30001c98 <rt_assert_handler>
    300024a0:	00040513          	mv	a0,s0
    300024a4:	044030ef          	jal	ra,300054e8 <rt_hw_interrupt_enable>
    300024a8:	038030ef          	jal	ra,300054e0 <rt_hw_interrupt_disable>
    300024ac:	00050493          	mv	s1,a0
    300024b0:	f31ff0ef          	jal	ra,300023e0 <rt_thread_defunct_dequeue>
    300024b4:	00050413          	mv	s0,a0
    300024b8:	00051863          	bnez	a0,300024c8 <rt_thread_idle_entry+0xb4>
    300024bc:	00048513          	mv	a0,s1
    300024c0:	028030ef          	jal	ra,300054e8 <rt_hw_interrupt_enable>
    300024c4:	f99ff06f          	j	3000245c <rt_thread_idle_entry+0x48>
    300024c8:	0d853b83          	ld	s7,216(a0)
    300024cc:	000b8e63          	beqz	s7,300024e8 <rt_thread_idle_entry+0xd4>
    300024d0:	00048513          	mv	a0,s1
    300024d4:	014030ef          	jal	ra,300054e8 <rt_hw_interrupt_enable>
    300024d8:	00040513          	mv	a0,s0
    300024dc:	000b80e7          	jalr	s7
    300024e0:	000030ef          	jal	ra,300054e0 <rt_hw_interrupt_disable>
    300024e4:	00050493          	mv	s1,a0
    300024e8:	00040513          	mv	a0,s0
    300024ec:	301010ef          	jal	ra,30003fec <rt_object_is_systemobject>
    300024f0:	01651c63          	bne	a0,s6,30002508 <rt_thread_idle_entry+0xf4>
    300024f4:	00040513          	mv	a0,s0
    300024f8:	0d9010ef          	jal	ra,30003dd0 <rt_object_detach>
    300024fc:	00048513          	mv	a0,s1
    30002500:	7e9020ef          	jal	ra,300054e8 <rt_hw_interrupt_enable>
    30002504:	f71ff06f          	j	30002474 <rt_thread_idle_entry+0x60>
    30002508:	00048513          	mv	a0,s1
    3000250c:	7dd020ef          	jal	ra,300054e8 <rt_hw_interrupt_enable>
    30002510:	05043503          	ld	a0,80(s0)
    30002514:	4e4020ef          	jal	ra,300049f8 <rt_free>
    30002518:	00040513          	mv	a0,s0
    3000251c:	239010ef          	jal	ra,30003f54 <rt_object_delete>
    30002520:	f55ff06f          	j	30002474 <rt_thread_idle_entry+0x60>

0000000030002524 <rt_thread_idle_init>:
    30002524:	fd010113          	addi	sp,sp,-48
    30002528:	00000613          	li	a2,0
    3000252c:	4fffe597          	auipc	a1,0x4fffe
    30002530:	77458593          	addi	a1,a1,1908 # 80000ca0 <__FUNCTION__.2659+0x18>
    30002534:	00810513          	addi	a0,sp,8
    30002538:	02113423          	sd	ra,40(sp)
    3000253c:	02813023          	sd	s0,32(sp)
    30002540:	d2cff0ef          	jal	ra,30001a6c <rt_sprintf>
    30002544:	b0818413          	addi	s0,gp,-1272 # 800044d0 <idle>
    30002548:	00810593          	addi	a1,sp,8
    3000254c:	02000893          	li	a7,32
    30002550:	01f00813          	li	a6,31
    30002554:	000047b7          	lui	a5,0x4
    30002558:	50002717          	auipc	a4,0x50002
    3000255c:	08070713          	addi	a4,a4,128 # 800045d8 <rt_thread_stack>
    30002560:	00000693          	li	a3,0
    30002564:	00000617          	auipc	a2,0x0
    30002568:	eb060613          	addi	a2,a2,-336 # 30002414 <rt_thread_idle_entry>
    3000256c:	00040513          	mv	a0,s0
    30002570:	658000ef          	jal	ra,30002bc8 <rt_thread_init>
    30002574:	00040513          	mv	a0,s0
    30002578:	471000ef          	jal	ra,300031e8 <rt_thread_startup>
    3000257c:	02813083          	ld	ra,40(sp)
    30002580:	02013403          	ld	s0,32(sp)
    30002584:	03010113          	addi	sp,sp,48
    30002588:	00008067          	ret

000000003000258c <rt_system_scheduler_init>:
    3000258c:	84019c23          	sh	zero,-1960(gp) # 80004220 <rt_scheduler_lock_nest>
    30002590:	50006797          	auipc	a5,0x50006
    30002594:	04878793          	addi	a5,a5,72 # 800085d8 <rt_thread_priority_table>
    30002598:	50006717          	auipc	a4,0x50006
    3000259c:	24070713          	addi	a4,a4,576 # 800087d8 <rt_soft_timer_list>
    300025a0:	00f7b423          	sd	a5,8(a5)
    300025a4:	00f7b023          	sd	a5,0(a5)
    300025a8:	01078793          	addi	a5,a5,16
    300025ac:	fee79ae3          	bne	a5,a4,300025a0 <rt_system_scheduler_init+0x14>
    300025b0:	8601a423          	sw	zero,-1944(gp) # 80004230 <rt_thread_ready_priority_group>
    300025b4:	00008067          	ret

00000000300025b8 <rt_schedule_insert_thread>:
    300025b8:	ff010113          	addi	sp,sp,-16
    300025bc:	00813023          	sd	s0,0(sp)
    300025c0:	00113423          	sd	ra,8(sp)
    300025c4:	00050413          	mv	s0,a0
    300025c8:	00051e63          	bnez	a0,300025e4 <rt_schedule_insert_thread+0x2c>
    300025cc:	2c700613          	li	a2,711
    300025d0:	4fffe597          	auipc	a1,0x4fffe
    300025d4:	70858593          	addi	a1,a1,1800 # 80000cd8 <__FUNCTION__.2663>
    300025d8:	4fffe517          	auipc	a0,0x4fffe
    300025dc:	6e850513          	addi	a0,a0,1768 # 80000cc0 <__FUNCTION__.2651+0x18>
    300025e0:	eb8ff0ef          	jal	ra,30001c98 <rt_assert_handler>
    300025e4:	6fd020ef          	jal	ra,300054e0 <rt_hw_interrupt_disable>
    300025e8:	06844783          	lbu	a5,104(s0)
    300025ec:	8481b703          	ld	a4,-1976(gp) # 80004210 <rt_current_thread>
    300025f0:	ff87f793          	andi	a5,a5,-8
    300025f4:	00871e63          	bne	a4,s0,30002610 <rt_schedule_insert_thread+0x58>
    300025f8:	0037e793          	ori	a5,a5,3
    300025fc:	06f40423          	sb	a5,104(s0)
    30002600:	00013403          	ld	s0,0(sp)
    30002604:	00813083          	ld	ra,8(sp)
    30002608:	01010113          	addi	sp,sp,16
    3000260c:	6dd0206f          	j	300054e8 <rt_hw_interrupt_enable>
    30002610:	06944703          	lbu	a4,105(s0)
    30002614:	0017e793          	ori	a5,a5,1
    30002618:	06f40423          	sb	a5,104(s0)
    3000261c:	00471693          	slli	a3,a4,0x4
    30002620:	50006797          	auipc	a5,0x50006
    30002624:	fb878793          	addi	a5,a5,-72 # 800085d8 <rt_thread_priority_table>
    30002628:	00d786b3          	add	a3,a5,a3
    3000262c:	0086b583          	ld	a1,8(a3)
    30002630:	02840613          	addi	a2,s0,40
    30002634:	86818713          	addi	a4,gp,-1944 # 80004230 <rt_thread_ready_priority_group>
    30002638:	00c5b023          	sd	a2,0(a1)
    3000263c:	02b43823          	sd	a1,48(s0)
    30002640:	00c6b423          	sd	a2,8(a3)
    30002644:	06c42783          	lw	a5,108(s0)
    30002648:	02d43423          	sd	a3,40(s0)
    3000264c:	00072683          	lw	a3,0(a4)
    30002650:	00d7e7b3          	or	a5,a5,a3
    30002654:	00f72023          	sw	a5,0(a4)
    30002658:	fa9ff06f          	j	30002600 <rt_schedule_insert_thread+0x48>

000000003000265c <rt_schedule_remove_thread>:
    3000265c:	ff010113          	addi	sp,sp,-16
    30002660:	00813023          	sd	s0,0(sp)
    30002664:	00113423          	sd	ra,8(sp)
    30002668:	00050413          	mv	s0,a0
    3000266c:	00051e63          	bnez	a0,30002688 <rt_schedule_remove_thread+0x2c>
    30002670:	32800613          	li	a2,808
    30002674:	4fffe597          	auipc	a1,0x4fffe
    30002678:	68458593          	addi	a1,a1,1668 # 80000cf8 <__FUNCTION__.2669>
    3000267c:	4fffe517          	auipc	a0,0x4fffe
    30002680:	64450513          	addi	a0,a0,1604 # 80000cc0 <__FUNCTION__.2651+0x18>
    30002684:	e14ff0ef          	jal	ra,30001c98 <rt_assert_handler>
    30002688:	659020ef          	jal	ra,300054e0 <rt_hw_interrupt_disable>
    3000268c:	02843683          	ld	a3,40(s0)
    30002690:	03043703          	ld	a4,48(s0)
    30002694:	02840793          	addi	a5,s0,40
    30002698:	00e6b423          	sd	a4,8(a3)
    3000269c:	00d73023          	sd	a3,0(a4)
    300026a0:	06944703          	lbu	a4,105(s0)
    300026a4:	02f43423          	sd	a5,40(s0)
    300026a8:	02f43823          	sd	a5,48(s0)
    300026ac:	00471693          	slli	a3,a4,0x4
    300026b0:	50006797          	auipc	a5,0x50006
    300026b4:	f2878793          	addi	a5,a5,-216 # 800085d8 <rt_thread_priority_table>
    300026b8:	00d786b3          	add	a3,a5,a3
    300026bc:	0006b783          	ld	a5,0(a3)
    300026c0:	00d79e63          	bne	a5,a3,300026dc <rt_schedule_remove_thread+0x80>
    300026c4:	86818713          	addi	a4,gp,-1944 # 80004230 <rt_thread_ready_priority_group>
    300026c8:	06c42783          	lw	a5,108(s0)
    300026cc:	00072683          	lw	a3,0(a4)
    300026d0:	fff7c793          	not	a5,a5
    300026d4:	00d7f7b3          	and	a5,a5,a3
    300026d8:	00f72023          	sw	a5,0(a4)
    300026dc:	00013403          	ld	s0,0(sp)
    300026e0:	00813083          	ld	ra,8(sp)
    300026e4:	01010113          	addi	sp,sp,16
    300026e8:	6010206f          	j	300054e8 <rt_hw_interrupt_enable>

00000000300026ec <rt_system_scheduler_start>:
    300026ec:	ff010113          	addi	sp,sp,-16
    300026f0:	8681a503          	lw	a0,-1944(gp) # 80004230 <rt_thread_ready_priority_group>
    300026f4:	00113423          	sd	ra,8(sp)
    300026f8:	00813023          	sd	s0,0(sp)
    300026fc:	d18ff0ef          	jal	ra,30001c14 <__rt_ffs>
    30002700:	fff5051b          	addiw	a0,a0,-1
    30002704:	50006797          	auipc	a5,0x50006
    30002708:	ed478793          	addi	a5,a5,-300 # 800085d8 <rt_thread_priority_table>
    3000270c:	00451513          	slli	a0,a0,0x4
    30002710:	00a78533          	add	a0,a5,a0
    30002714:	00053403          	ld	s0,0(a0)
    30002718:	fd840513          	addi	a0,s0,-40
    3000271c:	84a1b423          	sd	a0,-1976(gp) # 80004210 <rt_current_thread>
    30002720:	f3dff0ef          	jal	ra,3000265c <rt_schedule_remove_thread>
    30002724:	00300793          	li	a5,3
    30002728:	04f40023          	sb	a5,64(s0)
    3000272c:	01040513          	addi	a0,s0,16
    30002730:	00013403          	ld	s0,0(sp)
    30002734:	00813083          	ld	ra,8(sp)
    30002738:	01010113          	addi	sp,sp,16
    3000273c:	5b50206f          	j	300054f0 <rt_hw_context_switch_to>

0000000030002740 <rt_schedule>:
    30002740:	fc010113          	addi	sp,sp,-64
    30002744:	01313c23          	sd	s3,24(sp)
    30002748:	02113c23          	sd	ra,56(sp)
    3000274c:	02813823          	sd	s0,48(sp)
    30002750:	02913423          	sd	s1,40(sp)
    30002754:	03213023          	sd	s2,32(sp)
    30002758:	01413823          	sd	s4,16(sp)
    3000275c:	585020ef          	jal	ra,300054e0 <rt_hw_interrupt_disable>
    30002760:	85819783          	lh	a5,-1960(gp) # 80004220 <rt_scheduler_lock_nest>
    30002764:	00050993          	mv	s3,a0
    30002768:	0e079263          	bnez	a5,3000284c <rt_schedule+0x10c>
    3000276c:	8681a503          	lw	a0,-1944(gp) # 80004230 <rt_thread_ready_priority_group>
    30002770:	0c050e63          	beqz	a0,3000284c <rt_schedule+0x10c>
    30002774:	ca0ff0ef          	jal	ra,30001c14 <__rt_ffs>
    30002778:	84818913          	addi	s2,gp,-1976 # 80004210 <rt_current_thread>
    3000277c:	00093483          	ld	s1,0(s2)
    30002780:	fff5079b          	addiw	a5,a0,-1
    30002784:	00479693          	slli	a3,a5,0x4
    30002788:	50006717          	auipc	a4,0x50006
    3000278c:	e5070713          	addi	a4,a4,-432 # 800085d8 <rt_thread_priority_table>
    30002790:	00d70733          	add	a4,a4,a3
    30002794:	00073403          	ld	s0,0(a4)
    30002798:	0684c703          	lbu	a4,104(s1)
    3000279c:	00300693          	li	a3,3
    300027a0:	fd840413          	addi	s0,s0,-40
    300027a4:	00777613          	andi	a2,a4,7
    300027a8:	00000a13          	li	s4,0
    300027ac:	02d61663          	bne	a2,a3,300027d8 <rt_schedule+0x98>
    300027b0:	0694c683          	lbu	a3,105(s1)
    300027b4:	0af6ee63          	bltu	a3,a5,30002870 <rt_schedule+0x130>
    300027b8:	00100a13          	li	s4,1
    300027bc:	00f69a63          	bne	a3,a5,300027d0 <rt_schedule+0x90>
    300027c0:	00877693          	andi	a3,a4,8
    300027c4:	00069663          	bnez	a3,300027d0 <rt_schedule+0x90>
    300027c8:	00048413          	mv	s0,s1
    300027cc:	00000a13          	li	s4,0
    300027d0:	ff777713          	andi	a4,a4,-9
    300027d4:	06e48423          	sb	a4,104(s1)
    300027d8:	0a848663          	beq	s1,s0,30002884 <rt_schedule+0x144>
    300027dc:	84f18023          	sb	a5,-1984(gp) # 80004208 <rt_current_priority>
    300027e0:	00893023          	sd	s0,0(s2)
    300027e4:	8501b783          	ld	a5,-1968(gp) # 80004218 <rt_scheduler_hook>
    300027e8:	00078863          	beqz	a5,300027f8 <rt_schedule+0xb8>
    300027ec:	00040593          	mv	a1,s0
    300027f0:	00048513          	mv	a0,s1
    300027f4:	000780e7          	jalr	a5
    300027f8:	000a0663          	beqz	s4,30002804 <rt_schedule+0xc4>
    300027fc:	00048513          	mv	a0,s1
    30002800:	db9ff0ef          	jal	ra,300025b8 <rt_schedule_insert_thread>
    30002804:	00040513          	mv	a0,s0
    30002808:	e55ff0ef          	jal	ra,3000265c <rt_schedule_remove_thread>
    3000280c:	06844783          	lbu	a5,104(s0)
    30002810:	03848913          	addi	s2,s1,56
    30002814:	03840593          	addi	a1,s0,56
    30002818:	ff87f793          	andi	a5,a5,-8
    3000281c:	0037e793          	ori	a5,a5,3
    30002820:	06f40423          	sb	a5,104(s0)
    30002824:	8281c783          	lbu	a5,-2008(gp) # 800041f0 <rt_interrupt_nest>
    30002828:	04079863          	bnez	a5,30002878 <rt_schedule+0x138>
    3000282c:	8601b783          	ld	a5,-1952(gp) # 80004228 <rt_scheduler_switch_hook>
    30002830:	00078a63          	beqz	a5,30002844 <rt_schedule+0x104>
    30002834:	00048513          	mv	a0,s1
    30002838:	00b13423          	sd	a1,8(sp)
    3000283c:	000780e7          	jalr	a5
    30002840:	00813583          	ld	a1,8(sp)
    30002844:	00090513          	mv	a0,s2
    30002848:	4b9020ef          	jal	ra,30005500 <rt_hw_context_switch>
    3000284c:	03013403          	ld	s0,48(sp)
    30002850:	03813083          	ld	ra,56(sp)
    30002854:	02813483          	ld	s1,40(sp)
    30002858:	02013903          	ld	s2,32(sp)
    3000285c:	01013a03          	ld	s4,16(sp)
    30002860:	00098513          	mv	a0,s3
    30002864:	01813983          	ld	s3,24(sp)
    30002868:	04010113          	addi	sp,sp,64
    3000286c:	47d0206f          	j	300054e8 <rt_hw_interrupt_enable>
    30002870:	00048413          	mv	s0,s1
    30002874:	f5dff06f          	j	300027d0 <rt_schedule+0x90>
    30002878:	00090513          	mv	a0,s2
    3000287c:	5b4020ef          	jal	ra,30004e30 <rt_hw_context_switch_interrupt>
    30002880:	fcdff06f          	j	3000284c <rt_schedule+0x10c>
    30002884:	00048513          	mv	a0,s1
    30002888:	dd5ff0ef          	jal	ra,3000265c <rt_schedule_remove_thread>
    3000288c:	00093703          	ld	a4,0(s2)
    30002890:	06874783          	lbu	a5,104(a4)
    30002894:	ff87f793          	andi	a5,a5,-8
    30002898:	0037e793          	ori	a5,a5,3
    3000289c:	06f70423          	sb	a5,104(a4)
    300028a0:	fadff06f          	j	3000284c <rt_schedule+0x10c>

00000000300028a4 <rt_enter_critical>:
    300028a4:	ff010113          	addi	sp,sp,-16
    300028a8:	00113423          	sd	ra,8(sp)
    300028ac:	435020ef          	jal	ra,300054e0 <rt_hw_interrupt_disable>
    300028b0:	85818713          	addi	a4,gp,-1960 # 80004220 <rt_scheduler_lock_nest>
    300028b4:	00075783          	lhu	a5,0(a4)
    300028b8:	00813083          	ld	ra,8(sp)
    300028bc:	0017879b          	addiw	a5,a5,1
    300028c0:	00f71023          	sh	a5,0(a4)
    300028c4:	01010113          	addi	sp,sp,16
    300028c8:	4210206f          	j	300054e8 <rt_hw_interrupt_enable>

00000000300028cc <rt_exit_critical>:
    300028cc:	ff010113          	addi	sp,sp,-16
    300028d0:	00113423          	sd	ra,8(sp)
    300028d4:	40d020ef          	jal	ra,300054e0 <rt_hw_interrupt_disable>
    300028d8:	85818713          	addi	a4,gp,-1960 # 80004220 <rt_scheduler_lock_nest>
    300028dc:	00075783          	lhu	a5,0(a4)
    300028e0:	fff7879b          	addiw	a5,a5,-1
    300028e4:	0107979b          	slliw	a5,a5,0x10
    300028e8:	4107d79b          	sraiw	a5,a5,0x10
    300028ec:	00f71023          	sh	a5,0(a4)
    300028f0:	02f04063          	bgtz	a5,30002910 <rt_exit_critical+0x44>
    300028f4:	84019c23          	sh	zero,-1960(gp) # 80004220 <rt_scheduler_lock_nest>
    300028f8:	3f1020ef          	jal	ra,300054e8 <rt_hw_interrupt_enable>
    300028fc:	8481b783          	ld	a5,-1976(gp) # 80004210 <rt_current_thread>
    30002900:	00078e63          	beqz	a5,3000291c <rt_exit_critical+0x50>
    30002904:	00813083          	ld	ra,8(sp)
    30002908:	01010113          	addi	sp,sp,16
    3000290c:	e35ff06f          	j	30002740 <rt_schedule>
    30002910:	00813083          	ld	ra,8(sp)
    30002914:	01010113          	addi	sp,sp,16
    30002918:	3d10206f          	j	300054e8 <rt_hw_interrupt_enable>
    3000291c:	00813083          	ld	ra,8(sp)
    30002920:	01010113          	addi	sp,sp,16
    30002924:	00008067          	ret

0000000030002928 <_rt_thread_cleanup_execute>:
    30002928:	fe010113          	addi	sp,sp,-32
    3000292c:	00813823          	sd	s0,16(sp)
    30002930:	00913423          	sd	s1,8(sp)
    30002934:	00050413          	mv	s0,a0
    30002938:	00113c23          	sd	ra,24(sp)
    3000293c:	3a5020ef          	jal	ra,300054e0 <rt_hw_interrupt_disable>
    30002940:	0d843783          	ld	a5,216(s0)
    30002944:	00050493          	mv	s1,a0
    30002948:	00078663          	beqz	a5,30002954 <_rt_thread_cleanup_execute+0x2c>
    3000294c:	00040513          	mv	a0,s0
    30002950:	000780e7          	jalr	a5
    30002954:	01013403          	ld	s0,16(sp)
    30002958:	01813083          	ld	ra,24(sp)
    3000295c:	00048513          	mv	a0,s1
    30002960:	00813483          	ld	s1,8(sp)
    30002964:	02010113          	addi	sp,sp,32
    30002968:	3810206f          	j	300054e8 <rt_hw_interrupt_enable>

000000003000296c <_rt_thread_exit>:
    3000296c:	fe010113          	addi	sp,sp,-32
    30002970:	00113c23          	sd	ra,24(sp)
    30002974:	00813823          	sd	s0,16(sp)
    30002978:	00913423          	sd	s1,8(sp)
    3000297c:	8481b403          	ld	s0,-1976(gp) # 80004210 <rt_current_thread>
    30002980:	361020ef          	jal	ra,300054e0 <rt_hw_interrupt_disable>
    30002984:	00050493          	mv	s1,a0
    30002988:	00040513          	mv	a0,s0
    3000298c:	f9dff0ef          	jal	ra,30002928 <_rt_thread_cleanup_execute>
    30002990:	00040513          	mv	a0,s0
    30002994:	cc9ff0ef          	jal	ra,3000265c <rt_schedule_remove_thread>
    30002998:	00400793          	li	a5,4
    3000299c:	06f40423          	sb	a5,104(s0)
    300029a0:	08840513          	addi	a0,s0,136
    300029a4:	315000ef          	jal	ra,300034b8 <rt_timer_detach>
    300029a8:	00040513          	mv	a0,s0
    300029ac:	640010ef          	jal	ra,30003fec <rt_object_is_systemobject>
    300029b0:	00100793          	li	a5,1
    300029b4:	02f51463          	bne	a0,a5,300029dc <_rt_thread_exit+0x70>
    300029b8:	00040513          	mv	a0,s0
    300029bc:	414010ef          	jal	ra,30003dd0 <rt_object_detach>
    300029c0:	d81ff0ef          	jal	ra,30002740 <rt_schedule>
    300029c4:	01013403          	ld	s0,16(sp)
    300029c8:	01813083          	ld	ra,24(sp)
    300029cc:	00048513          	mv	a0,s1
    300029d0:	00813483          	ld	s1,8(sp)
    300029d4:	02010113          	addi	sp,sp,32
    300029d8:	3110206f          	j	300054e8 <rt_hw_interrupt_enable>
    300029dc:	00040513          	mv	a0,s0
    300029e0:	9ddff0ef          	jal	ra,300023bc <rt_thread_defunct_enqueue>
    300029e4:	fddff06f          	j	300029c0 <_rt_thread_exit+0x54>

00000000300029e8 <_rt_thread_init.isra.0>:
    300029e8:	fe010113          	addi	sp,sp,-32
    300029ec:	00813823          	sd	s0,16(sp)
    300029f0:	00050413          	mv	s0,a0
    300029f4:	00913423          	sd	s1,8(sp)
    300029f8:	04c43423          	sd	a2,72(s0)
    300029fc:	00078493          	mv	s1,a5
    30002a00:	02071613          	slli	a2,a4,0x20
    30002a04:	02840793          	addi	a5,s0,40
    30002a08:	00068513          	mv	a0,a3
    30002a0c:	02f43823          	sd	a5,48(s0)
    30002a10:	02f43423          	sd	a5,40(s0)
    30002a14:	04b43023          	sd	a1,64(s0)
    30002a18:	04d43823          	sd	a3,80(s0)
    30002a1c:	04e42c23          	sw	a4,88(s0)
    30002a20:	02065613          	srli	a2,a2,0x20
    30002a24:	02300593          	li	a1,35
    30002a28:	00113c23          	sd	ra,24(sp)
    30002a2c:	01213023          	sd	s2,0(sp)
    30002a30:	00080913          	mv	s2,a6
    30002a34:	efcfe0ef          	jal	ra,30001130 <rt_memset>
    30002a38:	05846783          	lwu	a5,88(s0)
    30002a3c:	05043603          	ld	a2,80(s0)
    30002a40:	04843583          	ld	a1,72(s0)
    30002a44:	04043503          	ld	a0,64(s0)
    30002a48:	ff878793          	addi	a5,a5,-8
    30002a4c:	00f60633          	add	a2,a2,a5
    30002a50:	00000697          	auipc	a3,0x0
    30002a54:	f1c68693          	addi	a3,a3,-228 # 3000296c <_rt_thread_exit>
    30002a58:	380020ef          	jal	ra,30004dd8 <rt_hw_stack_init>
    30002a5c:	02a43c23          	sd	a0,56(s0)
    30002a60:	01f00793          	li	a5,31
    30002a64:	0097fe63          	bgeu	a5,s1,30002a80 <_rt_thread_init.isra.0+0x98>
    30002a68:	0ae00613          	li	a2,174
    30002a6c:	4fffe597          	auipc	a1,0x4fffe
    30002a70:	43c58593          	addi	a1,a1,1084 # 80000ea8 <__FUNCTION__.2648>
    30002a74:	4fffe517          	auipc	a0,0x4fffe
    30002a78:	2a450513          	addi	a0,a0,676 # 80000d18 <__FUNCTION__.2669+0x20>
    30002a7c:	a1cff0ef          	jal	ra,30001c98 <rt_assert_handler>
    30002a80:	02091813          	slli	a6,s2,0x20
    30002a84:	02085813          	srli	a6,a6,0x20
    30002a88:	00000793          	li	a5,0
    30002a8c:	06940523          	sb	s1,106(s0)
    30002a90:	069404a3          	sb	s1,105(s0)
    30002a94:	06042623          	sw	zero,108(s0)
    30002a98:	07043c23          	sd	a6,120(s0)
    30002a9c:	09043023          	sd	a6,128(s0)
    30002aa0:	06043023          	sd	zero,96(s0)
    30002aa4:	06040423          	sb	zero,104(s0)
    30002aa8:	0c043c23          	sd	zero,216(s0)
    30002aac:	0e043023          	sd	zero,224(s0)
    30002ab0:	00000713          	li	a4,0
    30002ab4:	00040693          	mv	a3,s0
    30002ab8:	00000617          	auipc	a2,0x0
    30002abc:	04060613          	addi	a2,a2,64 # 30002af8 <rt_thread_timeout>
    30002ac0:	00040593          	mv	a1,s0
    30002ac4:	08840513          	addi	a0,s0,136
    30002ac8:	145000ef          	jal	ra,3000340c <rt_timer_init>
    30002acc:	8701b783          	ld	a5,-1936(gp) # 80004238 <rt_thread_inited_hook>
    30002ad0:	00078663          	beqz	a5,30002adc <_rt_thread_init.isra.0+0xf4>
    30002ad4:	00040513          	mv	a0,s0
    30002ad8:	000780e7          	jalr	a5
    30002adc:	01813083          	ld	ra,24(sp)
    30002ae0:	01013403          	ld	s0,16(sp)
    30002ae4:	00813483          	ld	s1,8(sp)
    30002ae8:	00013903          	ld	s2,0(sp)
    30002aec:	00000513          	li	a0,0
    30002af0:	02010113          	addi	sp,sp,32
    30002af4:	00008067          	ret

0000000030002af8 <rt_thread_timeout>:
    30002af8:	fe010113          	addi	sp,sp,-32
    30002afc:	00813823          	sd	s0,16(sp)
    30002b00:	00113c23          	sd	ra,24(sp)
    30002b04:	00913423          	sd	s1,8(sp)
    30002b08:	00050413          	mv	s0,a0
    30002b0c:	00051e63          	bnez	a0,30002b28 <rt_thread_timeout+0x30>
    30002b10:	37200613          	li	a2,882
    30002b14:	4fffe597          	auipc	a1,0x4fffe
    30002b18:	45458593          	addi	a1,a1,1108 # 80000f68 <__FUNCTION__.2747>
    30002b1c:	4fffe517          	auipc	a0,0x4fffe
    30002b20:	1a450513          	addi	a0,a0,420 # 80000cc0 <__FUNCTION__.2651+0x18>
    30002b24:	974ff0ef          	jal	ra,30001c98 <rt_assert_handler>
    30002b28:	06844783          	lbu	a5,104(s0)
    30002b2c:	00200713          	li	a4,2
    30002b30:	0077f793          	andi	a5,a5,7
    30002b34:	00e78e63          	beq	a5,a4,30002b50 <rt_thread_timeout+0x58>
    30002b38:	37300613          	li	a2,883
    30002b3c:	4fffe597          	auipc	a1,0x4fffe
    30002b40:	42c58593          	addi	a1,a1,1068 # 80000f68 <__FUNCTION__.2747>
    30002b44:	4fffe517          	auipc	a0,0x4fffe
    30002b48:	1fc50513          	addi	a0,a0,508 # 80000d40 <__FUNCTION__.2669+0x48>
    30002b4c:	94cff0ef          	jal	ra,30001c98 <rt_assert_handler>
    30002b50:	00040513          	mv	a0,s0
    30002b54:	4dc010ef          	jal	ra,30004030 <rt_object_get_type>
    30002b58:	00100793          	li	a5,1
    30002b5c:	00f50e63          	beq	a0,a5,30002b78 <rt_thread_timeout+0x80>
    30002b60:	37400613          	li	a2,884
    30002b64:	4fffe597          	auipc	a1,0x4fffe
    30002b68:	40458593          	addi	a1,a1,1028 # 80000f68 <__FUNCTION__.2747>
    30002b6c:	4fffe517          	auipc	a0,0x4fffe
    30002b70:	21450513          	addi	a0,a0,532 # 80000d80 <__FUNCTION__.2669+0x88>
    30002b74:	924ff0ef          	jal	ra,30001c98 <rt_assert_handler>
    30002b78:	169020ef          	jal	ra,300054e0 <rt_hw_interrupt_disable>
    30002b7c:	02843683          	ld	a3,40(s0)
    30002b80:	03043703          	ld	a4,48(s0)
    30002b84:	ffe00793          	li	a5,-2
    30002b88:	06f43023          	sd	a5,96(s0)
    30002b8c:	00e6b423          	sd	a4,8(a3)
    30002b90:	02840793          	addi	a5,s0,40
    30002b94:	00d73023          	sd	a3,0(a4)
    30002b98:	00050493          	mv	s1,a0
    30002b9c:	02f43823          	sd	a5,48(s0)
    30002ba0:	02f43423          	sd	a5,40(s0)
    30002ba4:	00040513          	mv	a0,s0
    30002ba8:	a11ff0ef          	jal	ra,300025b8 <rt_schedule_insert_thread>
    30002bac:	00048513          	mv	a0,s1
    30002bb0:	139020ef          	jal	ra,300054e8 <rt_hw_interrupt_enable>
    30002bb4:	01013403          	ld	s0,16(sp)
    30002bb8:	01813083          	ld	ra,24(sp)
    30002bbc:	00813483          	ld	s1,8(sp)
    30002bc0:	02010113          	addi	sp,sp,32
    30002bc4:	b7dff06f          	j	30002740 <rt_schedule>

0000000030002bc8 <rt_thread_init>:
    30002bc8:	fb010113          	addi	sp,sp,-80
    30002bcc:	04813023          	sd	s0,64(sp)
    30002bd0:	02913c23          	sd	s1,56(sp)
    30002bd4:	03213823          	sd	s2,48(sp)
    30002bd8:	03313423          	sd	s3,40(sp)
    30002bdc:	03413023          	sd	s4,32(sp)
    30002be0:	01513c23          	sd	s5,24(sp)
    30002be4:	01613823          	sd	s6,16(sp)
    30002be8:	01713423          	sd	s7,8(sp)
    30002bec:	04113423          	sd	ra,72(sp)
    30002bf0:	00050413          	mv	s0,a0
    30002bf4:	00058b93          	mv	s7,a1
    30002bf8:	00060913          	mv	s2,a2
    30002bfc:	00068993          	mv	s3,a3
    30002c00:	00070493          	mv	s1,a4
    30002c04:	00078a13          	mv	s4,a5
    30002c08:	00080a93          	mv	s5,a6
    30002c0c:	00088b13          	mv	s6,a7
    30002c10:	00051e63          	bnez	a0,30002c2c <rt_thread_init+0x64>
    30002c14:	10f00613          	li	a2,271
    30002c18:	4fffe597          	auipc	a1,0x4fffe
    30002c1c:	2a058593          	addi	a1,a1,672 # 80000eb8 <__FUNCTION__.2660>
    30002c20:	4fffe517          	auipc	a0,0x4fffe
    30002c24:	0a050513          	addi	a0,a0,160 # 80000cc0 <__FUNCTION__.2651+0x18>
    30002c28:	870ff0ef          	jal	ra,30001c98 <rt_assert_handler>
    30002c2c:	00049e63          	bnez	s1,30002c48 <rt_thread_init+0x80>
    30002c30:	11000613          	li	a2,272
    30002c34:	4fffe597          	auipc	a1,0x4fffe
    30002c38:	28458593          	addi	a1,a1,644 # 80000eb8 <__FUNCTION__.2660>
    30002c3c:	4fffe517          	auipc	a0,0x4fffe
    30002c40:	18c50513          	addi	a0,a0,396 # 80000dc8 <__FUNCTION__.2669+0xd0>
    30002c44:	854ff0ef          	jal	ra,30001c98 <rt_assert_handler>
    30002c48:	000b8613          	mv	a2,s7
    30002c4c:	00040513          	mv	a0,s0
    30002c50:	00100593          	li	a1,1
    30002c54:	06c010ef          	jal	ra,30003cc0 <rt_object_init>
    30002c58:	00040513          	mv	a0,s0
    30002c5c:	04013403          	ld	s0,64(sp)
    30002c60:	04813083          	ld	ra,72(sp)
    30002c64:	00813b83          	ld	s7,8(sp)
    30002c68:	000b0813          	mv	a6,s6
    30002c6c:	000a8793          	mv	a5,s5
    30002c70:	01013b03          	ld	s6,16(sp)
    30002c74:	01813a83          	ld	s5,24(sp)
    30002c78:	000a0713          	mv	a4,s4
    30002c7c:	00048693          	mv	a3,s1
    30002c80:	02013a03          	ld	s4,32(sp)
    30002c84:	03813483          	ld	s1,56(sp)
    30002c88:	00098613          	mv	a2,s3
    30002c8c:	00090593          	mv	a1,s2
    30002c90:	02813983          	ld	s3,40(sp)
    30002c94:	03013903          	ld	s2,48(sp)
    30002c98:	05010113          	addi	sp,sp,80
    30002c9c:	d4dff06f          	j	300029e8 <_rt_thread_init.isra.0>

0000000030002ca0 <rt_thread_self>:
    30002ca0:	8481b503          	ld	a0,-1976(gp) # 80004210 <rt_current_thread>
    30002ca4:	00008067          	ret

0000000030002ca8 <rt_thread_detach>:
    30002ca8:	fe010113          	addi	sp,sp,-32
    30002cac:	00813823          	sd	s0,16(sp)
    30002cb0:	00113c23          	sd	ra,24(sp)
    30002cb4:	00913423          	sd	s1,8(sp)
    30002cb8:	00050413          	mv	s0,a0
    30002cbc:	00051e63          	bnez	a0,30002cd8 <rt_thread_detach+0x30>
    30002cc0:	16e00613          	li	a2,366
    30002cc4:	4fffe597          	auipc	a1,0x4fffe
    30002cc8:	21c58593          	addi	a1,a1,540 # 80000ee0 <__FUNCTION__.2674>
    30002ccc:	4fffe517          	auipc	a0,0x4fffe
    30002cd0:	ff450513          	addi	a0,a0,-12 # 80000cc0 <__FUNCTION__.2651+0x18>
    30002cd4:	fc5fe0ef          	jal	ra,30001c98 <rt_assert_handler>
    30002cd8:	00040513          	mv	a0,s0
    30002cdc:	354010ef          	jal	ra,30004030 <rt_object_get_type>
    30002ce0:	00100793          	li	a5,1
    30002ce4:	00f50e63          	beq	a0,a5,30002d00 <rt_thread_detach+0x58>
    30002ce8:	16f00613          	li	a2,367
    30002cec:	4fffe597          	auipc	a1,0x4fffe
    30002cf0:	1f458593          	addi	a1,a1,500 # 80000ee0 <__FUNCTION__.2674>
    30002cf4:	4fffe517          	auipc	a0,0x4fffe
    30002cf8:	08c50513          	addi	a0,a0,140 # 80000d80 <__FUNCTION__.2669+0x88>
    30002cfc:	f9dfe0ef          	jal	ra,30001c98 <rt_assert_handler>
    30002d00:	00040513          	mv	a0,s0
    30002d04:	2e8010ef          	jal	ra,30003fec <rt_object_is_systemobject>
    30002d08:	00051e63          	bnez	a0,30002d24 <rt_thread_detach+0x7c>
    30002d0c:	17000613          	li	a2,368
    30002d10:	4fffe597          	auipc	a1,0x4fffe
    30002d14:	1d058593          	addi	a1,a1,464 # 80000ee0 <__FUNCTION__.2674>
    30002d18:	4fffe517          	auipc	a0,0x4fffe
    30002d1c:	0c850513          	addi	a0,a0,200 # 80000de0 <__FUNCTION__.2669+0xe8>
    30002d20:	f79fe0ef          	jal	ra,30001c98 <rt_assert_handler>
    30002d24:	06844783          	lbu	a5,104(s0)
    30002d28:	00400713          	li	a4,4
    30002d2c:	0077f793          	andi	a5,a5,7
    30002d30:	04e78063          	beq	a5,a4,30002d70 <rt_thread_detach+0xc8>
    30002d34:	00078663          	beqz	a5,30002d40 <rt_thread_detach+0x98>
    30002d38:	00040513          	mv	a0,s0
    30002d3c:	921ff0ef          	jal	ra,3000265c <rt_schedule_remove_thread>
    30002d40:	00040513          	mv	a0,s0
    30002d44:	be5ff0ef          	jal	ra,30002928 <_rt_thread_cleanup_execute>
    30002d48:	08840513          	addi	a0,s0,136
    30002d4c:	76c000ef          	jal	ra,300034b8 <rt_timer_detach>
    30002d50:	00400793          	li	a5,4
    30002d54:	06f40423          	sb	a5,104(s0)
    30002d58:	00040513          	mv	a0,s0
    30002d5c:	290010ef          	jal	ra,30003fec <rt_object_is_systemobject>
    30002d60:	00100793          	li	a5,1
    30002d64:	02f51263          	bne	a0,a5,30002d88 <rt_thread_detach+0xe0>
    30002d68:	00040513          	mv	a0,s0
    30002d6c:	064010ef          	jal	ra,30003dd0 <rt_object_detach>
    30002d70:	01813083          	ld	ra,24(sp)
    30002d74:	01013403          	ld	s0,16(sp)
    30002d78:	00813483          	ld	s1,8(sp)
    30002d7c:	00000513          	li	a0,0
    30002d80:	02010113          	addi	sp,sp,32
    30002d84:	00008067          	ret
    30002d88:	758020ef          	jal	ra,300054e0 <rt_hw_interrupt_disable>
    30002d8c:	00050493          	mv	s1,a0
    30002d90:	00040513          	mv	a0,s0
    30002d94:	e28ff0ef          	jal	ra,300023bc <rt_thread_defunct_enqueue>
    30002d98:	00048513          	mv	a0,s1
    30002d9c:	74c020ef          	jal	ra,300054e8 <rt_hw_interrupt_enable>
    30002da0:	fd1ff06f          	j	30002d70 <rt_thread_detach+0xc8>

0000000030002da4 <rt_thread_create>:
    30002da4:	fc010113          	addi	sp,sp,-64
    30002da8:	03213023          	sd	s2,32(sp)
    30002dac:	00058913          	mv	s2,a1
    30002db0:	00050593          	mv	a1,a0
    30002db4:	00100513          	li	a0,1
    30002db8:	02813823          	sd	s0,48(sp)
    30002dbc:	02913423          	sd	s1,40(sp)
    30002dc0:	01313c23          	sd	s3,24(sp)
    30002dc4:	01413823          	sd	s4,16(sp)
    30002dc8:	01513423          	sd	s5,8(sp)
    30002dcc:	02113c23          	sd	ra,56(sp)
    30002dd0:	00060993          	mv	s3,a2
    30002dd4:	00068493          	mv	s1,a3
    30002dd8:	00070a13          	mv	s4,a4
    30002ddc:	00078a93          	mv	s5,a5
    30002de0:	060010ef          	jal	ra,30003e40 <rt_object_allocate>
    30002de4:	00050413          	mv	s0,a0
    30002de8:	02050263          	beqz	a0,30002e0c <rt_thread_create+0x68>
    30002dec:	02049513          	slli	a0,s1,0x20
    30002df0:	02055513          	srli	a0,a0,0x20
    30002df4:	0d1010ef          	jal	ra,300046c4 <rt_malloc>
    30002df8:	00050693          	mv	a3,a0
    30002dfc:	02051c63          	bnez	a0,30002e34 <rt_thread_create+0x90>
    30002e00:	00040513          	mv	a0,s0
    30002e04:	150010ef          	jal	ra,30003f54 <rt_object_delete>
    30002e08:	00000413          	li	s0,0
    30002e0c:	03813083          	ld	ra,56(sp)
    30002e10:	00040513          	mv	a0,s0
    30002e14:	03013403          	ld	s0,48(sp)
    30002e18:	02813483          	ld	s1,40(sp)
    30002e1c:	02013903          	ld	s2,32(sp)
    30002e20:	01813983          	ld	s3,24(sp)
    30002e24:	01013a03          	ld	s4,16(sp)
    30002e28:	00813a83          	ld	s5,8(sp)
    30002e2c:	04010113          	addi	sp,sp,64
    30002e30:	00008067          	ret
    30002e34:	000a8813          	mv	a6,s5
    30002e38:	000a0793          	mv	a5,s4
    30002e3c:	00048713          	mv	a4,s1
    30002e40:	00098613          	mv	a2,s3
    30002e44:	00090593          	mv	a1,s2
    30002e48:	00040513          	mv	a0,s0
    30002e4c:	b9dff0ef          	jal	ra,300029e8 <_rt_thread_init.isra.0>
    30002e50:	fbdff06f          	j	30002e0c <rt_thread_create+0x68>

0000000030002e54 <rt_thread_delete>:
    30002e54:	fe010113          	addi	sp,sp,-32
    30002e58:	00813823          	sd	s0,16(sp)
    30002e5c:	00113c23          	sd	ra,24(sp)
    30002e60:	00913423          	sd	s1,8(sp)
    30002e64:	00050413          	mv	s0,a0
    30002e68:	00051e63          	bnez	a0,30002e84 <rt_thread_delete+0x30>
    30002e6c:	1d500613          	li	a2,469
    30002e70:	4fffe597          	auipc	a1,0x4fffe
    30002e74:	08858593          	addi	a1,a1,136 # 80000ef8 <__FUNCTION__.2690>
    30002e78:	4fffe517          	auipc	a0,0x4fffe
    30002e7c:	e4850513          	addi	a0,a0,-440 # 80000cc0 <__FUNCTION__.2651+0x18>
    30002e80:	e19fe0ef          	jal	ra,30001c98 <rt_assert_handler>
    30002e84:	00040513          	mv	a0,s0
    30002e88:	1a8010ef          	jal	ra,30004030 <rt_object_get_type>
    30002e8c:	00100793          	li	a5,1
    30002e90:	00f50e63          	beq	a0,a5,30002eac <rt_thread_delete+0x58>
    30002e94:	1d600613          	li	a2,470
    30002e98:	4fffe597          	auipc	a1,0x4fffe
    30002e9c:	06058593          	addi	a1,a1,96 # 80000ef8 <__FUNCTION__.2690>
    30002ea0:	4fffe517          	auipc	a0,0x4fffe
    30002ea4:	ee050513          	addi	a0,a0,-288 # 80000d80 <__FUNCTION__.2669+0x88>
    30002ea8:	df1fe0ef          	jal	ra,30001c98 <rt_assert_handler>
    30002eac:	00040513          	mv	a0,s0
    30002eb0:	13c010ef          	jal	ra,30003fec <rt_object_is_systemobject>
    30002eb4:	00050e63          	beqz	a0,30002ed0 <rt_thread_delete+0x7c>
    30002eb8:	1d700613          	li	a2,471
    30002ebc:	4fffe597          	auipc	a1,0x4fffe
    30002ec0:	03c58593          	addi	a1,a1,60 # 80000ef8 <__FUNCTION__.2690>
    30002ec4:	4fffe517          	auipc	a0,0x4fffe
    30002ec8:	f4c50513          	addi	a0,a0,-180 # 80000e10 <__FUNCTION__.2669+0x118>
    30002ecc:	dcdfe0ef          	jal	ra,30001c98 <rt_assert_handler>
    30002ed0:	06844783          	lbu	a5,104(s0)
    30002ed4:	00400713          	li	a4,4
    30002ed8:	0077f793          	andi	a5,a5,7
    30002edc:	04e78063          	beq	a5,a4,30002f1c <rt_thread_delete+0xc8>
    30002ee0:	00078663          	beqz	a5,30002eec <rt_thread_delete+0x98>
    30002ee4:	00040513          	mv	a0,s0
    30002ee8:	f74ff0ef          	jal	ra,3000265c <rt_schedule_remove_thread>
    30002eec:	00040513          	mv	a0,s0
    30002ef0:	a39ff0ef          	jal	ra,30002928 <_rt_thread_cleanup_execute>
    30002ef4:	08840513          	addi	a0,s0,136
    30002ef8:	5c0000ef          	jal	ra,300034b8 <rt_timer_detach>
    30002efc:	5e4020ef          	jal	ra,300054e0 <rt_hw_interrupt_disable>
    30002f00:	00400793          	li	a5,4
    30002f04:	00050493          	mv	s1,a0
    30002f08:	06f40423          	sb	a5,104(s0)
    30002f0c:	00040513          	mv	a0,s0
    30002f10:	cacff0ef          	jal	ra,300023bc <rt_thread_defunct_enqueue>
    30002f14:	00048513          	mv	a0,s1
    30002f18:	5d0020ef          	jal	ra,300054e8 <rt_hw_interrupt_enable>
    30002f1c:	01813083          	ld	ra,24(sp)
    30002f20:	01013403          	ld	s0,16(sp)
    30002f24:	00813483          	ld	s1,8(sp)
    30002f28:	00000513          	li	a0,0
    30002f2c:	02010113          	addi	sp,sp,32
    30002f30:	00008067          	ret

0000000030002f34 <rt_thread_suspend>:
    30002f34:	fe010113          	addi	sp,sp,-32
    30002f38:	00813823          	sd	s0,16(sp)
    30002f3c:	00113c23          	sd	ra,24(sp)
    30002f40:	00913423          	sd	s1,8(sp)
    30002f44:	01213023          	sd	s2,0(sp)
    30002f48:	00050413          	mv	s0,a0
    30002f4c:	00051e63          	bnez	a0,30002f68 <rt_thread_suspend+0x34>
    30002f50:	31400613          	li	a2,788
    30002f54:	4fffe597          	auipc	a1,0x4fffe
    30002f58:	fe458593          	addi	a1,a1,-28 # 80000f38 <__FUNCTION__.2736>
    30002f5c:	4fffe517          	auipc	a0,0x4fffe
    30002f60:	d6450513          	addi	a0,a0,-668 # 80000cc0 <__FUNCTION__.2651+0x18>
    30002f64:	d35fe0ef          	jal	ra,30001c98 <rt_assert_handler>
    30002f68:	00040513          	mv	a0,s0
    30002f6c:	0c4010ef          	jal	ra,30004030 <rt_object_get_type>
    30002f70:	00100793          	li	a5,1
    30002f74:	00f50e63          	beq	a0,a5,30002f90 <rt_thread_suspend+0x5c>
    30002f78:	31500613          	li	a2,789
    30002f7c:	4fffe597          	auipc	a1,0x4fffe
    30002f80:	fbc58593          	addi	a1,a1,-68 # 80000f38 <__FUNCTION__.2736>
    30002f84:	4fffe517          	auipc	a0,0x4fffe
    30002f88:	dfc50513          	addi	a0,a0,-516 # 80000d80 <__FUNCTION__.2669+0x88>
    30002f8c:	d0dfe0ef          	jal	ra,30001c98 <rt_assert_handler>
    30002f90:	06844783          	lbu	a5,104(s0)
    30002f94:	00100713          	li	a4,1
    30002f98:	fff00513          	li	a0,-1
    30002f9c:	0077f913          	andi	s2,a5,7
    30002fa0:	0057f793          	andi	a5,a5,5
    30002fa4:	06e79a63          	bne	a5,a4,30003018 <rt_thread_suspend+0xe4>
    30002fa8:	538020ef          	jal	ra,300054e0 <rt_hw_interrupt_disable>
    30002fac:	00300793          	li	a5,3
    30002fb0:	00050493          	mv	s1,a0
    30002fb4:	02f91263          	bne	s2,a5,30002fd8 <rt_thread_suspend+0xa4>
    30002fb8:	8481b783          	ld	a5,-1976(gp) # 80004210 <rt_current_thread>
    30002fbc:	00f40e63          	beq	s0,a5,30002fd8 <rt_thread_suspend+0xa4>
    30002fc0:	32600613          	li	a2,806
    30002fc4:	4fffe597          	auipc	a1,0x4fffe
    30002fc8:	f7458593          	addi	a1,a1,-140 # 80000f38 <__FUNCTION__.2736>
    30002fcc:	4fffe517          	auipc	a0,0x4fffe
    30002fd0:	e8450513          	addi	a0,a0,-380 # 80000e50 <__FUNCTION__.2669+0x158>
    30002fd4:	cc5fe0ef          	jal	ra,30001c98 <rt_assert_handler>
    30002fd8:	00040513          	mv	a0,s0
    30002fdc:	e80ff0ef          	jal	ra,3000265c <rt_schedule_remove_thread>
    30002fe0:	06844783          	lbu	a5,104(s0)
    30002fe4:	08840513          	addi	a0,s0,136
    30002fe8:	ff87f793          	andi	a5,a5,-8
    30002fec:	0027e793          	ori	a5,a5,2
    30002ff0:	06f40423          	sb	a5,104(s0)
    30002ff4:	714000ef          	jal	ra,30003708 <rt_timer_stop>
    30002ff8:	00048513          	mv	a0,s1
    30002ffc:	4ec020ef          	jal	ra,300054e8 <rt_hw_interrupt_enable>
    30003000:	8801b783          	ld	a5,-1920(gp) # 80004248 <rt_thread_suspend_hook>
    30003004:	00000513          	li	a0,0
    30003008:	00078863          	beqz	a5,30003018 <rt_thread_suspend+0xe4>
    3000300c:	00040513          	mv	a0,s0
    30003010:	000780e7          	jalr	a5
    30003014:	00000513          	li	a0,0
    30003018:	01813083          	ld	ra,24(sp)
    3000301c:	01013403          	ld	s0,16(sp)
    30003020:	00813483          	ld	s1,8(sp)
    30003024:	00013903          	ld	s2,0(sp)
    30003028:	02010113          	addi	sp,sp,32
    3000302c:	00008067          	ret

0000000030003030 <rt_thread_sleep>:
    30003030:	fd010113          	addi	sp,sp,-48
    30003034:	02813023          	sd	s0,32(sp)
    30003038:	02113423          	sd	ra,40(sp)
    3000303c:	00913c23          	sd	s1,24(sp)
    30003040:	01213823          	sd	s2,16(sp)
    30003044:	00a12623          	sw	a0,12(sp)
    30003048:	8481b403          	ld	s0,-1976(gp) # 80004210 <rt_current_thread>
    3000304c:	00041e63          	bnez	s0,30003068 <rt_thread_sleep+0x38>
    30003050:	21d00613          	li	a2,541
    30003054:	4fffe597          	auipc	a1,0x4fffe
    30003058:	ebc58593          	addi	a1,a1,-324 # 80000f10 <__FUNCTION__.2701>
    3000305c:	4fffe517          	auipc	a0,0x4fffe
    30003060:	c6450513          	addi	a0,a0,-924 # 80000cc0 <__FUNCTION__.2651+0x18>
    30003064:	c35fe0ef          	jal	ra,30001c98 <rt_assert_handler>
    30003068:	00040513          	mv	a0,s0
    3000306c:	7c5000ef          	jal	ra,30004030 <rt_object_get_type>
    30003070:	00100793          	li	a5,1
    30003074:	00f50e63          	beq	a0,a5,30003090 <rt_thread_sleep+0x60>
    30003078:	21e00613          	li	a2,542
    3000307c:	4fffe597          	auipc	a1,0x4fffe
    30003080:	e9458593          	addi	a1,a1,-364 # 80000f10 <__FUNCTION__.2701>
    30003084:	4fffe517          	auipc	a0,0x4fffe
    30003088:	cfc50513          	addi	a0,a0,-772 # 80000d80 <__FUNCTION__.2669+0x88>
    3000308c:	c0dfe0ef          	jal	ra,30001c98 <rt_assert_handler>
    30003090:	450020ef          	jal	ra,300054e0 <rt_hw_interrupt_disable>
    30003094:	00050913          	mv	s2,a0
    30003098:	00040513          	mv	a0,s0
    3000309c:	e99ff0ef          	jal	ra,30002f34 <rt_thread_suspend>
    300030a0:	08840493          	addi	s1,s0,136
    300030a4:	00c10613          	addi	a2,sp,12
    300030a8:	00000593          	li	a1,0
    300030ac:	00048513          	mv	a0,s1
    300030b0:	70c000ef          	jal	ra,300037bc <rt_timer_control>
    300030b4:	00048513          	mv	a0,s1
    300030b8:	4c0000ef          	jal	ra,30003578 <rt_timer_start>
    300030bc:	00090513          	mv	a0,s2
    300030c0:	428020ef          	jal	ra,300054e8 <rt_hw_interrupt_enable>
    300030c4:	e7cff0ef          	jal	ra,30002740 <rt_schedule>
    300030c8:	06043703          	ld	a4,96(s0)
    300030cc:	ffe00793          	li	a5,-2
    300030d0:	00f71463          	bne	a4,a5,300030d8 <rt_thread_sleep+0xa8>
    300030d4:	06043023          	sd	zero,96(s0)
    300030d8:	02813083          	ld	ra,40(sp)
    300030dc:	02013403          	ld	s0,32(sp)
    300030e0:	01813483          	ld	s1,24(sp)
    300030e4:	01013903          	ld	s2,16(sp)
    300030e8:	00000513          	li	a0,0
    300030ec:	03010113          	addi	sp,sp,48
    300030f0:	00008067          	ret

00000000300030f4 <rt_thread_delay>:
    300030f4:	f3dff06f          	j	30003030 <rt_thread_sleep>

00000000300030f8 <rt_thread_mdelay>:
    300030f8:	ff010113          	addi	sp,sp,-16
    300030fc:	00113423          	sd	ra,8(sp)
    30003100:	cf5fd0ef          	jal	ra,30000df4 <rt_tick_from_millisecond>
    30003104:	00813083          	ld	ra,8(sp)
    30003108:	0005051b          	sext.w	a0,a0
    3000310c:	01010113          	addi	sp,sp,16
    30003110:	f21ff06f          	j	30003030 <rt_thread_sleep>

0000000030003114 <rt_thread_resume>:
    30003114:	fe010113          	addi	sp,sp,-32
    30003118:	00813823          	sd	s0,16(sp)
    3000311c:	00113c23          	sd	ra,24(sp)
    30003120:	00913423          	sd	s1,8(sp)
    30003124:	00050413          	mv	s0,a0
    30003128:	00051e63          	bnez	a0,30003144 <rt_thread_resume+0x30>
    3000312c:	34400613          	li	a2,836
    30003130:	4fffe597          	auipc	a1,0x4fffe
    30003134:	e2058593          	addi	a1,a1,-480 # 80000f50 <__FUNCTION__.2741>
    30003138:	4fffe517          	auipc	a0,0x4fffe
    3000313c:	b8850513          	addi	a0,a0,-1144 # 80000cc0 <__FUNCTION__.2651+0x18>
    30003140:	b59fe0ef          	jal	ra,30001c98 <rt_assert_handler>
    30003144:	00040513          	mv	a0,s0
    30003148:	6e9000ef          	jal	ra,30004030 <rt_object_get_type>
    3000314c:	00100793          	li	a5,1
    30003150:	00f50e63          	beq	a0,a5,3000316c <rt_thread_resume+0x58>
    30003154:	34500613          	li	a2,837
    30003158:	4fffe597          	auipc	a1,0x4fffe
    3000315c:	df858593          	addi	a1,a1,-520 # 80000f50 <__FUNCTION__.2741>
    30003160:	4fffe517          	auipc	a0,0x4fffe
    30003164:	c2050513          	addi	a0,a0,-992 # 80000d80 <__FUNCTION__.2669+0x88>
    30003168:	b31fe0ef          	jal	ra,30001c98 <rt_assert_handler>
    3000316c:	06844783          	lbu	a5,104(s0)
    30003170:	00200713          	li	a4,2
    30003174:	fff00513          	li	a0,-1
    30003178:	0077f793          	andi	a5,a5,7
    3000317c:	04e79c63          	bne	a5,a4,300031d4 <rt_thread_resume+0xc0>
    30003180:	360020ef          	jal	ra,300054e0 <rt_hw_interrupt_disable>
    30003184:	02843683          	ld	a3,40(s0)
    30003188:	03043703          	ld	a4,48(s0)
    3000318c:	02840793          	addi	a5,s0,40
    30003190:	00050493          	mv	s1,a0
    30003194:	00e6b423          	sd	a4,8(a3)
    30003198:	00d73023          	sd	a3,0(a4)
    3000319c:	02f43823          	sd	a5,48(s0)
    300031a0:	02f43423          	sd	a5,40(s0)
    300031a4:	08840513          	addi	a0,s0,136
    300031a8:	560000ef          	jal	ra,30003708 <rt_timer_stop>
    300031ac:	00040513          	mv	a0,s0
    300031b0:	c08ff0ef          	jal	ra,300025b8 <rt_schedule_insert_thread>
    300031b4:	00048513          	mv	a0,s1
    300031b8:	330020ef          	jal	ra,300054e8 <rt_hw_interrupt_enable>
    300031bc:	8781b783          	ld	a5,-1928(gp) # 80004240 <rt_thread_resume_hook>
    300031c0:	00000513          	li	a0,0
    300031c4:	00078863          	beqz	a5,300031d4 <rt_thread_resume+0xc0>
    300031c8:	00040513          	mv	a0,s0
    300031cc:	000780e7          	jalr	a5
    300031d0:	00000513          	li	a0,0
    300031d4:	01813083          	ld	ra,24(sp)
    300031d8:	01013403          	ld	s0,16(sp)
    300031dc:	00813483          	ld	s1,8(sp)
    300031e0:	02010113          	addi	sp,sp,32
    300031e4:	00008067          	ret

00000000300031e8 <rt_thread_startup>:
    300031e8:	ff010113          	addi	sp,sp,-16
    300031ec:	00813023          	sd	s0,0(sp)
    300031f0:	00113423          	sd	ra,8(sp)
    300031f4:	00050413          	mv	s0,a0
    300031f8:	00051e63          	bnez	a0,30003214 <rt_thread_startup+0x2c>
    300031fc:	14100613          	li	a2,321
    30003200:	4fffe597          	auipc	a1,0x4fffe
    30003204:	cc858593          	addi	a1,a1,-824 # 80000ec8 <__FUNCTION__.2669>
    30003208:	4fffe517          	auipc	a0,0x4fffe
    3000320c:	ab850513          	addi	a0,a0,-1352 # 80000cc0 <__FUNCTION__.2651+0x18>
    30003210:	a89fe0ef          	jal	ra,30001c98 <rt_assert_handler>
    30003214:	06844783          	lbu	a5,104(s0)
    30003218:	0077f793          	andi	a5,a5,7
    3000321c:	00078e63          	beqz	a5,30003238 <rt_thread_startup+0x50>
    30003220:	14200613          	li	a2,322
    30003224:	4fffe597          	auipc	a1,0x4fffe
    30003228:	ca458593          	addi	a1,a1,-860 # 80000ec8 <__FUNCTION__.2669>
    3000322c:	4fffe517          	auipc	a0,0x4fffe
    30003230:	c4450513          	addi	a0,a0,-956 # 80000e70 <__FUNCTION__.2669+0x178>
    30003234:	a65fe0ef          	jal	ra,30001c98 <rt_assert_handler>
    30003238:	00040513          	mv	a0,s0
    3000323c:	5f5000ef          	jal	ra,30004030 <rt_object_get_type>
    30003240:	00100793          	li	a5,1
    30003244:	00f50e63          	beq	a0,a5,30003260 <rt_thread_startup+0x78>
    30003248:	14300613          	li	a2,323
    3000324c:	4fffe597          	auipc	a1,0x4fffe
    30003250:	c7c58593          	addi	a1,a1,-900 # 80000ec8 <__FUNCTION__.2669>
    30003254:	4fffe517          	auipc	a0,0x4fffe
    30003258:	b2c50513          	addi	a0,a0,-1236 # 80000d80 <__FUNCTION__.2669+0x88>
    3000325c:	a3dfe0ef          	jal	ra,30001c98 <rt_assert_handler>
    30003260:	06a44703          	lbu	a4,106(s0)
    30003264:	00100793          	li	a5,1
    30003268:	00040513          	mv	a0,s0
    3000326c:	00e797b3          	sll	a5,a5,a4
    30003270:	06f42623          	sw	a5,108(s0)
    30003274:	00200793          	li	a5,2
    30003278:	06f40423          	sb	a5,104(s0)
    3000327c:	06e404a3          	sb	a4,105(s0)
    30003280:	e95ff0ef          	jal	ra,30003114 <rt_thread_resume>
    30003284:	8481b783          	ld	a5,-1976(gp) # 80004210 <rt_current_thread>
    30003288:	00078463          	beqz	a5,30003290 <rt_thread_startup+0xa8>
    3000328c:	cb4ff0ef          	jal	ra,30002740 <rt_schedule>
    30003290:	00813083          	ld	ra,8(sp)
    30003294:	00013403          	ld	s0,0(sp)
    30003298:	00000513          	li	a0,0
    3000329c:	01010113          	addi	sp,sp,16
    300032a0:	00008067          	ret

00000000300032a4 <rt_thread_control>:
    300032a4:	fc010113          	addi	sp,sp,-64
    300032a8:	02813823          	sd	s0,48(sp)
    300032ac:	02913423          	sd	s1,40(sp)
    300032b0:	03213023          	sd	s2,32(sp)
    300032b4:	02113c23          	sd	ra,56(sp)
    300032b8:	01313c23          	sd	s3,24(sp)
    300032bc:	00050413          	mv	s0,a0
    300032c0:	00058493          	mv	s1,a1
    300032c4:	00060913          	mv	s2,a2
    300032c8:	00051e63          	bnez	a0,300032e4 <rt_thread_control+0x40>
    300032cc:	2a200613          	li	a2,674
    300032d0:	4fffe597          	auipc	a1,0x4fffe
    300032d4:	c5058593          	addi	a1,a1,-944 # 80000f20 <__FUNCTION__.2724>
    300032d8:	4fffe517          	auipc	a0,0x4fffe
    300032dc:	9e850513          	addi	a0,a0,-1560 # 80000cc0 <__FUNCTION__.2651+0x18>
    300032e0:	9b9fe0ef          	jal	ra,30001c98 <rt_assert_handler>
    300032e4:	00040513          	mv	a0,s0
    300032e8:	549000ef          	jal	ra,30004030 <rt_object_get_type>
    300032ec:	00100793          	li	a5,1
    300032f0:	00f50e63          	beq	a0,a5,3000330c <rt_thread_control+0x68>
    300032f4:	2a300613          	li	a2,675
    300032f8:	4fffe597          	auipc	a1,0x4fffe
    300032fc:	c2858593          	addi	a1,a1,-984 # 80000f20 <__FUNCTION__.2724>
    30003300:	4fffe517          	auipc	a0,0x4fffe
    30003304:	a8050513          	addi	a0,a0,-1408 # 80000d80 <__FUNCTION__.2669+0x88>
    30003308:	991fe0ef          	jal	ra,30001c98 <rt_assert_handler>
    3000330c:	00100993          	li	s3,1
    30003310:	0b348663          	beq	s1,s3,300033bc <rt_thread_control+0x118>
    30003314:	00200793          	li	a5,2
    30003318:	02f48463          	beq	s1,a5,30003340 <rt_thread_control+0x9c>
    3000331c:	08048063          	beqz	s1,3000339c <rt_thread_control+0xf8>
    30003320:	00000513          	li	a0,0
    30003324:	03813083          	ld	ra,56(sp)
    30003328:	03013403          	ld	s0,48(sp)
    3000332c:	02813483          	ld	s1,40(sp)
    30003330:	02013903          	ld	s2,32(sp)
    30003334:	01813983          	ld	s3,24(sp)
    30003338:	04010113          	addi	sp,sp,64
    3000333c:	00008067          	ret
    30003340:	1a0020ef          	jal	ra,300054e0 <rt_hw_interrupt_disable>
    30003344:	06844783          	lbu	a5,104(s0)
    30003348:	00050493          	mv	s1,a0
    3000334c:	0077f793          	andi	a5,a5,7
    30003350:	03379a63          	bne	a5,s3,30003384 <rt_thread_control+0xe0>
    30003354:	00040513          	mv	a0,s0
    30003358:	b04ff0ef          	jal	ra,3000265c <rt_schedule_remove_thread>
    3000335c:	00094703          	lbu	a4,0(s2)
    30003360:	00100793          	li	a5,1
    30003364:	00040513          	mv	a0,s0
    30003368:	00e797bb          	sllw	a5,a5,a4
    3000336c:	06e404a3          	sb	a4,105(s0)
    30003370:	06f42623          	sw	a5,108(s0)
    30003374:	a44ff0ef          	jal	ra,300025b8 <rt_schedule_insert_thread>
    30003378:	00048513          	mv	a0,s1
    3000337c:	16c020ef          	jal	ra,300054e8 <rt_hw_interrupt_enable>
    30003380:	fa1ff06f          	j	30003320 <rt_thread_control+0x7c>
    30003384:	00094703          	lbu	a4,0(s2)
    30003388:	00100793          	li	a5,1
    3000338c:	00e797bb          	sllw	a5,a5,a4
    30003390:	06e404a3          	sb	a4,105(s0)
    30003394:	06f42623          	sw	a5,108(s0)
    30003398:	fe1ff06f          	j	30003378 <rt_thread_control+0xd4>
    3000339c:	00040513          	mv	a0,s0
    300033a0:	03013403          	ld	s0,48(sp)
    300033a4:	03813083          	ld	ra,56(sp)
    300033a8:	02813483          	ld	s1,40(sp)
    300033ac:	02013903          	ld	s2,32(sp)
    300033b0:	01813983          	ld	s3,24(sp)
    300033b4:	04010113          	addi	sp,sp,64
    300033b8:	e31ff06f          	j	300031e8 <rt_thread_startup>
    300033bc:	00040513          	mv	a0,s0
    300033c0:	42d000ef          	jal	ra,30003fec <rt_object_is_systemobject>
    300033c4:	00951e63          	bne	a0,s1,300033e0 <rt_thread_control+0x13c>
    300033c8:	00040513          	mv	a0,s0
    300033cc:	8ddff0ef          	jal	ra,30002ca8 <rt_thread_detach>
    300033d0:	00a13423          	sd	a0,8(sp)
    300033d4:	b6cff0ef          	jal	ra,30002740 <rt_schedule>
    300033d8:	00813503          	ld	a0,8(sp)
    300033dc:	f49ff06f          	j	30003324 <rt_thread_control+0x80>
    300033e0:	00040513          	mv	a0,s0
    300033e4:	a71ff0ef          	jal	ra,30002e54 <rt_thread_delete>
    300033e8:	fe9ff06f          	j	300033d0 <rt_thread_control+0x12c>

00000000300033ec <_rt_timer_remove>:
    300033ec:	02853683          	ld	a3,40(a0)
    300033f0:	03053703          	ld	a4,48(a0)
    300033f4:	02850793          	addi	a5,a0,40
    300033f8:	00e6b423          	sd	a4,8(a3)
    300033fc:	00d73023          	sd	a3,0(a4)
    30003400:	02f53823          	sd	a5,48(a0)
    30003404:	02f53423          	sd	a5,40(a0)
    30003408:	00008067          	ret

000000003000340c <rt_timer_init>:
    3000340c:	fc010113          	addi	sp,sp,-64
    30003410:	02813823          	sd	s0,48(sp)
    30003414:	02913423          	sd	s1,40(sp)
    30003418:	03213023          	sd	s2,32(sp)
    3000341c:	01313c23          	sd	s3,24(sp)
    30003420:	01413823          	sd	s4,16(sp)
    30003424:	01513423          	sd	s5,8(sp)
    30003428:	02113c23          	sd	ra,56(sp)
    3000342c:	00050413          	mv	s0,a0
    30003430:	00058a93          	mv	s5,a1
    30003434:	00060a13          	mv	s4,a2
    30003438:	00068993          	mv	s3,a3
    3000343c:	00070913          	mv	s2,a4
    30003440:	00078493          	mv	s1,a5
    30003444:	00051e63          	bnez	a0,30003460 <rt_timer_init+0x54>
    30003448:	0c900613          	li	a2,201
    3000344c:	4fffe597          	auipc	a1,0x4fffe
    30003450:	bfc58593          	addi	a1,a1,-1028 # 80001048 <__FUNCTION__.2665>
    30003454:	4fffe517          	auipc	a0,0x4fffe
    30003458:	b2c50513          	addi	a0,a0,-1236 # 80000f80 <__FUNCTION__.2747+0x18>
    3000345c:	83dfe0ef          	jal	ra,30001c98 <rt_assert_handler>
    30003460:	000a8613          	mv	a2,s5
    30003464:	00040513          	mv	a0,s0
    30003468:	00a00593          	li	a1,10
    3000346c:	055000ef          	jal	ra,30003cc0 <rt_object_init>
    30003470:	02840793          	addi	a5,s0,40
    30003474:	ffe4f493          	andi	s1,s1,-2
    30003478:	00940aa3          	sb	s1,21(s0)
    3000347c:	03443c23          	sd	s4,56(s0)
    30003480:	05343023          	sd	s3,64(s0)
    30003484:	05242423          	sw	s2,72(s0)
    30003488:	03813083          	ld	ra,56(sp)
    3000348c:	04042623          	sw	zero,76(s0)
    30003490:	02f43823          	sd	a5,48(s0)
    30003494:	02f43423          	sd	a5,40(s0)
    30003498:	03013403          	ld	s0,48(sp)
    3000349c:	02813483          	ld	s1,40(sp)
    300034a0:	02013903          	ld	s2,32(sp)
    300034a4:	01813983          	ld	s3,24(sp)
    300034a8:	01013a03          	ld	s4,16(sp)
    300034ac:	00813a83          	ld	s5,8(sp)
    300034b0:	04010113          	addi	sp,sp,64
    300034b4:	00008067          	ret

00000000300034b8 <rt_timer_detach>:
    300034b8:	fe010113          	addi	sp,sp,-32
    300034bc:	00813823          	sd	s0,16(sp)
    300034c0:	00113c23          	sd	ra,24(sp)
    300034c4:	00913423          	sd	s1,8(sp)
    300034c8:	00050413          	mv	s0,a0
    300034cc:	00051e63          	bnez	a0,300034e8 <rt_timer_detach+0x30>
    300034d0:	0de00613          	li	a2,222
    300034d4:	4fffe597          	auipc	a1,0x4fffe
    300034d8:	b8458593          	addi	a1,a1,-1148 # 80001058 <__FUNCTION__.2670>
    300034dc:	4fffe517          	auipc	a0,0x4fffe
    300034e0:	aa450513          	addi	a0,a0,-1372 # 80000f80 <__FUNCTION__.2747+0x18>
    300034e4:	fb4fe0ef          	jal	ra,30001c98 <rt_assert_handler>
    300034e8:	00040513          	mv	a0,s0
    300034ec:	345000ef          	jal	ra,30004030 <rt_object_get_type>
    300034f0:	00a00793          	li	a5,10
    300034f4:	00f50e63          	beq	a0,a5,30003510 <rt_timer_detach+0x58>
    300034f8:	0df00613          	li	a2,223
    300034fc:	4fffe597          	auipc	a1,0x4fffe
    30003500:	b5c58593          	addi	a1,a1,-1188 # 80001058 <__FUNCTION__.2670>
    30003504:	4fffe517          	auipc	a0,0x4fffe
    30003508:	a9450513          	addi	a0,a0,-1388 # 80000f98 <__FUNCTION__.2747+0x30>
    3000350c:	f8cfe0ef          	jal	ra,30001c98 <rt_assert_handler>
    30003510:	00040513          	mv	a0,s0
    30003514:	2d9000ef          	jal	ra,30003fec <rt_object_is_systemobject>
    30003518:	00051e63          	bnez	a0,30003534 <rt_timer_detach+0x7c>
    3000351c:	0e000613          	li	a2,224
    30003520:	4fffe597          	auipc	a1,0x4fffe
    30003524:	b3858593          	addi	a1,a1,-1224 # 80001058 <__FUNCTION__.2670>
    30003528:	4fffe517          	auipc	a0,0x4fffe
    3000352c:	ab050513          	addi	a0,a0,-1360 # 80000fd8 <__FUNCTION__.2747+0x70>
    30003530:	f68fe0ef          	jal	ra,30001c98 <rt_assert_handler>
    30003534:	7ad010ef          	jal	ra,300054e0 <rt_hw_interrupt_disable>
    30003538:	00050493          	mv	s1,a0
    3000353c:	00040513          	mv	a0,s0
    30003540:	eadff0ef          	jal	ra,300033ec <_rt_timer_remove>
    30003544:	01544783          	lbu	a5,21(s0)
    30003548:	00048513          	mv	a0,s1
    3000354c:	ffe7f793          	andi	a5,a5,-2
    30003550:	00f40aa3          	sb	a5,21(s0)
    30003554:	795010ef          	jal	ra,300054e8 <rt_hw_interrupt_enable>
    30003558:	00040513          	mv	a0,s0
    3000355c:	075000ef          	jal	ra,30003dd0 <rt_object_detach>
    30003560:	01813083          	ld	ra,24(sp)
    30003564:	01013403          	ld	s0,16(sp)
    30003568:	00813483          	ld	s1,8(sp)
    3000356c:	00000513          	li	a0,0
    30003570:	02010113          	addi	sp,sp,32
    30003574:	00008067          	ret

0000000030003578 <rt_timer_start>:
    30003578:	fe010113          	addi	sp,sp,-32
    3000357c:	00813823          	sd	s0,16(sp)
    30003580:	00113c23          	sd	ra,24(sp)
    30003584:	00913423          	sd	s1,8(sp)
    30003588:	00050413          	mv	s0,a0
    3000358c:	00051e63          	bnez	a0,300035a8 <rt_timer_start+0x30>
    30003590:	14500613          	li	a2,325
    30003594:	4fffe597          	auipc	a1,0x4fffe
    30003598:	ad458593          	addi	a1,a1,-1324 # 80001068 <__FUNCTION__.2694>
    3000359c:	4fffe517          	auipc	a0,0x4fffe
    300035a0:	9e450513          	addi	a0,a0,-1564 # 80000f80 <__FUNCTION__.2747+0x18>
    300035a4:	ef4fe0ef          	jal	ra,30001c98 <rt_assert_handler>
    300035a8:	00040513          	mv	a0,s0
    300035ac:	285000ef          	jal	ra,30004030 <rt_object_get_type>
    300035b0:	00a00793          	li	a5,10
    300035b4:	00f50e63          	beq	a0,a5,300035d0 <rt_timer_start+0x58>
    300035b8:	14600613          	li	a2,326
    300035bc:	4fffe597          	auipc	a1,0x4fffe
    300035c0:	aac58593          	addi	a1,a1,-1364 # 80001068 <__FUNCTION__.2694>
    300035c4:	4fffe517          	auipc	a0,0x4fffe
    300035c8:	9d450513          	addi	a0,a0,-1580 # 80000f98 <__FUNCTION__.2747+0x30>
    300035cc:	eccfe0ef          	jal	ra,30001c98 <rt_assert_handler>
    300035d0:	711010ef          	jal	ra,300054e0 <rt_hw_interrupt_disable>
    300035d4:	00050493          	mv	s1,a0
    300035d8:	00040513          	mv	a0,s0
    300035dc:	e11ff0ef          	jal	ra,300033ec <_rt_timer_remove>
    300035e0:	01544783          	lbu	a5,21(s0)
    300035e4:	ffe7f793          	andi	a5,a5,-2
    300035e8:	00f40aa3          	sb	a5,21(s0)
    300035ec:	8b81b783          	ld	a5,-1864(gp) # 80004280 <rt_object_take_hook>
    300035f0:	00078663          	beqz	a5,300035fc <rt_timer_start+0x84>
    300035f4:	00040513          	mv	a0,s0
    300035f8:	000780e7          	jalr	a5
    300035fc:	04842703          	lw	a4,72(s0)
    30003600:	800007b7          	lui	a5,0x80000
    30003604:	ffe7c793          	xori	a5,a5,-2
    30003608:	00e7fe63          	bgeu	a5,a4,30003624 <rt_timer_start+0xac>
    3000360c:	15500613          	li	a2,341
    30003610:	4fffe597          	auipc	a1,0x4fffe
    30003614:	a5858593          	addi	a1,a1,-1448 # 80001068 <__FUNCTION__.2694>
    30003618:	4fffe517          	auipc	a0,0x4fffe
    3000361c:	9f050513          	addi	a0,a0,-1552 # 80001008 <__FUNCTION__.2747+0xa0>
    30003620:	e78fe0ef          	jal	ra,30001c98 <rt_assert_handler>
    30003624:	f58fd0ef          	jal	ra,30000d7c <rt_tick_get>
    30003628:	04842783          	lw	a5,72(s0)
    3000362c:	01544703          	lbu	a4,21(s0)
    30003630:	00a785bb          	addw	a1,a5,a0
    30003634:	04b42623          	sw	a1,76(s0)
    30003638:	00477713          	andi	a4,a4,4
    3000363c:	50005797          	auipc	a5,0x50005
    30003640:	19c78793          	addi	a5,a5,412 # 800087d8 <rt_soft_timer_list>
    30003644:	00071663          	bnez	a4,30003650 <rt_timer_start+0xd8>
    30003648:	50005797          	auipc	a5,0x50005
    3000364c:	1a078793          	addi	a5,a5,416 # 800087e8 <rt_timer_list>
    30003650:	0087b503          	ld	a0,8(a5)
    30003654:	80000637          	lui	a2,0x80000
    30003658:	ffe64613          	xori	a2,a2,-2
    3000365c:	0007b703          	ld	a4,0(a5)
    30003660:	08f51863          	bne	a0,a5,300036f0 <rt_timer_start+0x178>
    30003664:	88818613          	addi	a2,gp,-1912 # 80004250 <random_nr.2693>
    30003668:	00062683          	lw	a3,0(a2) # ffffffff80000000 <__stack_start__+0xfffffffeff000000>
    3000366c:	00048513          	mv	a0,s1
    30003670:	0016869b          	addiw	a3,a3,1
    30003674:	00d62023          	sw	a3,0(a2)
    30003678:	02840693          	addi	a3,s0,40
    3000367c:	00d73423          	sd	a3,8(a4)
    30003680:	02e43423          	sd	a4,40(s0)
    30003684:	00d7b023          	sd	a3,0(a5)
    30003688:	02f43823          	sd	a5,48(s0)
    3000368c:	01544783          	lbu	a5,21(s0)
    30003690:	0017e793          	ori	a5,a5,1
    30003694:	00f40aa3          	sb	a5,21(s0)
    30003698:	651010ef          	jal	ra,300054e8 <rt_hw_interrupt_enable>
    3000369c:	01544783          	lbu	a5,21(s0)
    300036a0:	0047f793          	andi	a5,a5,4
    300036a4:	02078a63          	beqz	a5,300036d8 <rt_timer_start+0x160>
    300036a8:	50001717          	auipc	a4,0x50001
    300036ac:	b2074703          	lbu	a4,-1248(a4) # 800041c8 <soft_timer_status>
    300036b0:	00100793          	li	a5,1
    300036b4:	02f71263          	bne	a4,a5,300036d8 <rt_timer_start+0x160>
    300036b8:	50005517          	auipc	a0,0x50005
    300036bc:	14050513          	addi	a0,a0,320 # 800087f8 <timer_thread>
    300036c0:	06854783          	lbu	a5,104(a0)
    300036c4:	00200713          	li	a4,2
    300036c8:	0077f793          	andi	a5,a5,7
    300036cc:	00e79663          	bne	a5,a4,300036d8 <rt_timer_start+0x160>
    300036d0:	a45ff0ef          	jal	ra,30003114 <rt_thread_resume>
    300036d4:	86cff0ef          	jal	ra,30002740 <rt_schedule>
    300036d8:	01813083          	ld	ra,24(sp)
    300036dc:	01013403          	ld	s0,16(sp)
    300036e0:	00813483          	ld	s1,8(sp)
    300036e4:	00000513          	li	a0,0
    300036e8:	02010113          	addi	sp,sp,32
    300036ec:	00008067          	ret
    300036f0:	02472683          	lw	a3,36(a4)
    300036f4:	00d58663          	beq	a1,a3,30003700 <rt_timer_start+0x188>
    300036f8:	40b686bb          	subw	a3,a3,a1
    300036fc:	f6d674e3          	bgeu	a2,a3,30003664 <rt_timer_start+0xec>
    30003700:	00070793          	mv	a5,a4
    30003704:	f59ff06f          	j	3000365c <rt_timer_start+0xe4>

0000000030003708 <rt_timer_stop>:
    30003708:	fe010113          	addi	sp,sp,-32
    3000370c:	00813823          	sd	s0,16(sp)
    30003710:	00113c23          	sd	ra,24(sp)
    30003714:	00913423          	sd	s1,8(sp)
    30003718:	00050413          	mv	s0,a0
    3000371c:	00051e63          	bnez	a0,30003738 <rt_timer_stop+0x30>
    30003720:	1bb00613          	li	a2,443
    30003724:	4fffe597          	auipc	a1,0x4fffe
    30003728:	95458593          	addi	a1,a1,-1708 # 80001078 <__FUNCTION__.2711>
    3000372c:	4fffe517          	auipc	a0,0x4fffe
    30003730:	85450513          	addi	a0,a0,-1964 # 80000f80 <__FUNCTION__.2747+0x18>
    30003734:	d64fe0ef          	jal	ra,30001c98 <rt_assert_handler>
    30003738:	00040513          	mv	a0,s0
    3000373c:	0f5000ef          	jal	ra,30004030 <rt_object_get_type>
    30003740:	00a00793          	li	a5,10
    30003744:	00f50e63          	beq	a0,a5,30003760 <rt_timer_stop+0x58>
    30003748:	1bc00613          	li	a2,444
    3000374c:	4fffe597          	auipc	a1,0x4fffe
    30003750:	92c58593          	addi	a1,a1,-1748 # 80001078 <__FUNCTION__.2711>
    30003754:	4fffe517          	auipc	a0,0x4fffe
    30003758:	84450513          	addi	a0,a0,-1980 # 80000f98 <__FUNCTION__.2747+0x30>
    3000375c:	d3cfe0ef          	jal	ra,30001c98 <rt_assert_handler>
    30003760:	01544783          	lbu	a5,21(s0)
    30003764:	fff00513          	li	a0,-1
    30003768:	0017f793          	andi	a5,a5,1
    3000376c:	02078e63          	beqz	a5,300037a8 <rt_timer_stop+0xa0>
    30003770:	8b01b783          	ld	a5,-1872(gp) # 80004278 <rt_object_put_hook>
    30003774:	00078663          	beqz	a5,30003780 <rt_timer_stop+0x78>
    30003778:	00040513          	mv	a0,s0
    3000377c:	000780e7          	jalr	a5
    30003780:	561010ef          	jal	ra,300054e0 <rt_hw_interrupt_disable>
    30003784:	00050493          	mv	s1,a0
    30003788:	00040513          	mv	a0,s0
    3000378c:	c61ff0ef          	jal	ra,300033ec <_rt_timer_remove>
    30003790:	01544783          	lbu	a5,21(s0)
    30003794:	00048513          	mv	a0,s1
    30003798:	ffe7f793          	andi	a5,a5,-2
    3000379c:	00f40aa3          	sb	a5,21(s0)
    300037a0:	549010ef          	jal	ra,300054e8 <rt_hw_interrupt_enable>
    300037a4:	00000513          	li	a0,0
    300037a8:	01813083          	ld	ra,24(sp)
    300037ac:	01013403          	ld	s0,16(sp)
    300037b0:	00813483          	ld	s1,8(sp)
    300037b4:	02010113          	addi	sp,sp,32
    300037b8:	00008067          	ret

00000000300037bc <rt_timer_control>:
    300037bc:	fe010113          	addi	sp,sp,-32
    300037c0:	00813823          	sd	s0,16(sp)
    300037c4:	00913423          	sd	s1,8(sp)
    300037c8:	01213023          	sd	s2,0(sp)
    300037cc:	00113c23          	sd	ra,24(sp)
    300037d0:	00050413          	mv	s0,a0
    300037d4:	00058493          	mv	s1,a1
    300037d8:	00060913          	mv	s2,a2
    300037dc:	00051e63          	bnez	a0,300037f8 <rt_timer_control+0x3c>
    300037e0:	1df00613          	li	a2,479
    300037e4:	4fffe597          	auipc	a1,0x4fffe
    300037e8:	8a458593          	addi	a1,a1,-1884 # 80001088 <__FUNCTION__.2718>
    300037ec:	4fffd517          	auipc	a0,0x4fffd
    300037f0:	79450513          	addi	a0,a0,1940 # 80000f80 <__FUNCTION__.2747+0x18>
    300037f4:	ca4fe0ef          	jal	ra,30001c98 <rt_assert_handler>
    300037f8:	00040513          	mv	a0,s0
    300037fc:	035000ef          	jal	ra,30004030 <rt_object_get_type>
    30003800:	00a00793          	li	a5,10
    30003804:	00f50e63          	beq	a0,a5,30003820 <rt_timer_control+0x64>
    30003808:	1e000613          	li	a2,480
    3000380c:	4fffe597          	auipc	a1,0x4fffe
    30003810:	87c58593          	addi	a1,a1,-1924 # 80001088 <__FUNCTION__.2718>
    30003814:	4fffd517          	auipc	a0,0x4fffd
    30003818:	78450513          	addi	a0,a0,1924 # 80000f98 <__FUNCTION__.2747+0x30>
    3000381c:	c7cfe0ef          	jal	ra,30001c98 <rt_assert_handler>
    30003820:	4c1010ef          	jal	ra,300054e0 <rt_hw_interrupt_disable>
    30003824:	00400793          	li	a5,4
    30003828:	0297ea63          	bltu	a5,s1,3000385c <rt_timer_control+0xa0>
    3000382c:	4fffe717          	auipc	a4,0x4fffe
    30003830:	80070713          	addi	a4,a4,-2048 # 8000102c <__FUNCTION__.2747+0xc4>
    30003834:	00249493          	slli	s1,s1,0x2
    30003838:	00e484b3          	add	s1,s1,a4
    3000383c:	0004a783          	lw	a5,0(s1)
    30003840:	00e787b3          	add	a5,a5,a4
    30003844:	00078067          	jr	a5
    30003848:	04842783          	lw	a5,72(s0)
    3000384c:	00f92023          	sw	a5,0(s2)
    30003850:	00c0006f          	j	3000385c <rt_timer_control+0xa0>
    30003854:	00092783          	lw	a5,0(s2)
    30003858:	04f42423          	sw	a5,72(s0)
    3000385c:	48d010ef          	jal	ra,300054e8 <rt_hw_interrupt_enable>
    30003860:	01813083          	ld	ra,24(sp)
    30003864:	01013403          	ld	s0,16(sp)
    30003868:	00813483          	ld	s1,8(sp)
    3000386c:	00013903          	ld	s2,0(sp)
    30003870:	00000513          	li	a0,0
    30003874:	02010113          	addi	sp,sp,32
    30003878:	00008067          	ret
    3000387c:	01544783          	lbu	a5,21(s0)
    30003880:	ffd7f793          	andi	a5,a5,-3
    30003884:	00f40aa3          	sb	a5,21(s0)
    30003888:	fd5ff06f          	j	3000385c <rt_timer_control+0xa0>
    3000388c:	01544783          	lbu	a5,21(s0)
    30003890:	0027e793          	ori	a5,a5,2
    30003894:	ff1ff06f          	j	30003884 <rt_timer_control+0xc8>
    30003898:	01544783          	lbu	a5,21(s0)
    3000389c:	0017f793          	andi	a5,a5,1
    300038a0:	00078663          	beqz	a5,300038ac <rt_timer_control+0xf0>
    300038a4:	00100793          	li	a5,1
    300038a8:	fa5ff06f          	j	3000384c <rt_timer_control+0x90>
    300038ac:	00092023          	sw	zero,0(s2)
    300038b0:	fadff06f          	j	3000385c <rt_timer_control+0xa0>

00000000300038b4 <rt_timer_check>:
    300038b4:	f9010113          	addi	sp,sp,-112
    300038b8:	05213823          	sd	s2,80(sp)
    300038bc:	00010913          	mv	s2,sp
    300038c0:	06113423          	sd	ra,104(sp)
    300038c4:	04913c23          	sd	s1,88(sp)
    300038c8:	05413023          	sd	s4,64(sp)
    300038cc:	03513c23          	sd	s5,56(sp)
    300038d0:	03613823          	sd	s6,48(sp)
    300038d4:	03713423          	sd	s7,40(sp)
    300038d8:	03813023          	sd	s8,32(sp)
    300038dc:	01913c23          	sd	s9,24(sp)
    300038e0:	06813023          	sd	s0,96(sp)
    300038e4:	05313423          	sd	s3,72(sp)
    300038e8:	01213423          	sd	s2,8(sp)
    300038ec:	01213023          	sd	s2,0(sp)
    300038f0:	c8cfd0ef          	jal	ra,30000d7c <rt_tick_get>
    300038f4:	0005049b          	sext.w	s1,a0
    300038f8:	80000ab7          	lui	s5,0x80000
    300038fc:	3e5010ef          	jal	ra,300054e0 <rt_hw_interrupt_disable>
    30003900:	00050a13          	mv	s4,a0
    30003904:	50005b17          	auipc	s6,0x50005
    30003908:	ee4b0b13          	addi	s6,s6,-284 # 800087e8 <rt_timer_list>
    3000390c:	ffeaca93          	xori	s5,s5,-2
    30003910:	89018b93          	addi	s7,gp,-1904 # 80004258 <rt_timer_enter_hook>
    30003914:	89818c13          	addi	s8,gp,-1896 # 80004260 <rt_timer_exit_hook>
    30003918:	00300c93          	li	s9,3
    3000391c:	000b3403          	ld	s0,0(s6)
    30003920:	05641063          	bne	s0,s6,30003960 <rt_timer_check+0xac>
    30003924:	000a0513          	mv	a0,s4
    30003928:	3c1010ef          	jal	ra,300054e8 <rt_hw_interrupt_enable>
    3000392c:	06813083          	ld	ra,104(sp)
    30003930:	06013403          	ld	s0,96(sp)
    30003934:	05813483          	ld	s1,88(sp)
    30003938:	05013903          	ld	s2,80(sp)
    3000393c:	04813983          	ld	s3,72(sp)
    30003940:	04013a03          	ld	s4,64(sp)
    30003944:	03813a83          	ld	s5,56(sp)
    30003948:	03013b03          	ld	s6,48(sp)
    3000394c:	02813b83          	ld	s7,40(sp)
    30003950:	02013c03          	ld	s8,32(sp)
    30003954:	01813c83          	ld	s9,24(sp)
    30003958:	07010113          	addi	sp,sp,112
    3000395c:	00008067          	ret
    30003960:	02442503          	lw	a0,36(s0)
    30003964:	fd840993          	addi	s3,s0,-40
    30003968:	40a484bb          	subw	s1,s1,a0
    3000396c:	fa9aece3          	bltu	s5,s1,30003924 <rt_timer_check+0x70>
    30003970:	000bb783          	ld	a5,0(s7)
    30003974:	00078663          	beqz	a5,30003980 <rt_timer_check+0xcc>
    30003978:	00098513          	mv	a0,s3
    3000397c:	000780e7          	jalr	a5
    30003980:	00098513          	mv	a0,s3
    30003984:	a69ff0ef          	jal	ra,300033ec <_rt_timer_remove>
    30003988:	fed44783          	lbu	a5,-19(s0)
    3000398c:	0027f713          	andi	a4,a5,2
    30003990:	00071663          	bnez	a4,3000399c <rt_timer_check+0xe8>
    30003994:	ffe7f793          	andi	a5,a5,-2
    30003998:	fef406a3          	sb	a5,-19(s0)
    3000399c:	00013783          	ld	a5,0(sp)
    300039a0:	01843503          	ld	a0,24(s0)
    300039a4:	0087b423          	sd	s0,8(a5)
    300039a8:	00f43023          	sd	a5,0(s0)
    300039ac:	01043783          	ld	a5,16(s0)
    300039b0:	00813023          	sd	s0,0(sp)
    300039b4:	01243423          	sd	s2,8(s0)
    300039b8:	000780e7          	jalr	a5
    300039bc:	bc0fd0ef          	jal	ra,30000d7c <rt_tick_get>
    300039c0:	000c3783          	ld	a5,0(s8)
    300039c4:	0005049b          	sext.w	s1,a0
    300039c8:	00078663          	beqz	a5,300039d4 <rt_timer_check+0x120>
    300039cc:	00098513          	mv	a0,s3
    300039d0:	000780e7          	jalr	a5
    300039d4:	00013783          	ld	a5,0(sp)
    300039d8:	f52782e3          	beq	a5,s2,3000391c <rt_timer_check+0x68>
    300039dc:	00043703          	ld	a4,0(s0)
    300039e0:	00843783          	ld	a5,8(s0)
    300039e4:	00f73423          	sd	a5,8(a4)
    300039e8:	00e7b023          	sd	a4,0(a5)
    300039ec:	fed44783          	lbu	a5,-19(s0)
    300039f0:	00843423          	sd	s0,8(s0)
    300039f4:	00843023          	sd	s0,0(s0)
    300039f8:	0037f713          	andi	a4,a5,3
    300039fc:	f39710e3          	bne	a4,s9,3000391c <rt_timer_check+0x68>
    30003a00:	ffe7f793          	andi	a5,a5,-2
    30003a04:	fef406a3          	sb	a5,-19(s0)
    30003a08:	00098513          	mv	a0,s3
    30003a0c:	b6dff0ef          	jal	ra,30003578 <rt_timer_start>
    30003a10:	f0dff06f          	j	3000391c <rt_timer_check+0x68>

0000000030003a14 <rt_soft_timer_check>:
    30003a14:	f9010113          	addi	sp,sp,-112
    30003a18:	05213823          	sd	s2,80(sp)
    30003a1c:	00010913          	mv	s2,sp
    30003a20:	04913c23          	sd	s1,88(sp)
    30003a24:	05413023          	sd	s4,64(sp)
    30003a28:	03513c23          	sd	s5,56(sp)
    30003a2c:	03613823          	sd	s6,48(sp)
    30003a30:	03713423          	sd	s7,40(sp)
    30003a34:	03813023          	sd	s8,32(sp)
    30003a38:	01913c23          	sd	s9,24(sp)
    30003a3c:	01a13823          	sd	s10,16(sp)
    30003a40:	06113423          	sd	ra,104(sp)
    30003a44:	06813023          	sd	s0,96(sp)
    30003a48:	05313423          	sd	s3,72(sp)
    30003a4c:	01213423          	sd	s2,8(sp)
    30003a50:	01213023          	sd	s2,0(sp)
    30003a54:	80000a37          	lui	s4,0x80000
    30003a58:	289010ef          	jal	ra,300054e0 <rt_hw_interrupt_disable>
    30003a5c:	00050493          	mv	s1,a0
    30003a60:	50005a97          	auipc	s5,0x50005
    30003a64:	d78a8a93          	addi	s5,s5,-648 # 800087d8 <rt_soft_timer_list>
    30003a68:	ffea4a13          	xori	s4,s4,-2
    30003a6c:	89018b13          	addi	s6,gp,-1904 # 80004258 <rt_timer_enter_hook>
    30003a70:	89818b93          	addi	s7,gp,-1896 # 80004260 <rt_timer_exit_hook>
    30003a74:	50000c17          	auipc	s8,0x50000
    30003a78:	754c0c13          	addi	s8,s8,1876 # 800041c8 <soft_timer_status>
    30003a7c:	00100c93          	li	s9,1
    30003a80:	00300d13          	li	s10,3
    30003a84:	000ab403          	ld	s0,0(s5)
    30003a88:	01540c63          	beq	s0,s5,30003aa0 <rt_soft_timer_check+0x8c>
    30003a8c:	af0fd0ef          	jal	ra,30000d7c <rt_tick_get>
    30003a90:	02442783          	lw	a5,36(s0)
    30003a94:	fd840993          	addi	s3,s0,-40
    30003a98:	40f5053b          	subw	a0,a0,a5
    30003a9c:	04aa7263          	bgeu	s4,a0,30003ae0 <rt_soft_timer_check+0xcc>
    30003aa0:	00048513          	mv	a0,s1
    30003aa4:	245010ef          	jal	ra,300054e8 <rt_hw_interrupt_enable>
    30003aa8:	06813083          	ld	ra,104(sp)
    30003aac:	06013403          	ld	s0,96(sp)
    30003ab0:	05813483          	ld	s1,88(sp)
    30003ab4:	05013903          	ld	s2,80(sp)
    30003ab8:	04813983          	ld	s3,72(sp)
    30003abc:	04013a03          	ld	s4,64(sp)
    30003ac0:	03813a83          	ld	s5,56(sp)
    30003ac4:	03013b03          	ld	s6,48(sp)
    30003ac8:	02813b83          	ld	s7,40(sp)
    30003acc:	02013c03          	ld	s8,32(sp)
    30003ad0:	01813c83          	ld	s9,24(sp)
    30003ad4:	01013d03          	ld	s10,16(sp)
    30003ad8:	07010113          	addi	sp,sp,112
    30003adc:	00008067          	ret
    30003ae0:	000b3783          	ld	a5,0(s6)
    30003ae4:	00078663          	beqz	a5,30003af0 <rt_soft_timer_check+0xdc>
    30003ae8:	00098513          	mv	a0,s3
    30003aec:	000780e7          	jalr	a5
    30003af0:	00098513          	mv	a0,s3
    30003af4:	8f9ff0ef          	jal	ra,300033ec <_rt_timer_remove>
    30003af8:	fed44783          	lbu	a5,-19(s0)
    30003afc:	0027f713          	andi	a4,a5,2
    30003b00:	00071663          	bnez	a4,30003b0c <rt_soft_timer_check+0xf8>
    30003b04:	ffe7f793          	andi	a5,a5,-2
    30003b08:	fef406a3          	sb	a5,-19(s0)
    30003b0c:	00013783          	ld	a5,0(sp)
    30003b10:	00048513          	mv	a0,s1
    30003b14:	0087b423          	sd	s0,8(a5)
    30003b18:	00f43023          	sd	a5,0(s0)
    30003b1c:	01243423          	sd	s2,8(s0)
    30003b20:	50000797          	auipc	a5,0x50000
    30003b24:	6a078423          	sb	zero,1704(a5) # 800041c8 <soft_timer_status>
    30003b28:	00813023          	sd	s0,0(sp)
    30003b2c:	1bd010ef          	jal	ra,300054e8 <rt_hw_interrupt_enable>
    30003b30:	01043783          	ld	a5,16(s0)
    30003b34:	01843503          	ld	a0,24(s0)
    30003b38:	000780e7          	jalr	a5
    30003b3c:	000bb783          	ld	a5,0(s7)
    30003b40:	00078663          	beqz	a5,30003b4c <rt_soft_timer_check+0x138>
    30003b44:	00098513          	mv	a0,s3
    30003b48:	000780e7          	jalr	a5
    30003b4c:	195010ef          	jal	ra,300054e0 <rt_hw_interrupt_disable>
    30003b50:	00013783          	ld	a5,0(sp)
    30003b54:	019c0023          	sb	s9,0(s8)
    30003b58:	00050493          	mv	s1,a0
    30003b5c:	f32784e3          	beq	a5,s2,30003a84 <rt_soft_timer_check+0x70>
    30003b60:	00043703          	ld	a4,0(s0)
    30003b64:	00843783          	ld	a5,8(s0)
    30003b68:	00f73423          	sd	a5,8(a4)
    30003b6c:	00e7b023          	sd	a4,0(a5)
    30003b70:	fed44783          	lbu	a5,-19(s0)
    30003b74:	00843423          	sd	s0,8(s0)
    30003b78:	00843023          	sd	s0,0(s0)
    30003b7c:	0037f713          	andi	a4,a5,3
    30003b80:	f1a712e3          	bne	a4,s10,30003a84 <rt_soft_timer_check+0x70>
    30003b84:	ffe7f793          	andi	a5,a5,-2
    30003b88:	fef406a3          	sb	a5,-19(s0)
    30003b8c:	00098513          	mv	a0,s3
    30003b90:	9e9ff0ef          	jal	ra,30003578 <rt_timer_start>
    30003b94:	ef1ff06f          	j	30003a84 <rt_soft_timer_check+0x70>

0000000030003b98 <rt_thread_timer_entry>:
    30003b98:	fd010113          	addi	sp,sp,-48
    30003b9c:	00913c23          	sd	s1,24(sp)
    30003ba0:	800004b7          	lui	s1,0x80000
    30003ba4:	01213823          	sd	s2,16(sp)
    30003ba8:	01313423          	sd	s3,8(sp)
    30003bac:	02113423          	sd	ra,40(sp)
    30003bb0:	02813023          	sd	s0,32(sp)
    30003bb4:	50005917          	auipc	s2,0x50005
    30003bb8:	c2490913          	addi	s2,s2,-988 # 800087d8 <rt_soft_timer_list>
    30003bbc:	fff00993          	li	s3,-1
    30003bc0:	ffe4c493          	xori	s1,s1,-2
    30003bc4:	11d010ef          	jal	ra,300054e0 <rt_hw_interrupt_disable>
    30003bc8:	00093783          	ld	a5,0(s2)
    30003bcc:	fff00413          	li	s0,-1
    30003bd0:	01278463          	beq	a5,s2,30003bd8 <rt_thread_timer_entry+0x40>
    30003bd4:	0247a403          	lw	s0,36(a5)
    30003bd8:	111010ef          	jal	ra,300054e8 <rt_hw_interrupt_enable>
    30003bdc:	01341c63          	bne	s0,s3,30003bf4 <rt_thread_timer_entry+0x5c>
    30003be0:	8c0ff0ef          	jal	ra,30002ca0 <rt_thread_self>
    30003be4:	b50ff0ef          	jal	ra,30002f34 <rt_thread_suspend>
    30003be8:	b59fe0ef          	jal	ra,30002740 <rt_schedule>
    30003bec:	e29ff0ef          	jal	ra,30003a14 <rt_soft_timer_check>
    30003bf0:	fd5ff06f          	j	30003bc4 <rt_thread_timer_entry+0x2c>
    30003bf4:	988fd0ef          	jal	ra,30000d7c <rt_tick_get>
    30003bf8:	40a4053b          	subw	a0,s0,a0
    30003bfc:	fea4e8e3          	bltu	s1,a0,30003bec <rt_thread_timer_entry+0x54>
    30003c00:	cf4ff0ef          	jal	ra,300030f4 <rt_thread_delay>
    30003c04:	fe9ff06f          	j	30003bec <rt_thread_timer_entry+0x54>

0000000030003c08 <rt_system_timer_init>:
    30003c08:	50005797          	auipc	a5,0x50005
    30003c0c:	be078793          	addi	a5,a5,-1056 # 800087e8 <rt_timer_list>
    30003c10:	00f7b423          	sd	a5,8(a5)
    30003c14:	00f7b023          	sd	a5,0(a5)
    30003c18:	00008067          	ret

0000000030003c1c <rt_system_timer_thread_init>:
    30003c1c:	ff010113          	addi	sp,sp,-16
    30003c20:	00813023          	sd	s0,0(sp)
    30003c24:	00113423          	sd	ra,8(sp)
    30003c28:	50005797          	auipc	a5,0x50005
    30003c2c:	bb078793          	addi	a5,a5,-1104 # 800087d8 <rt_soft_timer_list>
    30003c30:	50005417          	auipc	s0,0x50005
    30003c34:	bc840413          	addi	s0,s0,-1080 # 800087f8 <timer_thread>
    30003c38:	00f7b423          	sd	a5,8(a5)
    30003c3c:	00f7b023          	sd	a5,0(a5)
    30003c40:	00040513          	mv	a0,s0
    30003c44:	00a00893          	li	a7,10
    30003c48:	00400813          	li	a6,4
    30003c4c:	000047b7          	lui	a5,0x4
    30003c50:	50005717          	auipc	a4,0x50005
    30003c54:	c9070713          	addi	a4,a4,-880 # 800088e0 <timer_thread_stack>
    30003c58:	00000693          	li	a3,0
    30003c5c:	00000617          	auipc	a2,0x0
    30003c60:	f3c60613          	addi	a2,a2,-196 # 30003b98 <rt_thread_timer_entry>
    30003c64:	4fffd597          	auipc	a1,0x4fffd
    30003c68:	3dc58593          	addi	a1,a1,988 # 80001040 <__FUNCTION__.2747+0xd8>
    30003c6c:	f5dfe0ef          	jal	ra,30002bc8 <rt_thread_init>
    30003c70:	00040513          	mv	a0,s0
    30003c74:	00013403          	ld	s0,0(sp)
    30003c78:	00813083          	ld	ra,8(sp)
    30003c7c:	01010113          	addi	sp,sp,16
    30003c80:	d68ff06f          	j	300031e8 <rt_thread_startup>

0000000030003c84 <rt_object_get_information>:
    30003c84:	50000697          	auipc	a3,0x50000
    30003c88:	32468693          	addi	a3,a3,804 # 80003fa8 <rt_object_container>
    30003c8c:	00000793          	li	a5,0
    30003c90:	00068713          	mv	a4,a3
    30003c94:	00900613          	li	a2,9
    30003c98:	0006a583          	lw	a1,0(a3)
    30003c9c:	00a59863          	bne	a1,a0,30003cac <rt_object_get_information+0x28>
    30003ca0:	00579793          	slli	a5,a5,0x5
    30003ca4:	00f70533          	add	a0,a4,a5
    30003ca8:	00008067          	ret
    30003cac:	0017879b          	addiw	a5,a5,1 # 4001 <__stack_size+0x3801>
    30003cb0:	02068693          	addi	a3,a3,32
    30003cb4:	fec792e3          	bne	a5,a2,30003c98 <rt_object_get_information+0x14>
    30003cb8:	00000513          	li	a0,0
    30003cbc:	00008067          	ret

0000000030003cc0 <rt_object_init>:
    30003cc0:	fb010113          	addi	sp,sp,-80
    30003cc4:	04813023          	sd	s0,64(sp)
    30003cc8:	00050413          	mv	s0,a0
    30003ccc:	00058513          	mv	a0,a1
    30003cd0:	02913c23          	sd	s1,56(sp)
    30003cd4:	03213823          	sd	s2,48(sp)
    30003cd8:	03413023          	sd	s4,32(sp)
    30003cdc:	04113423          	sd	ra,72(sp)
    30003ce0:	03313423          	sd	s3,40(sp)
    30003ce4:	01513c23          	sd	s5,24(sp)
    30003ce8:	01613823          	sd	s6,16(sp)
    30003cec:	01713423          	sd	s7,8(sp)
    30003cf0:	00058913          	mv	s2,a1
    30003cf4:	00060a13          	mv	s4,a2
    30003cf8:	f8dff0ef          	jal	ra,30003c84 <rt_object_get_information>
    30003cfc:	00050493          	mv	s1,a0
    30003d00:	00051e63          	bnez	a0,30003d1c <rt_object_init+0x5c>
    30003d04:	13800613          	li	a2,312
    30003d08:	4fffd597          	auipc	a1,0x4fffd
    30003d0c:	40858593          	addi	a1,a1,1032 # 80001110 <__FUNCTION__.2690>
    30003d10:	4fffd517          	auipc	a0,0x4fffd
    30003d14:	39050513          	addi	a0,a0,912 # 800010a0 <__FUNCTION__.2718+0x18>
    30003d18:	f81fd0ef          	jal	ra,30001c98 <rt_assert_handler>
    30003d1c:	b89fe0ef          	jal	ra,300028a4 <rt_enter_critical>
    30003d20:	0084b983          	ld	s3,8(s1) # ffffffff80000008 <__stack_start__+0xfffffffeff000008>
    30003d24:	00848a93          	addi	s5,s1,8
    30003d28:	4fffdb17          	auipc	s6,0x4fffd
    30003d2c:	3e8b0b13          	addi	s6,s6,1000 # 80001110 <__FUNCTION__.2690>
    30003d30:	4fffdb97          	auipc	s7,0x4fffd
    30003d34:	388b8b93          	addi	s7,s7,904 # 800010b8 <__FUNCTION__.2718+0x30>
    30003d38:	07599c63          	bne	s3,s5,30003db0 <rt_object_init+0xf0>
    30003d3c:	b91fe0ef          	jal	ra,300028cc <rt_exit_critical>
    30003d40:	f8096913          	ori	s2,s2,-128
    30003d44:	01240a23          	sb	s2,20(s0)
    30003d48:	01400613          	li	a2,20
    30003d4c:	000a0593          	mv	a1,s4
    30003d50:	00040513          	mv	a0,s0
    30003d54:	e28fd0ef          	jal	ra,3000137c <rt_strncpy>
    30003d58:	8a01b783          	ld	a5,-1888(gp) # 80004268 <rt_object_attach_hook>
    30003d5c:	00078663          	beqz	a5,30003d68 <rt_object_init+0xa8>
    30003d60:	00040513          	mv	a0,s0
    30003d64:	000780e7          	jalr	a5
    30003d68:	778010ef          	jal	ra,300054e0 <rt_hw_interrupt_disable>
    30003d6c:	0084b703          	ld	a4,8(s1)
    30003d70:	01840793          	addi	a5,s0,24
    30003d74:	04813083          	ld	ra,72(sp)
    30003d78:	00f73423          	sd	a5,8(a4)
    30003d7c:	00e43c23          	sd	a4,24(s0)
    30003d80:	00f4b423          	sd	a5,8(s1)
    30003d84:	03343023          	sd	s3,32(s0)
    30003d88:	04013403          	ld	s0,64(sp)
    30003d8c:	03813483          	ld	s1,56(sp)
    30003d90:	03013903          	ld	s2,48(sp)
    30003d94:	02813983          	ld	s3,40(sp)
    30003d98:	02013a03          	ld	s4,32(sp)
    30003d9c:	01813a83          	ld	s5,24(sp)
    30003da0:	01013b03          	ld	s6,16(sp)
    30003da4:	00813b83          	ld	s7,8(sp)
    30003da8:	05010113          	addi	sp,sp,80
    30003dac:	73c0106f          	j	300054e8 <rt_hw_interrupt_enable>
    30003db0:	fe898793          	addi	a5,s3,-24
    30003db4:	00f41a63          	bne	s0,a5,30003dc8 <rt_object_init+0x108>
    30003db8:	14800613          	li	a2,328
    30003dbc:	000b0593          	mv	a1,s6
    30003dc0:	000b8513          	mv	a0,s7
    30003dc4:	ed5fd0ef          	jal	ra,30001c98 <rt_assert_handler>
    30003dc8:	0009b983          	ld	s3,0(s3)
    30003dcc:	f6dff06f          	j	30003d38 <rt_object_init+0x78>

0000000030003dd0 <rt_object_detach>:
    30003dd0:	ff010113          	addi	sp,sp,-16
    30003dd4:	00813023          	sd	s0,0(sp)
    30003dd8:	00113423          	sd	ra,8(sp)
    30003ddc:	00050413          	mv	s0,a0
    30003de0:	00051e63          	bnez	a0,30003dfc <rt_object_detach+0x2c>
    30003de4:	17500613          	li	a2,373
    30003de8:	4fffd597          	auipc	a1,0x4fffd
    30003dec:	33858593          	addi	a1,a1,824 # 80001120 <__FUNCTION__.2699>
    30003df0:	4fffd517          	auipc	a0,0x4fffd
    30003df4:	2d850513          	addi	a0,a0,728 # 800010c8 <__FUNCTION__.2718+0x40>
    30003df8:	ea1fd0ef          	jal	ra,30001c98 <rt_assert_handler>
    30003dfc:	8a81b783          	ld	a5,-1880(gp) # 80004270 <rt_object_detach_hook>
    30003e00:	00078663          	beqz	a5,30003e0c <rt_object_detach+0x3c>
    30003e04:	00040513          	mv	a0,s0
    30003e08:	000780e7          	jalr	a5
    30003e0c:	00040a23          	sb	zero,20(s0)
    30003e10:	6d0010ef          	jal	ra,300054e0 <rt_hw_interrupt_disable>
    30003e14:	01843683          	ld	a3,24(s0)
    30003e18:	02043703          	ld	a4,32(s0)
    30003e1c:	01840793          	addi	a5,s0,24
    30003e20:	00813083          	ld	ra,8(sp)
    30003e24:	00e6b423          	sd	a4,8(a3)
    30003e28:	00d73023          	sd	a3,0(a4)
    30003e2c:	02f43023          	sd	a5,32(s0)
    30003e30:	00f43c23          	sd	a5,24(s0)
    30003e34:	00013403          	ld	s0,0(sp)
    30003e38:	01010113          	addi	sp,sp,16
    30003e3c:	6ac0106f          	j	300054e8 <rt_hw_interrupt_enable>

0000000030003e40 <rt_object_allocate>:
    30003e40:	fd010113          	addi	sp,sp,-48
    30003e44:	02813023          	sd	s0,32(sp)
    30003e48:	01213823          	sd	s2,16(sp)
    30003e4c:	01313423          	sd	s3,8(sp)
    30003e50:	02113423          	sd	ra,40(sp)
    30003e54:	00913c23          	sd	s1,24(sp)
    30003e58:	00050913          	mv	s2,a0
    30003e5c:	00058993          	mv	s3,a1
    30003e60:	680010ef          	jal	ra,300054e0 <rt_hw_interrupt_disable>
    30003e64:	00050413          	mv	s0,a0
    30003e68:	830fd0ef          	jal	ra,30000e98 <rt_interrupt_get_nest>
    30003e6c:	02050863          	beqz	a0,30003e9c <rt_object_allocate+0x5c>
    30003e70:	4fffd597          	auipc	a1,0x4fffd
    30003e74:	2c858593          	addi	a1,a1,712 # 80001138 <__FUNCTION__.2708>
    30003e78:	4fffd517          	auipc	a0,0x4fffd
    30003e7c:	8e050513          	addi	a0,a0,-1824 # 80000758 <_uart_ops+0x118>
    30003e80:	c9dfd0ef          	jal	ra,30001b1c <rt_kprintf>
    30003e84:	19800613          	li	a2,408
    30003e88:	4fffd597          	auipc	a1,0x4fffd
    30003e8c:	2b058593          	addi	a1,a1,688 # 80001138 <__FUNCTION__.2708>
    30003e90:	4fffd517          	auipc	a0,0x4fffd
    30003e94:	82050513          	addi	a0,a0,-2016 # 800006b0 <_uart_ops+0x70>
    30003e98:	e01fd0ef          	jal	ra,30001c98 <rt_assert_handler>
    30003e9c:	00040513          	mv	a0,s0
    30003ea0:	648010ef          	jal	ra,300054e8 <rt_hw_interrupt_enable>
    30003ea4:	00090513          	mv	a0,s2
    30003ea8:	dddff0ef          	jal	ra,30003c84 <rt_object_get_information>
    30003eac:	00050493          	mv	s1,a0
    30003eb0:	00051e63          	bnez	a0,30003ecc <rt_object_allocate+0x8c>
    30003eb4:	19c00613          	li	a2,412
    30003eb8:	4fffd597          	auipc	a1,0x4fffd
    30003ebc:	28058593          	addi	a1,a1,640 # 80001138 <__FUNCTION__.2708>
    30003ec0:	4fffd517          	auipc	a0,0x4fffd
    30003ec4:	1e050513          	addi	a0,a0,480 # 800010a0 <__FUNCTION__.2718+0x18>
    30003ec8:	dd1fd0ef          	jal	ra,30001c98 <rt_assert_handler>
    30003ecc:	0184b503          	ld	a0,24(s1)
    30003ed0:	7f4000ef          	jal	ra,300046c4 <rt_malloc>
    30003ed4:	00050413          	mv	s0,a0
    30003ed8:	04050e63          	beqz	a0,30003f34 <rt_object_allocate+0xf4>
    30003edc:	0184b603          	ld	a2,24(s1)
    30003ee0:	00000593          	li	a1,0
    30003ee4:	a4cfd0ef          	jal	ra,30001130 <rt_memset>
    30003ee8:	01400613          	li	a2,20
    30003eec:	01240a23          	sb	s2,20(s0)
    30003ef0:	00040aa3          	sb	zero,21(s0)
    30003ef4:	00098593          	mv	a1,s3
    30003ef8:	00040513          	mv	a0,s0
    30003efc:	c80fd0ef          	jal	ra,3000137c <rt_strncpy>
    30003f00:	8a01b783          	ld	a5,-1888(gp) # 80004268 <rt_object_attach_hook>
    30003f04:	00078663          	beqz	a5,30003f10 <rt_object_allocate+0xd0>
    30003f08:	00040513          	mv	a0,s0
    30003f0c:	000780e7          	jalr	a5
    30003f10:	5d0010ef          	jal	ra,300054e0 <rt_hw_interrupt_disable>
    30003f14:	0084b703          	ld	a4,8(s1)
    30003f18:	01840793          	addi	a5,s0,24
    30003f1c:	00848493          	addi	s1,s1,8
    30003f20:	00f73423          	sd	a5,8(a4)
    30003f24:	00e43c23          	sd	a4,24(s0)
    30003f28:	00f4b023          	sd	a5,0(s1)
    30003f2c:	02943023          	sd	s1,32(s0)
    30003f30:	5b8010ef          	jal	ra,300054e8 <rt_hw_interrupt_enable>
    30003f34:	02813083          	ld	ra,40(sp)
    30003f38:	00040513          	mv	a0,s0
    30003f3c:	02013403          	ld	s0,32(sp)
    30003f40:	01813483          	ld	s1,24(sp)
    30003f44:	01013903          	ld	s2,16(sp)
    30003f48:	00813983          	ld	s3,8(sp)
    30003f4c:	03010113          	addi	sp,sp,48
    30003f50:	00008067          	ret

0000000030003f54 <rt_object_delete>:
    30003f54:	ff010113          	addi	sp,sp,-16
    30003f58:	00813023          	sd	s0,0(sp)
    30003f5c:	00113423          	sd	ra,8(sp)
    30003f60:	00050413          	mv	s0,a0
    30003f64:	00051e63          	bnez	a0,30003f80 <rt_object_delete+0x2c>
    30003f68:	1d600613          	li	a2,470
    30003f6c:	4fffd597          	auipc	a1,0x4fffd
    30003f70:	1e458593          	addi	a1,a1,484 # 80001150 <__FUNCTION__.2713>
    30003f74:	4fffd517          	auipc	a0,0x4fffd
    30003f78:	15450513          	addi	a0,a0,340 # 800010c8 <__FUNCTION__.2718+0x40>
    30003f7c:	d1dfd0ef          	jal	ra,30001c98 <rt_assert_handler>
    30003f80:	01440783          	lb	a5,20(s0)
    30003f84:	0007de63          	bgez	a5,30003fa0 <rt_object_delete+0x4c>
    30003f88:	1d700613          	li	a2,471
    30003f8c:	4fffd597          	auipc	a1,0x4fffd
    30003f90:	1c458593          	addi	a1,a1,452 # 80001150 <__FUNCTION__.2713>
    30003f94:	4fffd517          	auipc	a0,0x4fffd
    30003f98:	14c50513          	addi	a0,a0,332 # 800010e0 <__FUNCTION__.2718+0x58>
    30003f9c:	cfdfd0ef          	jal	ra,30001c98 <rt_assert_handler>
    30003fa0:	8a81b783          	ld	a5,-1880(gp) # 80004270 <rt_object_detach_hook>
    30003fa4:	00078663          	beqz	a5,30003fb0 <rt_object_delete+0x5c>
    30003fa8:	00040513          	mv	a0,s0
    30003fac:	000780e7          	jalr	a5
    30003fb0:	00040a23          	sb	zero,20(s0)
    30003fb4:	52c010ef          	jal	ra,300054e0 <rt_hw_interrupt_disable>
    30003fb8:	01843683          	ld	a3,24(s0)
    30003fbc:	02043703          	ld	a4,32(s0)
    30003fc0:	01840793          	addi	a5,s0,24
    30003fc4:	00e6b423          	sd	a4,8(a3)
    30003fc8:	00d73023          	sd	a3,0(a4)
    30003fcc:	02f43023          	sd	a5,32(s0)
    30003fd0:	00f43c23          	sd	a5,24(s0)
    30003fd4:	514010ef          	jal	ra,300054e8 <rt_hw_interrupt_enable>
    30003fd8:	00040513          	mv	a0,s0
    30003fdc:	00013403          	ld	s0,0(sp)
    30003fe0:	00813083          	ld	ra,8(sp)
    30003fe4:	01010113          	addi	sp,sp,16
    30003fe8:	2110006f          	j	300049f8 <rt_free>

0000000030003fec <rt_object_is_systemobject>:
    30003fec:	ff010113          	addi	sp,sp,-16
    30003ff0:	00813023          	sd	s0,0(sp)
    30003ff4:	00113423          	sd	ra,8(sp)
    30003ff8:	00050413          	mv	s0,a0
    30003ffc:	00051e63          	bnez	a0,30004018 <rt_object_is_systemobject+0x2c>
    30004000:	1f800613          	li	a2,504
    30004004:	4fffd597          	auipc	a1,0x4fffd
    30004008:	16458593          	addi	a1,a1,356 # 80001168 <__FUNCTION__.2717>
    3000400c:	4fffd517          	auipc	a0,0x4fffd
    30004010:	0bc50513          	addi	a0,a0,188 # 800010c8 <__FUNCTION__.2718+0x40>
    30004014:	c85fd0ef          	jal	ra,30001c98 <rt_assert_handler>
    30004018:	01440503          	lb	a0,20(s0)
    3000401c:	00813083          	ld	ra,8(sp)
    30004020:	00013403          	ld	s0,0(sp)
    30004024:	01f5551b          	srliw	a0,a0,0x1f
    30004028:	01010113          	addi	sp,sp,16
    3000402c:	00008067          	ret

0000000030004030 <rt_object_get_type>:
    30004030:	ff010113          	addi	sp,sp,-16
    30004034:	00813023          	sd	s0,0(sp)
    30004038:	00113423          	sd	ra,8(sp)
    3000403c:	00050413          	mv	s0,a0
    30004040:	00051e63          	bnez	a0,3000405c <rt_object_get_type+0x2c>
    30004044:	20b00613          	li	a2,523
    30004048:	4fffd597          	auipc	a1,0x4fffd
    3000404c:	14058593          	addi	a1,a1,320 # 80001188 <__FUNCTION__.2721>
    30004050:	4fffd517          	auipc	a0,0x4fffd
    30004054:	07850513          	addi	a0,a0,120 # 800010c8 <__FUNCTION__.2718+0x40>
    30004058:	c41fd0ef          	jal	ra,30001c98 <rt_assert_handler>
    3000405c:	01444503          	lbu	a0,20(s0)
    30004060:	00813083          	ld	ra,8(sp)
    30004064:	00013403          	ld	s0,0(sp)
    30004068:	07f57513          	andi	a0,a0,127
    3000406c:	01010113          	addi	sp,sp,16
    30004070:	00008067          	ret

0000000030004074 <rt_object_find>:
    30004074:	fd010113          	addi	sp,sp,-48
    30004078:	01213823          	sd	s2,16(sp)
    3000407c:	00050913          	mv	s2,a0
    30004080:	00058513          	mv	a0,a1
    30004084:	02113423          	sd	ra,40(sp)
    30004088:	02813023          	sd	s0,32(sp)
    3000408c:	00913c23          	sd	s1,24(sp)
    30004090:	01313423          	sd	s3,8(sp)
    30004094:	bf1ff0ef          	jal	ra,30003c84 <rt_object_get_information>
    30004098:	06090263          	beqz	s2,300040fc <rt_object_find+0x88>
    3000409c:	00050413          	mv	s0,a0
    300040a0:	08050063          	beqz	a0,30004120 <rt_object_find+0xac>
    300040a4:	43c010ef          	jal	ra,300054e0 <rt_hw_interrupt_disable>
    300040a8:	00050493          	mv	s1,a0
    300040ac:	dedfc0ef          	jal	ra,30000e98 <rt_interrupt_get_nest>
    300040b0:	02050863          	beqz	a0,300040e0 <rt_object_find+0x6c>
    300040b4:	4fffd597          	auipc	a1,0x4fffd
    300040b8:	0ec58593          	addi	a1,a1,236 # 800011a0 <__FUNCTION__.2730>
    300040bc:	4fffc517          	auipc	a0,0x4fffc
    300040c0:	69c50513          	addi	a0,a0,1692 # 80000758 <_uart_ops+0x118>
    300040c4:	a59fd0ef          	jal	ra,30001b1c <rt_kprintf>
    300040c8:	22800613          	li	a2,552
    300040cc:	4fffd597          	auipc	a1,0x4fffd
    300040d0:	0d458593          	addi	a1,a1,212 # 800011a0 <__FUNCTION__.2730>
    300040d4:	4fffc517          	auipc	a0,0x4fffc
    300040d8:	5dc50513          	addi	a0,a0,1500 # 800006b0 <_uart_ops+0x70>
    300040dc:	bbdfd0ef          	jal	ra,30001c98 <rt_assert_handler>
    300040e0:	00048513          	mv	a0,s1
    300040e4:	404010ef          	jal	ra,300054e8 <rt_hw_interrupt_enable>
    300040e8:	fbcfe0ef          	jal	ra,300028a4 <rt_enter_critical>
    300040ec:	00843483          	ld	s1,8(s0)
    300040f0:	00840993          	addi	s3,s0,8
    300040f4:	01349863          	bne	s1,s3,30004104 <rt_object_find+0x90>
    300040f8:	fd4fe0ef          	jal	ra,300028cc <rt_exit_critical>
    300040fc:	00000413          	li	s0,0
    30004100:	0200006f          	j	30004120 <rt_object_find+0xac>
    30004104:	fe848413          	addi	s0,s1,-24
    30004108:	01400613          	li	a2,20
    3000410c:	00090593          	mv	a1,s2
    30004110:	00040513          	mv	a0,s0
    30004114:	aacfd0ef          	jal	ra,300013c0 <rt_strncmp>
    30004118:	02051463          	bnez	a0,30004140 <rt_object_find+0xcc>
    3000411c:	fb0fe0ef          	jal	ra,300028cc <rt_exit_critical>
    30004120:	02813083          	ld	ra,40(sp)
    30004124:	00040513          	mv	a0,s0
    30004128:	02013403          	ld	s0,32(sp)
    3000412c:	01813483          	ld	s1,24(sp)
    30004130:	01013903          	ld	s2,16(sp)
    30004134:	00813983          	ld	s3,8(sp)
    30004138:	03010113          	addi	sp,sp,48
    3000413c:	00008067          	ret
    30004140:	0004b483          	ld	s1,0(s1)
    30004144:	fb1ff06f          	j	300040f4 <rt_object_find+0x80>

0000000030004148 <rt_mem_setname>:
    30004148:	00000713          	li	a4,0
    3000414c:	00800613          	li	a2,8
    30004150:	00e586b3          	add	a3,a1,a4
    30004154:	0006c683          	lbu	a3,0(a3)
    30004158:	0007079b          	sext.w	a5,a4
    3000415c:	00069c63          	bnez	a3,30004174 <rt_mem_setname+0x2c>
    30004160:	00700713          	li	a4,7
    30004164:	02000613          	li	a2,32
    30004168:	0007869b          	sext.w	a3,a5
    3000416c:	00d75e63          	bge	a4,a3,30004188 <rt_mem_setname+0x40>
    30004170:	00008067          	ret
    30004174:	00e507b3          	add	a5,a0,a4
    30004178:	00d78c23          	sb	a3,24(a5)
    3000417c:	00170713          	addi	a4,a4,1
    30004180:	fcc718e3          	bne	a4,a2,30004150 <rt_mem_setname+0x8>
    30004184:	00008067          	ret
    30004188:	00f506b3          	add	a3,a0,a5
    3000418c:	00c68c23          	sb	a2,24(a3)
    30004190:	00178793          	addi	a5,a5,1
    30004194:	fd5ff06f          	j	30004168 <rt_mem_setname+0x20>

0000000030004198 <list_mem>:
    30004198:	ff010113          	addi	sp,sp,-16
    3000419c:	8e81b583          	ld	a1,-1816(gp) # 800042b0 <mem_size_aligned>
    300041a0:	4fffd517          	auipc	a0,0x4fffd
    300041a4:	01050513          	addi	a0,a0,16 # 800011b0 <__FUNCTION__.2730+0x10>
    300041a8:	00113423          	sd	ra,8(sp)
    300041ac:	971fd0ef          	jal	ra,30001b1c <rt_kprintf>
    300041b0:	9001b583          	ld	a1,-1792(gp) # 800042c8 <used_mem>
    300041b4:	4fffd517          	auipc	a0,0x4fffd
    300041b8:	01450513          	addi	a0,a0,20 # 800011c8 <__FUNCTION__.2730+0x28>
    300041bc:	961fd0ef          	jal	ra,30001b1c <rt_kprintf>
    300041c0:	00813083          	ld	ra,8(sp)
    300041c4:	8e01b583          	ld	a1,-1824(gp) # 800042a8 <max_mem>
    300041c8:	4fffd517          	auipc	a0,0x4fffd
    300041cc:	01850513          	addi	a0,a0,24 # 800011e0 <__FUNCTION__.2730+0x40>
    300041d0:	01010113          	addi	sp,sp,16
    300041d4:	949fd06f          	j	30001b1c <rt_kprintf>

00000000300041d8 <memtrace>:
    300041d8:	fa010113          	addi	sp,sp,-96
    300041dc:	04113c23          	sd	ra,88(sp)
    300041e0:	04813823          	sd	s0,80(sp)
    300041e4:	04913423          	sd	s1,72(sp)
    300041e8:	05213023          	sd	s2,64(sp)
    300041ec:	03313c23          	sd	s3,56(sp)
    300041f0:	03413823          	sd	s4,48(sp)
    300041f4:	03513423          	sd	s5,40(sp)
    300041f8:	03613023          	sd	s6,32(sp)
    300041fc:	01713c23          	sd	s7,24(sp)
    30004200:	01813823          	sd	s8,16(sp)
    30004204:	01913423          	sd	s9,8(sp)
    30004208:	01a13023          	sd	s10,0(sp)
    3000420c:	f8dff0ef          	jal	ra,30004198 <list_mem>
    30004210:	4fffd517          	auipc	a0,0x4fffd
    30004214:	ff050513          	addi	a0,a0,-16 # 80001200 <__FUNCTION__.2730+0x60>
    30004218:	905fd0ef          	jal	ra,30001b1c <rt_kprintf>
    3000421c:	8d018493          	addi	s1,gp,-1840 # 80004298 <heap_ptr>
    30004220:	0004b583          	ld	a1,0(s1)
    30004224:	4fffd517          	auipc	a0,0x4fffd
    30004228:	ff450513          	addi	a0,a0,-12 # 80001218 <__FUNCTION__.2730+0x78>
    3000422c:	8c818913          	addi	s2,gp,-1848 # 80004290 <heap_end>
    30004230:	8edfd0ef          	jal	ra,30001b1c <rt_kprintf>
    30004234:	8d81b583          	ld	a1,-1832(gp) # 800042a0 <lfree>
    30004238:	4fffd517          	auipc	a0,0x4fffd
    3000423c:	ff850513          	addi	a0,a0,-8 # 80001230 <__FUNCTION__.2730+0x90>
    30004240:	8ddfd0ef          	jal	ra,30001b1c <rt_kprintf>
    30004244:	00093583          	ld	a1,0(s2)
    30004248:	4fffd517          	auipc	a0,0x4fffd
    3000424c:	00050513          	mv	a0,a0
    30004250:	000029b7          	lui	s3,0x2
    30004254:	8c9fd0ef          	jal	ra,30001b1c <rt_kprintf>
    30004258:	4fffd517          	auipc	a0,0x4fffd
    3000425c:	00850513          	addi	a0,a0,8 # 80001260 <__FUNCTION__.2730+0xc0>
    30004260:	8bdfd0ef          	jal	ra,30001b1c <rt_kprintf>
    30004264:	0004b403          	ld	s0,0(s1)
    30004268:	4fffda17          	auipc	s4,0x4fffd
    3000426c:	018a0a13          	addi	s4,s4,24 # 80001280 <__FUNCTION__.2730+0xe0>
    30004270:	3ff00a93          	li	s5,1023
    30004274:	00100b37          	lui	s6,0x100
    30004278:	4fffdb97          	auipc	s7,0x4fffd
    3000427c:	028b8b93          	addi	s7,s7,40 # 800012a0 <__FUNCTION__.2730+0x100>
    30004280:	4fffdc17          	auipc	s8,0x4fffd
    30004284:	018c0c13          	addi	s8,s8,24 # 80001298 <__FUNCTION__.2730+0xf8>
    30004288:	4fffdc97          	auipc	s9,0x4fffd
    3000428c:	008c8c93          	addi	s9,s9,8 # 80001290 <__FUNCTION__.2730+0xf0>
    30004290:	ea098993          	addi	s3,s3,-352 # 1ea0 <__stack_size+0x16a0>
    30004294:	00093783          	ld	a5,0(s2)
    30004298:	04879063          	bne	a5,s0,300042d8 <memtrace+0x100>
    3000429c:	05813083          	ld	ra,88(sp)
    300042a0:	05013403          	ld	s0,80(sp)
    300042a4:	04813483          	ld	s1,72(sp)
    300042a8:	04013903          	ld	s2,64(sp)
    300042ac:	03813983          	ld	s3,56(sp)
    300042b0:	03013a03          	ld	s4,48(sp)
    300042b4:	02813a83          	ld	s5,40(sp)
    300042b8:	02013b03          	ld	s6,32(sp)
    300042bc:	01813b83          	ld	s7,24(sp)
    300042c0:	01013c03          	ld	s8,16(sp)
    300042c4:	00813c83          	ld	s9,8(sp)
    300042c8:	00013d03          	ld	s10,0(sp)
    300042cc:	00000513          	li	a0,0
    300042d0:	06010113          	addi	sp,sp,96
    300042d4:	00008067          	ret
    300042d8:	0004b783          	ld	a5,0(s1)
    300042dc:	00040593          	mv	a1,s0
    300042e0:	000a0513          	mv	a0,s4
    300042e4:	40f40d33          	sub	s10,s0,a5
    300042e8:	835fd0ef          	jal	ra,30001b1c <rt_kprintf>
    300042ec:	00843783          	ld	a5,8(s0)
    300042f0:	000c8513          	mv	a0,s9
    300042f4:	fe07879b          	addiw	a5,a5,-32
    300042f8:	41a785bb          	subw	a1,a5,s10
    300042fc:	00bad863          	bge	s5,a1,3000430c <memtrace+0x134>
    30004300:	0565dc63          	bge	a1,s6,30004358 <memtrace+0x180>
    30004304:	40a5d59b          	sraiw	a1,a1,0xa
    30004308:	000c0513          	mv	a0,s8
    3000430c:	811fd0ef          	jal	ra,30001b1c <rt_kprintf>
    30004310:	01b44703          	lbu	a4,27(s0)
    30004314:	01a44683          	lbu	a3,26(s0)
    30004318:	01944603          	lbu	a2,25(s0)
    3000431c:	01844583          	lbu	a1,24(s0)
    30004320:	4fffd517          	auipc	a0,0x4fffd
    30004324:	f8850513          	addi	a0,a0,-120 # 800012a8 <__FUNCTION__.2730+0x108>
    30004328:	ff4fd0ef          	jal	ra,30001b1c <rt_kprintf>
    3000432c:	00045783          	lhu	a5,0(s0)
    30004330:	4fffd517          	auipc	a0,0x4fffd
    30004334:	f8850513          	addi	a0,a0,-120 # 800012b8 <__FUNCTION__.2730+0x118>
    30004338:	01379663          	bne	a5,s3,30004344 <memtrace+0x16c>
    3000433c:	4fffe517          	auipc	a0,0x4fffe
    30004340:	b0450513          	addi	a0,a0,-1276 # 80001e40 <CSWTCH.17+0x60>
    30004344:	fd8fd0ef          	jal	ra,30001b1c <rt_kprintf>
    30004348:	00843783          	ld	a5,8(s0)
    3000434c:	0004b403          	ld	s0,0(s1)
    30004350:	00f40433          	add	s0,s0,a5
    30004354:	f41ff06f          	j	30004294 <memtrace+0xbc>
    30004358:	4145d59b          	sraiw	a1,a1,0x14
    3000435c:	000b8513          	mv	a0,s7
    30004360:	fadff06f          	j	3000430c <memtrace+0x134>

0000000030004364 <plug_holes>:
    30004364:	8d018793          	addi	a5,gp,-1840 # 80004298 <heap_ptr>
    30004368:	0007b703          	ld	a4,0(a5)
    3000436c:	fe010113          	addi	sp,sp,-32
    30004370:	00813823          	sd	s0,16(sp)
    30004374:	01213023          	sd	s2,0(sp)
    30004378:	00113c23          	sd	ra,24(sp)
    3000437c:	00913423          	sd	s1,8(sp)
    30004380:	00050413          	mv	s0,a0
    30004384:	00078913          	mv	s2,a5
    30004388:	00e57e63          	bgeu	a0,a4,300043a4 <plug_holes+0x40>
    3000438c:	0a100613          	li	a2,161
    30004390:	4fffd597          	auipc	a1,0x4fffd
    30004394:	23058593          	addi	a1,a1,560 # 800015c0 <__FUNCTION__.2654>
    30004398:	4fffd517          	auipc	a0,0x4fffd
    3000439c:	f2850513          	addi	a0,a0,-216 # 800012c0 <__FUNCTION__.2730+0x120>
    300043a0:	8f9fd0ef          	jal	ra,30001c98 <rt_assert_handler>
    300043a4:	8c818793          	addi	a5,gp,-1848 # 80004290 <heap_end>
    300043a8:	0007b703          	ld	a4,0(a5)
    300043ac:	00078493          	mv	s1,a5
    300043b0:	00e46e63          	bltu	s0,a4,300043cc <plug_holes+0x68>
    300043b4:	0a200613          	li	a2,162
    300043b8:	4fffd597          	auipc	a1,0x4fffd
    300043bc:	20858593          	addi	a1,a1,520 # 800015c0 <__FUNCTION__.2654>
    300043c0:	4fffd517          	auipc	a0,0x4fffd
    300043c4:	f2050513          	addi	a0,a0,-224 # 800012e0 <__FUNCTION__.2730+0x140>
    300043c8:	8d1fd0ef          	jal	ra,30001c98 <rt_assert_handler>
    300043cc:	00245783          	lhu	a5,2(s0)
    300043d0:	00078e63          	beqz	a5,300043ec <plug_holes+0x88>
    300043d4:	0a300613          	li	a2,163
    300043d8:	4fffd597          	auipc	a1,0x4fffd
    300043dc:	1e858593          	addi	a1,a1,488 # 800015c0 <__FUNCTION__.2654>
    300043e0:	4fffd517          	auipc	a0,0x4fffd
    300043e4:	f3050513          	addi	a0,a0,-208 # 80001310 <__FUNCTION__.2730+0x170>
    300043e8:	8b1fd0ef          	jal	ra,30001c98 <rt_assert_handler>
    300043ec:	00093703          	ld	a4,0(s2)
    300043f0:	00843783          	ld	a5,8(s0)
    300043f4:	00f707b3          	add	a5,a4,a5
    300043f8:	02f40e63          	beq	s0,a5,30004434 <plug_holes+0xd0>
    300043fc:	0027d683          	lhu	a3,2(a5)
    30004400:	02069a63          	bnez	a3,30004434 <plug_holes+0xd0>
    30004404:	0004b683          	ld	a3,0(s1)
    30004408:	02f68663          	beq	a3,a5,30004434 <plug_holes+0xd0>
    3000440c:	8d818693          	addi	a3,gp,-1832 # 800042a0 <lfree>
    30004410:	0006b603          	ld	a2,0(a3)
    30004414:	00f61463          	bne	a2,a5,3000441c <plug_holes+0xb8>
    30004418:	0086b023          	sd	s0,0(a3)
    3000441c:	0087b683          	ld	a3,8(a5)
    30004420:	00d43423          	sd	a3,8(s0)
    30004424:	0087b783          	ld	a5,8(a5)
    30004428:	40e406b3          	sub	a3,s0,a4
    3000442c:	00f707b3          	add	a5,a4,a5
    30004430:	00d7b823          	sd	a3,16(a5)
    30004434:	01043683          	ld	a3,16(s0)
    30004438:	00d707b3          	add	a5,a4,a3
    3000443c:	02f40863          	beq	s0,a5,3000446c <plug_holes+0x108>
    30004440:	0027d603          	lhu	a2,2(a5)
    30004444:	02061463          	bnez	a2,3000446c <plug_holes+0x108>
    30004448:	8d818613          	addi	a2,gp,-1832 # 800042a0 <lfree>
    3000444c:	00063583          	ld	a1,0(a2)
    30004450:	00859463          	bne	a1,s0,30004458 <plug_holes+0xf4>
    30004454:	00f63023          	sd	a5,0(a2)
    30004458:	00843603          	ld	a2,8(s0)
    3000445c:	00c7b423          	sd	a2,8(a5)
    30004460:	00843783          	ld	a5,8(s0)
    30004464:	00f70733          	add	a4,a4,a5
    30004468:	00d73823          	sd	a3,16(a4)
    3000446c:	01813083          	ld	ra,24(sp)
    30004470:	01013403          	ld	s0,16(sp)
    30004474:	00813483          	ld	s1,8(sp)
    30004478:	00013903          	ld	s2,0(sp)
    3000447c:	02010113          	addi	sp,sp,32
    30004480:	00008067          	ret

0000000030004484 <memcheck>:
    30004484:	fe010113          	addi	sp,sp,-32
    30004488:	00813823          	sd	s0,16(sp)
    3000448c:	00913423          	sd	s1,8(sp)
    30004490:	00113c23          	sd	ra,24(sp)
    30004494:	01213023          	sd	s2,0(sp)
    30004498:	048010ef          	jal	ra,300054e0 <rt_hw_interrupt_disable>
    3000449c:	8d01b783          	ld	a5,-1840(gp) # 80004298 <heap_ptr>
    300044a0:	00002737          	lui	a4,0x2
    300044a4:	00050493          	mv	s1,a0
    300044a8:	8c81b683          	ld	a3,-1848(gp) # 80004290 <heap_end>
    300044ac:	8e81a603          	lw	a2,-1816(gp) # 800042b0 <mem_size_aligned>
    300044b0:	00078413          	mv	s0,a5
    300044b4:	ea070713          	addi	a4,a4,-352 # 1ea0 <__stack_size+0x16a0>
    300044b8:	00100593          	li	a1,1
    300044bc:	02869463          	bne	a3,s0,300044e4 <memcheck+0x60>
    300044c0:	00048513          	mv	a0,s1
    300044c4:	024010ef          	jal	ra,300054e8 <rt_hw_interrupt_enable>
    300044c8:	01813083          	ld	ra,24(sp)
    300044cc:	01013403          	ld	s0,16(sp)
    300044d0:	00813483          	ld	s1,8(sp)
    300044d4:	00013903          	ld	s2,0(sp)
    300044d8:	00000513          	li	a0,0
    300044dc:	02010113          	addi	sp,sp,32
    300044e0:	00008067          	ret
    300044e4:	40f4093b          	subw	s2,s0,a5
    300044e8:	02094263          	bltz	s2,3000450c <memcheck+0x88>
    300044ec:	03264063          	blt	a2,s2,3000450c <memcheck+0x88>
    300044f0:	00045503          	lhu	a0,0(s0)
    300044f4:	00e51c63          	bne	a0,a4,3000450c <memcheck+0x88>
    300044f8:	00245503          	lhu	a0,2(s0)
    300044fc:	00a5e863          	bltu	a1,a0,3000450c <memcheck+0x88>
    30004500:	00843403          	ld	s0,8(s0)
    30004504:	00878433          	add	s0,a5,s0
    30004508:	fb5ff06f          	j	300044bc <memcheck+0x38>
    3000450c:	4fffd517          	auipc	a0,0x4fffd
    30004510:	e1450513          	addi	a0,a0,-492 # 80001320 <__FUNCTION__.2730+0x180>
    30004514:	e08fd0ef          	jal	ra,30001b1c <rt_kprintf>
    30004518:	00040593          	mv	a1,s0
    3000451c:	4fffd517          	auipc	a0,0x4fffd
    30004520:	e1c50513          	addi	a0,a0,-484 # 80001338 <__FUNCTION__.2730+0x198>
    30004524:	df8fd0ef          	jal	ra,30001b1c <rt_kprintf>
    30004528:	00045583          	lhu	a1,0(s0)
    3000452c:	4fffd517          	auipc	a0,0x4fffd
    30004530:	e2450513          	addi	a0,a0,-476 # 80001350 <__FUNCTION__.2730+0x1b0>
    30004534:	de8fd0ef          	jal	ra,30001b1c <rt_kprintf>
    30004538:	00245583          	lhu	a1,2(s0)
    3000453c:	4fffd517          	auipc	a0,0x4fffd
    30004540:	e2c50513          	addi	a0,a0,-468 # 80001368 <__FUNCTION__.2730+0x1c8>
    30004544:	dd8fd0ef          	jal	ra,30001b1c <rt_kprintf>
    30004548:	00843583          	ld	a1,8(s0)
    3000454c:	4fffd517          	auipc	a0,0x4fffd
    30004550:	e2c50513          	addi	a0,a0,-468 # 80001378 <__FUNCTION__.2730+0x1d8>
    30004554:	fe058593          	addi	a1,a1,-32
    30004558:	412585b3          	sub	a1,a1,s2
    3000455c:	dc0fd0ef          	jal	ra,30001b1c <rt_kprintf>
    30004560:	f61ff06f          	j	300044c0 <memcheck+0x3c>

0000000030004564 <rt_system_heap_init>:
    30004564:	fd010113          	addi	sp,sp,-48
    30004568:	02813023          	sd	s0,32(sp)
    3000456c:	00913c23          	sd	s1,24(sp)
    30004570:	01213823          	sd	s2,16(sp)
    30004574:	01313423          	sd	s3,8(sp)
    30004578:	01413023          	sd	s4,0(sp)
    3000457c:	02113423          	sd	ra,40(sp)
    30004580:	00750413          	addi	s0,a0,7
    30004584:	00050913          	mv	s2,a0
    30004588:	00058993          	mv	s3,a1
    3000458c:	ff85f493          	andi	s1,a1,-8
    30004590:	751000ef          	jal	ra,300054e0 <rt_hw_interrupt_disable>
    30004594:	ff847413          	andi	s0,s0,-8
    30004598:	00050a13          	mv	s4,a0
    3000459c:	8fdfc0ef          	jal	ra,30000e98 <rt_interrupt_get_nest>
    300045a0:	02050863          	beqz	a0,300045d0 <rt_system_heap_init+0x6c>
    300045a4:	4fffd597          	auipc	a1,0x4fffd
    300045a8:	02c58593          	addi	a1,a1,44 # 800015d0 <__FUNCTION__.2663>
    300045ac:	4fffc517          	auipc	a0,0x4fffc
    300045b0:	1ac50513          	addi	a0,a0,428 # 80000758 <_uart_ops+0x118>
    300045b4:	d68fd0ef          	jal	ra,30001b1c <rt_kprintf>
    300045b8:	0d200613          	li	a2,210
    300045bc:	4fffd597          	auipc	a1,0x4fffd
    300045c0:	01458593          	addi	a1,a1,20 # 800015d0 <__FUNCTION__.2663>
    300045c4:	4fffc517          	auipc	a0,0x4fffc
    300045c8:	0ec50513          	addi	a0,a0,236 # 800006b0 <_uart_ops+0x70>
    300045cc:	eccfd0ef          	jal	ra,30001c98 <rt_assert_handler>
    300045d0:	000a0513          	mv	a0,s4
    300045d4:	715000ef          	jal	ra,300054e8 <rt_hw_interrupt_enable>
    300045d8:	04000793          	li	a5,64
    300045dc:	0a97fc63          	bgeu	a5,s1,30004694 <rt_system_heap_init+0x130>
    300045e0:	fc048793          	addi	a5,s1,-64
    300045e4:	0a87e863          	bltu	a5,s0,30004694 <rt_system_heap_init+0x130>
    300045e8:	408484b3          	sub	s1,s1,s0
    300045ec:	fc048793          	addi	a5,s1,-64
    300045f0:	8ef1b423          	sd	a5,-1816(gp) # 800042b0 <mem_size_aligned>
    300045f4:	000027b7          	lui	a5,0x2
    300045f8:	fe048493          	addi	s1,s1,-32
    300045fc:	ea07879b          	addiw	a5,a5,-352 # 1ea0 <__stack_size+0x16a0>
    30004600:	00f42023          	sw	a5,0(s0)
    30004604:	8d018913          	addi	s2,gp,-1840 # 80004298 <heap_ptr>
    30004608:	00943423          	sd	s1,8(s0)
    3000460c:	00040513          	mv	a0,s0
    30004610:	00043823          	sd	zero,16(s0)
    30004614:	4fffd597          	auipc	a1,0x4fffd
    30004618:	d7458593          	addi	a1,a1,-652 # 80001388 <__FUNCTION__.2730+0x1e8>
    3000461c:	00893023          	sd	s0,0(s2)
    30004620:	b29ff0ef          	jal	ra,30004148 <rt_mem_setname>
    30004624:	00843503          	ld	a0,8(s0)
    30004628:	4fffd597          	auipc	a1,0x4fffd
    3000462c:	d6058593          	addi	a1,a1,-672 # 80001388 <__FUNCTION__.2730+0x1e8>
    30004630:	00a40533          	add	a0,s0,a0
    30004634:	8ca1b423          	sd	a0,-1848(gp) # 80004290 <heap_end>
    30004638:	000127b7          	lui	a5,0x12
    3000463c:	ea07879b          	addiw	a5,a5,-352 # 11ea0 <__stack_size+0x116a0>
    30004640:	00f52023          	sw	a5,0(a0)
    30004644:	00953423          	sd	s1,8(a0)
    30004648:	00953823          	sd	s1,16(a0)
    3000464c:	afdff0ef          	jal	ra,30004148 <rt_mem_setname>
    30004650:	00100693          	li	a3,1
    30004654:	00100613          	li	a2,1
    30004658:	4fffd597          	auipc	a1,0x4fffd
    3000465c:	d3858593          	addi	a1,a1,-712 # 80001390 <__FUNCTION__.2730+0x1f0>
    30004660:	50008517          	auipc	a0,0x50008
    30004664:	28050513          	addi	a0,a0,640 # 8000c8e0 <heap_sem>
    30004668:	f31fb0ef          	jal	ra,30000598 <rt_sem_init>
    3000466c:	00093783          	ld	a5,0(s2)
    30004670:	02813083          	ld	ra,40(sp)
    30004674:	02013403          	ld	s0,32(sp)
    30004678:	8cf1bc23          	sd	a5,-1832(gp) # 800042a0 <lfree>
    3000467c:	01813483          	ld	s1,24(sp)
    30004680:	01013903          	ld	s2,16(sp)
    30004684:	00813983          	ld	s3,8(sp)
    30004688:	00013a03          	ld	s4,0(sp)
    3000468c:	03010113          	addi	sp,sp,48
    30004690:	00008067          	ret
    30004694:	02013403          	ld	s0,32(sp)
    30004698:	02813083          	ld	ra,40(sp)
    3000469c:	01813483          	ld	s1,24(sp)
    300046a0:	00013a03          	ld	s4,0(sp)
    300046a4:	00098613          	mv	a2,s3
    300046a8:	00090593          	mv	a1,s2
    300046ac:	00813983          	ld	s3,8(sp)
    300046b0:	01013903          	ld	s2,16(sp)
    300046b4:	4fffd517          	auipc	a0,0x4fffd
    300046b8:	ce450513          	addi	a0,a0,-796 # 80001398 <__FUNCTION__.2730+0x1f8>
    300046bc:	03010113          	addi	sp,sp,48
    300046c0:	c5cfd06f          	j	30001b1c <rt_kprintf>

00000000300046c4 <rt_malloc>:
    300046c4:	f9010113          	addi	sp,sp,-112
    300046c8:	06113423          	sd	ra,104(sp)
    300046cc:	06813023          	sd	s0,96(sp)
    300046d0:	04913c23          	sd	s1,88(sp)
    300046d4:	05213823          	sd	s2,80(sp)
    300046d8:	05313423          	sd	s3,72(sp)
    300046dc:	05413023          	sd	s4,64(sp)
    300046e0:	03513c23          	sd	s5,56(sp)
    300046e4:	03613823          	sd	s6,48(sp)
    300046e8:	03713423          	sd	s7,40(sp)
    300046ec:	03813023          	sd	s8,32(sp)
    300046f0:	01913c23          	sd	s9,24(sp)
    300046f4:	01a13823          	sd	s10,16(sp)
    300046f8:	01b13423          	sd	s11,8(sp)
    300046fc:	00051663          	bnez	a0,30004708 <rt_malloc+0x44>
    30004700:	00000913          	li	s2,0
    30004704:	22c0006f          	j	30004930 <rt_malloc+0x26c>
    30004708:	00050413          	mv	s0,a0
    3000470c:	5d5000ef          	jal	ra,300054e0 <rt_hw_interrupt_disable>
    30004710:	00050493          	mv	s1,a0
    30004714:	f84fc0ef          	jal	ra,30000e98 <rt_interrupt_get_nest>
    30004718:	02050863          	beqz	a0,30004748 <rt_malloc+0x84>
    3000471c:	4fffd597          	auipc	a1,0x4fffd
    30004720:	ecc58593          	addi	a1,a1,-308 # 800015e8 <__FUNCTION__.2672>
    30004724:	4fffc517          	auipc	a0,0x4fffc
    30004728:	03450513          	addi	a0,a0,52 # 80000758 <_uart_ops+0x118>
    3000472c:	bf0fd0ef          	jal	ra,30001b1c <rt_kprintf>
    30004730:	11800613          	li	a2,280
    30004734:	4fffd597          	auipc	a1,0x4fffd
    30004738:	eb458593          	addi	a1,a1,-332 # 800015e8 <__FUNCTION__.2672>
    3000473c:	4fffc517          	auipc	a0,0x4fffc
    30004740:	f7450513          	addi	a0,a0,-140 # 800006b0 <_uart_ops+0x70>
    30004744:	d54fd0ef          	jal	ra,30001c98 <rt_assert_handler>
    30004748:	00048513          	mv	a0,s1
    3000474c:	59d000ef          	jal	ra,300054e8 <rt_hw_interrupt_enable>
    30004750:	8e818793          	addi	a5,gp,-1816 # 800042b0 <mem_size_aligned>
    30004754:	0007b703          	ld	a4,0(a5)
    30004758:	00740413          	addi	s0,s0,7
    3000475c:	ff847413          	andi	s0,s0,-8
    30004760:	00078493          	mv	s1,a5
    30004764:	f8876ee3          	bltu	a4,s0,30004700 <rt_malloc+0x3c>
    30004768:	01800793          	li	a5,24
    3000476c:	00f47463          	bgeu	s0,a5,30004774 <rt_malloc+0xb0>
    30004770:	01800413          	li	s0,24
    30004774:	fff00593          	li	a1,-1
    30004778:	50008517          	auipc	a0,0x50008
