
rtthread-flash.elf:     file format elf64-littleriscv


Disassembly of section .init:

0000000030000000 <_start>:
    30000000:	50005197          	auipc	gp,0x50005
    30000004:	9c818193          	addi	gp,gp,-1592 # 800049c8 <__global_pointer$>
    30000008:	51000117          	auipc	sp,0x51000
    3000000c:	ff810113          	addi	sp,sp,-8 # 81000000 <__stack_start__>
    30000010:	0000d517          	auipc	a0,0xd
    30000014:	c5850513          	addi	a0,a0,-936 # 3000cc68 <_data_lma>
    30000018:	50000597          	auipc	a1,0x50000
    3000001c:	fe858593          	addi	a1,a1,-24 # 80000000 <__fsym___cmd_reboot>
    30000020:	81018613          	addi	a2,gp,-2032 # 800041d8 <rt_tick>
    30000024:	00c5fc63          	bgeu	a1,a2,3000003c <_start+0x3c>
    30000028:	00052283          	lw	t0,0(a0)
    3000002c:	0055a023          	sw	t0,0(a1)
    30000030:	00450513          	addi	a0,a0,4
    30000034:	00458593          	addi	a1,a1,4
    30000038:	fec5e8e3          	bltu	a1,a2,30000028 <_start+0x28>
    3000003c:	81018513          	addi	a0,gp,-2032 # 800041d8 <rt_tick>
    30000040:	5000d597          	auipc	a1,0x5000d
    30000044:	46858593          	addi	a1,a1,1128 # 8000d4a8 <__bss_end>
    30000048:	00b57863          	bgeu	a0,a1,30000058 <_start+0x58>
    3000004c:	00052023          	sw	zero,0(a0)
    30000050:	00450513          	addi	a0,a0,4
    30000054:	feb56ce3          	bltu	a0,a1,3000004c <_start+0x4c>
    30000058:	00000097          	auipc	ra,0x0
    3000005c:	ff010113          	addi	sp,sp,-16
    30000060:	00113423          	sd	ra,8(sp)
    30000064:	00000513          	li	a0,0
    30000068:	00000593          	li	a1,0
    3000006c:	30405073          	csrwi	mie,0
    30000070:	34405073          	csrwi	mip,0
    30000074:	00005297          	auipc	t0,0x5
    30000078:	36c28293          	addi	t0,t0,876 # 300053e0 <trap_entry>
    3000007c:	30529073          	csrw	mtvec,t0
    30000080:	320020ef          	jal	ra,300023a0 <entry>
    30000084:	0000006f          	j	30000084 <_start+0x84>

Disassembly of section .text:

0000000030000088 <main>:
    30000088:	ff010113          	addi	sp,sp,-16
    3000008c:	50000517          	auipc	a0,0x50000
    30000090:	61450513          	addi	a0,a0,1556 # 800006a0 <_uart_ops+0x60>
    30000094:	00113423          	sd	ra,8(sp)
    30000098:	285010ef          	jal	ra,30001b1c <rt_kprintf>
    3000009c:	3b0000ef          	jal	ra,3000044c <thread_sample>
    300000a0:	00813083          	ld	ra,8(sp)
    300000a4:	00000513          	li	a0,0
    300000a8:	01010113          	addi	sp,sp,16
    300000ac:	00008067          	ret

00000000300000b0 <plic_claim>:
    300000b0:	f14027f3          	csrr	a5,mhartid
    300000b4:	00c7971b          	slliw	a4,a5,0xc
    300000b8:	0c2007b7          	lui	a5,0xc200
    300000bc:	00e787b3          	add	a5,a5,a4
    300000c0:	0047a503          	lw	a0,4(a5) # c200004 <__stack_size+0xc1ff804>
    300000c4:	00008067          	ret

00000000300000c8 <plic_complete>:
    300000c8:	f14027f3          	csrr	a5,mhartid
    300000cc:	00c7971b          	slliw	a4,a5,0xc
    300000d0:	0c2007b7          	lui	a5,0xc200
    300000d4:	00e787b3          	add	a5,a5,a4
    300000d8:	00a7a223          	sw	a0,4(a5) # c200004 <__stack_size+0xc1ff804>
    300000dc:	00008067          	ret

00000000300000e0 <rt_hw_cpu_reset>:
    300000e0:	00000513          	li	a0,0
    300000e4:	00000593          	li	a1,0
    300000e8:	00000613          	li	a2,0
    300000ec:	00000693          	li	a3,0
    300000f0:	00000713          	li	a4,0
    300000f4:	00000813          	li	a6,0
    300000f8:	00800893          	li	a7,8
    300000fc:	00000073          	ecall
    30000100:	0000006f          	j	30000100 <rt_hw_cpu_reset+0x20>

0000000030000104 <rt_hw_board_init>:
    30000104:	ff010113          	addi	sp,sp,-16
    30000108:	00113423          	sd	ra,8(sp)
    3000010c:	00813023          	sd	s0,0(sp)
    30000110:	569040ef          	jal	ra,30004e78 <rt_hw_interrupt_init>
    30000114:	170000ef          	jal	ra,30000284 <rt_hw_uart_init>
    30000118:	5640d617          	auipc	a2,0x5640d
    3000011c:	39060613          	addi	a2,a2,912 # 8640d4a8 <__stack_start__+0x540d4a8>
    30000120:	5000d417          	auipc	s0,0x5000d
    30000124:	38840413          	addi	s0,s0,904 # 8000d4a8 <__bss_end>
    30000128:	00060593          	mv	a1,a2
    3000012c:	00040513          	mv	a0,s0
    30000130:	434040ef          	jal	ra,30004564 <rt_system_heap_init>
    30000134:	50000517          	auipc	a0,0x50000
    30000138:	47450513          	addi	a0,a0,1140 # 800005a8 <__rt_init_end>
    3000013c:	171010ef          	jal	ra,30001aac <rt_console_set_device>
    30000140:	258050ef          	jal	ra,30005398 <rt_hw_tick_init>
    30000144:	00040593          	mv	a1,s0
    30000148:	5640d617          	auipc	a2,0x5640d
    3000014c:	36060613          	addi	a2,a2,864 # 8640d4a8 <__stack_start__+0x540d4a8>
    30000150:	50000517          	auipc	a0,0x50000
    30000154:	46050513          	addi	a0,a0,1120 # 800005b0 <__rt_init_end+0x8>
    30000158:	1c5010ef          	jal	ra,30001b1c <rt_kprintf>
    3000015c:	00013403          	ld	s0,0(sp)
    30000160:	00813083          	ld	ra,8(sp)
    30000164:	01010113          	addi	sp,sp,16
    30000168:	0f00206f          	j	30002258 <rt_components_board_init>

000000003000016c <drv_uart_putc>:
    3000016c:	00058513          	mv	a0,a1
    30000170:	10000737          	lui	a4,0x10000
    30000174:	00574783          	lbu	a5,5(a4) # 10000005 <__stack_size+0xffff805>
    30000178:	0207f793          	andi	a5,a5,32
    3000017c:	fe078ce3          	beqz	a5,30000174 <drv_uart_putc+0x8>
    30000180:	00a70023          	sb	a0,0(a4)
    30000184:	00008067          	ret

0000000030000188 <drv_uart_getc>:
    30000188:	10000737          	lui	a4,0x10000
    3000018c:	00574783          	lbu	a5,5(a4) # 10000005 <__stack_size+0xffff805>
    30000190:	fff00513          	li	a0,-1
    30000194:	0017f793          	andi	a5,a5,1
    30000198:	00078663          	beqz	a5,300001a4 <drv_uart_getc+0x1c>
    3000019c:	00074503          	lbu	a0,0(a4)
    300001a0:	0ff57513          	zext.b	a0,a0
    300001a4:	00008067          	ret

00000000300001a8 <rt_uart_configure>:
    300001a8:	fe010113          	addi	sp,sp,-32
    300001ac:	00813823          	sd	s0,16(sp)
    300001b0:	00913423          	sd	s1,8(sp)
    300001b4:	00113c23          	sd	ra,24(sp)
    300001b8:	00050413          	mv	s0,a0
    300001bc:	00058493          	mv	s1,a1
    300001c0:	00051e63          	bnez	a0,300001dc <rt_uart_configure+0x34>
    300001c4:	03a00613          	li	a2,58
    300001c8:	50000597          	auipc	a1,0x50000
    300001cc:	45058593          	addi	a1,a1,1104 # 80000618 <__FUNCTION__.3513>
    300001d0:	50000517          	auipc	a0,0x50000
    300001d4:	42050513          	addi	a0,a0,1056 # 800005f0 <__fsym___cmd_reboot_name+0x10>
    300001d8:	2c1010ef          	jal	ra,30001c98 <rt_assert_handler>
    300001dc:	0004a783          	lw	a5,0(s1)
    300001e0:	01813083          	ld	ra,24(sp)
    300001e4:	00000513          	li	a0,0
    300001e8:	08f42423          	sw	a5,136(s0)
    300001ec:	0044a783          	lw	a5,4(s1)
    300001f0:	00813483          	ld	s1,8(sp)
    300001f4:	08f42623          	sw	a5,140(s0)
    300001f8:	01013403          	ld	s0,16(sp)
    300001fc:	02010113          	addi	sp,sp,32
    30000200:	00008067          	ret

0000000030000204 <uart_control>:
    30000204:	07853783          	ld	a5,120(a0)
    30000208:	02079a63          	bnez	a5,3000023c <uart_control+0x38>
    3000020c:	ff010113          	addi	sp,sp,-16
    30000210:	50000517          	auipc	a0,0x50000
    30000214:	3f850513          	addi	a0,a0,1016 # 80000608 <__fsym___cmd_reboot_name+0x28>
    30000218:	04700613          	li	a2,71
    3000021c:	50000597          	auipc	a1,0x50000
    30000220:	41458593          	addi	a1,a1,1044 # 80000630 <__FUNCTION__.3521>
    30000224:	00113423          	sd	ra,8(sp)
    30000228:	271010ef          	jal	ra,30001c98 <rt_assert_handler>
    3000022c:	00813083          	ld	ra,8(sp)
    30000230:	00000513          	li	a0,0
    30000234:	01010113          	addi	sp,sp,16
    30000238:	00008067          	ret
    3000023c:	00000513          	li	a0,0
    30000240:	00008067          	ret

0000000030000244 <virt_uart_init>:
    30000244:	100007b7          	lui	a5,0x10000
    30000248:	000780a3          	sb	zero,1(a5) # 10000001 <__stack_size+0xffff801>
    3000024c:	0037c703          	lbu	a4,3(a5)
    30000250:	f8076713          	ori	a4,a4,-128
    30000254:	0ff77713          	zext.b	a4,a4
    30000258:	00e781a3          	sb	a4,3(a5)
    3000025c:	00100713          	li	a4,1
    30000260:	00e78023          	sb	a4,0(a5)
    30000264:	000780a3          	sb	zero,1(a5)
    30000268:	00300713          	li	a4,3
    3000026c:	00e781a3          	sb	a4,3(a5)
    30000270:	0017c703          	lbu	a4,1(a5)
    30000274:	0ff77713          	zext.b	a4,a4
    30000278:	00176713          	ori	a4,a4,1
    3000027c:	00e780a3          	sb	a4,1(a5)
    30000280:	00008067          	ret

0000000030000284 <rt_hw_uart_init>:
    30000284:	ff010113          	addi	sp,sp,-16
    30000288:	00113423          	sd	ra,8(sp)
    3000028c:	95818513          	addi	a0,gp,-1704 # 80004320 <serial1>
    30000290:	50000797          	auipc	a5,0x50000
    30000294:	3b078793          	addi	a5,a5,944 # 80000640 <_uart_ops>
    30000298:	08f53023          	sd	a5,128(a0)
    3000029c:	50004797          	auipc	a5,0x50004
    300002a0:	f347b783          	ld	a5,-204(a5) # 800041d0 <soft_timer_status+0x8>
    300002a4:	9f818693          	addi	a3,gp,-1544 # 800043c0 <uart1>
    300002a8:	08f53423          	sd	a5,136(a0)
    300002ac:	100007b7          	lui	a5,0x10000
    300002b0:	00f6b023          	sd	a5,0(a3)
    300002b4:	00a00793          	li	a5,10
    300002b8:	00f6a423          	sw	a5,8(a3)
    300002bc:	f89ff0ef          	jal	ra,30000244 <virt_uart_init>
    300002c0:	9f818693          	addi	a3,gp,-1544 # 800043c0 <uart1>
    300002c4:	04300613          	li	a2,67
    300002c8:	50000597          	auipc	a1,0x50000
    300002cc:	2e058593          	addi	a1,a1,736 # 800005a8 <__rt_init_end>
    300002d0:	95818513          	addi	a0,gp,-1704 # 80004320 <serial1>
    300002d4:	0b90c0ef          	jal	ra,3000cb8c <rt_hw_serial_register>
    300002d8:	00813083          	ld	ra,8(sp)
    300002dc:	00000513          	li	a0,0
    300002e0:	01010113          	addi	sp,sp,16
    300002e4:	00008067          	ret

00000000300002e8 <atoi>:
    300002e8:	00050793          	mv	a5,a0
    300002ec:	02000713          	li	a4,32
    300002f0:	0007c683          	lbu	a3,0(a5) # 10000000 <__stack_size+0xffff800>
    300002f4:	02e68263          	beq	a3,a4,30000318 <atoi+0x30>
    300002f8:	00000513          	li	a0,0
    300002fc:	00900613          	li	a2,9
    30000300:	00a00593          	li	a1,10
    30000304:	0007c683          	lbu	a3,0(a5)
    30000308:	fd06871b          	addiw	a4,a3,-48
    3000030c:	0ff77713          	zext.b	a4,a4
    30000310:	00e67863          	bgeu	a2,a4,30000320 <atoi+0x38>
    30000314:	00008067          	ret
    30000318:	00178793          	addi	a5,a5,1
    3000031c:	fd5ff06f          	j	300002f0 <atoi+0x8>
    30000320:	02a5853b          	mulw	a0,a1,a0
    30000324:	00178793          	addi	a5,a5,1
    30000328:	00d5053b          	addw	a0,a0,a3
    3000032c:	fd05051b          	addiw	a0,a0,-48
    30000330:	fd5ff06f          	j	30000304 <atoi+0x1c>

0000000030000334 <strlen>:
    30000334:	0f00106f          	j	30001424 <rt_strlen>

0000000030000338 <strcpy>:
    30000338:	00050793          	mv	a5,a0
    3000033c:	0005c703          	lbu	a4,0(a1)
    30000340:	00071663          	bnez	a4,3000034c <strcpy+0x14>
    30000344:	00078023          	sb	zero,0(a5)
    30000348:	00008067          	ret
    3000034c:	00e78023          	sb	a4,0(a5)
    30000350:	00158593          	addi	a1,a1,1
    30000354:	00178793          	addi	a5,a5,1
    30000358:	fe5ff06f          	j	3000033c <strcpy+0x4>

000000003000035c <strncpy>:
    3000035c:	0200106f          	j	3000137c <rt_strncpy>

0000000030000360 <strcat>:
    30000360:	fe010113          	addi	sp,sp,-32
    30000364:	00113c23          	sd	ra,24(sp)
    30000368:	00813823          	sd	s0,16(sp)
    3000036c:	00b13423          	sd	a1,8(sp)
    30000370:	00050413          	mv	s0,a0
    30000374:	0b0010ef          	jal	ra,30001424 <rt_strlen>
    30000378:	00813583          	ld	a1,8(sp)
    3000037c:	00a40533          	add	a0,s0,a0
    30000380:	fb9ff0ef          	jal	ra,30000338 <strcpy>
    30000384:	01813083          	ld	ra,24(sp)
    30000388:	00040513          	mv	a0,s0
    3000038c:	01013403          	ld	s0,16(sp)
    30000390:	02010113          	addi	sp,sp,32
    30000394:	00008067          	ret

0000000030000398 <strcmp>:
    30000398:	0680106f          	j	30001400 <rt_strcmp>

000000003000039c <strncmp>:
    3000039c:	0240106f          	j	300013c0 <rt_strncmp>

00000000300003a0 <memset>:
    300003a0:	5910006f          	j	30001130 <rt_memset>

00000000300003a4 <memcpy>:
    300003a4:	6510006f          	j	300011f4 <rt_memcpy>

00000000300003a8 <memcmp>:
    300003a8:	7a10006f          	j	30001348 <rt_memcmp>

00000000300003ac <strstr>:
    300003ac:	0940106f          	j	30001440 <rt_strstr>

00000000300003b0 <strrchr>:
    300003b0:	00050c63          	beqz	a0,300003c8 <strrchr+0x18>
    300003b4:	00050793          	mv	a5,a0
    300003b8:	0ff5f593          	zext.b	a1,a1
    300003bc:	00000513          	li	a0,0
    300003c0:	0007c703          	lbu	a4,0(a5)
    300003c4:	00071463          	bnez	a4,300003cc <strrchr+0x1c>
    300003c8:	00008067          	ret
    300003cc:	00e59463          	bne	a1,a4,300003d4 <strrchr+0x24>
    300003d0:	00078513          	mv	a0,a5
    300003d4:	00178793          	addi	a5,a5,1
    300003d8:	fe9ff06f          	j	300003c0 <strrchr+0x10>

00000000300003dc <low_prior_entry>:
    300003dc:	fd010113          	addi	sp,sp,-48
    300003e0:	00913c23          	sd	s1,24(sp)
    300003e4:	01213823          	sd	s2,16(sp)
    300003e8:	02113423          	sd	ra,40(sp)
    300003ec:	02813023          	sd	s0,32(sp)
    300003f0:	00000613          	li	a2,0
    300003f4:	0005059b          	sext.w	a1,a0
    300003f8:	00700913          	li	s2,7
    300003fc:	50000497          	auipc	s1,0x50000
    30000400:	26c48493          	addi	s1,s1,620 # 80000668 <_uart_ops+0x28>
    30000404:	03260463          	beq	a2,s2,3000042c <low_prior_entry+0x50>
    30000408:	00048513          	mv	a0,s1
    3000040c:	0016041b          	addiw	s0,a2,1
    30000410:	00b13423          	sd	a1,8(sp)
    30000414:	708010ef          	jal	ra,30001b1c <rt_kprintf>
    30000418:	02800513          	li	a0,40
    3000041c:	4dd020ef          	jal	ra,300030f8 <rt_thread_mdelay>
    30000420:	00813583          	ld	a1,8(sp)
    30000424:	00040613          	mv	a2,s0
    30000428:	fddff06f          	j	30000404 <low_prior_entry+0x28>
    3000042c:	02013403          	ld	s0,32(sp)
    30000430:	02813083          	ld	ra,40(sp)
    30000434:	01813483          	ld	s1,24(sp)
    30000438:	01013903          	ld	s2,16(sp)
    3000043c:	50000517          	auipc	a0,0x50000
    30000440:	24450513          	addi	a0,a0,580 # 80000680 <_uart_ops+0x40>
    30000444:	03010113          	addi	sp,sp,48
    30000448:	6d40106f          	j	30001b1c <rt_kprintf>

000000003000044c <thread_sample>:
    3000044c:	ff010113          	addi	sp,sp,-16
    30000450:	00500793          	li	a5,5
    30000454:	00300713          	li	a4,3
    30000458:	20000693          	li	a3,512
    3000045c:	00100613          	li	a2,1
    30000460:	00000597          	auipc	a1,0x0
    30000464:	f7c58593          	addi	a1,a1,-132 # 300003dc <low_prior_entry>
    30000468:	50000517          	auipc	a0,0x50000
    3000046c:	22850513          	addi	a0,a0,552 # 80000690 <_uart_ops+0x50>
    30000470:	00113423          	sd	ra,8(sp)
    30000474:	131020ef          	jal	ra,30002da4 <rt_thread_create>
    30000478:	00050463          	beqz	a0,30000480 <thread_sample+0x34>
    3000047c:	56d020ef          	jal	ra,300031e8 <rt_thread_startup>
    30000480:	00500793          	li	a5,5
    30000484:	00300713          	li	a4,3
    30000488:	20000693          	li	a3,512
    3000048c:	00200613          	li	a2,2
    30000490:	00000597          	auipc	a1,0x0
    30000494:	f4c58593          	addi	a1,a1,-180 # 300003dc <low_prior_entry>
    30000498:	50000517          	auipc	a0,0x50000
    3000049c:	20050513          	addi	a0,a0,512 # 80000698 <_uart_ops+0x58>
    300004a0:	105020ef          	jal	ra,30002da4 <rt_thread_create>
    300004a4:	00050463          	beqz	a0,300004ac <thread_sample+0x60>
    300004a8:	541020ef          	jal	ra,300031e8 <rt_thread_startup>
    300004ac:	00813083          	ld	ra,8(sp)
    300004b0:	00000513          	li	a0,0
    300004b4:	01010113          	addi	sp,sp,16
    300004b8:	00008067          	ret

00000000300004bc <rt_ipc_list_resume.isra.0>:
    300004bc:	ff010113          	addi	sp,sp,-16
    300004c0:	fd850513          	addi	a0,a0,-40
    300004c4:	00113423          	sd	ra,8(sp)
    300004c8:	44d020ef          	jal	ra,30003114 <rt_thread_resume>
    300004cc:	00813083          	ld	ra,8(sp)
    300004d0:	00000513          	li	a0,0
    300004d4:	01010113          	addi	sp,sp,16
    300004d8:	00008067          	ret

00000000300004dc <rt_ipc_list_suspend>:
    300004dc:	fe010113          	addi	sp,sp,-32
    300004e0:	00913423          	sd	s1,8(sp)
    300004e4:	01213023          	sd	s2,0(sp)
    300004e8:	00050493          	mv	s1,a0
    300004ec:	00060913          	mv	s2,a2
    300004f0:	00058513          	mv	a0,a1
    300004f4:	00813823          	sd	s0,16(sp)
    300004f8:	00113c23          	sd	ra,24(sp)
    300004fc:	00058413          	mv	s0,a1
    30000500:	235020ef          	jal	ra,30002f34 <rt_thread_suspend>
    30000504:	02090463          	beqz	s2,3000052c <rt_ipc_list_suspend+0x50>
    30000508:	00100793          	li	a5,1
    3000050c:	04f90a63          	beq	s2,a5,30000560 <rt_ipc_list_suspend+0x84>
    30000510:	07f00613          	li	a2,127
    30000514:	50000597          	auipc	a1,0x50000
    30000518:	33c58593          	addi	a1,a1,828 # 80000850 <__FUNCTION__.2633>
    3000051c:	50000517          	auipc	a0,0x50000
    30000520:	19450513          	addi	a0,a0,404 # 800006b0 <_uart_ops+0x70>
    30000524:	774010ef          	jal	ra,30001c98 <rt_assert_handler>
    30000528:	01c0006f          	j	30000544 <rt_ipc_list_suspend+0x68>
    3000052c:	0084b703          	ld	a4,8(s1)
    30000530:	02840793          	addi	a5,s0,40
    30000534:	00f73023          	sd	a5,0(a4)
    30000538:	02e43823          	sd	a4,48(s0)
    3000053c:	00f4b423          	sd	a5,8(s1)
    30000540:	02943423          	sd	s1,40(s0)
    30000544:	01813083          	ld	ra,24(sp)
    30000548:	01013403          	ld	s0,16(sp)
    3000054c:	00813483          	ld	s1,8(sp)
    30000550:	00013903          	ld	s2,0(sp)
    30000554:	00000513          	li	a0,0
    30000558:	02010113          	addi	sp,sp,32
    3000055c:	00008067          	ret
    30000560:	0004b783          	ld	a5,0(s1)
    30000564:	00978863          	beq	a5,s1,30000574 <rt_ipc_list_suspend+0x98>
    30000568:	06944683          	lbu	a3,105(s0)
    3000056c:	0417c703          	lbu	a4,65(a5)
    30000570:	02e6f063          	bgeu	a3,a4,30000590 <rt_ipc_list_suspend+0xb4>
    30000574:	0087b683          	ld	a3,8(a5)
    30000578:	02840713          	addi	a4,s0,40
    3000057c:	00e6b023          	sd	a4,0(a3)
    30000580:	02d43823          	sd	a3,48(s0)
    30000584:	00e7b423          	sd	a4,8(a5)
    30000588:	02f43423          	sd	a5,40(s0)
    3000058c:	fb9ff06f          	j	30000544 <rt_ipc_list_suspend+0x68>
    30000590:	0007b783          	ld	a5,0(a5)
    30000594:	fd1ff06f          	j	30000564 <rt_ipc_list_suspend+0x88>

0000000030000598 <rt_sem_init>:
    30000598:	fd010113          	addi	sp,sp,-48
    3000059c:	02813023          	sd	s0,32(sp)
    300005a0:	00913c23          	sd	s1,24(sp)
    300005a4:	01213823          	sd	s2,16(sp)
    300005a8:	01313423          	sd	s3,8(sp)
    300005ac:	02113423          	sd	ra,40(sp)
    300005b0:	00050413          	mv	s0,a0
    300005b4:	00058993          	mv	s3,a1
    300005b8:	00060493          	mv	s1,a2
    300005bc:	00068913          	mv	s2,a3
    300005c0:	00051e63          	bnez	a0,300005dc <rt_sem_init+0x44>
    300005c4:	0d500613          	li	a2,213
    300005c8:	50000597          	auipc	a1,0x50000
    300005cc:	2a058593          	addi	a1,a1,672 # 80000868 <__FUNCTION__.2652>
    300005d0:	50000517          	auipc	a0,0x50000
    300005d4:	0e850513          	addi	a0,a0,232 # 800006b8 <_uart_ops+0x78>
    300005d8:	6c0010ef          	jal	ra,30001c98 <rt_assert_handler>
    300005dc:	000107b7          	lui	a5,0x10
    300005e0:	00f4ee63          	bltu	s1,a5,300005fc <rt_sem_init+0x64>
    300005e4:	0d600613          	li	a2,214
    300005e8:	50000597          	auipc	a1,0x50000
    300005ec:	28058593          	addi	a1,a1,640 # 80000868 <__FUNCTION__.2652>
    300005f0:	50000517          	auipc	a0,0x50000
    300005f4:	0d850513          	addi	a0,a0,216 # 800006c8 <_uart_ops+0x88>
    300005f8:	6a0010ef          	jal	ra,30001c98 <rt_assert_handler>
    300005fc:	00040513          	mv	a0,s0
    30000600:	00098613          	mv	a2,s3
    30000604:	00200593          	li	a1,2
    30000608:	6b8030ef          	jal	ra,30003cc0 <rt_object_init>
    3000060c:	02840793          	addi	a5,s0,40
    30000610:	02941c23          	sh	s1,56(s0)
    30000614:	01240aa3          	sb	s2,21(s0)
    30000618:	02813083          	ld	ra,40(sp)
    3000061c:	02f43823          	sd	a5,48(s0)
    30000620:	02f43423          	sd	a5,40(s0)
    30000624:	02013403          	ld	s0,32(sp)
    30000628:	01813483          	ld	s1,24(sp)
    3000062c:	01013903          	ld	s2,16(sp)
    30000630:	00813983          	ld	s3,8(sp)
    30000634:	00000513          	li	a0,0
    30000638:	03010113          	addi	sp,sp,48
    3000063c:	00008067          	ret

0000000030000640 <rt_sem_take>:
    30000640:	fc010113          	addi	sp,sp,-64
    30000644:	02813823          	sd	s0,48(sp)
    30000648:	02113c23          	sd	ra,56(sp)
    3000064c:	02913423          	sd	s1,40(sp)
    30000650:	03213023          	sd	s2,32(sp)
    30000654:	01313c23          	sd	s3,24(sp)
    30000658:	00b12623          	sw	a1,12(sp)
    3000065c:	00050413          	mv	s0,a0
    30000660:	00051e63          	bnez	a0,3000067c <rt_sem_take+0x3c>
    30000664:	15300613          	li	a2,339
    30000668:	50000597          	auipc	a1,0x50000
    3000066c:	21058593          	addi	a1,a1,528 # 80000878 <__FUNCTION__.2676>
    30000670:	50000517          	auipc	a0,0x50000
    30000674:	04850513          	addi	a0,a0,72 # 800006b8 <_uart_ops+0x78>
    30000678:	620010ef          	jal	ra,30001c98 <rt_assert_handler>
    3000067c:	00040513          	mv	a0,s0
    30000680:	1b1030ef          	jal	ra,30004030 <rt_object_get_type>
    30000684:	00200793          	li	a5,2
    30000688:	00f50e63          	beq	a0,a5,300006a4 <rt_sem_take+0x64>
    3000068c:	15400613          	li	a2,340
    30000690:	50000597          	auipc	a1,0x50000
    30000694:	1e858593          	addi	a1,a1,488 # 80000878 <__FUNCTION__.2676>
    30000698:	50000517          	auipc	a0,0x50000
    3000069c:	04850513          	addi	a0,a0,72 # 800006e0 <_uart_ops+0xa0>
    300006a0:	5f8010ef          	jal	ra,30001c98 <rt_assert_handler>
    300006a4:	8c01b783          	ld	a5,-1856(gp) # 80004288 <rt_object_trytake_hook>
    300006a8:	00078663          	beqz	a5,300006b4 <rt_sem_take+0x74>
    300006ac:	00040513          	mv	a0,s0
    300006b0:	000780e7          	jalr	a5 # 10000 <__stack_size+0xf800>
    300006b4:	62d040ef          	jal	ra,300054e0 <rt_hw_interrupt_disable>
    300006b8:	03845783          	lhu	a5,56(s0)
    300006bc:	00050993          	mv	s3,a0
    300006c0:	02078663          	beqz	a5,300006ec <rt_sem_take+0xac>
    300006c4:	fff7879b          	addiw	a5,a5,-1
    300006c8:	02f41c23          	sh	a5,56(s0)
    300006cc:	61d040ef          	jal	ra,300054e8 <rt_hw_interrupt_enable>
    300006d0:	8b81b783          	ld	a5,-1864(gp) # 80004280 <rt_object_take_hook>
    300006d4:	00000513          	li	a0,0
    300006d8:	02078263          	beqz	a5,300006fc <rt_sem_take+0xbc>
    300006dc:	00040513          	mv	a0,s0
    300006e0:	000780e7          	jalr	a5
    300006e4:	00000513          	li	a0,0
    300006e8:	0140006f          	j	300006fc <rt_sem_take+0xbc>
    300006ec:	00c12783          	lw	a5,12(sp)
    300006f0:	02079463          	bnez	a5,30000718 <rt_sem_take+0xd8>
    300006f4:	5f5040ef          	jal	ra,300054e8 <rt_hw_interrupt_enable>
    300006f8:	ffe00513          	li	a0,-2
    300006fc:	03813083          	ld	ra,56(sp)
    30000700:	03013403          	ld	s0,48(sp)
    30000704:	02813483          	ld	s1,40(sp)
    30000708:	02013903          	ld	s2,32(sp)
    3000070c:	01813983          	ld	s3,24(sp)
    30000710:	04010113          	addi	sp,sp,64
    30000714:	00008067          	ret
    30000718:	5c9040ef          	jal	ra,300054e0 <rt_hw_interrupt_disable>
    3000071c:	00050493          	mv	s1,a0
    30000720:	580020ef          	jal	ra,30002ca0 <rt_thread_self>
    30000724:	02051863          	bnez	a0,30000754 <rt_sem_take+0x114>
    30000728:	50000597          	auipc	a1,0x50000
    3000072c:	15058593          	addi	a1,a1,336 # 80000878 <__FUNCTION__.2676>
    30000730:	50000517          	auipc	a0,0x50000
    30000734:	05050513          	addi	a0,a0,80 # 80000780 <_uart_ops+0x140>
    30000738:	3e4010ef          	jal	ra,30001b1c <rt_kprintf>
    3000073c:	17400613          	li	a2,372
    30000740:	50000597          	auipc	a1,0x50000
    30000744:	13858593          	addi	a1,a1,312 # 80000878 <__FUNCTION__.2676>
    30000748:	50000517          	auipc	a0,0x50000
    3000074c:	f6850513          	addi	a0,a0,-152 # 800006b0 <_uart_ops+0x70>
    30000750:	548010ef          	jal	ra,30001c98 <rt_assert_handler>
    30000754:	58d040ef          	jal	ra,300054e0 <rt_hw_interrupt_disable>
    30000758:	00050913          	mv	s2,a0
    3000075c:	73c000ef          	jal	ra,30000e98 <rt_interrupt_get_nest>
    30000760:	02050863          	beqz	a0,30000790 <rt_sem_take+0x150>
    30000764:	50000597          	auipc	a1,0x50000
    30000768:	11458593          	addi	a1,a1,276 # 80000878 <__FUNCTION__.2676>
    3000076c:	50000517          	auipc	a0,0x50000
    30000770:	fec50513          	addi	a0,a0,-20 # 80000758 <_uart_ops+0x118>
    30000774:	3a8010ef          	jal	ra,30001b1c <rt_kprintf>
    30000778:	17400613          	li	a2,372
    3000077c:	50000597          	auipc	a1,0x50000
    30000780:	0fc58593          	addi	a1,a1,252 # 80000878 <__FUNCTION__.2676>
    30000784:	50000517          	auipc	a0,0x50000
    30000788:	f2c50513          	addi	a0,a0,-212 # 800006b0 <_uart_ops+0x70>
    3000078c:	50c010ef          	jal	ra,30001c98 <rt_assert_handler>
    30000790:	00090513          	mv	a0,s2
    30000794:	555040ef          	jal	ra,300054e8 <rt_hw_interrupt_enable>
    30000798:	00048513          	mv	a0,s1
    3000079c:	54d040ef          	jal	ra,300054e8 <rt_hw_interrupt_enable>
    300007a0:	500020ef          	jal	ra,30002ca0 <rt_thread_self>
    300007a4:	06053023          	sd	zero,96(a0)
    300007a8:	01544603          	lbu	a2,21(s0)
    300007ac:	00050593          	mv	a1,a0
    300007b0:	00050493          	mv	s1,a0
    300007b4:	02840513          	addi	a0,s0,40
    300007b8:	d25ff0ef          	jal	ra,300004dc <rt_ipc_list_suspend>
    300007bc:	00c12783          	lw	a5,12(sp)
    300007c0:	02f05063          	blez	a5,300007e0 <rt_sem_take+0x1a0>
    300007c4:	08848913          	addi	s2,s1,136
    300007c8:	00c10613          	addi	a2,sp,12
    300007cc:	00000593          	li	a1,0
    300007d0:	00090513          	mv	a0,s2
    300007d4:	7e9020ef          	jal	ra,300037bc <rt_timer_control>
    300007d8:	00090513          	mv	a0,s2
    300007dc:	59d020ef          	jal	ra,30003578 <rt_timer_start>
    300007e0:	00098513          	mv	a0,s3
    300007e4:	505040ef          	jal	ra,300054e8 <rt_hw_interrupt_enable>
    300007e8:	759010ef          	jal	ra,30002740 <rt_schedule>
    300007ec:	0604b503          	ld	a0,96(s1)
    300007f0:	ee0500e3          	beqz	a0,300006d0 <rt_sem_take+0x90>
    300007f4:	f09ff06f          	j	300006fc <rt_sem_take+0xbc>

00000000300007f8 <rt_sem_release>:
    300007f8:	fd010113          	addi	sp,sp,-48
    300007fc:	02813023          	sd	s0,32(sp)
    30000800:	02113423          	sd	ra,40(sp)
    30000804:	00913c23          	sd	s1,24(sp)
    30000808:	00050413          	mv	s0,a0
    3000080c:	00051e63          	bnez	a0,30000828 <rt_sem_release+0x30>
    30000810:	1c000613          	li	a2,448
    30000814:	50000597          	auipc	a1,0x50000
    30000818:	07458593          	addi	a1,a1,116 # 80000888 <__FUNCTION__.2687>
    3000081c:	50000517          	auipc	a0,0x50000
    30000820:	e9c50513          	addi	a0,a0,-356 # 800006b8 <_uart_ops+0x78>
    30000824:	474010ef          	jal	ra,30001c98 <rt_assert_handler>
    30000828:	00040513          	mv	a0,s0
    3000082c:	005030ef          	jal	ra,30004030 <rt_object_get_type>
    30000830:	00200793          	li	a5,2
    30000834:	00f50e63          	beq	a0,a5,30000850 <rt_sem_release+0x58>
    30000838:	1c100613          	li	a2,449
    3000083c:	50000597          	auipc	a1,0x50000
    30000840:	04c58593          	addi	a1,a1,76 # 80000888 <__FUNCTION__.2687>
    30000844:	50000517          	auipc	a0,0x50000
    30000848:	e9c50513          	addi	a0,a0,-356 # 800006e0 <_uart_ops+0xa0>
    3000084c:	44c010ef          	jal	ra,30001c98 <rt_assert_handler>
    30000850:	8b01b783          	ld	a5,-1872(gp) # 80004278 <rt_object_put_hook>
    30000854:	00078663          	beqz	a5,30000860 <rt_sem_release+0x68>
    30000858:	00040513          	mv	a0,s0
    3000085c:	000780e7          	jalr	a5
    30000860:	481040ef          	jal	ra,300054e0 <rt_hw_interrupt_disable>
    30000864:	02843783          	ld	a5,40(s0)
    30000868:	02840713          	addi	a4,s0,40
    3000086c:	00050493          	mv	s1,a0
    30000870:	02e78863          	beq	a5,a4,300008a0 <rt_sem_release+0xa8>
    30000874:	00078513          	mv	a0,a5
    30000878:	c45ff0ef          	jal	ra,300004bc <rt_ipc_list_resume.isra.0>
    3000087c:	00100413          	li	s0,1
    30000880:	00048513          	mv	a0,s1
    30000884:	465040ef          	jal	ra,300054e8 <rt_hw_interrupt_enable>
    30000888:	00000513          	li	a0,0
    3000088c:	02040e63          	beqz	s0,300008c8 <rt_sem_release+0xd0>
    30000890:	00a13423          	sd	a0,8(sp)
    30000894:	6ad010ef          	jal	ra,30002740 <rt_schedule>
    30000898:	00813503          	ld	a0,8(sp)
    3000089c:	02c0006f          	j	300008c8 <rt_sem_release+0xd0>
    300008a0:	03845783          	lhu	a5,56(s0)
    300008a4:	00010737          	lui	a4,0x10
    300008a8:	fff70713          	addi	a4,a4,-1 # ffff <__stack_size+0xf7ff>
    300008ac:	00e78a63          	beq	a5,a4,300008c0 <rt_sem_release+0xc8>
    300008b0:	0017879b          	addiw	a5,a5,1
    300008b4:	02f41c23          	sh	a5,56(s0)
    300008b8:	00000413          	li	s0,0
    300008bc:	fc5ff06f          	j	30000880 <rt_sem_release+0x88>
    300008c0:	429040ef          	jal	ra,300054e8 <rt_hw_interrupt_enable>
    300008c4:	ffd00513          	li	a0,-3
    300008c8:	02813083          	ld	ra,40(sp)
    300008cc:	02013403          	ld	s0,32(sp)
    300008d0:	01813483          	ld	s1,24(sp)
    300008d4:	03010113          	addi	sp,sp,48
    300008d8:	00008067          	ret

00000000300008dc <rt_mutex_init>:
    300008dc:	fe010113          	addi	sp,sp,-32
    300008e0:	00813823          	sd	s0,16(sp)
    300008e4:	00913423          	sd	s1,8(sp)
    300008e8:	00113c23          	sd	ra,24(sp)
    300008ec:	00050413          	mv	s0,a0
    300008f0:	00058493          	mv	s1,a1
    300008f4:	00051e63          	bnez	a0,30000910 <rt_mutex_init+0x34>
    300008f8:	22a00613          	li	a2,554
    300008fc:	50000597          	auipc	a1,0x50000
    30000900:	f9c58593          	addi	a1,a1,-100 # 80000898 <__FUNCTION__.2701>
    30000904:	50000517          	auipc	a0,0x50000
    30000908:	eb450513          	addi	a0,a0,-332 # 800007b8 <_uart_ops+0x178>
    3000090c:	38c010ef          	jal	ra,30001c98 <rt_assert_handler>
    30000910:	00040513          	mv	a0,s0
    30000914:	00048613          	mv	a2,s1
    30000918:	00300593          	li	a1,3
    3000091c:	3a4030ef          	jal	ra,30003cc0 <rt_object_init>
    30000920:	02840793          	addi	a5,s0,40
    30000924:	02f43823          	sd	a5,48(s0)
    30000928:	02f43423          	sd	a5,40(s0)
    3000092c:	00ff07b7          	lui	a5,0xff0
    30000930:	0017879b          	addiw	a5,a5,1 # ff0001 <__stack_size+0xfef801>
    30000934:	02f42c23          	sw	a5,56(s0)
    30000938:	00100793          	li	a5,1
    3000093c:	01813083          	ld	ra,24(sp)
    30000940:	04043023          	sd	zero,64(s0)
    30000944:	00f40aa3          	sb	a5,21(s0)
    30000948:	01013403          	ld	s0,16(sp)
    3000094c:	00813483          	ld	s1,8(sp)
    30000950:	00000513          	li	a0,0
    30000954:	02010113          	addi	sp,sp,32
    30000958:	00008067          	ret

000000003000095c <rt_mutex_take>:
    3000095c:	fc010113          	addi	sp,sp,-64
    30000960:	02813823          	sd	s0,48(sp)
    30000964:	02913423          	sd	s1,40(sp)
    30000968:	02113c23          	sd	ra,56(sp)
    3000096c:	03213023          	sd	s2,32(sp)
    30000970:	01313c23          	sd	s3,24(sp)
    30000974:	00050413          	mv	s0,a0
    30000978:	00b12623          	sw	a1,12(sp)
    3000097c:	365040ef          	jal	ra,300054e0 <rt_hw_interrupt_disable>
    30000980:	00050493          	mv	s1,a0
    30000984:	31c020ef          	jal	ra,30002ca0 <rt_thread_self>
    30000988:	02051863          	bnez	a0,300009b8 <rt_mutex_take+0x5c>
    3000098c:	50000597          	auipc	a1,0x50000
    30000990:	f1c58593          	addi	a1,a1,-228 # 800008a8 <__FUNCTION__.2725>
    30000994:	50000517          	auipc	a0,0x50000
    30000998:	dec50513          	addi	a0,a0,-532 # 80000780 <_uart_ops+0x140>
    3000099c:	180010ef          	jal	ra,30001b1c <rt_kprintf>
    300009a0:	2aa00613          	li	a2,682
    300009a4:	50000597          	auipc	a1,0x50000
    300009a8:	f0458593          	addi	a1,a1,-252 # 800008a8 <__FUNCTION__.2725>
    300009ac:	50000517          	auipc	a0,0x50000
    300009b0:	d0450513          	addi	a0,a0,-764 # 800006b0 <_uart_ops+0x70>
    300009b4:	2e4010ef          	jal	ra,30001c98 <rt_assert_handler>
    300009b8:	329040ef          	jal	ra,300054e0 <rt_hw_interrupt_disable>
    300009bc:	00050913          	mv	s2,a0
    300009c0:	4d8000ef          	jal	ra,30000e98 <rt_interrupt_get_nest>
    300009c4:	02050863          	beqz	a0,300009f4 <rt_mutex_take+0x98>
    300009c8:	50000597          	auipc	a1,0x50000
    300009cc:	ee058593          	addi	a1,a1,-288 # 800008a8 <__FUNCTION__.2725>
    300009d0:	50000517          	auipc	a0,0x50000
    300009d4:	d8850513          	addi	a0,a0,-632 # 80000758 <_uart_ops+0x118>
    300009d8:	144010ef          	jal	ra,30001b1c <rt_kprintf>
    300009dc:	2aa00613          	li	a2,682
    300009e0:	50000597          	auipc	a1,0x50000
    300009e4:	ec858593          	addi	a1,a1,-312 # 800008a8 <__FUNCTION__.2725>
    300009e8:	50000517          	auipc	a0,0x50000
    300009ec:	cc850513          	addi	a0,a0,-824 # 800006b0 <_uart_ops+0x70>
    300009f0:	2a8010ef          	jal	ra,30001c98 <rt_assert_handler>
    300009f4:	00090513          	mv	a0,s2
    300009f8:	2f1040ef          	jal	ra,300054e8 <rt_hw_interrupt_enable>
    300009fc:	00048513          	mv	a0,s1
    30000a00:	2e9040ef          	jal	ra,300054e8 <rt_hw_interrupt_enable>
    30000a04:	00041e63          	bnez	s0,30000a20 <rt_mutex_take+0xc4>
    30000a08:	2ad00613          	li	a2,685
    30000a0c:	50000597          	auipc	a1,0x50000
    30000a10:	e9c58593          	addi	a1,a1,-356 # 800008a8 <__FUNCTION__.2725>
    30000a14:	50000517          	auipc	a0,0x50000
    30000a18:	da450513          	addi	a0,a0,-604 # 800007b8 <_uart_ops+0x178>
    30000a1c:	27c010ef          	jal	ra,30001c98 <rt_assert_handler>
    30000a20:	00040513          	mv	a0,s0
    30000a24:	60c030ef          	jal	ra,30004030 <rt_object_get_type>
    30000a28:	00300793          	li	a5,3
    30000a2c:	00f50e63          	beq	a0,a5,30000a48 <rt_mutex_take+0xec>
    30000a30:	2ae00613          	li	a2,686
    30000a34:	50000597          	auipc	a1,0x50000
    30000a38:	e7458593          	addi	a1,a1,-396 # 800008a8 <__FUNCTION__.2725>
    30000a3c:	50000517          	auipc	a0,0x50000
    30000a40:	d9450513          	addi	a0,a0,-620 # 800007d0 <_uart_ops+0x190>
    30000a44:	254010ef          	jal	ra,30001c98 <rt_assert_handler>
    30000a48:	258020ef          	jal	ra,30002ca0 <rt_thread_self>
    30000a4c:	00050493          	mv	s1,a0
    30000a50:	291040ef          	jal	ra,300054e0 <rt_hw_interrupt_disable>
    30000a54:	8c01b783          	ld	a5,-1856(gp) # 80004288 <rt_object_trytake_hook>
    30000a58:	00050913          	mv	s2,a0
    30000a5c:	00078663          	beqz	a5,30000a68 <rt_mutex_take+0x10c>
    30000a60:	00040513          	mv	a0,s0
    30000a64:	000780e7          	jalr	a5
    30000a68:	04043503          	ld	a0,64(s0)
    30000a6c:	0604b023          	sd	zero,96(s1)
    30000a70:	02951e63          	bne	a0,s1,30000aac <rt_mutex_take+0x150>
    30000a74:	03b44783          	lbu	a5,59(s0)
    30000a78:	0ff00713          	li	a4,255
    30000a7c:	04e78863          	beq	a5,a4,30000acc <rt_mutex_take+0x170>
    30000a80:	0017879b          	addiw	a5,a5,1
    30000a84:	02f40da3          	sb	a5,59(s0)
    30000a88:	00090513          	mv	a0,s2
    30000a8c:	25d040ef          	jal	ra,300054e8 <rt_hw_interrupt_enable>
    30000a90:	8b81b783          	ld	a5,-1864(gp) # 80004280 <rt_object_take_hook>
    30000a94:	00000513          	li	a0,0
    30000a98:	04078063          	beqz	a5,30000ad8 <rt_mutex_take+0x17c>
    30000a9c:	00040513          	mv	a0,s0
    30000aa0:	000780e7          	jalr	a5
    30000aa4:	00000513          	li	a0,0
    30000aa8:	0300006f          	j	30000ad8 <rt_mutex_take+0x17c>
    30000aac:	03845783          	lhu	a5,56(s0)
    30000ab0:	04078263          	beqz	a5,30000af4 <rt_mutex_take+0x198>
    30000ab4:	fff7879b          	addiw	a5,a5,-1
    30000ab8:	02f41c23          	sh	a5,56(s0)
    30000abc:	04943023          	sd	s1,64(s0)
    30000ac0:	0694c783          	lbu	a5,105(s1)
    30000ac4:	02f40d23          	sb	a5,58(s0)
    30000ac8:	fadff06f          	j	30000a74 <rt_mutex_take+0x118>
    30000acc:	00090513          	mv	a0,s2
    30000ad0:	219040ef          	jal	ra,300054e8 <rt_hw_interrupt_enable>
    30000ad4:	ffd00513          	li	a0,-3
    30000ad8:	03813083          	ld	ra,56(sp)
    30000adc:	03013403          	ld	s0,48(sp)
    30000ae0:	02813483          	ld	s1,40(sp)
    30000ae4:	02013903          	ld	s2,32(sp)
    30000ae8:	01813983          	ld	s3,24(sp)
    30000aec:	04010113          	addi	sp,sp,64
    30000af0:	00008067          	ret
    30000af4:	00c12783          	lw	a5,12(sp)
    30000af8:	00079e63          	bnez	a5,30000b14 <rt_mutex_take+0x1b8>
    30000afc:	ffe00793          	li	a5,-2
    30000b00:	00090513          	mv	a0,s2
    30000b04:	06f4b023          	sd	a5,96(s1)
    30000b08:	1e1040ef          	jal	ra,300054e8 <rt_hw_interrupt_enable>
    30000b0c:	ffe00513          	li	a0,-2
    30000b10:	fc9ff06f          	j	30000ad8 <rt_mutex_take+0x17c>
    30000b14:	0694c703          	lbu	a4,105(s1)
    30000b18:	06954783          	lbu	a5,105(a0)
    30000b1c:	00f77863          	bgeu	a4,a5,30000b2c <rt_mutex_take+0x1d0>
    30000b20:	06948613          	addi	a2,s1,105
    30000b24:	00200593          	li	a1,2
    30000b28:	77c020ef          	jal	ra,300032a4 <rt_thread_control>
    30000b2c:	01544603          	lbu	a2,21(s0)
    30000b30:	00048593          	mv	a1,s1
    30000b34:	02840513          	addi	a0,s0,40
    30000b38:	9a5ff0ef          	jal	ra,300004dc <rt_ipc_list_suspend>
    30000b3c:	00c12783          	lw	a5,12(sp)
    30000b40:	02f05063          	blez	a5,30000b60 <rt_mutex_take+0x204>
    30000b44:	08848993          	addi	s3,s1,136
    30000b48:	00c10613          	addi	a2,sp,12
    30000b4c:	00000593          	li	a1,0
    30000b50:	00098513          	mv	a0,s3
    30000b54:	469020ef          	jal	ra,300037bc <rt_timer_control>
    30000b58:	00098513          	mv	a0,s3
    30000b5c:	21d020ef          	jal	ra,30003578 <rt_timer_start>
    30000b60:	00090513          	mv	a0,s2
    30000b64:	185040ef          	jal	ra,300054e8 <rt_hw_interrupt_enable>
    30000b68:	3d9010ef          	jal	ra,30002740 <rt_schedule>
    30000b6c:	0604b503          	ld	a0,96(s1)
    30000b70:	f60514e3          	bnez	a0,30000ad8 <rt_mutex_take+0x17c>
    30000b74:	16d040ef          	jal	ra,300054e0 <rt_hw_interrupt_disable>
    30000b78:	00050913          	mv	s2,a0
    30000b7c:	f0dff06f          	j	30000a88 <rt_mutex_take+0x12c>

0000000030000b80 <rt_mutex_release>:
    30000b80:	fd010113          	addi	sp,sp,-48
    30000b84:	02813023          	sd	s0,32(sp)
    30000b88:	02113423          	sd	ra,40(sp)
    30000b8c:	00913c23          	sd	s1,24(sp)
    30000b90:	01213823          	sd	s2,16(sp)
    30000b94:	00050413          	mv	s0,a0
    30000b98:	00051e63          	bnez	a0,30000bb4 <rt_mutex_release+0x34>
    30000b9c:	35400613          	li	a2,852
    30000ba0:	50000597          	auipc	a1,0x50000
    30000ba4:	d1858593          	addi	a1,a1,-744 # 800008b8 <__FUNCTION__.2736>
    30000ba8:	50000517          	auipc	a0,0x50000
    30000bac:	c1050513          	addi	a0,a0,-1008 # 800007b8 <_uart_ops+0x178>
    30000bb0:	0e8010ef          	jal	ra,30001c98 <rt_assert_handler>
    30000bb4:	00040513          	mv	a0,s0
    30000bb8:	478030ef          	jal	ra,30004030 <rt_object_get_type>
    30000bbc:	00300793          	li	a5,3
    30000bc0:	00f50e63          	beq	a0,a5,30000bdc <rt_mutex_release+0x5c>
    30000bc4:	35500613          	li	a2,853
    30000bc8:	50000597          	auipc	a1,0x50000
    30000bcc:	cf058593          	addi	a1,a1,-784 # 800008b8 <__FUNCTION__.2736>
    30000bd0:	50000517          	auipc	a0,0x50000
    30000bd4:	c0050513          	addi	a0,a0,-1024 # 800007d0 <_uart_ops+0x190>
    30000bd8:	0c0010ef          	jal	ra,30001c98 <rt_assert_handler>
    30000bdc:	105040ef          	jal	ra,300054e0 <rt_hw_interrupt_disable>
    30000be0:	00050493          	mv	s1,a0
    30000be4:	0bc020ef          	jal	ra,30002ca0 <rt_thread_self>
    30000be8:	02051863          	bnez	a0,30000c18 <rt_mutex_release+0x98>
    30000bec:	50000597          	auipc	a1,0x50000
    30000bf0:	ccc58593          	addi	a1,a1,-820 # 800008b8 <__FUNCTION__.2736>
    30000bf4:	50000517          	auipc	a0,0x50000
    30000bf8:	b8c50513          	addi	a0,a0,-1140 # 80000780 <_uart_ops+0x140>
    30000bfc:	721000ef          	jal	ra,30001b1c <rt_kprintf>
    30000c00:	35a00613          	li	a2,858
    30000c04:	50000597          	auipc	a1,0x50000
    30000c08:	cb458593          	addi	a1,a1,-844 # 800008b8 <__FUNCTION__.2736>
    30000c0c:	50000517          	auipc	a0,0x50000
    30000c10:	aa450513          	addi	a0,a0,-1372 # 800006b0 <_uart_ops+0x70>
    30000c14:	084010ef          	jal	ra,30001c98 <rt_assert_handler>
    30000c18:	0c9040ef          	jal	ra,300054e0 <rt_hw_interrupt_disable>
    30000c1c:	00050913          	mv	s2,a0
    30000c20:	278000ef          	jal	ra,30000e98 <rt_interrupt_get_nest>
    30000c24:	02050863          	beqz	a0,30000c54 <rt_mutex_release+0xd4>
    30000c28:	50000597          	auipc	a1,0x50000
    30000c2c:	c9058593          	addi	a1,a1,-880 # 800008b8 <__FUNCTION__.2736>
    30000c30:	50000517          	auipc	a0,0x50000
    30000c34:	b2850513          	addi	a0,a0,-1240 # 80000758 <_uart_ops+0x118>
    30000c38:	6e5000ef          	jal	ra,30001b1c <rt_kprintf>
    30000c3c:	35a00613          	li	a2,858
    30000c40:	50000597          	auipc	a1,0x50000
    30000c44:	c7858593          	addi	a1,a1,-904 # 800008b8 <__FUNCTION__.2736>
    30000c48:	50000517          	auipc	a0,0x50000
    30000c4c:	a6850513          	addi	a0,a0,-1432 # 800006b0 <_uart_ops+0x70>
    30000c50:	048010ef          	jal	ra,30001c98 <rt_assert_handler>
    30000c54:	00090513          	mv	a0,s2
    30000c58:	091040ef          	jal	ra,300054e8 <rt_hw_interrupt_enable>
    30000c5c:	00048513          	mv	a0,s1
    30000c60:	089040ef          	jal	ra,300054e8 <rt_hw_interrupt_enable>
    30000c64:	03c020ef          	jal	ra,30002ca0 <rt_thread_self>
    30000c68:	00050913          	mv	s2,a0
    30000c6c:	075040ef          	jal	ra,300054e0 <rt_hw_interrupt_disable>
    30000c70:	8b01b783          	ld	a5,-1872(gp) # 80004278 <rt_object_put_hook>
    30000c74:	00050493          	mv	s1,a0
    30000c78:	00078663          	beqz	a5,30000c84 <rt_mutex_release+0x104>
    30000c7c:	00040513          	mv	a0,s0
    30000c80:	000780e7          	jalr	a5
    30000c84:	04043783          	ld	a5,64(s0)
    30000c88:	03278863          	beq	a5,s2,30000cb8 <rt_mutex_release+0x138>
    30000c8c:	fff00793          	li	a5,-1
    30000c90:	00048513          	mv	a0,s1
    30000c94:	06f93023          	sd	a5,96(s2)
    30000c98:	051040ef          	jal	ra,300054e8 <rt_hw_interrupt_enable>
    30000c9c:	fff00513          	li	a0,-1
    30000ca0:	02813083          	ld	ra,40(sp)
    30000ca4:	02013403          	ld	s0,32(sp)
    30000ca8:	01813483          	ld	s1,24(sp)
    30000cac:	01013903          	ld	s2,16(sp)
    30000cb0:	03010113          	addi	sp,sp,48
    30000cb4:	00008067          	ret
    30000cb8:	03b44783          	lbu	a5,59(s0)
    30000cbc:	fff7879b          	addiw	a5,a5,-1
    30000cc0:	0ff7f793          	zext.b	a5,a5
    30000cc4:	02f40da3          	sb	a5,59(s0)
    30000cc8:	08079e63          	bnez	a5,30000d64 <rt_mutex_release+0x1e4>
    30000ccc:	03a44703          	lbu	a4,58(s0)
    30000cd0:	06994783          	lbu	a5,105(s2)
    30000cd4:	00f70a63          	beq	a4,a5,30000ce8 <rt_mutex_release+0x168>
    30000cd8:	03a40613          	addi	a2,s0,58
    30000cdc:	00200593          	li	a1,2
    30000ce0:	00090513          	mv	a0,s2
    30000ce4:	5c0020ef          	jal	ra,300032a4 <rt_thread_control>
    30000ce8:	02843503          	ld	a0,40(s0)
    30000cec:	02840793          	addi	a5,s0,40
    30000cf0:	04f50863          	beq	a0,a5,30000d40 <rt_mutex_release+0x1c0>
    30000cf4:	fd850793          	addi	a5,a0,-40
    30000cf8:	04f43023          	sd	a5,64(s0)
    30000cfc:	04154783          	lbu	a5,65(a0)
    30000d00:	0ff00713          	li	a4,255
    30000d04:	02f40d23          	sb	a5,58(s0)
    30000d08:	03b44783          	lbu	a5,59(s0)
    30000d0c:	06e78063          	beq	a5,a4,30000d6c <rt_mutex_release+0x1ec>
    30000d10:	0017879b          	addiw	a5,a5,1
    30000d14:	02f40da3          	sb	a5,59(s0)
    30000d18:	fa4ff0ef          	jal	ra,300004bc <rt_ipc_list_resume.isra.0>
    30000d1c:	00100413          	li	s0,1
    30000d20:	00048513          	mv	a0,s1
    30000d24:	7c4040ef          	jal	ra,300054e8 <rt_hw_interrupt_enable>
    30000d28:	00000513          	li	a0,0
    30000d2c:	f6040ae3          	beqz	s0,30000ca0 <rt_mutex_release+0x120>
    30000d30:	00a13423          	sd	a0,8(sp)
    30000d34:	20d010ef          	jal	ra,30002740 <rt_schedule>
    30000d38:	00813503          	ld	a0,8(sp)
    30000d3c:	f65ff06f          	j	30000ca0 <rt_mutex_release+0x120>
    30000d40:	03845783          	lhu	a5,56(s0)
    30000d44:	00010737          	lui	a4,0x10
    30000d48:	fff70713          	addi	a4,a4,-1 # ffff <__stack_size+0xf7ff>
    30000d4c:	02e78063          	beq	a5,a4,30000d6c <rt_mutex_release+0x1ec>
    30000d50:	0017879b          	addiw	a5,a5,1
    30000d54:	02f41c23          	sh	a5,56(s0)
    30000d58:	fff00793          	li	a5,-1
    30000d5c:	04043023          	sd	zero,64(s0)
    30000d60:	02f40d23          	sb	a5,58(s0)
    30000d64:	00000413          	li	s0,0
    30000d68:	fb9ff06f          	j	30000d20 <rt_mutex_release+0x1a0>
    30000d6c:	00048513          	mv	a0,s1
    30000d70:	778040ef          	jal	ra,300054e8 <rt_hw_interrupt_enable>
    30000d74:	ffd00513          	li	a0,-3
    30000d78:	f29ff06f          	j	30000ca0 <rt_mutex_release+0x120>

0000000030000d7c <rt_tick_get>:
    30000d7c:	8101a503          	lw	a0,-2032(gp) # 800041d8 <rt_tick>
    30000d80:	00008067          	ret

0000000030000d84 <rt_tick_increase>:
    30000d84:	ff010113          	addi	sp,sp,-16
    30000d88:	00113423          	sd	ra,8(sp)
    30000d8c:	00813023          	sd	s0,0(sp)
    30000d90:	750040ef          	jal	ra,300054e0 <rt_hw_interrupt_disable>
    30000d94:	8101a783          	lw	a5,-2032(gp) # 800041d8 <rt_tick>
    30000d98:	0017879b          	addiw	a5,a5,1
    30000d9c:	80f1a823          	sw	a5,-2032(gp) # 800041d8 <rt_tick>
    30000da0:	00050413          	mv	s0,a0
    30000da4:	6fd010ef          	jal	ra,30002ca0 <rt_thread_self>
    30000da8:	08053783          	ld	a5,128(a0)
    30000dac:	fff78793          	addi	a5,a5,-1
    30000db0:	08f53023          	sd	a5,128(a0)
    30000db4:	02079a63          	bnez	a5,30000de8 <rt_tick_increase+0x64>
    30000db8:	07853783          	ld	a5,120(a0)
    30000dbc:	08f53023          	sd	a5,128(a0)
    30000dc0:	06854783          	lbu	a5,104(a0)
    30000dc4:	0087e793          	ori	a5,a5,8
    30000dc8:	06f50423          	sb	a5,104(a0)
    30000dcc:	00040513          	mv	a0,s0
    30000dd0:	718040ef          	jal	ra,300054e8 <rt_hw_interrupt_enable>
    30000dd4:	16d010ef          	jal	ra,30002740 <rt_schedule>
    30000dd8:	00013403          	ld	s0,0(sp)
    30000ddc:	00813083          	ld	ra,8(sp)
    30000de0:	01010113          	addi	sp,sp,16
    30000de4:	2d10206f          	j	300038b4 <rt_timer_check>
    30000de8:	00040513          	mv	a0,s0
    30000dec:	6fc040ef          	jal	ra,300054e8 <rt_hw_interrupt_enable>
    30000df0:	fe9ff06f          	j	30000dd8 <rt_tick_increase+0x54>

0000000030000df4 <rt_tick_from_millisecond>:
    30000df4:	02054663          	bltz	a0,30000e20 <rt_tick_from_millisecond+0x2c>
    30000df8:	3e800713          	li	a4,1000
    30000dfc:	02e547bb          	divw	a5,a0,a4
    30000e00:	06400693          	li	a3,100
    30000e04:	02e5653b          	remw	a0,a0,a4
    30000e08:	02d5053b          	mulw	a0,a0,a3
    30000e0c:	3e75051b          	addiw	a0,a0,999
    30000e10:	02e5453b          	divw	a0,a0,a4
    30000e14:	02d787bb          	mulw	a5,a5,a3
    30000e18:	00f5053b          	addw	a0,a0,a5
    30000e1c:	00008067          	ret
    30000e20:	fff00513          	li	a0,-1
    30000e24:	00008067          	ret

0000000030000e28 <rt_interrupt_enter>:
    30000e28:	fe010113          	addi	sp,sp,-32
    30000e2c:	00113c23          	sd	ra,24(sp)
    30000e30:	6b0040ef          	jal	ra,300054e0 <rt_hw_interrupt_disable>
    30000e34:	8281c783          	lbu	a5,-2008(gp) # 800041f0 <rt_interrupt_nest>
    30000e38:	0017879b          	addiw	a5,a5,1
    30000e3c:	82f18423          	sb	a5,-2008(gp) # 800041f0 <rt_interrupt_nest>
    30000e40:	8181b783          	ld	a5,-2024(gp) # 800041e0 <rt_interrupt_enter_hook>
    30000e44:	00078863          	beqz	a5,30000e54 <rt_interrupt_enter+0x2c>
    30000e48:	00a13423          	sd	a0,8(sp)
    30000e4c:	000780e7          	jalr	a5
    30000e50:	00813503          	ld	a0,8(sp)
    30000e54:	01813083          	ld	ra,24(sp)
    30000e58:	02010113          	addi	sp,sp,32
    30000e5c:	68c0406f          	j	300054e8 <rt_hw_interrupt_enable>

0000000030000e60 <rt_interrupt_leave>:
    30000e60:	fe010113          	addi	sp,sp,-32
    30000e64:	00113c23          	sd	ra,24(sp)
    30000e68:	678040ef          	jal	ra,300054e0 <rt_hw_interrupt_disable>
    30000e6c:	8201b783          	ld	a5,-2016(gp) # 800041e8 <rt_interrupt_leave_hook>
    30000e70:	00078863          	beqz	a5,30000e80 <rt_interrupt_leave+0x20>
    30000e74:	00a13423          	sd	a0,8(sp)
    30000e78:	000780e7          	jalr	a5
    30000e7c:	00813503          	ld	a0,8(sp)
    30000e80:	8281c783          	lbu	a5,-2008(gp) # 800041f0 <rt_interrupt_nest>
    30000e84:	01813083          	ld	ra,24(sp)
    30000e88:	fff7879b          	addiw	a5,a5,-1
    30000e8c:	82f18423          	sb	a5,-2008(gp) # 800041f0 <rt_interrupt_nest>
    30000e90:	02010113          	addi	sp,sp,32
    30000e94:	6540406f          	j	300054e8 <rt_hw_interrupt_enable>

0000000030000e98 <rt_interrupt_get_nest>:
    30000e98:	ff010113          	addi	sp,sp,-16
    30000e9c:	00113423          	sd	ra,8(sp)
    30000ea0:	00813023          	sd	s0,0(sp)
    30000ea4:	63c040ef          	jal	ra,300054e0 <rt_hw_interrupt_disable>
    30000ea8:	8281c403          	lbu	s0,-2008(gp) # 800041f0 <rt_interrupt_nest>
    30000eac:	63c040ef          	jal	ra,300054e8 <rt_hw_interrupt_enable>
    30000eb0:	00813083          	ld	ra,8(sp)
    30000eb4:	00040513          	mv	a0,s0
    30000eb8:	00013403          	ld	s0,0(sp)
    30000ebc:	01010113          	addi	sp,sp,16
    30000ec0:	00008067          	ret

0000000030000ec4 <print_number>:
    30000ec4:	04087893          	andi	a7,a6,64
    30000ec8:	ff010113          	addi	sp,sp,-16
    30000ecc:	50000f97          	auipc	t6,0x50000
    30000ed0:	c4cf8f93          	addi	t6,t6,-948 # 80000b18 <small_digits.2783>
    30000ed4:	00088663          	beqz	a7,30000ee0 <print_number+0x1c>
    30000ed8:	50000f97          	auipc	t6,0x50000
    30000edc:	c28f8f93          	addi	t6,t6,-984 # 80000b00 <large_digits.2784>
    30000ee0:	01087893          	andi	a7,a6,16
    30000ee4:	0008829b          	sext.w	t0,a7
    30000ee8:	04088c63          	beqz	a7,30000f40 <print_number+0x7c>
    30000eec:	ffe87813          	andi	a6,a6,-2
    30000ef0:	02000e93          	li	t4,32
    30000ef4:	00287893          	andi	a7,a6,2
    30000ef8:	10088463          	beqz	a7,30001000 <print_number+0x13c>
    30000efc:	04065c63          	bgez	a2,30000f54 <print_number+0x90>
    30000f00:	40c00633          	neg	a2,a2
    30000f04:	02d00313          	li	t1,45
    30000f08:	00010f13          	mv	t5,sp
    30000f0c:	00000893          	li	a7,0
    30000f10:	00a00393          	li	t2,10
    30000f14:	0e769a63          	bne	a3,t2,30001008 <print_number+0x144>
    30000f18:	02d67e33          	remu	t3,a2,a3
    30000f1c:	02d65633          	divu	a2,a2,a3
    30000f20:	000e0e1b          	sext.w	t3,t3
    30000f24:	01cf8e33          	add	t3,t6,t3
    30000f28:	000e4e03          	lbu	t3,0(t3)
    30000f2c:	0018889b          	addiw	a7,a7,1
    30000f30:	001f0f13          	addi	t5,t5,1
    30000f34:	ffcf0fa3          	sb	t3,-1(t5)
    30000f38:	fc061ee3          	bnez	a2,30000f14 <print_number+0x50>
    30000f3c:	0400006f          	j	30000f7c <print_number+0xb8>
    30000f40:	00187893          	andi	a7,a6,1
    30000f44:	02000e93          	li	t4,32
    30000f48:	fa0886e3          	beqz	a7,30000ef4 <print_number+0x30>
    30000f4c:	03000e93          	li	t4,48
    30000f50:	fa5ff06f          	j	30000ef4 <print_number+0x30>
    30000f54:	00487893          	andi	a7,a6,4
    30000f58:	02b00313          	li	t1,43
    30000f5c:	00089863          	bnez	a7,30000f6c <print_number+0xa8>
    30000f60:	00887313          	andi	t1,a6,8
    30000f64:	00603333          	snez	t1,t1
    30000f68:	00531313          	slli	t1,t1,0x5
    30000f6c:	f8061ee3          	bnez	a2,30000f08 <print_number+0x44>
    30000f70:	03000693          	li	a3,48
    30000f74:	00d10023          	sb	a3,0(sp)
    30000f78:	00100893          	li	a7,1
    30000f7c:	00088693          	mv	a3,a7
    30000f80:	00f8d463          	bge	a7,a5,30000f88 <print_number+0xc4>
    30000f84:	00078693          	mv	a3,a5
    30000f88:	01187813          	andi	a6,a6,17
    30000f8c:	00068e1b          	sext.w	t3,a3
    30000f90:	40d706bb          	subw	a3,a4,a3
    30000f94:	04081063          	bnez	a6,30000fd4 <print_number+0x110>
    30000f98:	00030663          	beqz	t1,30000fa4 <print_number+0xe0>
    30000f9c:	00d05463          	blez	a3,30000fa4 <print_number+0xe0>
    30000fa0:	fff6869b          	addiw	a3,a3,-1
    30000fa4:	00050713          	mv	a4,a0
    30000fa8:	00a6883b          	addw	a6,a3,a0
    30000fac:	02000f13          	li	t5,32
    30000fb0:	40e8063b          	subw	a2,a6,a4
    30000fb4:	06c04063          	bgtz	a2,30001014 <print_number+0x150>
    30000fb8:	00068713          	mv	a4,a3
    30000fbc:	0006d463          	bgez	a3,30000fc4 <print_number+0x100>
    30000fc0:	00000713          	li	a4,0
    30000fc4:	0007061b          	sext.w	a2,a4
    30000fc8:	fff6869b          	addiw	a3,a3,-1
    30000fcc:	00c50533          	add	a0,a0,a2
    30000fd0:	40e686bb          	subw	a3,a3,a4
    30000fd4:	00030a63          	beqz	t1,30000fe8 <print_number+0x124>
    30000fd8:	00b57463          	bgeu	a0,a1,30000fe0 <print_number+0x11c>
    30000fdc:	00650023          	sb	t1,0(a0)
    30000fe0:	fff6869b          	addiw	a3,a3,-1
    30000fe4:	00150513          	addi	a0,a0,1
    30000fe8:	06028863          	beqz	t0,30001058 <print_number+0x194>
    30000fec:	00050713          	mv	a4,a0
    30000ff0:	000e061b          	sext.w	a2,t3
    30000ff4:	01c5033b          	addw	t1,a0,t3
    30000ff8:	03000e93          	li	t4,48
    30000ffc:	0740006f          	j	30001070 <print_number+0x1ac>
    30001000:	00000313          	li	t1,0
    30001004:	f69ff06f          	j	30000f6c <print_number+0xa8>
    30001008:	00f67e13          	andi	t3,a2,15
    3000100c:	00465613          	srli	a2,a2,0x4
    30001010:	f15ff06f          	j	30000f24 <print_number+0x60>
    30001014:	00b77463          	bgeu	a4,a1,3000101c <print_number+0x158>
    30001018:	01e70023          	sb	t5,0(a4)
    3000101c:	00170713          	addi	a4,a4,1
    30001020:	f91ff06f          	j	30000fb0 <print_number+0xec>
    30001024:	00b77463          	bgeu	a4,a1,3000102c <print_number+0x168>
    30001028:	01d70023          	sb	t4,0(a4)
    3000102c:	00170713          	addi	a4,a4,1
    30001030:	40e8063b          	subw	a2,a6,a4
    30001034:	fec048e3          	bgtz	a2,30001024 <print_number+0x160>
    30001038:	00068713          	mv	a4,a3
    3000103c:	0006d463          	bgez	a3,30001044 <print_number+0x180>
    30001040:	00000713          	li	a4,0
    30001044:	0007061b          	sext.w	a2,a4
    30001048:	fff6869b          	addiw	a3,a3,-1
    3000104c:	00c50533          	add	a0,a0,a2
    30001050:	40e686bb          	subw	a3,a3,a4
    30001054:	f99ff06f          	j	30000fec <print_number+0x128>
    30001058:	00050713          	mv	a4,a0
    3000105c:	00d5083b          	addw	a6,a0,a3
    30001060:	fd1ff06f          	j	30001030 <print_number+0x16c>
    30001064:	00b77463          	bgeu	a4,a1,3000106c <print_number+0x1a8>
    30001068:	01d70023          	sb	t4,0(a4)
    3000106c:	00170713          	addi	a4,a4,1
    30001070:	40e3083b          	subw	a6,t1,a4
    30001074:	ff08c8e3          	blt	a7,a6,30001064 <print_number+0x1a0>
    30001078:	00000713          	li	a4,0
    3000107c:	011e4863          	blt	t3,a7,3000108c <print_number+0x1c8>
    30001080:	4116073b          	subw	a4,a2,a7
    30001084:	02071713          	slli	a4,a4,0x20
    30001088:	02075713          	srli	a4,a4,0x20
    3000108c:	00e50533          	add	a0,a0,a4
    30001090:	0008871b          	sext.w	a4,a7
    30001094:	00e05463          	blez	a4,3000109c <print_number+0x1d8>
    30001098:	00079a63          	bnez	a5,300010ac <print_number+0x1e8>
    3000109c:	00050793          	mv	a5,a0
    300010a0:	00a6863b          	addw	a2,a3,a0
    300010a4:	02000813          	li	a6,32
    300010a8:	02c0006f          	j	300010d4 <print_number+0x210>
    300010ac:	00b57863          	bgeu	a0,a1,300010bc <print_number+0x1f8>
    300010b0:	01110733          	add	a4,sp,a7
    300010b4:	fff74703          	lbu	a4,-1(a4)
    300010b8:	00e50023          	sb	a4,0(a0)
    300010bc:	00150513          	addi	a0,a0,1
    300010c0:	fff88893          	addi	a7,a7,-1
    300010c4:	fcdff06f          	j	30001090 <print_number+0x1cc>
    300010c8:	00b7f463          	bgeu	a5,a1,300010d0 <print_number+0x20c>
    300010cc:	01078023          	sb	a6,0(a5)
    300010d0:	00178793          	addi	a5,a5,1
    300010d4:	40f6073b          	subw	a4,a2,a5
    300010d8:	fee048e3          	bgtz	a4,300010c8 <print_number+0x204>
    300010dc:	0006879b          	sext.w	a5,a3
    300010e0:	0006d463          	bgez	a3,300010e8 <print_number+0x224>
    300010e4:	00000793          	li	a5,0
    300010e8:	00f50533          	add	a0,a0,a5
    300010ec:	01010113          	addi	sp,sp,16
    300010f0:	00008067          	ret

00000000300010f4 <rt_set_errno>:
    300010f4:	ff010113          	addi	sp,sp,-16
    300010f8:	00813023          	sd	s0,0(sp)
    300010fc:	00113423          	sd	ra,8(sp)
    30001100:	00050413          	mv	s0,a0
    30001104:	d95ff0ef          	jal	ra,30000e98 <rt_interrupt_get_nest>
    30001108:	00050c63          	beqz	a0,30001120 <rt_set_errno+0x2c>
    3000110c:	8281a623          	sw	s0,-2004(gp) # 800041f4 <__rt_errno>
    30001110:	00813083          	ld	ra,8(sp)
    30001114:	00013403          	ld	s0,0(sp)
    30001118:	01010113          	addi	sp,sp,16
    3000111c:	00008067          	ret
    30001120:	381010ef          	jal	ra,30002ca0 <rt_thread_self>
    30001124:	fe0504e3          	beqz	a0,3000110c <rt_set_errno+0x18>
    30001128:	06853023          	sd	s0,96(a0)
    3000112c:	fe5ff06f          	j	30001110 <rt_set_errno+0x1c>

0000000030001130 <rt_memset>:
    30001130:	00700713          	li	a4,7
    30001134:	00050793          	mv	a5,a0
    30001138:	00c77663          	bgeu	a4,a2,30001144 <rt_memset+0x14>
    3000113c:	00757713          	andi	a4,a0,7
    30001140:	00070863          	beqz	a4,30001150 <rt_memset+0x20>
    30001144:	00c78633          	add	a2,a5,a2
    30001148:	0ac79063          	bne	a5,a2,300011e8 <rt_memset+0xb8>
    3000114c:	00008067          	ret
    30001150:	00800793          	li	a5,8
    30001154:	0ff5f693          	zext.b	a3,a1
    30001158:	00871713          	slli	a4,a4,0x8
    3000115c:	fff7879b          	addiw	a5,a5,-1
    30001160:	00e6e733          	or	a4,a3,a4
    30001164:	fe079ae3          	bnez	a5,30001158 <rt_memset+0x28>
    30001168:	00050793          	mv	a5,a0
    3000116c:	00c508b3          	add	a7,a0,a2
    30001170:	01f00693          	li	a3,31
    30001174:	40f88833          	sub	a6,a7,a5
    30001178:	0506e663          	bltu	a3,a6,300011c4 <rt_memset+0x94>
    3000117c:	00565793          	srli	a5,a2,0x5
    30001180:	fe000693          	li	a3,-32
    30001184:	02d786b3          	mul	a3,a5,a3
    30001188:	00579793          	slli	a5,a5,0x5
    3000118c:	00f507b3          	add	a5,a0,a5
    30001190:	00700813          	li	a6,7
    30001194:	00c68633          	add	a2,a3,a2
    30001198:	00c78333          	add	t1,a5,a2
    3000119c:	00078693          	mv	a3,a5
    300011a0:	40d308b3          	sub	a7,t1,a3
    300011a4:	03186c63          	bltu	a6,a7,300011dc <rt_memset+0xac>
    300011a8:	00365713          	srli	a4,a2,0x3
    300011ac:	ff800693          	li	a3,-8
    300011b0:	02d706b3          	mul	a3,a4,a3
    300011b4:	00371713          	slli	a4,a4,0x3
    300011b8:	00e787b3          	add	a5,a5,a4
    300011bc:	00c68633          	add	a2,a3,a2
    300011c0:	f85ff06f          	j	30001144 <rt_memset+0x14>
    300011c4:	00e7b023          	sd	a4,0(a5)
    300011c8:	00e7b423          	sd	a4,8(a5)
    300011cc:	00e7b823          	sd	a4,16(a5)
    300011d0:	00e7bc23          	sd	a4,24(a5)
    300011d4:	02078793          	addi	a5,a5,32
    300011d8:	f9dff06f          	j	30001174 <rt_memset+0x44>
    300011dc:	00868693          	addi	a3,a3,8
    300011e0:	fee6bc23          	sd	a4,-8(a3)
    300011e4:	fbdff06f          	j	300011a0 <rt_memset+0x70>
    300011e8:	00178793          	addi	a5,a5,1
    300011ec:	feb78fa3          	sb	a1,-1(a5)
    300011f0:	f59ff06f          	j	30001148 <rt_memset+0x18>

00000000300011f4 <rt_memcpy>:
    300011f4:	0006079b          	sext.w	a5,a2
    300011f8:	01f00693          	li	a3,31
    300011fc:	00050713          	mv	a4,a0
    30001200:	00f6fa63          	bgeu	a3,a5,30001214 <rt_memcpy+0x20>
    30001204:	00a5e733          	or	a4,a1,a0
    30001208:	00777713          	andi	a4,a4,7
    3000120c:	08070e63          	beqz	a4,300012a8 <rt_memcpy+0xb4>
    30001210:	00050713          	mv	a4,a0
    30001214:	00000693          	li	a3,0
    30001218:	0006861b          	sext.w	a2,a3
    3000121c:	0af61c63          	bne	a2,a5,300012d4 <rt_memcpy+0xe0>
    30001220:	00008067          	ret
    30001224:	0006b303          	ld	t1,0(a3)
    30001228:	02068693          	addi	a3,a3,32
    3000122c:	02080813          	addi	a6,a6,32
    30001230:	fe683023          	sd	t1,-32(a6)
    30001234:	fe86b303          	ld	t1,-24(a3)
    30001238:	fe683423          	sd	t1,-24(a6)
    3000123c:	ff06b303          	ld	t1,-16(a3)
    30001240:	fe683823          	sd	t1,-16(a6)
    30001244:	ff86b303          	ld	t1,-8(a3)
    30001248:	fe683c23          	sd	t1,-8(a6)
    3000124c:	40de033b          	subw	t1,t3,a3
    30001250:	fc68eae3          	bltu	a7,t1,30001224 <rt_memcpy+0x30>
    30001254:	0057d81b          	srliw	a6,a5,0x5
    30001258:	0057d79b          	srliw	a5,a5,0x5
    3000125c:	00579793          	slli	a5,a5,0x5
    30001260:	00f506b3          	add	a3,a0,a5
    30001264:	00f585b3          	add	a1,a1,a5
    30001268:	fe000793          	li	a5,-32
    3000126c:	030787bb          	mulw	a5,a5,a6
    30001270:	00c7863b          	addw	a2,a5,a2
    30001274:	0006089b          	sext.w	a7,a2
    30001278:	00700793          	li	a5,7
    3000127c:	40e8883b          	subw	a6,a7,a4
    30001280:	0307ce63          	blt	a5,a6,300012bc <rt_memcpy+0xc8>
    30001284:	0036589b          	srliw	a7,a2,0x3
    30001288:	ff800793          	li	a5,-8
    3000128c:	031787bb          	mulw	a5,a5,a7
    30001290:	0036581b          	srliw	a6,a2,0x3
    30001294:	00381813          	slli	a6,a6,0x3
    30001298:	01068733          	add	a4,a3,a6
    3000129c:	010585b3          	add	a1,a1,a6
    300012a0:	00c787bb          	addw	a5,a5,a2
    300012a4:	f71ff06f          	j	30001214 <rt_memcpy+0x20>
    300012a8:	00058693          	mv	a3,a1
    300012ac:	00050813          	mv	a6,a0
    300012b0:	00f58e3b          	addw	t3,a1,a5
    300012b4:	01f00893          	li	a7,31
    300012b8:	f95ff06f          	j	3000124c <rt_memcpy+0x58>
    300012bc:	00e58833          	add	a6,a1,a4
    300012c0:	00083303          	ld	t1,0(a6)
    300012c4:	00e68833          	add	a6,a3,a4
    300012c8:	00870713          	addi	a4,a4,8
    300012cc:	00683023          	sd	t1,0(a6)
    300012d0:	fadff06f          	j	3000127c <rt_memcpy+0x88>
    300012d4:	00d58633          	add	a2,a1,a3
    300012d8:	00064803          	lbu	a6,0(a2)
    300012dc:	00d70633          	add	a2,a4,a3
    300012e0:	00168693          	addi	a3,a3,1
    300012e4:	01060023          	sb	a6,0(a2)
    300012e8:	f31ff06f          	j	30001218 <rt_memcpy+0x24>

00000000300012ec <rt_memmove>:
    300012ec:	04a5fa63          	bgeu	a1,a0,30001340 <rt_memmove+0x54>
    300012f0:	00c586b3          	add	a3,a1,a2
    300012f4:	04d57663          	bgeu	a0,a3,30001340 <rt_memmove+0x54>
    300012f8:	fff64593          	not	a1,a2
    300012fc:	00000793          	li	a5,0
    30001300:	fff78793          	addi	a5,a5,-1
    30001304:	00f59463          	bne	a1,a5,3000130c <rt_memmove+0x20>
    30001308:	00008067          	ret
    3000130c:	00f68733          	add	a4,a3,a5
    30001310:	00074803          	lbu	a6,0(a4)
    30001314:	00f60733          	add	a4,a2,a5
    30001318:	00e50733          	add	a4,a0,a4
    3000131c:	01070023          	sb	a6,0(a4)
    30001320:	fe1ff06f          	j	30001300 <rt_memmove+0x14>
    30001324:	00f58733          	add	a4,a1,a5
    30001328:	00074683          	lbu	a3,0(a4)
    3000132c:	00f50733          	add	a4,a0,a5
    30001330:	00178793          	addi	a5,a5,1
    30001334:	00d70023          	sb	a3,0(a4)
    30001338:	fef616e3          	bne	a2,a5,30001324 <rt_memmove+0x38>
    3000133c:	00008067          	ret
    30001340:	00000793          	li	a5,0
    30001344:	ff5ff06f          	j	30001338 <rt_memmove+0x4c>

0000000030001348 <rt_memcmp>:
    30001348:	00050693          	mv	a3,a0
    3000134c:	00000713          	li	a4,0
    30001350:	00e61663          	bne	a2,a4,3000135c <rt_memcmp+0x14>
    30001354:	00000513          	li	a0,0
    30001358:	0200006f          	j	30001378 <rt_memcmp+0x30>
    3000135c:	00e687b3          	add	a5,a3,a4
    30001360:	00e58533          	add	a0,a1,a4
    30001364:	0007c783          	lbu	a5,0(a5)
    30001368:	00054503          	lbu	a0,0(a0)
    3000136c:	00170713          	addi	a4,a4,1
    30001370:	40a7853b          	subw	a0,a5,a0
    30001374:	fc050ee3          	beqz	a0,30001350 <rt_memcmp+0x8>
    30001378:	00008067          	ret

000000003000137c <rt_strncpy>:
    3000137c:	04060063          	beqz	a2,300013bc <rt_strncpy+0x40>
    30001380:	00050793          	mv	a5,a0
    30001384:	0005c683          	lbu	a3,0(a1)
    30001388:	00158593          	addi	a1,a1,1
    3000138c:	00178793          	addi	a5,a5,1
    30001390:	fed78fa3          	sb	a3,-1(a5)
    30001394:	00060713          	mv	a4,a2
    30001398:	fff60613          	addi	a2,a2,-1
    3000139c:	00069e63          	bnez	a3,300013b8 <rt_strncpy+0x3c>
    300013a0:	00e78733          	add	a4,a5,a4
    300013a4:	00178793          	addi	a5,a5,1
    300013a8:	00e79463          	bne	a5,a4,300013b0 <rt_strncpy+0x34>
    300013ac:	00008067          	ret
    300013b0:	fe078fa3          	sb	zero,-1(a5)
    300013b4:	ff1ff06f          	j	300013a4 <rt_strncpy+0x28>
    300013b8:	fc0616e3          	bnez	a2,30001384 <rt_strncpy+0x8>
    300013bc:	00008067          	ret

00000000300013c0 <rt_strncmp>:
    300013c0:	00050693          	mv	a3,a0
    300013c4:	00000713          	li	a4,0
    300013c8:	00e61663          	bne	a2,a4,300013d4 <rt_strncmp+0x14>
    300013cc:	00000513          	li	a0,0
    300013d0:	02c0006f          	j	300013fc <rt_strncmp+0x3c>
    300013d4:	00e687b3          	add	a5,a3,a4
    300013d8:	0007c803          	lbu	a6,0(a5)
    300013dc:	00e587b3          	add	a5,a1,a4
    300013e0:	0007c783          	lbu	a5,0(a5)
    300013e4:	40f807bb          	subw	a5,a6,a5
    300013e8:	0187951b          	slliw	a0,a5,0x18
    300013ec:	4185551b          	sraiw	a0,a0,0x18
    300013f0:	00051663          	bnez	a0,300013fc <rt_strncmp+0x3c>
    300013f4:	00170713          	addi	a4,a4,1
    300013f8:	fc0818e3          	bnez	a6,300013c8 <rt_strncmp+0x8>
    300013fc:	00008067          	ret

0000000030001400 <rt_strcmp>:
    30001400:	00054783          	lbu	a5,0(a0)
    30001404:	0005c703          	lbu	a4,0(a1)
    30001408:	00078463          	beqz	a5,30001410 <rt_strcmp+0x10>
    3000140c:	00e78663          	beq	a5,a4,30001418 <rt_strcmp+0x18>
    30001410:	40e7853b          	subw	a0,a5,a4
    30001414:	00008067          	ret
    30001418:	00150513          	addi	a0,a0,1
    3000141c:	00158593          	addi	a1,a1,1
    30001420:	fe1ff06f          	j	30001400 <rt_strcmp>

0000000030001424 <rt_strlen>:
    30001424:	00050793          	mv	a5,a0
    30001428:	0007c703          	lbu	a4,0(a5)
    3000142c:	00071663          	bnez	a4,30001438 <rt_strlen+0x14>
    30001430:	40a78533          	sub	a0,a5,a0
    30001434:	00008067          	ret
    30001438:	00178793          	addi	a5,a5,1
    3000143c:	fedff06f          	j	30001428 <rt_strlen+0x4>

0000000030001440 <rt_strstr>:
    30001440:	fd010113          	addi	sp,sp,-48
    30001444:	02813023          	sd	s0,32(sp)
    30001448:	00050413          	mv	s0,a0
    3000144c:	00058513          	mv	a0,a1
    30001450:	00913c23          	sd	s1,24(sp)
    30001454:	01213823          	sd	s2,16(sp)
    30001458:	02113423          	sd	ra,40(sp)
    3000145c:	01313423          	sd	s3,8(sp)
    30001460:	00058913          	mv	s2,a1
    30001464:	fc1ff0ef          	jal	ra,30001424 <rt_strlen>
    30001468:	0005049b          	sext.w	s1,a0
    3000146c:	00048e63          	beqz	s1,30001488 <rt_strstr+0x48>
    30001470:	00040513          	mv	a0,s0
    30001474:	fb1ff0ef          	jal	ra,30001424 <rt_strlen>
    30001478:	008509bb          	addw	s3,a0,s0
    3000147c:	408987bb          	subw	a5,s3,s0
    30001480:	0297d463          	bge	a5,s1,300014a8 <rt_strstr+0x68>
    30001484:	00000413          	li	s0,0
    30001488:	02813083          	ld	ra,40(sp)
    3000148c:	00040513          	mv	a0,s0
    30001490:	02013403          	ld	s0,32(sp)
    30001494:	01813483          	ld	s1,24(sp)
    30001498:	01013903          	ld	s2,16(sp)
    3000149c:	00813983          	ld	s3,8(sp)
    300014a0:	03010113          	addi	sp,sp,48
    300014a4:	00008067          	ret
    300014a8:	00048613          	mv	a2,s1
    300014ac:	00090593          	mv	a1,s2
    300014b0:	00040513          	mv	a0,s0
    300014b4:	e95ff0ef          	jal	ra,30001348 <rt_memcmp>
    300014b8:	fc0508e3          	beqz	a0,30001488 <rt_strstr+0x48>
    300014bc:	00140413          	addi	s0,s0,1
    300014c0:	fbdff06f          	j	3000147c <rt_strstr+0x3c>

00000000300014c4 <rt_strdup>:
    300014c4:	fe010113          	addi	sp,sp,-32
    300014c8:	00113c23          	sd	ra,24(sp)
    300014cc:	00813823          	sd	s0,16(sp)
    300014d0:	00a13423          	sd	a0,8(sp)
    300014d4:	f51ff0ef          	jal	ra,30001424 <rt_strlen>
    300014d8:	00150613          	addi	a2,a0,1
    300014dc:	00060513          	mv	a0,a2
    300014e0:	00c13023          	sd	a2,0(sp)
    300014e4:	1e0030ef          	jal	ra,300046c4 <rt_malloc>
    300014e8:	00050413          	mv	s0,a0
    300014ec:	00050863          	beqz	a0,300014fc <rt_strdup+0x38>
    300014f0:	00013603          	ld	a2,0(sp)
    300014f4:	00813583          	ld	a1,8(sp)
    300014f8:	cfdff0ef          	jal	ra,300011f4 <rt_memcpy>
    300014fc:	01813083          	ld	ra,24(sp)
    30001500:	00040513          	mv	a0,s0
    30001504:	01013403          	ld	s0,16(sp)
    30001508:	02010113          	addi	sp,sp,32
    3000150c:	00008067          	ret

0000000030001510 <rt_vsnprintf>:
    30001510:	fa010113          	addi	sp,sp,-96
    30001514:	04813823          	sd	s0,80(sp)
    30001518:	03613023          	sd	s6,32(sp)
    3000151c:	01713c23          	sd	s7,24(sp)
    30001520:	01813823          	sd	s8,16(sp)
    30001524:	04113c23          	sd	ra,88(sp)
    30001528:	04913423          	sd	s1,72(sp)
    3000152c:	05213023          	sd	s2,64(sp)
    30001530:	03313c23          	sd	s3,56(sp)
    30001534:	03413823          	sd	s4,48(sp)
    30001538:	03513423          	sd	s5,40(sp)
    3000153c:	01913423          	sd	s9,8(sp)
    30001540:	00b50b33          	add	s6,a0,a1
    30001544:	00050b93          	mv	s7,a0
    30001548:	00068413          	mv	s0,a3
    3000154c:	00058c13          	mv	s8,a1
    30001550:	00ab7663          	bgeu	s6,a0,3000155c <rt_vsnprintf+0x4c>
    30001554:	fff54c13          	not	s8,a0
    30001558:	fff00b13          	li	s6,-1
    3000155c:	000104b7          	lui	s1,0x10
    30001560:	000b8513          	mv	a0,s7
    30001564:	02b00913          	li	s2,43
    30001568:	02000993          	li	s3,32
    3000156c:	02300a13          	li	s4,35
    30001570:	fff48493          	addi	s1,s1,-1 # ffff <__stack_size+0xf7ff>
    30001574:	0240006f          	j	30001598 <rt_vsnprintf+0x88>
    30001578:	02500713          	li	a4,37
    3000157c:	06e78463          	beq	a5,a4,300015e4 <rt_vsnprintf+0xd4>
    30001580:	01657463          	bgeu	a0,s6,30001588 <rt_vsnprintf+0x78>
    30001584:	00f50023          	sb	a5,0(a0)
    30001588:	00150713          	addi	a4,a0,1
    3000158c:	00060a93          	mv	s5,a2
    30001590:	001a8613          	addi	a2,s5,1
    30001594:	00070513          	mv	a0,a4
    30001598:	00064783          	lbu	a5,0(a2)
    3000159c:	fc079ee3          	bnez	a5,30001578 <rt_vsnprintf+0x68>
    300015a0:	000c0663          	beqz	s8,300015ac <rt_vsnprintf+0x9c>
    300015a4:	47657e63          	bgeu	a0,s6,30001a20 <rt_vsnprintf+0x510>
    300015a8:	00050023          	sb	zero,0(a0)
    300015ac:	05813083          	ld	ra,88(sp)
    300015b0:	05013403          	ld	s0,80(sp)
    300015b4:	04813483          	ld	s1,72(sp)
    300015b8:	04013903          	ld	s2,64(sp)
    300015bc:	03813983          	ld	s3,56(sp)
    300015c0:	03013a03          	ld	s4,48(sp)
    300015c4:	02813a83          	ld	s5,40(sp)
    300015c8:	02013b03          	ld	s6,32(sp)
    300015cc:	01013c03          	ld	s8,16(sp)
    300015d0:	00813c83          	ld	s9,8(sp)
    300015d4:	4175053b          	subw	a0,a0,s7
    300015d8:	01813b83          	ld	s7,24(sp)
    300015dc:	06010113          	addi	sp,sp,96
    300015e0:	00008067          	ret
    300015e4:	00000813          	li	a6,0
    300015e8:	02d00713          	li	a4,45
    300015ec:	03000693          	li	a3,48
    300015f0:	0100006f          	j	30001600 <rt_vsnprintf+0xf0>
    300015f4:	03279063          	bne	a5,s2,30001614 <rt_vsnprintf+0x104>
    300015f8:	00486813          	ori	a6,a6,4
    300015fc:	000a8613          	mv	a2,s5
    30001600:	00164783          	lbu	a5,1(a2)
    30001604:	00160a93          	addi	s5,a2,1
    30001608:	fee796e3          	bne	a5,a4,300015f4 <rt_vsnprintf+0xe4>
    3000160c:	01086813          	ori	a6,a6,16
    30001610:	fedff06f          	j	300015fc <rt_vsnprintf+0xec>
    30001614:	01379663          	bne	a5,s3,30001620 <rt_vsnprintf+0x110>
    30001618:	00886813          	ori	a6,a6,8
    3000161c:	fe1ff06f          	j	300015fc <rt_vsnprintf+0xec>
    30001620:	01479663          	bne	a5,s4,3000162c <rt_vsnprintf+0x11c>
    30001624:	02086813          	ori	a6,a6,32
    30001628:	fd5ff06f          	j	300015fc <rt_vsnprintf+0xec>
    3000162c:	00d79663          	bne	a5,a3,30001638 <rt_vsnprintf+0x128>
    30001630:	00186813          	ori	a6,a6,1
    30001634:	fc9ff06f          	j	300015fc <rt_vsnprintf+0xec>
    30001638:	fd07871b          	addiw	a4,a5,-48
    3000163c:	00900693          	li	a3,9
    30001640:	06e6e263          	bltu	a3,a4,300016a4 <rt_vsnprintf+0x194>
    30001644:	00000713          	li	a4,0
    30001648:	00900693          	li	a3,9
    3000164c:	00a00593          	li	a1,10
    30001650:	0140006f          	j	30001664 <rt_vsnprintf+0x154>
    30001654:	02e5873b          	mulw	a4,a1,a4
    30001658:	001a8a93          	addi	s5,s5,1
    3000165c:	00f7073b          	addw	a4,a4,a5
    30001660:	fd07071b          	addiw	a4,a4,-48
    30001664:	000ac783          	lbu	a5,0(s5)
    30001668:	fd07861b          	addiw	a2,a5,-48
    3000166c:	fec6f4e3          	bgeu	a3,a2,30001654 <rt_vsnprintf+0x144>
    30001670:	000ac603          	lbu	a2,0(s5)
    30001674:	02e00693          	li	a3,46
    30001678:	fff00793          	li	a5,-1
    3000167c:	06d61e63          	bne	a2,a3,300016f8 <rt_vsnprintf+0x1e8>
    30001680:	001ac783          	lbu	a5,1(s5)
    30001684:	00900693          	li	a3,9
    30001688:	001a8613          	addi	a2,s5,1
    3000168c:	fd07859b          	addiw	a1,a5,-48
    30001690:	0cb6e663          	bltu	a3,a1,3000175c <rt_vsnprintf+0x24c>
    30001694:	00000693          	li	a3,0
    30001698:	00900593          	li	a1,9
    3000169c:	00a00313          	li	t1,10
    300016a0:	03c0006f          	j	300016dc <rt_vsnprintf+0x1cc>
    300016a4:	02a00693          	li	a3,42
    300016a8:	fff00713          	li	a4,-1
    300016ac:	fcd792e3          	bne	a5,a3,30001670 <rt_vsnprintf+0x160>
    300016b0:	00042703          	lw	a4,0(s0)
    300016b4:	00260a93          	addi	s5,a2,2
    300016b8:	00840413          	addi	s0,s0,8
    300016bc:	fa075ae3          	bgez	a4,30001670 <rt_vsnprintf+0x160>
    300016c0:	40e0073b          	negw	a4,a4
    300016c4:	01086813          	ori	a6,a6,16
    300016c8:	fa9ff06f          	j	30001670 <rt_vsnprintf+0x160>
    300016cc:	02d306bb          	mulw	a3,t1,a3
    300016d0:	00160613          	addi	a2,a2,1
    300016d4:	00f686bb          	addw	a3,a3,a5
    300016d8:	fd06869b          	addiw	a3,a3,-48
    300016dc:	00064783          	lbu	a5,0(a2)
    300016e0:	fd07889b          	addiw	a7,a5,-48
    300016e4:	ff15f4e3          	bgeu	a1,a7,300016cc <rt_vsnprintf+0x1bc>
    300016e8:	0006879b          	sext.w	a5,a3
    300016ec:	0006d463          	bgez	a3,300016f4 <rt_vsnprintf+0x1e4>
    300016f0:	00000793          	li	a5,0
    300016f4:	00060a93          	mv	s5,a2
    300016f8:	000ac583          	lbu	a1,0(s5)
    300016fc:	06800693          	li	a3,104
    30001700:	0fb5f613          	andi	a2,a1,251
    30001704:	06d61e63          	bne	a2,a3,30001780 <rt_vsnprintf+0x270>
    30001708:	001a8a93          	addi	s5,s5,1
    3000170c:	000ac683          	lbu	a3,0(s5)
    30001710:	07800613          	li	a2,120
    30001714:	02d66063          	bltu	a2,a3,30001734 <rt_vsnprintf+0x224>
    30001718:	06200613          	li	a2,98
    3000171c:	06d66663          	bltu	a2,a3,30001788 <rt_vsnprintf+0x278>
    30001720:	02500613          	li	a2,37
    30001724:	28c68463          	beq	a3,a2,300019ac <rt_vsnprintf+0x49c>
    30001728:	05800613          	li	a2,88
    3000172c:	04086813          	ori	a6,a6,64
    30001730:	28c68663          	beq	a3,a2,300019bc <rt_vsnprintf+0x4ac>
    30001734:	01657663          	bgeu	a0,s6,30001740 <rt_vsnprintf+0x230>
    30001738:	02500793          	li	a5,37
    3000173c:	00f50023          	sb	a5,0(a0)
    30001740:	000ac783          	lbu	a5,0(s5)
    30001744:	00150713          	addi	a4,a0,1
    30001748:	2a078e63          	beqz	a5,30001a04 <rt_vsnprintf+0x4f4>
    3000174c:	01677463          	bgeu	a4,s6,30001754 <rt_vsnprintf+0x244>
    30001750:	00f500a3          	sb	a5,1(a0)
    30001754:	00250713          	addi	a4,a0,2
    30001758:	e39ff06f          	j	30001590 <rt_vsnprintf+0x80>
    3000175c:	02a00693          	li	a3,42
    30001760:	00d79a63          	bne	a5,a3,30001774 <rt_vsnprintf+0x264>
    30001764:	00042683          	lw	a3,0(s0)
    30001768:	002a8613          	addi	a2,s5,2
    3000176c:	00840413          	addi	s0,s0,8
    30001770:	f79ff06f          	j	300016e8 <rt_vsnprintf+0x1d8>
    30001774:	00060a93          	mv	s5,a2
    30001778:	00000793          	li	a5,0
    3000177c:	f7dff06f          	j	300016f8 <rt_vsnprintf+0x1e8>
    30001780:	00000593          	li	a1,0
    30001784:	f89ff06f          	j	3000170c <rt_vsnprintf+0x1fc>
    30001788:	f9d6869b          	addiw	a3,a3,-99
    3000178c:	0ff6f693          	zext.b	a3,a3
    30001790:	01500613          	li	a2,21
    30001794:	fad660e3          	bltu	a2,a3,30001734 <rt_vsnprintf+0x224>
    30001798:	4ffff617          	auipc	a2,0x4ffff
    3000179c:	14060613          	addi	a2,a2,320 # 800008d8 <__FUNCTION__.2736+0x20>
    300017a0:	00269693          	slli	a3,a3,0x2
    300017a4:	00c686b3          	add	a3,a3,a2
    300017a8:	0006a683          	lw	a3,0(a3)
    300017ac:	00c686b3          	add	a3,a3,a2
    300017b0:	00068067          	jr	a3
    300017b4:	01087813          	andi	a6,a6,16
    300017b8:	04081a63          	bnez	a6,3000180c <rt_vsnprintf+0x2fc>
    300017bc:	00070693          	mv	a3,a4
    300017c0:	00050793          	mv	a5,a0
    300017c4:	02000613          	li	a2,32
    300017c8:	0100006f          	j	300017d8 <rt_vsnprintf+0x2c8>
    300017cc:	0167f463          	bgeu	a5,s6,300017d4 <rt_vsnprintf+0x2c4>
    300017d0:	00c78023          	sb	a2,0(a5)
    300017d4:	00178793          	addi	a5,a5,1
    300017d8:	fff6869b          	addiw	a3,a3,-1
    300017dc:	fed048e3          	bgtz	a3,300017cc <rt_vsnprintf+0x2bc>
    300017e0:	fff7079b          	addiw	a5,a4,-1
    300017e4:	00000693          	li	a3,0
    300017e8:	00e05663          	blez	a4,300017f4 <rt_vsnprintf+0x2e4>
    300017ec:	02079693          	slli	a3,a5,0x20
    300017f0:	0206d693          	srli	a3,a3,0x20
    300017f4:	00d50533          	add	a0,a0,a3
    300017f8:	00070693          	mv	a3,a4
    300017fc:	00e04463          	bgtz	a4,30001804 <rt_vsnprintf+0x2f4>
    30001800:	00100693          	li	a3,1
    30001804:	40d7873b          	subw	a4,a5,a3
    30001808:	0017071b          	addiw	a4,a4,1
    3000180c:	00840613          	addi	a2,s0,8
    30001810:	01657663          	bgeu	a0,s6,3000181c <rt_vsnprintf+0x30c>
    30001814:	00042783          	lw	a5,0(s0)
    30001818:	00f50023          	sb	a5,0(a0)
    3000181c:	00150513          	addi	a0,a0,1
    30001820:	00070693          	mv	a3,a4
    30001824:	00050793          	mv	a5,a0
    30001828:	02000593          	li	a1,32
    3000182c:	fff6869b          	addiw	a3,a3,-1
    30001830:	02d04263          	bgtz	a3,30001854 <rt_vsnprintf+0x344>
    30001834:	00000793          	li	a5,0
    30001838:	00e05863          	blez	a4,30001848 <rt_vsnprintf+0x338>
    3000183c:	fff7071b          	addiw	a4,a4,-1
    30001840:	02071793          	slli	a5,a4,0x20
    30001844:	0207d793          	srli	a5,a5,0x20
    30001848:	00f50733          	add	a4,a0,a5
    3000184c:	00060413          	mv	s0,a2
    30001850:	d41ff06f          	j	30001590 <rt_vsnprintf+0x80>
    30001854:	0167f463          	bgeu	a5,s6,3000185c <rt_vsnprintf+0x34c>
    30001858:	00b78023          	sb	a1,0(a5)
    3000185c:	00178793          	addi	a5,a5,1
    30001860:	fcdff06f          	j	3000182c <rt_vsnprintf+0x31c>
    30001864:	00043603          	ld	a2,0(s0)
    30001868:	00840893          	addi	a7,s0,8
    3000186c:	00061663          	bnez	a2,30001878 <rt_vsnprintf+0x368>
    30001870:	4ffff617          	auipc	a2,0x4ffff
    30001874:	06060613          	addi	a2,a2,96 # 800008d0 <__FUNCTION__.2736+0x18>
    30001878:	00000593          	li	a1,0
    3000187c:	0005869b          	sext.w	a3,a1
    30001880:	00e68a63          	beq	a3,a4,30001894 <rt_vsnprintf+0x384>
    30001884:	00158593          	addi	a1,a1,1
    30001888:	00b60333          	add	t1,a2,a1
    3000188c:	fff34303          	lbu	t1,-1(t1)
    30001890:	fe0316e3          	bnez	t1,3000187c <rt_vsnprintf+0x36c>
    30001894:	00f05a63          	blez	a5,300018a8 <rt_vsnprintf+0x398>
    30001898:	00068593          	mv	a1,a3
    3000189c:	00d7d463          	bge	a5,a3,300018a4 <rt_vsnprintf+0x394>
    300018a0:	00078593          	mv	a1,a5
    300018a4:	0005869b          	sext.w	a3,a1
    300018a8:	01087813          	andi	a6,a6,16
    300018ac:	04081c63          	bnez	a6,30001904 <rt_vsnprintf+0x3f4>
    300018b0:	00050793          	mv	a5,a0
    300018b4:	0007059b          	sext.w	a1,a4
    300018b8:	00e5033b          	addw	t1,a0,a4
    300018bc:	02000e13          	li	t3,32
    300018c0:	0100006f          	j	300018d0 <rt_vsnprintf+0x3c0>
    300018c4:	0167f463          	bgeu	a5,s6,300018cc <rt_vsnprintf+0x3bc>
    300018c8:	01c78023          	sb	t3,0(a5)
    300018cc:	00178793          	addi	a5,a5,1
    300018d0:	40f3083b          	subw	a6,t1,a5
    300018d4:	ff06c8e3          	blt	a3,a6,300018c4 <rt_vsnprintf+0x3b4>
    300018d8:	40d587bb          	subw	a5,a1,a3
    300018dc:	00000593          	li	a1,0
    300018e0:	00d74663          	blt	a4,a3,300018ec <rt_vsnprintf+0x3dc>
    300018e4:	02079593          	slli	a1,a5,0x20
    300018e8:	0205d593          	srli	a1,a1,0x20
    300018ec:	00b50533          	add	a0,a0,a1
    300018f0:	fff7081b          	addiw	a6,a4,-1
    300018f4:	00000593          	li	a1,0
    300018f8:	00d74463          	blt	a4,a3,30001900 <rt_vsnprintf+0x3f0>
    300018fc:	40f005bb          	negw	a1,a5
    30001900:	0105873b          	addw	a4,a1,a6
    30001904:	00000793          	li	a5,0
    30001908:	0007859b          	sext.w	a1,a5
    3000190c:	04d5c263          	blt	a1,a3,30001950 <rt_vsnprintf+0x440>
    30001910:	00d50533          	add	a0,a0,a3
    30001914:	0006859b          	sext.w	a1,a3
    30001918:	00050793          	mv	a5,a0
    3000191c:	0007061b          	sext.w	a2,a4
    30001920:	00e5033b          	addw	t1,a0,a4
    30001924:	02000e13          	li	t3,32
    30001928:	40f3083b          	subw	a6,t1,a5
    3000192c:	0506c063          	blt	a3,a6,3000196c <rt_vsnprintf+0x45c>
    30001930:	00000793          	li	a5,0
    30001934:	00d74863          	blt	a4,a3,30001944 <rt_vsnprintf+0x434>
    30001938:	40b6063b          	subw	a2,a2,a1
    3000193c:	02061793          	slli	a5,a2,0x20
    30001940:	0207d793          	srli	a5,a5,0x20
    30001944:	00f50733          	add	a4,a0,a5
    30001948:	00088413          	mv	s0,a7
    3000194c:	c45ff06f          	j	30001590 <rt_vsnprintf+0x80>
    30001950:	00f505b3          	add	a1,a0,a5
    30001954:	0165f863          	bgeu	a1,s6,30001964 <rt_vsnprintf+0x454>
    30001958:	00f60833          	add	a6,a2,a5
    3000195c:	00084803          	lbu	a6,0(a6)
    30001960:	01058023          	sb	a6,0(a1)
    30001964:	00178793          	addi	a5,a5,1
    30001968:	fa1ff06f          	j	30001908 <rt_vsnprintf+0x3f8>
    3000196c:	0167f463          	bgeu	a5,s6,30001974 <rt_vsnprintf+0x464>
    30001970:	01c78023          	sb	t3,0(a5)
    30001974:	00178793          	addi	a5,a5,1
    30001978:	fb1ff06f          	j	30001928 <rt_vsnprintf+0x418>
    3000197c:	fff00693          	li	a3,-1
    30001980:	00d71663          	bne	a4,a3,3000198c <rt_vsnprintf+0x47c>
    30001984:	00186813          	ori	a6,a6,1
    30001988:	01000713          	li	a4,16
    3000198c:	00043603          	ld	a2,0(s0)
    30001990:	01000693          	li	a3,16
    30001994:	000b0593          	mv	a1,s6
    30001998:	00840c93          	addi	s9,s0,8
    3000199c:	d28ff0ef          	jal	ra,30000ec4 <print_number>
    300019a0:	00050713          	mv	a4,a0
    300019a4:	000c8413          	mv	s0,s9
    300019a8:	be9ff06f          	j	30001590 <rt_vsnprintf+0x80>
    300019ac:	01657463          	bgeu	a0,s6,300019b4 <rt_vsnprintf+0x4a4>
    300019b0:	00d50023          	sb	a3,0(a0)
    300019b4:	00150713          	addi	a4,a0,1
    300019b8:	bd9ff06f          	j	30001590 <rt_vsnprintf+0x80>
    300019bc:	01000693          	li	a3,16
    300019c0:	06800893          	li	a7,104
    300019c4:	00042603          	lw	a2,0(s0)
    300019c8:	00840413          	addi	s0,s0,8
    300019cc:	01159a63          	bne	a1,a7,300019e0 <rt_vsnprintf+0x4d0>
    300019d0:	00287893          	andi	a7,a6,2
    300019d4:	0006059b          	sext.w	a1,a2
    300019d8:	02089e63          	bnez	a7,30001a14 <rt_vsnprintf+0x504>
    300019dc:	0095f633          	and	a2,a1,s1
    300019e0:	02061613          	slli	a2,a2,0x20
    300019e4:	02065613          	srli	a2,a2,0x20
    300019e8:	000b0593          	mv	a1,s6
    300019ec:	cd8ff0ef          	jal	ra,30000ec4 <print_number>
    300019f0:	00050713          	mv	a4,a0
    300019f4:	b9dff06f          	j	30001590 <rt_vsnprintf+0x80>
    300019f8:	00286813          	ori	a6,a6,2
    300019fc:	00a00693          	li	a3,10
    30001a00:	fc1ff06f          	j	300019c0 <rt_vsnprintf+0x4b0>
    30001a04:	fffa8a93          	addi	s5,s5,-1
    30001a08:	b89ff06f          	j	30001590 <rt_vsnprintf+0x80>
    30001a0c:	00800693          	li	a3,8
    30001a10:	fb1ff06f          	j	300019c0 <rt_vsnprintf+0x4b0>
    30001a14:	0106161b          	slliw	a2,a2,0x10
    30001a18:	4106561b          	sraiw	a2,a2,0x10
    30001a1c:	fc5ff06f          	j	300019e0 <rt_vsnprintf+0x4d0>
    30001a20:	fe0b0fa3          	sb	zero,-1(s6)
    30001a24:	b89ff06f          	j	300015ac <rt_vsnprintf+0x9c>

0000000030001a28 <rt_snprintf>:
    30001a28:	fb010113          	addi	sp,sp,-80
    30001a2c:	02d13423          	sd	a3,40(sp)
    30001a30:	02810693          	addi	a3,sp,40
    30001a34:	00113c23          	sd	ra,24(sp)
    30001a38:	02e13823          	sd	a4,48(sp)
    30001a3c:	02f13c23          	sd	a5,56(sp)
    30001a40:	05013023          	sd	a6,64(sp)
    30001a44:	05113423          	sd	a7,72(sp)
    30001a48:	00d13423          	sd	a3,8(sp)
    30001a4c:	ac5ff0ef          	jal	ra,30001510 <rt_vsnprintf>
    30001a50:	01813083          	ld	ra,24(sp)
    30001a54:	05010113          	addi	sp,sp,80
    30001a58:	00008067          	ret

0000000030001a5c <rt_vsprintf>:
    30001a5c:	00060693          	mv	a3,a2
    30001a60:	00058613          	mv	a2,a1
    30001a64:	fff00593          	li	a1,-1
    30001a68:	aa9ff06f          	j	30001510 <rt_vsnprintf>

0000000030001a6c <rt_sprintf>:
    30001a6c:	fb010113          	addi	sp,sp,-80
    30001a70:	02c13023          	sd	a2,32(sp)
    30001a74:	02010613          	addi	a2,sp,32
    30001a78:	00113c23          	sd	ra,24(sp)
    30001a7c:	02d13423          	sd	a3,40(sp)
    30001a80:	02e13823          	sd	a4,48(sp)
    30001a84:	02f13c23          	sd	a5,56(sp)
    30001a88:	05013023          	sd	a6,64(sp)
    30001a8c:	05113423          	sd	a7,72(sp)
    30001a90:	00c13423          	sd	a2,8(sp)
    30001a94:	fc9ff0ef          	jal	ra,30001a5c <rt_vsprintf>
    30001a98:	01813083          	ld	ra,24(sp)
    30001a9c:	05010113          	addi	sp,sp,80
    30001aa0:	00008067          	ret

0000000030001aa4 <rt_console_get_device>:
    30001aa4:	8301b503          	ld	a0,-2000(gp) # 800041f8 <_console_device>
    30001aa8:	00008067          	ret

0000000030001aac <rt_console_set_device>:
    30001aac:	fe010113          	addi	sp,sp,-32
    30001ab0:	00913423          	sd	s1,8(sp)
    30001ab4:	83018493          	addi	s1,gp,-2000 # 800041f8 <_console_device>
    30001ab8:	01213023          	sd	s2,0(sp)
    30001abc:	0004b903          	ld	s2,0(s1)
    30001ac0:	00113c23          	sd	ra,24(sp)
    30001ac4:	00813823          	sd	s0,16(sp)
    30001ac8:	220000ef          	jal	ra,30001ce8 <rt_device_find>
    30001acc:	04a90263          	beq	s2,a0,30001b10 <rt_console_set_device+0x64>
    30001ad0:	00050413          	mv	s0,a0
    30001ad4:	02050063          	beqz	a0,30001af4 <rt_console_set_device+0x48>
    30001ad8:	0004b503          	ld	a0,0(s1)
    30001adc:	00050463          	beqz	a0,30001ae4 <rt_console_set_device+0x38>
    30001ae0:	3e0000ef          	jal	ra,30001ec0 <rt_device_close>
    30001ae4:	04300593          	li	a1,67
    30001ae8:	00040513          	mv	a0,s0
    30001aec:	27c000ef          	jal	ra,30001d68 <rt_device_open>
    30001af0:	0084b023          	sd	s0,0(s1)
    30001af4:	01813083          	ld	ra,24(sp)
    30001af8:	01013403          	ld	s0,16(sp)
    30001afc:	00813483          	ld	s1,8(sp)
    30001b00:	00090513          	mv	a0,s2
    30001b04:	00013903          	ld	s2,0(sp)
    30001b08:	02010113          	addi	sp,sp,32
    30001b0c:	00008067          	ret
    30001b10:	00000913          	li	s2,0
    30001b14:	fe1ff06f          	j	30001af4 <rt_console_set_device+0x48>

0000000030001b18 <rt_hw_console_output>:
    30001b18:	00008067          	ret

0000000030001b1c <rt_kprintf>:
    30001b1c:	f9010113          	addi	sp,sp,-112
    30001b20:	02b13c23          	sd	a1,56(sp)
    30001b24:	04c13023          	sd	a2,64(sp)
    30001b28:	04d13423          	sd	a3,72(sp)
    30001b2c:	00050613          	mv	a2,a0
    30001b30:	03810693          	addi	a3,sp,56
    30001b34:	0ff00593          	li	a1,255
    30001b38:	a0818513          	addi	a0,gp,-1528 # 800043d0 <rt_log_buf.2897>
    30001b3c:	04f13c23          	sd	a5,88(sp)
    30001b40:	00d13423          	sd	a3,8(sp)
    30001b44:	02113423          	sd	ra,40(sp)
    30001b48:	02813023          	sd	s0,32(sp)
    30001b4c:	00913c23          	sd	s1,24(sp)
    30001b50:	04e13823          	sd	a4,80(sp)
    30001b54:	07013023          	sd	a6,96(sp)
    30001b58:	07113423          	sd	a7,104(sp)
    30001b5c:	9b5ff0ef          	jal	ra,30001510 <rt_vsnprintf>
    30001b60:	83018793          	addi	a5,gp,-2000 # 800041f8 <_console_device>
    30001b64:	00050693          	mv	a3,a0
    30001b68:	0007b503          	ld	a0,0(a5)
    30001b6c:	02051063          	bnez	a0,30001b8c <rt_kprintf+0x70>
    30001b70:	a0818513          	addi	a0,gp,-1528 # 800043d0 <rt_log_buf.2897>
    30001b74:	fa5ff0ef          	jal	ra,30001b18 <rt_hw_console_output>
    30001b78:	02813083          	ld	ra,40(sp)
    30001b7c:	02013403          	ld	s0,32(sp)
    30001b80:	01813483          	ld	s1,24(sp)
    30001b84:	07010113          	addi	sp,sp,112
    30001b88:	00008067          	ret
    30001b8c:	02e55483          	lhu	s1,46(a0)
    30001b90:	00078413          	mv	s0,a5
    30001b94:	0404e793          	ori	a5,s1,64
    30001b98:	02f51723          	sh	a5,46(a0)
    30001b9c:	0ff00793          	li	a5,255
    30001ba0:	00d7f463          	bgeu	a5,a3,30001ba8 <rt_kprintf+0x8c>
    30001ba4:	0ff00693          	li	a3,255
    30001ba8:	a0818613          	addi	a2,gp,-1528 # 800043d0 <rt_log_buf.2897>
    30001bac:	00000593          	li	a1,0
    30001bb0:	490000ef          	jal	ra,30002040 <rt_device_write>
    30001bb4:	00043783          	ld	a5,0(s0)
    30001bb8:	02979723          	sh	s1,46(a5)
    30001bbc:	fbdff06f          	j	30001b78 <rt_kprintf+0x5c>

0000000030001bc0 <rt_show_version>:
    30001bc0:	ff010113          	addi	sp,sp,-16
    30001bc4:	4ffff517          	auipc	a0,0x4ffff
    30001bc8:	d6c50513          	addi	a0,a0,-660 # 80000930 <__FUNCTION__.2736+0x78>
    30001bcc:	00113423          	sd	ra,8(sp)
    30001bd0:	f4dff0ef          	jal	ra,30001b1c <rt_kprintf>
    30001bd4:	4ffff517          	auipc	a0,0x4ffff
    30001bd8:	d6c50513          	addi	a0,a0,-660 # 80000940 <__FUNCTION__.2736+0x88>
    30001bdc:	f41ff0ef          	jal	ra,30001b1c <rt_kprintf>
    30001be0:	4ffff517          	auipc	a0,0x4ffff
    30001be4:	d9850513          	addi	a0,a0,-616 # 80000978 <__FUNCTION__.2736+0xc0>
    30001be8:	4ffff717          	auipc	a4,0x4ffff
    30001bec:	d8070713          	addi	a4,a4,-640 # 80000968 <__FUNCTION__.2736+0xb0>
    30001bf0:	00400693          	li	a3,4
    30001bf4:	00000613          	li	a2,0
    30001bf8:	00400593          	li	a1,4
    30001bfc:	f21ff0ef          	jal	ra,30001b1c <rt_kprintf>
    30001c00:	00813083          	ld	ra,8(sp)
    30001c04:	4ffff517          	auipc	a0,0x4ffff
    30001c08:	d9450513          	addi	a0,a0,-620 # 80000998 <__FUNCTION__.2736+0xe0>
    30001c0c:	01010113          	addi	sp,sp,16
    30001c10:	f0dff06f          	j	30001b1c <rt_kprintf>

0000000030001c14 <__rt_ffs>:
    30001c14:	08050063          	beqz	a0,30001c94 <__rt_ffs+0x80>
    30001c18:	0ff57713          	zext.b	a4,a0
    30001c1c:	4ffff697          	auipc	a3,0x4ffff
    30001c20:	de468693          	addi	a3,a3,-540 # 80000a00 <__lowest_bit_bitmap>
    30001c24:	00070a63          	beqz	a4,30001c38 <__rt_ffs+0x24>
    30001c28:	00e686b3          	add	a3,a3,a4
    30001c2c:	0006c503          	lbu	a0,0(a3)
    30001c30:	0015051b          	addiw	a0,a0,1
    30001c34:	00008067          	ret
    30001c38:	000107b7          	lui	a5,0x10
    30001c3c:	f0078793          	addi	a5,a5,-256 # ff00 <__stack_size+0xf700>
    30001c40:	00f577b3          	and	a5,a0,a5
    30001c44:	00078e63          	beqz	a5,30001c60 <__rt_ffs+0x4c>
    30001c48:	4085551b          	sraiw	a0,a0,0x8
    30001c4c:	0ff57713          	zext.b	a4,a0
    30001c50:	00e68733          	add	a4,a3,a4
    30001c54:	00074503          	lbu	a0,0(a4)
    30001c58:	0095051b          	addiw	a0,a0,9
    30001c5c:	00008067          	ret
    30001c60:	00ff07b7          	lui	a5,0xff0
    30001c64:	00f577b3          	and	a5,a0,a5
    30001c68:	00078e63          	beqz	a5,30001c84 <__rt_ffs+0x70>
    30001c6c:	4105551b          	sraiw	a0,a0,0x10
    30001c70:	0ff57793          	zext.b	a5,a0
    30001c74:	00f687b3          	add	a5,a3,a5
    30001c78:	0007c503          	lbu	a0,0(a5) # ff0000 <__stack_size+0xfef800>
    30001c7c:	0115051b          	addiw	a0,a0,17
    30001c80:	00008067          	ret
    30001c84:	0185551b          	srliw	a0,a0,0x18
    30001c88:	00a68533          	add	a0,a3,a0
    30001c8c:	00054503          	lbu	a0,0(a0)
    30001c90:	0195051b          	addiw	a0,a0,25
    30001c94:	00008067          	ret

0000000030001c98 <rt_assert_handler>:
    30001c98:	fe010113          	addi	sp,sp,-32
    30001c9c:	00113c23          	sd	ra,24(sp)
    30001ca0:	000107a3          	sb	zero,15(sp)
    30001ca4:	8381b303          	ld	t1,-1992(gp) # 80004200 <rt_assert_hook>
    30001ca8:	02031a63          	bnez	t1,30001cdc <rt_assert_handler+0x44>
    30001cac:	00060693          	mv	a3,a2
    30001cb0:	00058613          	mv	a2,a1
    30001cb4:	00050593          	mv	a1,a0
    30001cb8:	4ffff517          	auipc	a0,0x4ffff
    30001cbc:	d1050513          	addi	a0,a0,-752 # 800009c8 <__FUNCTION__.2736+0x110>
    30001cc0:	e5dff0ef          	jal	ra,30001b1c <rt_kprintf>
    30001cc4:	00f14783          	lbu	a5,15(sp)
    30001cc8:	0ff7f793          	zext.b	a5,a5
    30001ccc:	fe078ce3          	beqz	a5,30001cc4 <rt_assert_handler+0x2c>
    30001cd0:	01813083          	ld	ra,24(sp)
    30001cd4:	02010113          	addi	sp,sp,32
    30001cd8:	00008067          	ret
    30001cdc:	01813083          	ld	ra,24(sp)
    30001ce0:	02010113          	addi	sp,sp,32
    30001ce4:	00030067          	jr	t1

0000000030001ce8 <rt_device_find>:
    30001ce8:	00900593          	li	a1,9
    30001cec:	3880206f          	j	30004074 <rt_object_find>

0000000030001cf0 <rt_device_register>:
    30001cf0:	02051463          	bnez	a0,30001d18 <rt_device_register+0x28>
    30001cf4:	fff00513          	li	a0,-1
    30001cf8:	00008067          	ret
    30001cfc:	fff00513          	li	a0,-1
    30001d00:	01813083          	ld	ra,24(sp)
    30001d04:	01013403          	ld	s0,16(sp)
    30001d08:	00813483          	ld	s1,8(sp)
    30001d0c:	00013903          	ld	s2,0(sp)
    30001d10:	02010113          	addi	sp,sp,32
    30001d14:	00008067          	ret
    30001d18:	fe010113          	addi	sp,sp,-32
    30001d1c:	00813823          	sd	s0,16(sp)
    30001d20:	00050413          	mv	s0,a0
    30001d24:	00058513          	mv	a0,a1
    30001d28:	00913423          	sd	s1,8(sp)
    30001d2c:	01213023          	sd	s2,0(sp)
    30001d30:	00113c23          	sd	ra,24(sp)
    30001d34:	00058493          	mv	s1,a1
    30001d38:	00060913          	mv	s2,a2
    30001d3c:	fadff0ef          	jal	ra,30001ce8 <rt_device_find>
    30001d40:	fa051ee3          	bnez	a0,30001cfc <rt_device_register+0xc>
    30001d44:	00040513          	mv	a0,s0
    30001d48:	00048613          	mv	a2,s1
    30001d4c:	00900593          	li	a1,9
    30001d50:	771010ef          	jal	ra,30003cc0 <rt_object_init>
    30001d54:	00000513          	li	a0,0
    30001d58:	03241623          	sh	s2,44(s0)
    30001d5c:	02040823          	sb	zero,48(s0)
    30001d60:	02041723          	sh	zero,46(s0)
    30001d64:	f9dff06f          	j	30001d00 <rt_device_register+0x10>

0000000030001d68 <rt_device_open>:
    30001d68:	fe010113          	addi	sp,sp,-32
    30001d6c:	00813823          	sd	s0,16(sp)
    30001d70:	01213023          	sd	s2,0(sp)
    30001d74:	00113c23          	sd	ra,24(sp)
    30001d78:	00913423          	sd	s1,8(sp)
    30001d7c:	00050413          	mv	s0,a0
    30001d80:	00058913          	mv	s2,a1
    30001d84:	00051e63          	bnez	a0,30001da0 <rt_device_open+0x38>
    30001d88:	0c900613          	li	a2,201
    30001d8c:	4ffff597          	auipc	a1,0x4ffff
    30001d90:	e6c58593          	addi	a1,a1,-404 # 80000bf8 <__FUNCTION__.2568>
    30001d94:	4ffff517          	auipc	a0,0x4ffff
    30001d98:	d9c50513          	addi	a0,a0,-612 # 80000b30 <small_digits.2783+0x18>
    30001d9c:	efdff0ef          	jal	ra,30001c98 <rt_assert_handler>
    30001da0:	00040513          	mv	a0,s0
    30001da4:	28c020ef          	jal	ra,30004030 <rt_object_get_type>
    30001da8:	00900793          	li	a5,9
    30001dac:	00f50e63          	beq	a0,a5,30001dc8 <rt_device_open+0x60>
    30001db0:	0ca00613          	li	a2,202
    30001db4:	4ffff597          	auipc	a1,0x4ffff
    30001db8:	e4458593          	addi	a1,a1,-444 # 80000bf8 <__FUNCTION__.2568>
    30001dbc:	4ffff517          	auipc	a0,0x4ffff
    30001dc0:	d8450513          	addi	a0,a0,-636 # 80000b40 <small_digits.2783+0x28>
    30001dc4:	ed5ff0ef          	jal	ra,30001c98 <rt_assert_handler>
    30001dc8:	02c45783          	lhu	a5,44(s0)
    30001dcc:	0107f793          	andi	a5,a5,16
    30001dd0:	04079c63          	bnez	a5,30001e28 <rt_device_open+0xc0>
    30001dd4:	04843783          	ld	a5,72(s0)
    30001dd8:	04078263          	beqz	a5,30001e1c <rt_device_open+0xb4>
    30001ddc:	00040513          	mv	a0,s0
    30001de0:	000780e7          	jalr	a5
    30001de4:	00050493          	mv	s1,a0
    30001de8:	02050a63          	beqz	a0,30001e1c <rt_device_open+0xb4>
    30001dec:	00050613          	mv	a2,a0
    30001df0:	00040593          	mv	a1,s0
    30001df4:	4ffff517          	auipc	a0,0x4ffff
    30001df8:	db450513          	addi	a0,a0,-588 # 80000ba8 <small_digits.2783+0x90>
    30001dfc:	d21ff0ef          	jal	ra,30001b1c <rt_kprintf>
    30001e00:	01813083          	ld	ra,24(sp)
    30001e04:	01013403          	ld	s0,16(sp)
    30001e08:	00013903          	ld	s2,0(sp)
    30001e0c:	00048513          	mv	a0,s1
    30001e10:	00813483          	ld	s1,8(sp)
    30001e14:	02010113          	addi	sp,sp,32
    30001e18:	00008067          	ret
    30001e1c:	02c45783          	lhu	a5,44(s0)
    30001e20:	0107e793          	ori	a5,a5,16
    30001e24:	02f41623          	sh	a5,44(s0)
    30001e28:	02c45783          	lhu	a5,44(s0)
    30001e2c:	0087f793          	andi	a5,a5,8
    30001e30:	00078a63          	beqz	a5,30001e44 <rt_device_open+0xdc>
    30001e34:	02e45783          	lhu	a5,46(s0)
    30001e38:	ff900493          	li	s1,-7
    30001e3c:	0087f793          	andi	a5,a5,8
    30001e40:	fc0790e3          	bnez	a5,30001e00 <rt_device_open+0x98>
    30001e44:	05043783          	ld	a5,80(s0)
    30001e48:	04078a63          	beqz	a5,30001e9c <rt_device_open+0x134>
    30001e4c:	00090593          	mv	a1,s2
    30001e50:	00040513          	mv	a0,s0
    30001e54:	000780e7          	jalr	a5
    30001e58:	00050493          	mv	s1,a0
    30001e5c:	04051c63          	bnez	a0,30001eb4 <rt_device_open+0x14c>
    30001e60:	02e45783          	lhu	a5,46(s0)
    30001e64:	0087e793          	ori	a5,a5,8
    30001e68:	02f41723          	sh	a5,46(s0)
    30001e6c:	03044783          	lbu	a5,48(s0)
    30001e70:	0017879b          	addiw	a5,a5,1
    30001e74:	0ff7f793          	zext.b	a5,a5
    30001e78:	02f40823          	sb	a5,48(s0)
    30001e7c:	f80792e3          	bnez	a5,30001e00 <rt_device_open+0x98>
    30001e80:	0f800613          	li	a2,248
    30001e84:	4ffff597          	auipc	a1,0x4ffff
    30001e88:	d7458593          	addi	a1,a1,-652 # 80000bf8 <__FUNCTION__.2568>
    30001e8c:	4ffff517          	auipc	a0,0x4ffff
    30001e90:	d5450513          	addi	a0,a0,-684 # 80000be0 <small_digits.2783+0xc8>
    30001e94:	e05ff0ef          	jal	ra,30001c98 <rt_assert_handler>
    30001e98:	f69ff06f          	j	30001e00 <rt_device_open+0x98>
    30001e9c:	000015b7          	lui	a1,0x1
    30001ea0:	f0f58593          	addi	a1,a1,-241 # f0f <__stack_size+0x70f>
    30001ea4:	00b97933          	and	s2,s2,a1
    30001ea8:	03241723          	sh	s2,46(s0)
    30001eac:	00000493          	li	s1,0
    30001eb0:	fb1ff06f          	j	30001e60 <rt_device_open+0xf8>
    30001eb4:	ffa00793          	li	a5,-6
    30001eb8:	f4f514e3          	bne	a0,a5,30001e00 <rt_device_open+0x98>
    30001ebc:	fa5ff06f          	j	30001e60 <rt_device_open+0xf8>

0000000030001ec0 <rt_device_close>:
    30001ec0:	ff010113          	addi	sp,sp,-16
    30001ec4:	00813023          	sd	s0,0(sp)
    30001ec8:	00113423          	sd	ra,8(sp)
    30001ecc:	00050413          	mv	s0,a0
    30001ed0:	00051e63          	bnez	a0,30001eec <rt_device_close+0x2c>
    30001ed4:	10a00613          	li	a2,266
    30001ed8:	4ffff597          	auipc	a1,0x4ffff
    30001edc:	d3058593          	addi	a1,a1,-720 # 80000c08 <__FUNCTION__.2573>
    30001ee0:	4ffff517          	auipc	a0,0x4ffff
    30001ee4:	c5050513          	addi	a0,a0,-944 # 80000b30 <small_digits.2783+0x18>
    30001ee8:	db1ff0ef          	jal	ra,30001c98 <rt_assert_handler>
    30001eec:	00040513          	mv	a0,s0
    30001ef0:	140020ef          	jal	ra,30004030 <rt_object_get_type>
    30001ef4:	00900793          	li	a5,9
    30001ef8:	00f50e63          	beq	a0,a5,30001f14 <rt_device_close+0x54>
    30001efc:	10b00613          	li	a2,267
    30001f00:	4ffff597          	auipc	a1,0x4ffff
    30001f04:	d0858593          	addi	a1,a1,-760 # 80000c08 <__FUNCTION__.2573>
    30001f08:	4ffff517          	auipc	a0,0x4ffff
    30001f0c:	c3850513          	addi	a0,a0,-968 # 80000b40 <small_digits.2783+0x28>
    30001f10:	d89ff0ef          	jal	ra,30001c98 <rt_assert_handler>
    30001f14:	03044783          	lbu	a5,48(s0)
    30001f18:	fff00513          	li	a0,-1
    30001f1c:	04078063          	beqz	a5,30001f5c <rt_device_close+0x9c>
    30001f20:	fff7879b          	addiw	a5,a5,-1
    30001f24:	0ff7f793          	zext.b	a5,a5
    30001f28:	02f40823          	sb	a5,48(s0)
    30001f2c:	00000513          	li	a0,0
    30001f30:	02079663          	bnez	a5,30001f5c <rt_device_close+0x9c>
    30001f34:	05843783          	ld	a5,88(s0)
    30001f38:	00079863          	bnez	a5,30001f48 <rt_device_close+0x88>
    30001f3c:	00000513          	li	a0,0
    30001f40:	02041723          	sh	zero,46(s0)
    30001f44:	0180006f          	j	30001f5c <rt_device_close+0x9c>
    30001f48:	00040513          	mv	a0,s0
    30001f4c:	000780e7          	jalr	a5
    30001f50:	fe0506e3          	beqz	a0,30001f3c <rt_device_close+0x7c>
    30001f54:	ffa00793          	li	a5,-6
    30001f58:	fef504e3          	beq	a0,a5,30001f40 <rt_device_close+0x80>
    30001f5c:	00813083          	ld	ra,8(sp)
    30001f60:	00013403          	ld	s0,0(sp)
    30001f64:	01010113          	addi	sp,sp,16
    30001f68:	00008067          	ret

0000000030001f6c <rt_device_read>:
    30001f6c:	fd010113          	addi	sp,sp,-48
    30001f70:	02813023          	sd	s0,32(sp)
    30001f74:	00913c23          	sd	s1,24(sp)
    30001f78:	01213823          	sd	s2,16(sp)
    30001f7c:	01313423          	sd	s3,8(sp)
    30001f80:	02113423          	sd	ra,40(sp)
    30001f84:	00050413          	mv	s0,a0
    30001f88:	00058493          	mv	s1,a1
    30001f8c:	00060913          	mv	s2,a2
    30001f90:	00068993          	mv	s3,a3
    30001f94:	00051e63          	bnez	a0,30001fb0 <rt_device_read+0x44>
    30001f98:	13400613          	li	a2,308
    30001f9c:	4ffff597          	auipc	a1,0x4ffff
    30001fa0:	c7c58593          	addi	a1,a1,-900 # 80000c18 <__FUNCTION__.2580>
    30001fa4:	4ffff517          	auipc	a0,0x4ffff
    30001fa8:	b8c50513          	addi	a0,a0,-1140 # 80000b30 <small_digits.2783+0x18>
    30001fac:	cedff0ef          	jal	ra,30001c98 <rt_assert_handler>
    30001fb0:	00040513          	mv	a0,s0
    30001fb4:	07c020ef          	jal	ra,30004030 <rt_object_get_type>
    30001fb8:	00900793          	li	a5,9
    30001fbc:	00f50e63          	beq	a0,a5,30001fd8 <rt_device_read+0x6c>
    30001fc0:	13500613          	li	a2,309
    30001fc4:	4ffff597          	auipc	a1,0x4ffff
    30001fc8:	c5458593          	addi	a1,a1,-940 # 80000c18 <__FUNCTION__.2580>
    30001fcc:	4ffff517          	auipc	a0,0x4ffff
    30001fd0:	b7450513          	addi	a0,a0,-1164 # 80000b40 <small_digits.2783+0x28>
    30001fd4:	cc5ff0ef          	jal	ra,30001c98 <rt_assert_handler>
    30001fd8:	03044783          	lbu	a5,48(s0)
    30001fdc:	fff00513          	li	a0,-1
    30001fe0:	02078e63          	beqz	a5,3000201c <rt_device_read+0xb0>
    30001fe4:	06043303          	ld	t1,96(s0)
    30001fe8:	02030863          	beqz	t1,30002018 <rt_device_read+0xac>
    30001fec:	00040513          	mv	a0,s0
    30001ff0:	02013403          	ld	s0,32(sp)
    30001ff4:	02813083          	ld	ra,40(sp)
    30001ff8:	00098693          	mv	a3,s3
    30001ffc:	00090613          	mv	a2,s2
    30002000:	00813983          	ld	s3,8(sp)
    30002004:	01013903          	ld	s2,16(sp)
    30002008:	00048593          	mv	a1,s1
    3000200c:	01813483          	ld	s1,24(sp)
    30002010:	03010113          	addi	sp,sp,48
    30002014:	00030067          	jr	t1
    30002018:	ffa00513          	li	a0,-6
    3000201c:	8d8ff0ef          	jal	ra,300010f4 <rt_set_errno>
    30002020:	02813083          	ld	ra,40(sp)
    30002024:	02013403          	ld	s0,32(sp)
    30002028:	01813483          	ld	s1,24(sp)
    3000202c:	01013903          	ld	s2,16(sp)
    30002030:	00813983          	ld	s3,8(sp)
    30002034:	00000513          	li	a0,0
    30002038:	03010113          	addi	sp,sp,48
    3000203c:	00008067          	ret

0000000030002040 <rt_device_write>:
    30002040:	fd010113          	addi	sp,sp,-48
    30002044:	02813023          	sd	s0,32(sp)
    30002048:	00913c23          	sd	s1,24(sp)
    3000204c:	01213823          	sd	s2,16(sp)
    30002050:	01313423          	sd	s3,8(sp)
    30002054:	02113423          	sd	ra,40(sp)
    30002058:	00050413          	mv	s0,a0
    3000205c:	00058493          	mv	s1,a1
    30002060:	00060913          	mv	s2,a2
    30002064:	00068993          	mv	s3,a3
    30002068:	00051e63          	bnez	a0,30002084 <rt_device_write+0x44>
    3000206c:	15b00613          	li	a2,347
    30002070:	4ffff597          	auipc	a1,0x4ffff
    30002074:	bb858593          	addi	a1,a1,-1096 # 80000c28 <__FUNCTION__.2587>
    30002078:	4ffff517          	auipc	a0,0x4ffff
    3000207c:	ab850513          	addi	a0,a0,-1352 # 80000b30 <small_digits.2783+0x18>
    30002080:	c19ff0ef          	jal	ra,30001c98 <rt_assert_handler>
    30002084:	00040513          	mv	a0,s0
    30002088:	7a9010ef          	jal	ra,30004030 <rt_object_get_type>
    3000208c:	00900793          	li	a5,9
    30002090:	00f50e63          	beq	a0,a5,300020ac <rt_device_write+0x6c>
    30002094:	15c00613          	li	a2,348
    30002098:	4ffff597          	auipc	a1,0x4ffff
    3000209c:	b9058593          	addi	a1,a1,-1136 # 80000c28 <__FUNCTION__.2587>
    300020a0:	4ffff517          	auipc	a0,0x4ffff
    300020a4:	aa050513          	addi	a0,a0,-1376 # 80000b40 <small_digits.2783+0x28>
    300020a8:	bf1ff0ef          	jal	ra,30001c98 <rt_assert_handler>
    300020ac:	03044783          	lbu	a5,48(s0)
    300020b0:	fff00513          	li	a0,-1
    300020b4:	02078e63          	beqz	a5,300020f0 <rt_device_write+0xb0>
    300020b8:	06843303          	ld	t1,104(s0)
    300020bc:	02030863          	beqz	t1,300020ec <rt_device_write+0xac>
    300020c0:	00040513          	mv	a0,s0
    300020c4:	02013403          	ld	s0,32(sp)
    300020c8:	02813083          	ld	ra,40(sp)
    300020cc:	00098693          	mv	a3,s3
    300020d0:	00090613          	mv	a2,s2
    300020d4:	00813983          	ld	s3,8(sp)
    300020d8:	01013903          	ld	s2,16(sp)
    300020dc:	00048593          	mv	a1,s1
    300020e0:	01813483          	ld	s1,24(sp)
    300020e4:	03010113          	addi	sp,sp,48
    300020e8:	00030067          	jr	t1
    300020ec:	ffa00513          	li	a0,-6
    300020f0:	804ff0ef          	jal	ra,300010f4 <rt_set_errno>
    300020f4:	02813083          	ld	ra,40(sp)
    300020f8:	02013403          	ld	s0,32(sp)
    300020fc:	01813483          	ld	s1,24(sp)
    30002100:	01013903          	ld	s2,16(sp)
    30002104:	00813983          	ld	s3,8(sp)
    30002108:	00000513          	li	a0,0
    3000210c:	03010113          	addi	sp,sp,48
    30002110:	00008067          	ret

0000000030002114 <rt_device_control>:
    30002114:	fe010113          	addi	sp,sp,-32
    30002118:	00813823          	sd	s0,16(sp)
    3000211c:	00913423          	sd	s1,8(sp)
    30002120:	01213023          	sd	s2,0(sp)
    30002124:	00113c23          	sd	ra,24(sp)
    30002128:	00050413          	mv	s0,a0
    3000212c:	00058493          	mv	s1,a1
    30002130:	00060913          	mv	s2,a2
    30002134:	00051e63          	bnez	a0,30002150 <rt_device_control+0x3c>
    30002138:	17c00613          	li	a2,380
    3000213c:	4ffff597          	auipc	a1,0x4ffff
    30002140:	afc58593          	addi	a1,a1,-1284 # 80000c38 <__FUNCTION__.2593>
    30002144:	4ffff517          	auipc	a0,0x4ffff
    30002148:	9ec50513          	addi	a0,a0,-1556 # 80000b30 <small_digits.2783+0x18>
    3000214c:	b4dff0ef          	jal	ra,30001c98 <rt_assert_handler>
    30002150:	00040513          	mv	a0,s0
    30002154:	6dd010ef          	jal	ra,30004030 <rt_object_get_type>
    30002158:	00900793          	li	a5,9
    3000215c:	00f50e63          	beq	a0,a5,30002178 <rt_device_control+0x64>
    30002160:	17d00613          	li	a2,381
    30002164:	4ffff597          	auipc	a1,0x4ffff
    30002168:	ad458593          	addi	a1,a1,-1324 # 80000c38 <__FUNCTION__.2593>
    3000216c:	4ffff517          	auipc	a0,0x4ffff
    30002170:	9d450513          	addi	a0,a0,-1580 # 80000b40 <small_digits.2783+0x28>
    30002174:	b25ff0ef          	jal	ra,30001c98 <rt_assert_handler>
    30002178:	07043303          	ld	t1,112(s0)
    3000217c:	02030463          	beqz	t1,300021a4 <rt_device_control+0x90>
    30002180:	00040513          	mv	a0,s0
    30002184:	01013403          	ld	s0,16(sp)
    30002188:	01813083          	ld	ra,24(sp)
    3000218c:	00090613          	mv	a2,s2
    30002190:	00048593          	mv	a1,s1
    30002194:	00013903          	ld	s2,0(sp)
    30002198:	00813483          	ld	s1,8(sp)
    3000219c:	02010113          	addi	sp,sp,32
    300021a0:	00030067          	jr	t1
    300021a4:	01813083          	ld	ra,24(sp)
    300021a8:	01013403          	ld	s0,16(sp)
    300021ac:	00813483          	ld	s1,8(sp)
    300021b0:	00013903          	ld	s2,0(sp)
    300021b4:	ffa00513          	li	a0,-6
    300021b8:	02010113          	addi	sp,sp,32
    300021bc:	00008067          	ret

00000000300021c0 <rt_device_set_rx_indicate>:
    300021c0:	fe010113          	addi	sp,sp,-32
    300021c4:	00813823          	sd	s0,16(sp)
    300021c8:	00913423          	sd	s1,8(sp)
    300021cc:	00113c23          	sd	ra,24(sp)
    300021d0:	00050413          	mv	s0,a0
    300021d4:	00058493          	mv	s1,a1
    300021d8:	00051e63          	bnez	a0,300021f4 <rt_device_set_rx_indicate+0x34>
    300021dc:	19600613          	li	a2,406
    300021e0:	4ffff597          	auipc	a1,0x4ffff
    300021e4:	a7058593          	addi	a1,a1,-1424 # 80000c50 <__FUNCTION__.2600>
    300021e8:	4ffff517          	auipc	a0,0x4ffff
    300021ec:	94850513          	addi	a0,a0,-1720 # 80000b30 <small_digits.2783+0x18>
    300021f0:	aa9ff0ef          	jal	ra,30001c98 <rt_assert_handler>
    300021f4:	00040513          	mv	a0,s0
    300021f8:	639010ef          	jal	ra,30004030 <rt_object_get_type>
    300021fc:	00900793          	li	a5,9
    30002200:	00f50e63          	beq	a0,a5,3000221c <rt_device_set_rx_indicate+0x5c>
    30002204:	19700613          	li	a2,407
    30002208:	4ffff597          	auipc	a1,0x4ffff
    3000220c:	a4858593          	addi	a1,a1,-1464 # 80000c50 <__FUNCTION__.2600>
    30002210:	4ffff517          	auipc	a0,0x4ffff
    30002214:	93050513          	addi	a0,a0,-1744 # 80000b40 <small_digits.2783+0x28>
    30002218:	a81ff0ef          	jal	ra,30001c98 <rt_assert_handler>
    3000221c:	02943c23          	sd	s1,56(s0)
    30002220:	01813083          	ld	ra,24(sp)
    30002224:	01013403          	ld	s0,16(sp)
    30002228:	00813483          	ld	s1,8(sp)
    3000222c:	00000513          	li	a0,0
    30002230:	02010113          	addi	sp,sp,32
    30002234:	00008067          	ret

0000000030002238 <rti_start>:
    30002238:	00000513          	li	a0,0
    3000223c:	00008067          	ret

0000000030002240 <rti_end>:
    30002240:	00000513          	li	a0,0
    30002244:	00008067          	ret

0000000030002248 <rti_board_start>:
    30002248:	00000513          	li	a0,0
    3000224c:	00008067          	ret

0000000030002250 <rti_board_end>:
    30002250:	00000513          	li	a0,0
    30002254:	00008067          	ret

0000000030002258 <rt_components_board_init>:
    30002258:	fe010113          	addi	sp,sp,-32
    3000225c:	00813823          	sd	s0,16(sp)
    30002260:	00913423          	sd	s1,8(sp)
    30002264:	00113c23          	sd	ra,24(sp)
    30002268:	4fffe417          	auipc	s0,0x4fffe
    3000226c:	31040413          	addi	s0,s0,784 # 80000578 <__rt_init_rti_board_start>
    30002270:	4fffe497          	auipc	s1,0x4fffe
    30002274:	31048493          	addi	s1,s1,784 # 80000580 <__rt_init_rti_board_end>
    30002278:	00946c63          	bltu	s0,s1,30002290 <rt_components_board_init+0x38>
    3000227c:	01813083          	ld	ra,24(sp)
    30002280:	01013403          	ld	s0,16(sp)
    30002284:	00813483          	ld	s1,8(sp)
    30002288:	02010113          	addi	sp,sp,32
    3000228c:	00008067          	ret
    30002290:	00043783          	ld	a5,0(s0)
    30002294:	00840413          	addi	s0,s0,8
    30002298:	000780e7          	jalr	a5
    3000229c:	fddff06f          	j	30002278 <rt_components_board_init+0x20>

00000000300022a0 <rt_components_init>:
    300022a0:	fe010113          	addi	sp,sp,-32
    300022a4:	00813823          	sd	s0,16(sp)
    300022a8:	00913423          	sd	s1,8(sp)
    300022ac:	00113c23          	sd	ra,24(sp)
    300022b0:	4fffe417          	auipc	s0,0x4fffe
    300022b4:	2d040413          	addi	s0,s0,720 # 80000580 <__rt_init_rti_board_end>
    300022b8:	4fffe497          	auipc	s1,0x4fffe
    300022bc:	2e848493          	addi	s1,s1,744 # 800005a0 <__rt_init_rti_end>
    300022c0:	00946c63          	bltu	s0,s1,300022d8 <rt_components_init+0x38>
    300022c4:	01813083          	ld	ra,24(sp)
    300022c8:	01013403          	ld	s0,16(sp)
    300022cc:	00813483          	ld	s1,8(sp)
    300022d0:	02010113          	addi	sp,sp,32
    300022d4:	00008067          	ret
    300022d8:	00043783          	ld	a5,0(s0)
    300022dc:	00840413          	addi	s0,s0,8
    300022e0:	000780e7          	jalr	a5
    300022e4:	fddff06f          	j	300022c0 <rt_components_init+0x20>

00000000300022e8 <main_thread_entry>:
    300022e8:	ff010113          	addi	sp,sp,-16
    300022ec:	00113423          	sd	ra,8(sp)
    300022f0:	fb1ff0ef          	jal	ra,300022a0 <rt_components_init>
    300022f4:	00813083          	ld	ra,8(sp)
    300022f8:	01010113          	addi	sp,sp,16
    300022fc:	d8dfd06f          	j	30000088 <main>

0000000030002300 <rt_application_init>:
    30002300:	ff010113          	addi	sp,sp,-16
    30002304:	01400793          	li	a5,20
    30002308:	00a00713          	li	a4,10
    3000230c:	000046b7          	lui	a3,0x4
    30002310:	00000613          	li	a2,0
    30002314:	00000597          	auipc	a1,0x0
    30002318:	fd458593          	addi	a1,a1,-44 # 300022e8 <main_thread_entry>
    3000231c:	4ffff517          	auipc	a0,0x4ffff
    30002320:	95450513          	addi	a0,a0,-1708 # 80000c70 <__FUNCTION__.2600+0x20>
    30002324:	00813023          	sd	s0,0(sp)
    30002328:	00113423          	sd	ra,8(sp)
    3000232c:	279000ef          	jal	ra,30002da4 <rt_thread_create>
    30002330:	00050413          	mv	s0,a0
    30002334:	00051e63          	bnez	a0,30002350 <rt_application_init+0x50>
    30002338:	0cb00613          	li	a2,203
    3000233c:	4ffff597          	auipc	a1,0x4ffff
    30002340:	94c58593          	addi	a1,a1,-1716 # 80000c88 <__FUNCTION__.2659>
    30002344:	4ffff517          	auipc	a0,0x4ffff
    30002348:	93450513          	addi	a0,a0,-1740 # 80000c78 <__FUNCTION__.2600+0x28>
    3000234c:	94dff0ef          	jal	ra,30001c98 <rt_assert_handler>
    30002350:	00040513          	mv	a0,s0
    30002354:	00013403          	ld	s0,0(sp)
    30002358:	00813083          	ld	ra,8(sp)
    3000235c:	01010113          	addi	sp,sp,16
    30002360:	6890006f          	j	300031e8 <rt_thread_startup>

0000000030002364 <rtthread_startup>:
    30002364:	ff010113          	addi	sp,sp,-16
    30002368:	00113423          	sd	ra,8(sp)
    3000236c:	174030ef          	jal	ra,300054e0 <rt_hw_interrupt_disable>
    30002370:	d95fd0ef          	jal	ra,30000104 <rt_hw_board_init>
    30002374:	84dff0ef          	jal	ra,30001bc0 <rt_show_version>
    30002378:	091010ef          	jal	ra,30003c08 <rt_system_timer_init>
    3000237c:	210000ef          	jal	ra,3000258c <rt_system_scheduler_init>
    30002380:	f81ff0ef          	jal	ra,30002300 <rt_application_init>
    30002384:	099010ef          	jal	ra,30003c1c <rt_system_timer_thread_init>
    30002388:	19c000ef          	jal	ra,30002524 <rt_thread_idle_init>
    3000238c:	360000ef          	jal	ra,300026ec <rt_system_scheduler_start>
    30002390:	00813083          	ld	ra,8(sp)
    30002394:	00000513          	li	a0,0
    30002398:	01010113          	addi	sp,sp,16
    3000239c:	00008067          	ret

00000000300023a0 <entry>:
    300023a0:	ff010113          	addi	sp,sp,-16
    300023a4:	00113423          	sd	ra,8(sp)
    300023a8:	fbdff0ef          	jal	ra,30002364 <rtthread_startup>
    300023ac:	00813083          	ld	ra,8(sp)
    300023b0:	00000513          	li	a0,0
    300023b4:	01010113          	addi	sp,sp,16
    300023b8:	00008067          	ret

00000000300023bc <rt_thread_defunct_enqueue>:
    300023bc:	50002797          	auipc	a5,0x50002
    300023c0:	bdc78793          	addi	a5,a5,-1060 # 80003f98 <_rt_thread_defunct>
    300023c4:	0007b683          	ld	a3,0(a5)
    300023c8:	02850713          	addi	a4,a0,40
    300023cc:	00e7b023          	sd	a4,0(a5)
    300023d0:	00e6b423          	sd	a4,8(a3) # 4008 <__stack_size+0x3808>
    300023d4:	02d53423          	sd	a3,40(a0)
    300023d8:	02f53823          	sd	a5,48(a0)
    300023dc:	00008067          	ret

00000000300023e0 <rt_thread_defunct_dequeue>:
    300023e0:	50002717          	auipc	a4,0x50002
    300023e4:	bb870713          	addi	a4,a4,-1096 # 80003f98 <_rt_thread_defunct>
    300023e8:	00073783          	ld	a5,0(a4)
    300023ec:	00000513          	li	a0,0
    300023f0:	02e78063          	beq	a5,a4,30002410 <rt_thread_defunct_dequeue+0x30>
    300023f4:	0007b683          	ld	a3,0(a5)
    300023f8:	0087b703          	ld	a4,8(a5)
    300023fc:	fd878513          	addi	a0,a5,-40
    30002400:	00e6b423          	sd	a4,8(a3)
    30002404:	00d73023          	sd	a3,0(a4)
    30002408:	00f7b423          	sd	a5,8(a5)
    3000240c:	00f7b023          	sd	a5,0(a5)
    30002410:	00008067          	ret

0000000030002414 <rt_thread_idle_entry>:
    30002414:	fb010113          	addi	sp,sp,-80
    30002418:	03213823          	sd	s2,48(sp)
    3000241c:	03313423          	sd	s3,40(sp)
    30002420:	03413023          	sd	s4,32(sp)
    30002424:	01513c23          	sd	s5,24(sp)
    30002428:	01613823          	sd	s6,16(sp)
    3000242c:	04113423          	sd	ra,72(sp)
    30002430:	04813023          	sd	s0,64(sp)
    30002434:	02913c23          	sd	s1,56(sp)
    30002438:	01713423          	sd	s7,8(sp)
    3000243c:	c1018993          	addi	s3,gp,-1008 # 800045d8 <rt_thread_stack>
    30002440:	4ffff917          	auipc	s2,0x4ffff
    30002444:	86890913          	addi	s2,s2,-1944 # 80000ca8 <__FUNCTION__.2651>
    30002448:	4fffea17          	auipc	s4,0x4fffe
    3000244c:	310a0a13          	addi	s4,s4,784 # 80000758 <_uart_ops+0x118>
    30002450:	4fffea97          	auipc	s5,0x4fffe
    30002454:	260a8a93          	addi	s5,s5,608 # 800006b0 <_uart_ops+0x70>
    30002458:	00100b13          	li	s6,1
    3000245c:	bf018413          	addi	s0,gp,-1040 # 800045b8 <idle_hook_list>
    30002460:	00043783          	ld	a5,0(s0)
    30002464:	00078463          	beqz	a5,3000246c <rt_thread_idle_entry+0x58>
    30002468:	000780e7          	jalr	a5
    3000246c:	00840413          	addi	s0,s0,8
    30002470:	fe8998e3          	bne	s3,s0,30002460 <rt_thread_idle_entry+0x4c>
    30002474:	06c030ef          	jal	ra,300054e0 <rt_hw_interrupt_disable>
    30002478:	00050413          	mv	s0,a0
    3000247c:	a1dfe0ef          	jal	ra,30000e98 <rt_interrupt_get_nest>
    30002480:	02050063          	beqz	a0,300024a0 <rt_thread_idle_entry+0x8c>
    30002484:	00090593          	mv	a1,s2
    30002488:	000a0513          	mv	a0,s4
    3000248c:	e90ff0ef          	jal	ra,30001b1c <rt_kprintf>
    30002490:	0cb00613          	li	a2,203
    30002494:	00090593          	mv	a1,s2
    30002498:	000a8513          	mv	a0,s5
    3000249c:	ffcff0ef          	jal	ra,30001c98 <rt_assert_handler>
    300024a0:	00040513          	mv	a0,s0
    300024a4:	044030ef          	jal	ra,300054e8 <rt_hw_interrupt_enable>
    300024a8:	038030ef          	jal	ra,300054e0 <rt_hw_interrupt_disable>
    300024ac:	00050493          	mv	s1,a0
    300024b0:	f31ff0ef          	jal	ra,300023e0 <rt_thread_defunct_dequeue>
    300024b4:	00050413          	mv	s0,a0
    300024b8:	00051863          	bnez	a0,300024c8 <rt_thread_idle_entry+0xb4>
    300024bc:	00048513          	mv	a0,s1
    300024c0:	028030ef          	jal	ra,300054e8 <rt_hw_interrupt_enable>
    300024c4:	f99ff06f          	j	3000245c <rt_thread_idle_entry+0x48>
    300024c8:	0d853b83          	ld	s7,216(a0)
    300024cc:	000b8e63          	beqz	s7,300024e8 <rt_thread_idle_entry+0xd4>
    300024d0:	00048513          	mv	a0,s1
    300024d4:	014030ef          	jal	ra,300054e8 <rt_hw_interrupt_enable>
    300024d8:	00040513          	mv	a0,s0
    300024dc:	000b80e7          	jalr	s7
    300024e0:	000030ef          	jal	ra,300054e0 <rt_hw_interrupt_disable>
    300024e4:	00050493          	mv	s1,a0
    300024e8:	00040513          	mv	a0,s0
    300024ec:	301010ef          	jal	ra,30003fec <rt_object_is_systemobject>
    300024f0:	01651c63          	bne	a0,s6,30002508 <rt_thread_idle_entry+0xf4>
    300024f4:	00040513          	mv	a0,s0
    300024f8:	0d9010ef          	jal	ra,30003dd0 <rt_object_detach>
    300024fc:	00048513          	mv	a0,s1
    30002500:	7e9020ef          	jal	ra,300054e8 <rt_hw_interrupt_enable>
    30002504:	f71ff06f          	j	30002474 <rt_thread_idle_entry+0x60>
    30002508:	00048513          	mv	a0,s1
    3000250c:	7dd020ef          	jal	ra,300054e8 <rt_hw_interrupt_enable>
    30002510:	05043503          	ld	a0,80(s0)
    30002514:	4e4020ef          	jal	ra,300049f8 <rt_free>
    30002518:	00040513          	mv	a0,s0
    3000251c:	239010ef          	jal	ra,30003f54 <rt_object_delete>
    30002520:	f55ff06f          	j	30002474 <rt_thread_idle_entry+0x60>

0000000030002524 <rt_thread_idle_init>:
    30002524:	fd010113          	addi	sp,sp,-48
    30002528:	00000613          	li	a2,0
    3000252c:	4fffe597          	auipc	a1,0x4fffe
    30002530:	77458593          	addi	a1,a1,1908 # 80000ca0 <__FUNCTION__.2659+0x18>
    30002534:	00810513          	addi	a0,sp,8
    30002538:	02113423          	sd	ra,40(sp)
    3000253c:	02813023          	sd	s0,32(sp)
    30002540:	d2cff0ef          	jal	ra,30001a6c <rt_sprintf>
    30002544:	b0818413          	addi	s0,gp,-1272 # 800044d0 <idle>
    30002548:	00810593          	addi	a1,sp,8
    3000254c:	02000893          	li	a7,32
    30002550:	01f00813          	li	a6,31
    30002554:	000047b7          	lui	a5,0x4
    30002558:	50002717          	auipc	a4,0x50002
    3000255c:	08070713          	addi	a4,a4,128 # 800045d8 <rt_thread_stack>
    30002560:	00000693          	li	a3,0
    30002564:	00000617          	auipc	a2,0x0
    30002568:	eb060613          	addi	a2,a2,-336 # 30002414 <rt_thread_idle_entry>
    3000256c:	00040513          	mv	a0,s0
    30002570:	658000ef          	jal	ra,30002bc8 <rt_thread_init>
    30002574:	00040513          	mv	a0,s0
    30002578:	471000ef          	jal	ra,300031e8 <rt_thread_startup>
    3000257c:	02813083          	ld	ra,40(sp)
    30002580:	02013403          	ld	s0,32(sp)
    30002584:	03010113          	addi	sp,sp,48
    30002588:	00008067          	ret

000000003000258c <rt_system_scheduler_init>:
    3000258c:	84019c23          	sh	zero,-1960(gp) # 80004220 <rt_scheduler_lock_nest>
    30002590:	50006797          	auipc	a5,0x50006
    30002594:	04878793          	addi	a5,a5,72 # 800085d8 <rt_thread_priority_table>
    30002598:	50006717          	auipc	a4,0x50006
    3000259c:	24070713          	addi	a4,a4,576 # 800087d8 <rt_soft_timer_list>
    300025a0:	00f7b423          	sd	a5,8(a5)
    300025a4:	00f7b023          	sd	a5,0(a5)
    300025a8:	01078793          	addi	a5,a5,16
    300025ac:	fee79ae3          	bne	a5,a4,300025a0 <rt_system_scheduler_init+0x14>
    300025b0:	8601a423          	sw	zero,-1944(gp) # 80004230 <rt_thread_ready_priority_group>
    300025b4:	00008067          	ret

00000000300025b8 <rt_schedule_insert_thread>:
    300025b8:	ff010113          	addi	sp,sp,-16
    300025bc:	00813023          	sd	s0,0(sp)
    300025c0:	00113423          	sd	ra,8(sp)
    300025c4:	00050413          	mv	s0,a0
    300025c8:	00051e63          	bnez	a0,300025e4 <rt_schedule_insert_thread+0x2c>
    300025cc:	2c700613          	li	a2,711
    300025d0:	4fffe597          	auipc	a1,0x4fffe
    300025d4:	70858593          	addi	a1,a1,1800 # 80000cd8 <__FUNCTION__.2663>
    300025d8:	4fffe517          	auipc	a0,0x4fffe
    300025dc:	6e850513          	addi	a0,a0,1768 # 80000cc0 <__FUNCTION__.2651+0x18>
    300025e0:	eb8ff0ef          	jal	ra,30001c98 <rt_assert_handler>
    300025e4:	6fd020ef          	jal	ra,300054e0 <rt_hw_interrupt_disable>
    300025e8:	06844783          	lbu	a5,104(s0)
    300025ec:	8481b703          	ld	a4,-1976(gp) # 80004210 <rt_current_thread>
    300025f0:	ff87f793          	andi	a5,a5,-8
    300025f4:	00871e63          	bne	a4,s0,30002610 <rt_schedule_insert_thread+0x58>
    300025f8:	0037e793          	ori	a5,a5,3
    300025fc:	06f40423          	sb	a5,104(s0)
    30002600:	00013403          	ld	s0,0(sp)
    30002604:	00813083          	ld	ra,8(sp)
    30002608:	01010113          	addi	sp,sp,16
    3000260c:	6dd0206f          	j	300054e8 <rt_hw_interrupt_enable>
    30002610:	06944703          	lbu	a4,105(s0)
    30002614:	0017e793          	ori	a5,a5,1
    30002618:	06f40423          	sb	a5,104(s0)
    3000261c:	00471693          	slli	a3,a4,0x4
    30002620:	50006797          	auipc	a5,0x50006
    30002624:	fb878793          	addi	a5,a5,-72 # 800085d8 <rt_thread_priority_table>
    30002628:	00d786b3          	add	a3,a5,a3
    3000262c:	0086b583          	ld	a1,8(a3)
    30002630:	02840613          	addi	a2,s0,40
    30002634:	86818713          	addi	a4,gp,-1944 # 80004230 <rt_thread_ready_priority_group>
    30002638:	00c5b023          	sd	a2,0(a1)
    3000263c:	02b43823          	sd	a1,48(s0)
    30002640:	00c6b423          	sd	a2,8(a3)
    30002644:	06c42783          	lw	a5,108(s0)
    30002648:	02d43423          	sd	a3,40(s0)
    3000264c:	00072683          	lw	a3,0(a4)
    30002650:	00d7e7b3          	or	a5,a5,a3
    30002654:	00f72023          	sw	a5,0(a4)
    30002658:	fa9ff06f          	j	30002600 <rt_schedule_insert_thread+0x48>

000000003000265c <rt_schedule_remove_thread>:
    3000265c:	ff010113          	addi	sp,sp,-16
    30002660:	00813023          	sd	s0,0(sp)
    30002664:	00113423          	sd	ra,8(sp)
    30002668:	00050413          	mv	s0,a0
    3000266c:	00051e63          	bnez	a0,30002688 <rt_schedule_remove_thread+0x2c>
    30002670:	32800613          	li	a2,808
    30002674:	4fffe597          	auipc	a1,0x4fffe
    30002678:	68458593          	addi	a1,a1,1668 # 80000cf8 <__FUNCTION__.2669>
    3000267c:	4fffe517          	auipc	a0,0x4fffe
    30002680:	64450513          	addi	a0,a0,1604 # 80000cc0 <__FUNCTION__.2651+0x18>
    30002684:	e14ff0ef          	jal	ra,30001c98 <rt_assert_handler>
    30002688:	659020ef          	jal	ra,300054e0 <rt_hw_interrupt_disable>
    3000268c:	02843683          	ld	a3,40(s0)
    30002690:	03043703          	ld	a4,48(s0)
    30002694:	02840793          	addi	a5,s0,40
    30002698:	00e6b423          	sd	a4,8(a3)
    3000269c:	00d73023          	sd	a3,0(a4)
    300026a0:	06944703          	lbu	a4,105(s0)
    300026a4:	02f43423          	sd	a5,40(s0)
    300026a8:	02f43823          	sd	a5,48(s0)
    300026ac:	00471693          	slli	a3,a4,0x4
    300026b0:	50006797          	auipc	a5,0x50006
    300026b4:	f2878793          	addi	a5,a5,-216 # 800085d8 <rt_thread_priority_table>
    300026b8:	00d786b3          	add	a3,a5,a3
    300026bc:	0006b783          	ld	a5,0(a3)
    300026c0:	00d79e63          	bne	a5,a3,300026dc <rt_schedule_remove_thread+0x80>
    300026c4:	86818713          	addi	a4,gp,-1944 # 80004230 <rt_thread_ready_priority_group>
    300026c8:	06c42783          	lw	a5,108(s0)
    300026cc:	00072683          	lw	a3,0(a4)
    300026d0:	fff7c793          	not	a5,a5
    300026d4:	00d7f7b3          	and	a5,a5,a3
    300026d8:	00f72023          	sw	a5,0(a4)
    300026dc:	00013403          	ld	s0,0(sp)
    300026e0:	00813083          	ld	ra,8(sp)
    300026e4:	01010113          	addi	sp,sp,16
    300026e8:	6010206f          	j	300054e8 <rt_hw_interrupt_enable>

00000000300026ec <rt_system_scheduler_start>:
    300026ec:	ff010113          	addi	sp,sp,-16
    300026f0:	8681a503          	lw	a0,-1944(gp) # 80004230 <rt_thread_ready_priority_group>
    300026f4:	00113423          	sd	ra,8(sp)
    300026f8:	00813023          	sd	s0,0(sp)
    300026fc:	d18ff0ef          	jal	ra,30001c14 <__rt_ffs>
    30002700:	fff5051b          	addiw	a0,a0,-1
    30002704:	50006797          	auipc	a5,0x50006
    30002708:	ed478793          	addi	a5,a5,-300 # 800085d8 <rt_thread_priority_table>
    3000270c:	00451513          	slli	a0,a0,0x4
    30002710:	00a78533          	add	a0,a5,a0
    30002714:	00053403          	ld	s0,0(a0)
    30002718:	fd840513          	addi	a0,s0,-40
    3000271c:	84a1b423          	sd	a0,-1976(gp) # 80004210 <rt_current_thread>
    30002720:	f3dff0ef          	jal	ra,3000265c <rt_schedule_remove_thread>
    30002724:	00300793          	li	a5,3
    30002728:	04f40023          	sb	a5,64(s0)
    3000272c:	01040513          	addi	a0,s0,16
    30002730:	00013403          	ld	s0,0(sp)
    30002734:	00813083          	ld	ra,8(sp)
    30002738:	01010113          	addi	sp,sp,16
    3000273c:	5b50206f          	j	300054f0 <rt_hw_context_switch_to>

0000000030002740 <rt_schedule>:
    30002740:	fc010113          	addi	sp,sp,-64
    30002744:	01313c23          	sd	s3,24(sp)
    30002748:	02113c23          	sd	ra,56(sp)
    3000274c:	02813823          	sd	s0,48(sp)
    30002750:	02913423          	sd	s1,40(sp)
    30002754:	03213023          	sd	s2,32(sp)
    30002758:	01413823          	sd	s4,16(sp)
    3000275c:	585020ef          	jal	ra,300054e0 <rt_hw_interrupt_disable>
    30002760:	85819783          	lh	a5,-1960(gp) # 80004220 <rt_scheduler_lock_nest>
    30002764:	00050993          	mv	s3,a0
    30002768:	0e079263          	bnez	a5,3000284c <rt_schedule+0x10c>
    3000276c:	8681a503          	lw	a0,-1944(gp) # 80004230 <rt_thread_ready_priority_group>
    30002770:	0c050e63          	beqz	a0,3000284c <rt_schedule+0x10c>
    30002774:	ca0ff0ef          	jal	ra,30001c14 <__rt_ffs>
    30002778:	84818913          	addi	s2,gp,-1976 # 80004210 <rt_current_thread>
    3000277c:	00093483          	ld	s1,0(s2)
    30002780:	fff5079b          	addiw	a5,a0,-1
    30002784:	00479693          	slli	a3,a5,0x4
    30002788:	50006717          	auipc	a4,0x50006
    3000278c:	e5070713          	addi	a4,a4,-432 # 800085d8 <rt_thread_priority_table>
    30002790:	00d70733          	add	a4,a4,a3
    30002794:	00073403          	ld	s0,0(a4)
    30002798:	0684c703          	lbu	a4,104(s1)
    3000279c:	00300693          	li	a3,3
    300027a0:	fd840413          	addi	s0,s0,-40
    300027a4:	00777613          	andi	a2,a4,7
    300027a8:	00000a13          	li	s4,0
    300027ac:	02d61663          	bne	a2,a3,300027d8 <rt_schedule+0x98>
    300027b0:	0694c683          	lbu	a3,105(s1)
    300027b4:	0af6ee63          	bltu	a3,a5,30002870 <rt_schedule+0x130>
    300027b8:	00100a13          	li	s4,1
    300027bc:	00f69a63          	bne	a3,a5,300027d0 <rt_schedule+0x90>
    300027c0:	00877693          	andi	a3,a4,8
    300027c4:	00069663          	bnez	a3,300027d0 <rt_schedule+0x90>
    300027c8:	00048413          	mv	s0,s1
    300027cc:	00000a13          	li	s4,0
    300027d0:	ff777713          	andi	a4,a4,-9
    300027d4:	06e48423          	sb	a4,104(s1)
    300027d8:	0a848663          	beq	s1,s0,30002884 <rt_schedule+0x144>
    300027dc:	84f18023          	sb	a5,-1984(gp) # 80004208 <rt_current_priority>
    300027e0:	00893023          	sd	s0,0(s2)
    300027e4:	8501b783          	ld	a5,-1968(gp) # 80004218 <rt_scheduler_hook>
    300027e8:	00078863          	beqz	a5,300027f8 <rt_schedule+0xb8>
    300027ec:	00040593          	mv	a1,s0
    300027f0:	00048513          	mv	a0,s1
    300027f4:	000780e7          	jalr	a5
    300027f8:	000a0663          	beqz	s4,30002804 <rt_schedule+0xc4>
    300027fc:	00048513          	mv	a0,s1
    30002800:	db9ff0ef          	jal	ra,300025b8 <rt_schedule_insert_thread>
    30002804:	00040513          	mv	a0,s0
    30002808:	e55ff0ef          	jal	ra,3000265c <rt_schedule_remove_thread>
    3000280c:	06844783          	lbu	a5,104(s0)
    30002810:	03848913          	addi	s2,s1,56
    30002814:	03840593          	addi	a1,s0,56
    30002818:	ff87f793          	andi	a5,a5,-8
    3000281c:	0037e793          	ori	a5,a5,3
    30002820:	06f40423          	sb	a5,104(s0)
    30002824:	8281c783          	lbu	a5,-2008(gp) # 800041f0 <rt_interrupt_nest>
    30002828:	04079863          	bnez	a5,30002878 <rt_schedule+0x138>
    3000282c:	8601b783          	ld	a5,-1952(gp) # 80004228 <rt_scheduler_switch_hook>
    30002830:	00078a63          	beqz	a5,30002844 <rt_schedule+0x104>
    30002834:	00048513          	mv	a0,s1
    30002838:	00b13423          	sd	a1,8(sp)
    3000283c:	000780e7          	jalr	a5
    30002840:	00813583          	ld	a1,8(sp)
    30002844:	00090513          	mv	a0,s2
    30002848:	4b9020ef          	jal	ra,30005500 <rt_hw_context_switch>
    3000284c:	03013403          	ld	s0,48(sp)
    30002850:	03813083          	ld	ra,56(sp)
    30002854:	02813483          	ld	s1,40(sp)
    30002858:	02013903          	ld	s2,32(sp)
    3000285c:	01013a03          	ld	s4,16(sp)
    30002860:	00098513          	mv	a0,s3
    30002864:	01813983          	ld	s3,24(sp)
    30002868:	04010113          	addi	sp,sp,64
    3000286c:	47d0206f          	j	300054e8 <rt_hw_interrupt_enable>
    30002870:	00048413          	mv	s0,s1
    30002874:	f5dff06f          	j	300027d0 <rt_schedule+0x90>
    30002878:	00090513          	mv	a0,s2
    3000287c:	5b4020ef          	jal	ra,30004e30 <rt_hw_context_switch_interrupt>
    30002880:	fcdff06f          	j	3000284c <rt_schedule+0x10c>
    30002884:	00048513          	mv	a0,s1
    30002888:	dd5ff0ef          	jal	ra,3000265c <rt_schedule_remove_thread>
    3000288c:	00093703          	ld	a4,0(s2)
    30002890:	06874783          	lbu	a5,104(a4)
    30002894:	ff87f793          	andi	a5,a5,-8
    30002898:	0037e793          	ori	a5,a5,3
    3000289c:	06f70423          	sb	a5,104(a4)
    300028a0:	fadff06f          	j	3000284c <rt_schedule+0x10c>

00000000300028a4 <rt_enter_critical>:
    300028a4:	ff010113          	addi	sp,sp,-16
    300028a8:	00113423          	sd	ra,8(sp)
    300028ac:	435020ef          	jal	ra,300054e0 <rt_hw_interrupt_disable>
    300028b0:	85818713          	addi	a4,gp,-1960 # 80004220 <rt_scheduler_lock_nest>
    300028b4:	00075783          	lhu	a5,0(a4)
    300028b8:	00813083          	ld	ra,8(sp)
    300028bc:	0017879b          	addiw	a5,a5,1
    300028c0:	00f71023          	sh	a5,0(a4)
    300028c4:	01010113          	addi	sp,sp,16
    300028c8:	4210206f          	j	300054e8 <rt_hw_interrupt_enable>

00000000300028cc <rt_exit_critical>:
    300028cc:	ff010113          	addi	sp,sp,-16
    300028d0:	00113423          	sd	ra,8(sp)
    300028d4:	40d020ef          	jal	ra,300054e0 <rt_hw_interrupt_disable>
    300028d8:	85818713          	addi	a4,gp,-1960 # 80004220 <rt_scheduler_lock_nest>
    300028dc:	00075783          	lhu	a5,0(a4)
    300028e0:	fff7879b          	addiw	a5,a5,-1
    300028e4:	0107979b          	slliw	a5,a5,0x10
    300028e8:	4107d79b          	sraiw	a5,a5,0x10
    300028ec:	00f71023          	sh	a5,0(a4)
    300028f0:	02f04063          	bgtz	a5,30002910 <rt_exit_critical+0x44>
    300028f4:	84019c23          	sh	zero,-1960(gp) # 80004220 <rt_scheduler_lock_nest>
    300028f8:	3f1020ef          	jal	ra,300054e8 <rt_hw_interrupt_enable>
    300028fc:	8481b783          	ld	a5,-1976(gp) # 80004210 <rt_current_thread>
    30002900:	00078e63          	beqz	a5,3000291c <rt_exit_critical+0x50>
    30002904:	00813083          	ld	ra,8(sp)
    30002908:	01010113          	addi	sp,sp,16
    3000290c:	e35ff06f          	j	30002740 <rt_schedule>
    30002910:	00813083          	ld	ra,8(sp)
    30002914:	01010113          	addi	sp,sp,16
    30002918:	3d10206f          	j	300054e8 <rt_hw_interrupt_enable>
    3000291c:	00813083          	ld	ra,8(sp)
    30002920:	01010113          	addi	sp,sp,16
    30002924:	00008067          	ret

0000000030002928 <_rt_thread_cleanup_execute>:
    30002928:	fe010113          	addi	sp,sp,-32
    3000292c:	00813823          	sd	s0,16(sp)
    30002930:	00913423          	sd	s1,8(sp)
    30002934:	00050413          	mv	s0,a0
    30002938:	00113c23          	sd	ra,24(sp)
    3000293c:	3a5020ef          	jal	ra,300054e0 <rt_hw_interrupt_disable>
    30002940:	0d843783          	ld	a5,216(s0)
    30002944:	00050493          	mv	s1,a0
    30002948:	00078663          	beqz	a5,30002954 <_rt_thread_cleanup_execute+0x2c>
    3000294c:	00040513          	mv	a0,s0
    30002950:	000780e7          	jalr	a5
    30002954:	01013403          	ld	s0,16(sp)
    30002958:	01813083          	ld	ra,24(sp)
    3000295c:	00048513          	mv	a0,s1
    30002960:	00813483          	ld	s1,8(sp)
    30002964:	02010113          	addi	sp,sp,32
    30002968:	3810206f          	j	300054e8 <rt_hw_interrupt_enable>

000000003000296c <_rt_thread_exit>:
    3000296c:	fe010113          	addi	sp,sp,-32
    30002970:	00113c23          	sd	ra,24(sp)
    30002974:	00813823          	sd	s0,16(sp)
    30002978:	00913423          	sd	s1,8(sp)
    3000297c:	8481b403          	ld	s0,-1976(gp) # 80004210 <rt_current_thread>
    30002980:	361020ef          	jal	ra,300054e0 <rt_hw_interrupt_disable>
    30002984:	00050493          	mv	s1,a0
    30002988:	00040513          	mv	a0,s0
    3000298c:	f9dff0ef          	jal	ra,30002928 <_rt_thread_cleanup_execute>
    30002990:	00040513          	mv	a0,s0
    30002994:	cc9ff0ef          	jal	ra,3000265c <rt_schedule_remove_thread>
    30002998:	00400793          	li	a5,4
    3000299c:	06f40423          	sb	a5,104(s0)
    300029a0:	08840513          	addi	a0,s0,136
    300029a4:	315000ef          	jal	ra,300034b8 <rt_timer_detach>
    300029a8:	00040513          	mv	a0,s0
    300029ac:	640010ef          	jal	ra,30003fec <rt_object_is_systemobject>
    300029b0:	00100793          	li	a5,1
    300029b4:	02f51463          	bne	a0,a5,300029dc <_rt_thread_exit+0x70>
    300029b8:	00040513          	mv	a0,s0
    300029bc:	414010ef          	jal	ra,30003dd0 <rt_object_detach>
    300029c0:	d81ff0ef          	jal	ra,30002740 <rt_schedule>
    300029c4:	01013403          	ld	s0,16(sp)
    300029c8:	01813083          	ld	ra,24(sp)
    300029cc:	00048513          	mv	a0,s1
    300029d0:	00813483          	ld	s1,8(sp)
    300029d4:	02010113          	addi	sp,sp,32
    300029d8:	3110206f          	j	300054e8 <rt_hw_interrupt_enable>
    300029dc:	00040513          	mv	a0,s0
    300029e0:	9ddff0ef          	jal	ra,300023bc <rt_thread_defunct_enqueue>
    300029e4:	fddff06f          	j	300029c0 <_rt_thread_exit+0x54>

00000000300029e8 <_rt_thread_init.isra.0>:
    300029e8:	fe010113          	addi	sp,sp,-32
    300029ec:	00813823          	sd	s0,16(sp)
    300029f0:	00050413          	mv	s0,a0
    300029f4:	00913423          	sd	s1,8(sp)
    300029f8:	04c43423          	sd	a2,72(s0)
    300029fc:	00078493          	mv	s1,a5
    30002a00:	02071613          	slli	a2,a4,0x20
    30002a04:	02840793          	addi	a5,s0,40
    30002a08:	00068513          	mv	a0,a3
    30002a0c:	02f43823          	sd	a5,48(s0)
    30002a10:	02f43423          	sd	a5,40(s0)
    30002a14:	04b43023          	sd	a1,64(s0)
    30002a18:	04d43823          	sd	a3,80(s0)
    30002a1c:	04e42c23          	sw	a4,88(s0)
    30002a20:	02065613          	srli	a2,a2,0x20
    30002a24:	02300593          	li	a1,35
    30002a28:	00113c23          	sd	ra,24(sp)
    30002a2c:	01213023          	sd	s2,0(sp)
    30002a30:	00080913          	mv	s2,a6
    30002a34:	efcfe0ef          	jal	ra,30001130 <rt_memset>
    30002a38:	05846783          	lwu	a5,88(s0)
    30002a3c:	05043603          	ld	a2,80(s0)
    30002a40:	04843583          	ld	a1,72(s0)
    30002a44:	04043503          	ld	a0,64(s0)
    30002a48:	ff878793          	addi	a5,a5,-8
    30002a4c:	00f60633          	add	a2,a2,a5
    30002a50:	00000697          	auipc	a3,0x0
    30002a54:	f1c68693          	addi	a3,a3,-228 # 3000296c <_rt_thread_exit>
    30002a58:	380020ef          	jal	ra,30004dd8 <rt_hw_stack_init>
    30002a5c:	02a43c23          	sd	a0,56(s0)
    30002a60:	01f00793          	li	a5,31
    30002a64:	0097fe63          	bgeu	a5,s1,30002a80 <_rt_thread_init.isra.0+0x98>
    30002a68:	0ae00613          	li	a2,174
    30002a6c:	4fffe597          	auipc	a1,0x4fffe
    30002a70:	43c58593          	addi	a1,a1,1084 # 80000ea8 <__FUNCTION__.2648>
    30002a74:	4fffe517          	auipc	a0,0x4fffe
    30002a78:	2a450513          	addi	a0,a0,676 # 80000d18 <__FUNCTION__.2669+0x20>
    30002a7c:	a1cff0ef          	jal	ra,30001c98 <rt_assert_handler>
    30002a80:	02091813          	slli	a6,s2,0x20
    30002a84:	02085813          	srli	a6,a6,0x20
    30002a88:	00000793          	li	a5,0
    30002a8c:	06940523          	sb	s1,106(s0)
    30002a90:	069404a3          	sb	s1,105(s0)
    30002a94:	06042623          	sw	zero,108(s0)
    30002a98:	07043c23          	sd	a6,120(s0)
    30002a9c:	09043023          	sd	a6,128(s0)
    30002aa0:	06043023          	sd	zero,96(s0)
    30002aa4:	06040423          	sb	zero,104(s0)
    30002aa8:	0c043c23          	sd	zero,216(s0)
    30002aac:	0e043023          	sd	zero,224(s0)
    30002ab0:	00000713          	li	a4,0
    30002ab4:	00040693          	mv	a3,s0
    30002ab8:	00000617          	auipc	a2,0x0
    30002abc:	04060613          	addi	a2,a2,64 # 30002af8 <rt_thread_timeout>
    30002ac0:	00040593          	mv	a1,s0
    30002ac4:	08840513          	addi	a0,s0,136
    30002ac8:	145000ef          	jal	ra,3000340c <rt_timer_init>
    30002acc:	8701b783          	ld	a5,-1936(gp) # 80004238 <rt_thread_inited_hook>
    30002ad0:	00078663          	beqz	a5,30002adc <_rt_thread_init.isra.0+0xf4>
    30002ad4:	00040513          	mv	a0,s0
    30002ad8:	000780e7          	jalr	a5
    30002adc:	01813083          	ld	ra,24(sp)
    30002ae0:	01013403          	ld	s0,16(sp)
    30002ae4:	00813483          	ld	s1,8(sp)
    30002ae8:	00013903          	ld	s2,0(sp)
    30002aec:	00000513          	li	a0,0
    30002af0:	02010113          	addi	sp,sp,32
    30002af4:	00008067          	ret

0000000030002af8 <rt_thread_timeout>:
    30002af8:	fe010113          	addi	sp,sp,-32
    30002afc:	00813823          	sd	s0,16(sp)
    30002b00:	00113c23          	sd	ra,24(sp)
    30002b04:	00913423          	sd	s1,8(sp)
    30002b08:	00050413          	mv	s0,a0
    30002b0c:	00051e63          	bnez	a0,30002b28 <rt_thread_timeout+0x30>
    30002b10:	37200613          	li	a2,882
    30002b14:	4fffe597          	auipc	a1,0x4fffe
    30002b18:	45458593          	addi	a1,a1,1108 # 80000f68 <__FUNCTION__.2747>
    30002b1c:	4fffe517          	auipc	a0,0x4fffe
    30002b20:	1a450513          	addi	a0,a0,420 # 80000cc0 <__FUNCTION__.2651+0x18>
    30002b24:	974ff0ef          	jal	ra,30001c98 <rt_assert_handler>
    30002b28:	06844783          	lbu	a5,104(s0)
    30002b2c:	00200713          	li	a4,2
    30002b30:	0077f793          	andi	a5,a5,7
    30002b34:	00e78e63          	beq	a5,a4,30002b50 <rt_thread_timeout+0x58>
    30002b38:	37300613          	li	a2,883
    30002b3c:	4fffe597          	auipc	a1,0x4fffe
    30002b40:	42c58593          	addi	a1,a1,1068 # 80000f68 <__FUNCTION__.2747>
    30002b44:	4fffe517          	auipc	a0,0x4fffe
    30002b48:	1fc50513          	addi	a0,a0,508 # 80000d40 <__FUNCTION__.2669+0x48>
    30002b4c:	94cff0ef          	jal	ra,30001c98 <rt_assert_handler>
    30002b50:	00040513          	mv	a0,s0
    30002b54:	4dc010ef          	jal	ra,30004030 <rt_object_get_type>
    30002b58:	00100793          	li	a5,1
    30002b5c:	00f50e63          	beq	a0,a5,30002b78 <rt_thread_timeout+0x80>
    30002b60:	37400613          	li	a2,884
    30002b64:	4fffe597          	auipc	a1,0x4fffe
    30002b68:	40458593          	addi	a1,a1,1028 # 80000f68 <__FUNCTION__.2747>
    30002b6c:	4fffe517          	auipc	a0,0x4fffe
    30002b70:	21450513          	addi	a0,a0,532 # 80000d80 <__FUNCTION__.2669+0x88>
    30002b74:	924ff0ef          	jal	ra,30001c98 <rt_assert_handler>
    30002b78:	169020ef          	jal	ra,300054e0 <rt_hw_interrupt_disable>
    30002b7c:	02843683          	ld	a3,40(s0)
    30002b80:	03043703          	ld	a4,48(s0)
    30002b84:	ffe00793          	li	a5,-2
    30002b88:	06f43023          	sd	a5,96(s0)
    30002b8c:	00e6b423          	sd	a4,8(a3)
    30002b90:	02840793          	addi	a5,s0,40
    30002b94:	00d73023          	sd	a3,0(a4)
    30002b98:	00050493          	mv	s1,a0
    30002b9c:	02f43823          	sd	a5,48(s0)
    30002ba0:	02f43423          	sd	a5,40(s0)
    30002ba4:	00040513          	mv	a0,s0
    30002ba8:	a11ff0ef          	jal	ra,300025b8 <rt_schedule_insert_thread>
    30002bac:	00048513          	mv	a0,s1
    30002bb0:	139020ef          	jal	ra,300054e8 <rt_hw_interrupt_enable>
    30002bb4:	01013403          	ld	s0,16(sp)
    30002bb8:	01813083          	ld	ra,24(sp)
    30002bbc:	00813483          	ld	s1,8(sp)
    30002bc0:	02010113          	addi	sp,sp,32
    30002bc4:	b7dff06f          	j	30002740 <rt_schedule>

0000000030002bc8 <rt_thread_init>:
    30002bc8:	fb010113          	addi	sp,sp,-80
    30002bcc:	04813023          	sd	s0,64(sp)
    30002bd0:	02913c23          	sd	s1,56(sp)
    30002bd4:	03213823          	sd	s2,48(sp)
    30002bd8:	03313423          	sd	s3,40(sp)
    30002bdc:	03413023          	sd	s4,32(sp)
    30002be0:	01513c23          	sd	s5,24(sp)
    30002be4:	01613823          	sd	s6,16(sp)
    30002be8:	01713423          	sd	s7,8(sp)
    30002bec:	04113423          	sd	ra,72(sp)
    30002bf0:	00050413          	mv	s0,a0
    30002bf4:	00058b93          	mv	s7,a1
    30002bf8:	00060913          	mv	s2,a2
    30002bfc:	00068993          	mv	s3,a3
    30002c00:	00070493          	mv	s1,a4
    30002c04:	00078a13          	mv	s4,a5
    30002c08:	00080a93          	mv	s5,a6
    30002c0c:	00088b13          	mv	s6,a7
    30002c10:	00051e63          	bnez	a0,30002c2c <rt_thread_init+0x64>
    30002c14:	10f00613          	li	a2,271
    30002c18:	4fffe597          	auipc	a1,0x4fffe
    30002c1c:	2a058593          	addi	a1,a1,672 # 80000eb8 <__FUNCTION__.2660>
    30002c20:	4fffe517          	auipc	a0,0x4fffe
    30002c24:	0a050513          	addi	a0,a0,160 # 80000cc0 <__FUNCTION__.2651+0x18>
    30002c28:	870ff0ef          	jal	ra,30001c98 <rt_assert_handler>
    30002c2c:	00049e63          	bnez	s1,30002c48 <rt_thread_init+0x80>
    30002c30:	11000613          	li	a2,272
    30002c34:	4fffe597          	auipc	a1,0x4fffe
    30002c38:	28458593          	addi	a1,a1,644 # 80000eb8 <__FUNCTION__.2660>
    30002c3c:	4fffe517          	auipc	a0,0x4fffe
    30002c40:	18c50513          	addi	a0,a0,396 # 80000dc8 <__FUNCTION__.2669+0xd0>
    30002c44:	854ff0ef          	jal	ra,30001c98 <rt_assert_handler>
    30002c48:	000b8613          	mv	a2,s7
    30002c4c:	00040513          	mv	a0,s0
    30002c50:	00100593          	li	a1,1
    30002c54:	06c010ef          	jal	ra,30003cc0 <rt_object_init>
    30002c58:	00040513          	mv	a0,s0
    30002c5c:	04013403          	ld	s0,64(sp)
    30002c60:	04813083          	ld	ra,72(sp)
    30002c64:	00813b83          	ld	s7,8(sp)
    30002c68:	000b0813          	mv	a6,s6
    30002c6c:	000a8793          	mv	a5,s5
    30002c70:	01013b03          	ld	s6,16(sp)
    30002c74:	01813a83          	ld	s5,24(sp)
    30002c78:	000a0713          	mv	a4,s4
    30002c7c:	00048693          	mv	a3,s1
    30002c80:	02013a03          	ld	s4,32(sp)
    30002c84:	03813483          	ld	s1,56(sp)
    30002c88:	00098613          	mv	a2,s3
    30002c8c:	00090593          	mv	a1,s2
    30002c90:	02813983          	ld	s3,40(sp)
    30002c94:	03013903          	ld	s2,48(sp)
    30002c98:	05010113          	addi	sp,sp,80
    30002c9c:	d4dff06f          	j	300029e8 <_rt_thread_init.isra.0>

0000000030002ca0 <rt_thread_self>:
    30002ca0:	8481b503          	ld	a0,-1976(gp) # 80004210 <rt_current_thread>
    30002ca4:	00008067          	ret

0000000030002ca8 <rt_thread_detach>:
    30002ca8:	fe010113          	addi	sp,sp,-32
    30002cac:	00813823          	sd	s0,16(sp)
    30002cb0:	00113c23          	sd	ra,24(sp)
    30002cb4:	00913423          	sd	s1,8(sp)
    30002cb8:	00050413          	mv	s0,a0
    30002cbc:	00051e63          	bnez	a0,30002cd8 <rt_thread_detach+0x30>
    30002cc0:	16e00613          	li	a2,366
    30002cc4:	4fffe597          	auipc	a1,0x4fffe
    30002cc8:	21c58593          	addi	a1,a1,540 # 80000ee0 <__FUNCTION__.2674>
    30002ccc:	4fffe517          	auipc	a0,0x4fffe
    30002cd0:	ff450513          	addi	a0,a0,-12 # 80000cc0 <__FUNCTION__.2651+0x18>
    30002cd4:	fc5fe0ef          	jal	ra,30001c98 <rt_assert_handler>
    30002cd8:	00040513          	mv	a0,s0
    30002cdc:	354010ef          	jal	ra,30004030 <rt_object_get_type>
    30002ce0:	00100793          	li	a5,1
    30002ce4:	00f50e63          	beq	a0,a5,30002d00 <rt_thread_detach+0x58>
    30002ce8:	16f00613          	li	a2,367
    30002cec:	4fffe597          	auipc	a1,0x4fffe
    30002cf0:	1f458593          	addi	a1,a1,500 # 80000ee0 <__FUNCTION__.2674>
    30002cf4:	4fffe517          	auipc	a0,0x4fffe
    30002cf8:	08c50513          	addi	a0,a0,140 # 80000d80 <__FUNCTION__.2669+0x88>
    30002cfc:	f9dfe0ef          	jal	ra,30001c98 <rt_assert_handler>
    30002d00:	00040513          	mv	a0,s0
    30002d04:	2e8010ef          	jal	ra,30003fec <rt_object_is_systemobject>
    30002d08:	00051e63          	bnez	a0,30002d24 <rt_thread_detach+0x7c>
    30002d0c:	17000613          	li	a2,368
    30002d10:	4fffe597          	auipc	a1,0x4fffe
    30002d14:	1d058593          	addi	a1,a1,464 # 80000ee0 <__FUNCTION__.2674>
    30002d18:	4fffe517          	auipc	a0,0x4fffe
    30002d1c:	0c850513          	addi	a0,a0,200 # 80000de0 <__FUNCTION__.2669+0xe8>
    30002d20:	f79fe0ef          	jal	ra,30001c98 <rt_assert_handler>
    30002d24:	06844783          	lbu	a5,104(s0)
    30002d28:	00400713          	li	a4,4
    30002d2c:	0077f793          	andi	a5,a5,7
    30002d30:	04e78063          	beq	a5,a4,30002d70 <rt_thread_detach+0xc8>
    30002d34:	00078663          	beqz	a5,30002d40 <rt_thread_detach+0x98>
    30002d38:	00040513          	mv	a0,s0
    30002d3c:	921ff0ef          	jal	ra,3000265c <rt_schedule_remove_thread>
    30002d40:	00040513          	mv	a0,s0
    30002d44:	be5ff0ef          	jal	ra,30002928 <_rt_thread_cleanup_execute>
    30002d48:	08840513          	addi	a0,s0,136
    30002d4c:	76c000ef          	jal	ra,300034b8 <rt_timer_detach>
    30002d50:	00400793          	li	a5,4
    30002d54:	06f40423          	sb	a5,104(s0)
    30002d58:	00040513          	mv	a0,s0
    30002d5c:	290010ef          	jal	ra,30003fec <rt_object_is_systemobject>
    30002d60:	00100793          	li	a5,1
    30002d64:	02f51263          	bne	a0,a5,30002d88 <rt_thread_detach+0xe0>
    30002d68:	00040513          	mv	a0,s0
    30002d6c:	064010ef          	jal	ra,30003dd0 <rt_object_detach>
    30002d70:	01813083          	ld	ra,24(sp)
    30002d74:	01013403          	ld	s0,16(sp)
    30002d78:	00813483          	ld	s1,8(sp)
    30002d7c:	00000513          	li	a0,0
    30002d80:	02010113          	addi	sp,sp,32
    30002d84:	00008067          	ret
    30002d88:	758020ef          	jal	ra,300054e0 <rt_hw_interrupt_disable>
    30002d8c:	00050493          	mv	s1,a0
    30002d90:	00040513          	mv	a0,s0
    30002d94:	e28ff0ef          	jal	ra,300023bc <rt_thread_defunct_enqueue>
    30002d98:	00048513          	mv	a0,s1
    30002d9c:	74c020ef          	jal	ra,300054e8 <rt_hw_interrupt_enable>
    30002da0:	fd1ff06f          	j	30002d70 <rt_thread_detach+0xc8>

0000000030002da4 <rt_thread_create>:
    30002da4:	fc010113          	addi	sp,sp,-64
    30002da8:	03213023          	sd	s2,32(sp)
    30002dac:	00058913          	mv	s2,a1
    30002db0:	00050593          	mv	a1,a0
    30002db4:	00100513          	li	a0,1
    30002db8:	02813823          	sd	s0,48(sp)
    30002dbc:	02913423          	sd	s1,40(sp)
    30002dc0:	01313c23          	sd	s3,24(sp)
    30002dc4:	01413823          	sd	s4,16(sp)
    30002dc8:	01513423          	sd	s5,8(sp)
    30002dcc:	02113c23          	sd	ra,56(sp)
    30002dd0:	00060993          	mv	s3,a2
    30002dd4:	00068493          	mv	s1,a3
    30002dd8:	00070a13          	mv	s4,a4
    30002ddc:	00078a93          	mv	s5,a5
    30002de0:	060010ef          	jal	ra,30003e40 <rt_object_allocate>
    30002de4:	00050413          	mv	s0,a0
    30002de8:	02050263          	beqz	a0,30002e0c <rt_thread_create+0x68>
    30002dec:	02049513          	slli	a0,s1,0x20
    30002df0:	02055513          	srli	a0,a0,0x20
    30002df4:	0d1010ef          	jal	ra,300046c4 <rt_malloc>
    30002df8:	00050693          	mv	a3,a0
    30002dfc:	02051c63          	bnez	a0,30002e34 <rt_thread_create+0x90>
    30002e00:	00040513          	mv	a0,s0
    30002e04:	150010ef          	jal	ra,30003f54 <rt_object_delete>
    30002e08:	00000413          	li	s0,0
    30002e0c:	03813083          	ld	ra,56(sp)
    30002e10:	00040513          	mv	a0,s0
    30002e14:	03013403          	ld	s0,48(sp)
    30002e18:	02813483          	ld	s1,40(sp)
    30002e1c:	02013903          	ld	s2,32(sp)
    30002e20:	01813983          	ld	s3,24(sp)
    30002e24:	01013a03          	ld	s4,16(sp)
    30002e28:	00813a83          	ld	s5,8(sp)
    30002e2c:	04010113          	addi	sp,sp,64
    30002e30:	00008067          	ret
    30002e34:	000a8813          	mv	a6,s5
    30002e38:	000a0793          	mv	a5,s4
    30002e3c:	00048713          	mv	a4,s1
    30002e40:	00098613          	mv	a2,s3
    30002e44:	00090593          	mv	a1,s2
    30002e48:	00040513          	mv	a0,s0
    30002e4c:	b9dff0ef          	jal	ra,300029e8 <_rt_thread_init.isra.0>
    30002e50:	fbdff06f          	j	30002e0c <rt_thread_create+0x68>

0000000030002e54 <rt_thread_delete>:
    30002e54:	fe010113          	addi	sp,sp,-32
    30002e58:	00813823          	sd	s0,16(sp)
    30002e5c:	00113c23          	sd	ra,24(sp)
    30002e60:	00913423          	sd	s1,8(sp)
    30002e64:	00050413          	mv	s0,a0
    30002e68:	00051e63          	bnez	a0,30002e84 <rt_thread_delete+0x30>
    30002e6c:	1d500613          	li	a2,469
    30002e70:	4fffe597          	auipc	a1,0x4fffe
    30002e74:	08858593          	addi	a1,a1,136 # 80000ef8 <__FUNCTION__.2690>
    30002e78:	4fffe517          	auipc	a0,0x4fffe
    30002e7c:	e4850513          	addi	a0,a0,-440 # 80000cc0 <__FUNCTION__.2651+0x18>
    30002e80:	e19fe0ef          	jal	ra,30001c98 <rt_assert_handler>
    30002e84:	00040513          	mv	a0,s0
    30002e88:	1a8010ef          	jal	ra,30004030 <rt_object_get_type>
    30002e8c:	00100793          	li	a5,1
    30002e90:	00f50e63          	beq	a0,a5,30002eac <rt_thread_delete+0x58>
    30002e94:	1d600613          	li	a2,470
    30002e98:	4fffe597          	auipc	a1,0x4fffe
    30002e9c:	06058593          	addi	a1,a1,96 # 80000ef8 <__FUNCTION__.2690>
    30002ea0:	4fffe517          	auipc	a0,0x4fffe
    30002ea4:	ee050513          	addi	a0,a0,-288 # 80000d80 <__FUNCTION__.2669+0x88>
    30002ea8:	df1fe0ef          	jal	ra,30001c98 <rt_assert_handler>
    30002eac:	00040513          	mv	a0,s0
    30002eb0:	13c010ef          	jal	ra,30003fec <rt_object_is_systemobject>
    30002eb4:	00050e63          	beqz	a0,30002ed0 <rt_thread_delete+0x7c>
    30002eb8:	1d700613          	li	a2,471
    30002ebc:	4fffe597          	auipc	a1,0x4fffe
    30002ec0:	03c58593          	addi	a1,a1,60 # 80000ef8 <__FUNCTION__.2690>
    30002ec4:	4fffe517          	auipc	a0,0x4fffe
    30002ec8:	f4c50513          	addi	a0,a0,-180 # 80000e10 <__FUNCTION__.2669+0x118>
    30002ecc:	dcdfe0ef          	jal	ra,30001c98 <rt_assert_handler>
    30002ed0:	06844783          	lbu	a5,104(s0)
    30002ed4:	00400713          	li	a4,4
    30002ed8:	0077f793          	andi	a5,a5,7
    30002edc:	04e78063          	beq	a5,a4,30002f1c <rt_thread_delete+0xc8>
    30002ee0:	00078663          	beqz	a5,30002eec <rt_thread_delete+0x98>
    30002ee4:	00040513          	mv	a0,s0
    30002ee8:	f74ff0ef          	jal	ra,3000265c <rt_schedule_remove_thread>
    30002eec:	00040513          	mv	a0,s0
    30002ef0:	a39ff0ef          	jal	ra,30002928 <_rt_thread_cleanup_execute>
    30002ef4:	08840513          	addi	a0,s0,136
    30002ef8:	5c0000ef          	jal	ra,300034b8 <rt_timer_detach>
    30002efc:	5e4020ef          	jal	ra,300054e0 <rt_hw_interrupt_disable>
    30002f00:	00400793          	li	a5,4
    30002f04:	00050493          	mv	s1,a0
    30002f08:	06f40423          	sb	a5,104(s0)
    30002f0c:	00040513          	mv	a0,s0
    30002f10:	cacff0ef          	jal	ra,300023bc <rt_thread_defunct_enqueue>
    30002f14:	00048513          	mv	a0,s1
    30002f18:	5d0020ef          	jal	ra,300054e8 <rt_hw_interrupt_enable>
    30002f1c:	01813083          	ld	ra,24(sp)
    30002f20:	01013403          	ld	s0,16(sp)
    30002f24:	00813483          	ld	s1,8(sp)
    30002f28:	00000513          	li	a0,0
    30002f2c:	02010113          	addi	sp,sp,32
    30002f30:	00008067          	ret

0000000030002f34 <rt_thread_suspend>:
    30002f34:	fe010113          	addi	sp,sp,-32
    30002f38:	00813823          	sd	s0,16(sp)
    30002f3c:	00113c23          	sd	ra,24(sp)
    30002f40:	00913423          	sd	s1,8(sp)
    30002f44:	01213023          	sd	s2,0(sp)
    30002f48:	00050413          	mv	s0,a0
    30002f4c:	00051e63          	bnez	a0,30002f68 <rt_thread_suspend+0x34>
    30002f50:	31400613          	li	a2,788
    30002f54:	4fffe597          	auipc	a1,0x4fffe
    30002f58:	fe458593          	addi	a1,a1,-28 # 80000f38 <__FUNCTION__.2736>
    30002f5c:	4fffe517          	auipc	a0,0x4fffe
    30002f60:	d6450513          	addi	a0,a0,-668 # 80000cc0 <__FUNCTION__.2651+0x18>
    30002f64:	d35fe0ef          	jal	ra,30001c98 <rt_assert_handler>
    30002f68:	00040513          	mv	a0,s0
    30002f6c:	0c4010ef          	jal	ra,30004030 <rt_object_get_type>
    30002f70:	00100793          	li	a5,1
    30002f74:	00f50e63          	beq	a0,a5,30002f90 <rt_thread_suspend+0x5c>
    30002f78:	31500613          	li	a2,789
    30002f7c:	4fffe597          	auipc	a1,0x4fffe
    30002f80:	fbc58593          	addi	a1,a1,-68 # 80000f38 <__FUNCTION__.2736>
    30002f84:	4fffe517          	auipc	a0,0x4fffe
    30002f88:	dfc50513          	addi	a0,a0,-516 # 80000d80 <__FUNCTION__.2669+0x88>
    30002f8c:	d0dfe0ef          	jal	ra,30001c98 <rt_assert_handler>
    30002f90:	06844783          	lbu	a5,104(s0)
    30002f94:	00100713          	li	a4,1
    30002f98:	fff00513          	li	a0,-1
    30002f9c:	0077f913          	andi	s2,a5,7
    30002fa0:	0057f793          	andi	a5,a5,5
    30002fa4:	06e79a63          	bne	a5,a4,30003018 <rt_thread_suspend+0xe4>
    30002fa8:	538020ef          	jal	ra,300054e0 <rt_hw_interrupt_disable>
    30002fac:	00300793          	li	a5,3
    30002fb0:	00050493          	mv	s1,a0
    30002fb4:	02f91263          	bne	s2,a5,30002fd8 <rt_thread_suspend+0xa4>
    30002fb8:	8481b783          	ld	a5,-1976(gp) # 80004210 <rt_current_thread>
    30002fbc:	00f40e63          	beq	s0,a5,30002fd8 <rt_thread_suspend+0xa4>
    30002fc0:	32600613          	li	a2,806
    30002fc4:	4fffe597          	auipc	a1,0x4fffe
    30002fc8:	f7458593          	addi	a1,a1,-140 # 80000f38 <__FUNCTION__.2736>
    30002fcc:	4fffe517          	auipc	a0,0x4fffe
    30002fd0:	e8450513          	addi	a0,a0,-380 # 80000e50 <__FUNCTION__.2669+0x158>
    30002fd4:	cc5fe0ef          	jal	ra,30001c98 <rt_assert_handler>
    30002fd8:	00040513          	mv	a0,s0
    30002fdc:	e80ff0ef          	jal	ra,3000265c <rt_schedule_remove_thread>
    30002fe0:	06844783          	lbu	a5,104(s0)
    30002fe4:	08840513          	addi	a0,s0,136
    30002fe8:	ff87f793          	andi	a5,a5,-8
    30002fec:	0027e793          	ori	a5,a5,2
    30002ff0:	06f40423          	sb	a5,104(s0)
    30002ff4:	714000ef          	jal	ra,30003708 <rt_timer_stop>
    30002ff8:	00048513          	mv	a0,s1
    30002ffc:	4ec020ef          	jal	ra,300054e8 <rt_hw_interrupt_enable>
    30003000:	8801b783          	ld	a5,-1920(gp) # 80004248 <rt_thread_suspend_hook>
    30003004:	00000513          	li	a0,0
    30003008:	00078863          	beqz	a5,30003018 <rt_thread_suspend+0xe4>
    3000300c:	00040513          	mv	a0,s0
    30003010:	000780e7          	jalr	a5
    30003014:	00000513          	li	a0,0
    30003018:	01813083          	ld	ra,24(sp)
    3000301c:	01013403          	ld	s0,16(sp)
    30003020:	00813483          	ld	s1,8(sp)
    30003024:	00013903          	ld	s2,0(sp)
    30003028:	02010113          	addi	sp,sp,32
    3000302c:	00008067          	ret

0000000030003030 <rt_thread_sleep>:
    30003030:	fd010113          	addi	sp,sp,-48
    30003034:	02813023          	sd	s0,32(sp)
    30003038:	02113423          	sd	ra,40(sp)
    3000303c:	00913c23          	sd	s1,24(sp)
    30003040:	01213823          	sd	s2,16(sp)
    30003044:	00a12623          	sw	a0,12(sp)
    30003048:	8481b403          	ld	s0,-1976(gp) # 80004210 <rt_current_thread>
    3000304c:	00041e63          	bnez	s0,30003068 <rt_thread_sleep+0x38>
    30003050:	21d00613          	li	a2,541
    30003054:	4fffe597          	auipc	a1,0x4fffe
    30003058:	ebc58593          	addi	a1,a1,-324 # 80000f10 <__FUNCTION__.2701>
    3000305c:	4fffe517          	auipc	a0,0x4fffe
    30003060:	c6450513          	addi	a0,a0,-924 # 80000cc0 <__FUNCTION__.2651+0x18>
    30003064:	c35fe0ef          	jal	ra,30001c98 <rt_assert_handler>
    30003068:	00040513          	mv	a0,s0
    3000306c:	7c5000ef          	jal	ra,30004030 <rt_object_get_type>
    30003070:	00100793          	li	a5,1
    30003074:	00f50e63          	beq	a0,a5,30003090 <rt_thread_sleep+0x60>
    30003078:	21e00613          	li	a2,542
    3000307c:	4fffe597          	auipc	a1,0x4fffe
    30003080:	e9458593          	addi	a1,a1,-364 # 80000f10 <__FUNCTION__.2701>
    30003084:	4fffe517          	auipc	a0,0x4fffe
    30003088:	cfc50513          	addi	a0,a0,-772 # 80000d80 <__FUNCTION__.2669+0x88>
    3000308c:	c0dfe0ef          	jal	ra,30001c98 <rt_assert_handler>
    30003090:	450020ef          	jal	ra,300054e0 <rt_hw_interrupt_disable>
    30003094:	00050913          	mv	s2,a0
    30003098:	00040513          	mv	a0,s0
    3000309c:	e99ff0ef          	jal	ra,30002f34 <rt_thread_suspend>
    300030a0:	08840493          	addi	s1,s0,136
    300030a4:	00c10613          	addi	a2,sp,12
    300030a8:	00000593          	li	a1,0
    300030ac:	00048513          	mv	a0,s1
    300030b0:	70c000ef          	jal	ra,300037bc <rt_timer_control>
    300030b4:	00048513          	mv	a0,s1
    300030b8:	4c0000ef          	jal	ra,30003578 <rt_timer_start>
    300030bc:	00090513          	mv	a0,s2
    300030c0:	428020ef          	jal	ra,300054e8 <rt_hw_interrupt_enable>
    300030c4:	e7cff0ef          	jal	ra,30002740 <rt_schedule>
    300030c8:	06043703          	ld	a4,96(s0)
    300030cc:	ffe00793          	li	a5,-2
    300030d0:	00f71463          	bne	a4,a5,300030d8 <rt_thread_sleep+0xa8>
    300030d4:	06043023          	sd	zero,96(s0)
    300030d8:	02813083          	ld	ra,40(sp)
    300030dc:	02013403          	ld	s0,32(sp)
    300030e0:	01813483          	ld	s1,24(sp)
    300030e4:	01013903          	ld	s2,16(sp)
    300030e8:	00000513          	li	a0,0
    300030ec:	03010113          	addi	sp,sp,48
    300030f0:	00008067          	ret

00000000300030f4 <rt_thread_delay>:
    300030f4:	f3dff06f          	j	30003030 <rt_thread_sleep>

00000000300030f8 <rt_thread_mdelay>:
    300030f8:	ff010113          	addi	sp,sp,-16
    300030fc:	00113423          	sd	ra,8(sp)
    30003100:	cf5fd0ef          	jal	ra,30000df4 <rt_tick_from_millisecond>
    30003104:	00813083          	ld	ra,8(sp)
    30003108:	0005051b          	sext.w	a0,a0
    3000310c:	01010113          	addi	sp,sp,16
    30003110:	f21ff06f          	j	30003030 <rt_thread_sleep>

0000000030003114 <rt_thread_resume>:
    30003114:	fe010113          	addi	sp,sp,-32
    30003118:	00813823          	sd	s0,16(sp)
    3000311c:	00113c23          	sd	ra,24(sp)
    30003120:	00913423          	sd	s1,8(sp)
    30003124:	00050413          	mv	s0,a0
    30003128:	00051e63          	bnez	a0,30003144 <rt_thread_resume+0x30>
    3000312c:	34400613          	li	a2,836
    30003130:	4fffe597          	auipc	a1,0x4fffe
    30003134:	e2058593          	addi	a1,a1,-480 # 80000f50 <__FUNCTION__.2741>
    30003138:	4fffe517          	auipc	a0,0x4fffe
    3000313c:	b8850513          	addi	a0,a0,-1144 # 80000cc0 <__FUNCTION__.2651+0x18>
    30003140:	b59fe0ef          	jal	ra,30001c98 <rt_assert_handler>
    30003144:	00040513          	mv	a0,s0
    30003148:	6e9000ef          	jal	ra,30004030 <rt_object_get_type>
    3000314c:	00100793          	li	a5,1
    30003150:	00f50e63          	beq	a0,a5,3000316c <rt_thread_resume+0x58>
    30003154:	34500613          	li	a2,837
    30003158:	4fffe597          	auipc	a1,0x4fffe
    3000315c:	df858593          	addi	a1,a1,-520 # 80000f50 <__FUNCTION__.2741>
    30003160:	4fffe517          	auipc	a0,0x4fffe
    30003164:	c2050513          	addi	a0,a0,-992 # 80000d80 <__FUNCTION__.2669+0x88>
    30003168:	b31fe0ef          	jal	ra,30001c98 <rt_assert_handler>
    3000316c:	06844783          	lbu	a5,104(s0)
    30003170:	00200713          	li	a4,2
    30003174:	fff00513          	li	a0,-1
    30003178:	0077f793          	andi	a5,a5,7
    3000317c:	04e79c63          	bne	a5,a4,300031d4 <rt_thread_resume+0xc0>
    30003180:	360020ef          	jal	ra,300054e0 <rt_hw_interrupt_disable>
    30003184:	02843683          	ld	a3,40(s0)
    30003188:	03043703          	ld	a4,48(s0)
    3000318c:	02840793          	addi	a5,s0,40
    30003190:	00050493          	mv	s1,a0
    30003194:	00e6b423          	sd	a4,8(a3)
    30003198:	00d73023          	sd	a3,0(a4)
    3000319c:	02f43823          	sd	a5,48(s0)
    300031a0:	02f43423          	sd	a5,40(s0)
    300031a4:	08840513          	addi	a0,s0,136
    300031a8:	560000ef          	jal	ra,30003708 <rt_timer_stop>
    300031ac:	00040513          	mv	a0,s0
    300031b0:	c08ff0ef          	jal	ra,300025b8 <rt_schedule_insert_thread>
    300031b4:	00048513          	mv	a0,s1
    300031b8:	330020ef          	jal	ra,300054e8 <rt_hw_interrupt_enable>
    300031bc:	8781b783          	ld	a5,-1928(gp) # 80004240 <rt_thread_resume_hook>
    300031c0:	00000513          	li	a0,0
    300031c4:	00078863          	beqz	a5,300031d4 <rt_thread_resume+0xc0>
    300031c8:	00040513          	mv	a0,s0
    300031cc:	000780e7          	jalr	a5
    300031d0:	00000513          	li	a0,0
    300031d4:	01813083          	ld	ra,24(sp)
    300031d8:	01013403          	ld	s0,16(sp)
    300031dc:	00813483          	ld	s1,8(sp)
    300031e0:	02010113          	addi	sp,sp,32
    300031e4:	00008067          	ret

00000000300031e8 <rt_thread_startup>:
    300031e8:	ff010113          	addi	sp,sp,-16
    300031ec:	00813023          	sd	s0,0(sp)
    300031f0:	00113423          	sd	ra,8(sp)
    300031f4:	00050413          	mv	s0,a0
    300031f8:	00051e63          	bnez	a0,30003214 <rt_thread_startup+0x2c>
    300031fc:	14100613          	li	a2,321
    30003200:	4fffe597          	auipc	a1,0x4fffe
    30003204:	cc858593          	addi	a1,a1,-824 # 80000ec8 <__FUNCTION__.2669>
    30003208:	4fffe517          	auipc	a0,0x4fffe
    3000320c:	ab850513          	addi	a0,a0,-1352 # 80000cc0 <__FUNCTION__.2651+0x18>
    30003210:	a89fe0ef          	jal	ra,30001c98 <rt_assert_handler>
    30003214:	06844783          	lbu	a5,104(s0)
    30003218:	0077f793          	andi	a5,a5,7
    3000321c:	00078e63          	beqz	a5,30003238 <rt_thread_startup+0x50>
    30003220:	14200613          	li	a2,322
    30003224:	4fffe597          	auipc	a1,0x4fffe
    30003228:	ca458593          	addi	a1,a1,-860 # 80000ec8 <__FUNCTION__.2669>
    3000322c:	4fffe517          	auipc	a0,0x4fffe
    30003230:	c4450513          	addi	a0,a0,-956 # 80000e70 <__FUNCTION__.2669+0x178>
    30003234:	a65fe0ef          	jal	ra,30001c98 <rt_assert_handler>
    30003238:	00040513          	mv	a0,s0
    3000323c:	5f5000ef          	jal	ra,30004030 <rt_object_get_type>
    30003240:	00100793          	li	a5,1
    30003244:	00f50e63          	beq	a0,a5,30003260 <rt_thread_startup+0x78>
    30003248:	14300613          	li	a2,323
    3000324c:	4fffe597          	auipc	a1,0x4fffe
    30003250:	c7c58593          	addi	a1,a1,-900 # 80000ec8 <__FUNCTION__.2669>
    30003254:	4fffe517          	auipc	a0,0x4fffe
    30003258:	b2c50513          	addi	a0,a0,-1236 # 80000d80 <__FUNCTION__.2669+0x88>
    3000325c:	a3dfe0ef          	jal	ra,30001c98 <rt_assert_handler>
    30003260:	06a44703          	lbu	a4,106(s0)
    30003264:	00100793          	li	a5,1
    30003268:	00040513          	mv	a0,s0
    3000326c:	00e797b3          	sll	a5,a5,a4
    30003270:	06f42623          	sw	a5,108(s0)
    30003274:	00200793          	li	a5,2
    30003278:	06f40423          	sb	a5,104(s0)
    3000327c:	06e404a3          	sb	a4,105(s0)
    30003280:	e95ff0ef          	jal	ra,30003114 <rt_thread_resume>
    30003284:	8481b783          	ld	a5,-1976(gp) # 80004210 <rt_current_thread>
    30003288:	00078463          	beqz	a5,30003290 <rt_thread_startup+0xa8>
    3000328c:	cb4ff0ef          	jal	ra,30002740 <rt_schedule>
    30003290:	00813083          	ld	ra,8(sp)
    30003294:	00013403          	ld	s0,0(sp)
    30003298:	00000513          	li	a0,0
    3000329c:	01010113          	addi	sp,sp,16
    300032a0:	00008067          	ret

00000000300032a4 <rt_thread_control>:
    300032a4:	fc010113          	addi	sp,sp,-64
    300032a8:	02813823          	sd	s0,48(sp)
    300032ac:	02913423          	sd	s1,40(sp)
    300032b0:	03213023          	sd	s2,32(sp)
    300032b4:	02113c23          	sd	ra,56(sp)
    300032b8:	01313c23          	sd	s3,24(sp)
    300032bc:	00050413          	mv	s0,a0
    300032c0:	00058493          	mv	s1,a1
    300032c4:	00060913          	mv	s2,a2
    300032c8:	00051e63          	bnez	a0,300032e4 <rt_thread_control+0x40>
    300032cc:	2a200613          	li	a2,674
    300032d0:	4fffe597          	auipc	a1,0x4fffe
    300032d4:	c5058593          	addi	a1,a1,-944 # 80000f20 <__FUNCTION__.2724>
    300032d8:	4fffe517          	auipc	a0,0x4fffe
    300032dc:	9e850513          	addi	a0,a0,-1560 # 80000cc0 <__FUNCTION__.2651+0x18>
    300032e0:	9b9fe0ef          	jal	ra,30001c98 <rt_assert_handler>
    300032e4:	00040513          	mv	a0,s0
    300032e8:	549000ef          	jal	ra,30004030 <rt_object_get_type>
    300032ec:	00100793          	li	a5,1
    300032f0:	00f50e63          	beq	a0,a5,3000330c <rt_thread_control+0x68>
    300032f4:	2a300613          	li	a2,675
    300032f8:	4fffe597          	auipc	a1,0x4fffe
    300032fc:	c2858593          	addi	a1,a1,-984 # 80000f20 <__FUNCTION__.2724>
    30003300:	4fffe517          	auipc	a0,0x4fffe
    30003304:	a8050513          	addi	a0,a0,-1408 # 80000d80 <__FUNCTION__.2669+0x88>
    30003308:	991fe0ef          	jal	ra,30001c98 <rt_assert_handler>
    3000330c:	00100993          	li	s3,1
    30003310:	0b348663          	beq	s1,s3,300033bc <rt_thread_control+0x118>
    30003314:	00200793          	li	a5,2
    30003318:	02f48463          	beq	s1,a5,30003340 <rt_thread_control+0x9c>
    3000331c:	08048063          	beqz	s1,3000339c <rt_thread_control+0xf8>
    30003320:	00000513          	li	a0,0
    30003324:	03813083          	ld	ra,56(sp)
    30003328:	03013403          	ld	s0,48(sp)
    3000332c:	02813483          	ld	s1,40(sp)
    30003330:	02013903          	ld	s2,32(sp)
    30003334:	01813983          	ld	s3,24(sp)
    30003338:	04010113          	addi	sp,sp,64
    3000333c:	00008067          	ret
    30003340:	1a0020ef          	jal	ra,300054e0 <rt_hw_interrupt_disable>
    30003344:	06844783          	lbu	a5,104(s0)
    30003348:	00050493          	mv	s1,a0
    3000334c:	0077f793          	andi	a5,a5,7
    30003350:	03379a63          	bne	a5,s3,30003384 <rt_thread_control+0xe0>
    30003354:	00040513          	mv	a0,s0
    30003358:	b04ff0ef          	jal	ra,3000265c <rt_schedule_remove_thread>
    3000335c:	00094703          	lbu	a4,0(s2)
    30003360:	00100793          	li	a5,1
    30003364:	00040513          	mv	a0,s0
    30003368:	00e797bb          	sllw	a5,a5,a4
    3000336c:	06e404a3          	sb	a4,105(s0)
    30003370:	06f42623          	sw	a5,108(s0)
    30003374:	a44ff0ef          	jal	ra,300025b8 <rt_schedule_insert_thread>
    30003378:	00048513          	mv	a0,s1
    3000337c:	16c020ef          	jal	ra,300054e8 <rt_hw_interrupt_enable>
    30003380:	fa1ff06f          	j	30003320 <rt_thread_control+0x7c>
    30003384:	00094703          	lbu	a4,0(s2)
    30003388:	00100793          	li	a5,1
    3000338c:	00e797bb          	sllw	a5,a5,a4
    30003390:	06e404a3          	sb	a4,105(s0)
    30003394:	06f42623          	sw	a5,108(s0)
    30003398:	fe1ff06f          	j	30003378 <rt_thread_control+0xd4>
    3000339c:	00040513          	mv	a0,s0
    300033a0:	03013403          	ld	s0,48(sp)
    300033a4:	03813083          	ld	ra,56(sp)
    300033a8:	02813483          	ld	s1,40(sp)
    300033ac:	02013903          	ld	s2,32(sp)
    300033b0:	01813983          	ld	s3,24(sp)
    300033b4:	04010113          	addi	sp,sp,64
    300033b8:	e31ff06f          	j	300031e8 <rt_thread_startup>
    300033bc:	00040513          	mv	a0,s0
    300033c0:	42d000ef          	jal	ra,30003fec <rt_object_is_systemobject>
    300033c4:	00951e63          	bne	a0,s1,300033e0 <rt_thread_control+0x13c>
    300033c8:	00040513          	mv	a0,s0
    300033cc:	8ddff0ef          	jal	ra,30002ca8 <rt_thread_detach>
    300033d0:	00a13423          	sd	a0,8(sp)
    300033d4:	b6cff0ef          	jal	ra,30002740 <rt_schedule>
    300033d8:	00813503          	ld	a0,8(sp)
    300033dc:	f49ff06f          	j	30003324 <rt_thread_control+0x80>
    300033e0:	00040513          	mv	a0,s0
    300033e4:	a71ff0ef          	jal	ra,30002e54 <rt_thread_delete>
    300033e8:	fe9ff06f          	j	300033d0 <rt_thread_control+0x12c>

00000000300033ec <_rt_timer_remove>:
    300033ec:	02853683          	ld	a3,40(a0)
    300033f0:	03053703          	ld	a4,48(a0)
    300033f4:	02850793          	addi	a5,a0,40
    300033f8:	00e6b423          	sd	a4,8(a3)
    300033fc:	00d73023          	sd	a3,0(a4)
    30003400:	02f53823          	sd	a5,48(a0)
    30003404:	02f53423          	sd	a5,40(a0)
    30003408:	00008067          	ret

000000003000340c <rt_timer_init>:
    3000340c:	fc010113          	addi	sp,sp,-64
    30003410:	02813823          	sd	s0,48(sp)
    30003414:	02913423          	sd	s1,40(sp)
    30003418:	03213023          	sd	s2,32(sp)
    3000341c:	01313c23          	sd	s3,24(sp)
    30003420:	01413823          	sd	s4,16(sp)
    30003424:	01513423          	sd	s5,8(sp)
    30003428:	02113c23          	sd	ra,56(sp)
    3000342c:	00050413          	mv	s0,a0
    30003430:	00058a93          	mv	s5,a1
    30003434:	00060a13          	mv	s4,a2
    30003438:	00068993          	mv	s3,a3
    3000343c:	00070913          	mv	s2,a4
    30003440:	00078493          	mv	s1,a5
    30003444:	00051e63          	bnez	a0,30003460 <rt_timer_init+0x54>
    30003448:	0c900613          	li	a2,201
    3000344c:	4fffe597          	auipc	a1,0x4fffe
    30003450:	bfc58593          	addi	a1,a1,-1028 # 80001048 <__FUNCTION__.2665>
    30003454:	4fffe517          	auipc	a0,0x4fffe
    30003458:	b2c50513          	addi	a0,a0,-1236 # 80000f80 <__FUNCTION__.2747+0x18>
    3000345c:	83dfe0ef          	jal	ra,30001c98 <rt_assert_handler>
    30003460:	000a8613          	mv	a2,s5
    30003464:	00040513          	mv	a0,s0
    30003468:	00a00593          	li	a1,10
    3000346c:	055000ef          	jal	ra,30003cc0 <rt_object_init>
    30003470:	02840793          	addi	a5,s0,40
    30003474:	ffe4f493          	andi	s1,s1,-2
    30003478:	00940aa3          	sb	s1,21(s0)
    3000347c:	03443c23          	sd	s4,56(s0)
    30003480:	05343023          	sd	s3,64(s0)
    30003484:	05242423          	sw	s2,72(s0)
    30003488:	03813083          	ld	ra,56(sp)
    3000348c:	04042623          	sw	zero,76(s0)
    30003490:	02f43823          	sd	a5,48(s0)
    30003494:	02f43423          	sd	a5,40(s0)
    30003498:	03013403          	ld	s0,48(sp)
    3000349c:	02813483          	ld	s1,40(sp)
    300034a0:	02013903          	ld	s2,32(sp)
    300034a4:	01813983          	ld	s3,24(sp)
    300034a8:	01013a03          	ld	s4,16(sp)
    300034ac:	00813a83          	ld	s5,8(sp)
    300034b0:	04010113          	addi	sp,sp,64
    300034b4:	00008067          	ret

00000000300034b8 <rt_timer_detach>:
    300034b8:	fe010113          	addi	sp,sp,-32
    300034bc:	00813823          	sd	s0,16(sp)
    300034c0:	00113c23          	sd	ra,24(sp)
    300034c4:	00913423          	sd	s1,8(sp)
    300034c8:	00050413          	mv	s0,a0
    300034cc:	00051e63          	bnez	a0,300034e8 <rt_timer_detach+0x30>
    300034d0:	0de00613          	li	a2,222
    300034d4:	4fffe597          	auipc	a1,0x4fffe
    300034d8:	b8458593          	addi	a1,a1,-1148 # 80001058 <__FUNCTION__.2670>
    300034dc:	4fffe517          	auipc	a0,0x4fffe
    300034e0:	aa450513          	addi	a0,a0,-1372 # 80000f80 <__FUNCTION__.2747+0x18>
    300034e4:	fb4fe0ef          	jal	ra,30001c98 <rt_assert_handler>
    300034e8:	00040513          	mv	a0,s0
    300034ec:	345000ef          	jal	ra,30004030 <rt_object_get_type>
    300034f0:	00a00793          	li	a5,10
    300034f4:	00f50e63          	beq	a0,a5,30003510 <rt_timer_detach+0x58>
    300034f8:	0df00613          	li	a2,223
    300034fc:	4fffe597          	auipc	a1,0x4fffe
    30003500:	b5c58593          	addi	a1,a1,-1188 # 80001058 <__FUNCTION__.2670>
    30003504:	4fffe517          	auipc	a0,0x4fffe
    30003508:	a9450513          	addi	a0,a0,-1388 # 80000f98 <__FUNCTION__.2747+0x30>
    3000350c:	f8cfe0ef          	jal	ra,30001c98 <rt_assert_handler>
    30003510:	00040513          	mv	a0,s0
    30003514:	2d9000ef          	jal	ra,30003fec <rt_object_is_systemobject>
    30003518:	00051e63          	bnez	a0,30003534 <rt_timer_detach+0x7c>
    3000351c:	0e000613          	li	a2,224
    30003520:	4fffe597          	auipc	a1,0x4fffe
    30003524:	b3858593          	addi	a1,a1,-1224 # 80001058 <__FUNCTION__.2670>
    30003528:	4fffe517          	auipc	a0,0x4fffe
    3000352c:	ab050513          	addi	a0,a0,-1360 # 80000fd8 <__FUNCTION__.2747+0x70>
    30003530:	f68fe0ef          	jal	ra,30001c98 <rt_assert_handler>
    30003534:	7ad010ef          	jal	ra,300054e0 <rt_hw_interrupt_disable>
    30003538:	00050493          	mv	s1,a0
    3000353c:	00040513          	mv	a0,s0
    30003540:	eadff0ef          	jal	ra,300033ec <_rt_timer_remove>
    30003544:	01544783          	lbu	a5,21(s0)
    30003548:	00048513          	mv	a0,s1
    3000354c:	ffe7f793          	andi	a5,a5,-2
    30003550:	00f40aa3          	sb	a5,21(s0)
    30003554:	795010ef          	jal	ra,300054e8 <rt_hw_interrupt_enable>
    30003558:	00040513          	mv	a0,s0
    3000355c:	075000ef          	jal	ra,30003dd0 <rt_object_detach>
    30003560:	01813083          	ld	ra,24(sp)
    30003564:	01013403          	ld	s0,16(sp)
    30003568:	00813483          	ld	s1,8(sp)
    3000356c:	00000513          	li	a0,0
    30003570:	02010113          	addi	sp,sp,32
    30003574:	00008067          	ret

0000000030003578 <rt_timer_start>:
    30003578:	fe010113          	addi	sp,sp,-32
    3000357c:	00813823          	sd	s0,16(sp)
    30003580:	00113c23          	sd	ra,24(sp)
    30003584:	00913423          	sd	s1,8(sp)
    30003588:	00050413          	mv	s0,a0
    3000358c:	00051e63          	bnez	a0,300035a8 <rt_timer_start+0x30>
    30003590:	14500613          	li	a2,325
    30003594:	4fffe597          	auipc	a1,0x4fffe
    30003598:	ad458593          	addi	a1,a1,-1324 # 80001068 <__FUNCTION__.2694>
    3000359c:	4fffe517          	auipc	a0,0x4fffe
    300035a0:	9e450513          	addi	a0,a0,-1564 # 80000f80 <__FUNCTION__.2747+0x18>
    300035a4:	ef4fe0ef          	jal	ra,30001c98 <rt_assert_handler>
    300035a8:	00040513          	mv	a0,s0
    300035ac:	285000ef          	jal	ra,30004030 <rt_object_get_type>
    300035b0:	00a00793          	li	a5,10
    300035b4:	00f50e63          	beq	a0,a5,300035d0 <rt_timer_start+0x58>
    300035b8:	14600613          	li	a2,326
    300035bc:	4fffe597          	auipc	a1,0x4fffe
    300035c0:	aac58593          	addi	a1,a1,-1364 # 80001068 <__FUNCTION__.2694>
    300035c4:	4fffe517          	auipc	a0,0x4fffe
    300035c8:	9d450513          	addi	a0,a0,-1580 # 80000f98 <__FUNCTION__.2747+0x30>
    300035cc:	eccfe0ef          	jal	ra,30001c98 <rt_assert_handler>
    300035d0:	711010ef          	jal	ra,300054e0 <rt_hw_interrupt_disable>
    300035d4:	00050493          	mv	s1,a0
    300035d8:	00040513          	mv	a0,s0
    300035dc:	e11ff0ef          	jal	ra,300033ec <_rt_timer_remove>
    300035e0:	01544783          	lbu	a5,21(s0)
    300035e4:	ffe7f793          	andi	a5,a5,-2
    300035e8:	00f40aa3          	sb	a5,21(s0)
    300035ec:	8b81b783          	ld	a5,-1864(gp) # 80004280 <rt_object_take_hook>
    300035f0:	00078663          	beqz	a5,300035fc <rt_timer_start+0x84>
    300035f4:	00040513          	mv	a0,s0
    300035f8:	000780e7          	jalr	a5
    300035fc:	04842703          	lw	a4,72(s0)
    30003600:	800007b7          	lui	a5,0x80000
    30003604:	ffe7c793          	xori	a5,a5,-2
    30003608:	00e7fe63          	bgeu	a5,a4,30003624 <rt_timer_start+0xac>
    3000360c:	15500613          	li	a2,341
    30003610:	4fffe597          	auipc	a1,0x4fffe
    30003614:	a5858593          	addi	a1,a1,-1448 # 80001068 <__FUNCTION__.2694>
    30003618:	4fffe517          	auipc	a0,0x4fffe
    3000361c:	9f050513          	addi	a0,a0,-1552 # 80001008 <__FUNCTION__.2747+0xa0>
    30003620:	e78fe0ef          	jal	ra,30001c98 <rt_assert_handler>
    30003624:	f58fd0ef          	jal	ra,30000d7c <rt_tick_get>
    30003628:	04842783          	lw	a5,72(s0)
    3000362c:	01544703          	lbu	a4,21(s0)
    30003630:	00a785bb          	addw	a1,a5,a0
    30003634:	04b42623          	sw	a1,76(s0)
    30003638:	00477713          	andi	a4,a4,4
    3000363c:	50005797          	auipc	a5,0x50005
    30003640:	19c78793          	addi	a5,a5,412 # 800087d8 <rt_soft_timer_list>
    30003644:	00071663          	bnez	a4,30003650 <rt_timer_start+0xd8>
    30003648:	50005797          	auipc	a5,0x50005
    3000364c:	1a078793          	addi	a5,a5,416 # 800087e8 <rt_timer_list>
    30003650:	0087b503          	ld	a0,8(a5)
    30003654:	80000637          	lui	a2,0x80000
    30003658:	ffe64613          	xori	a2,a2,-2
    3000365c:	0007b703          	ld	a4,0(a5)
    30003660:	08f51863          	bne	a0,a5,300036f0 <rt_timer_start+0x178>
    30003664:	88818613          	addi	a2,gp,-1912 # 80004250 <random_nr.2693>
    30003668:	00062683          	lw	a3,0(a2) # ffffffff80000000 <__stack_start__+0xfffffffeff000000>
    3000366c:	00048513          	mv	a0,s1
    30003670:	0016869b          	addiw	a3,a3,1
    30003674:	00d62023          	sw	a3,0(a2)
    30003678:	02840693          	addi	a3,s0,40
    3000367c:	00d73423          	sd	a3,8(a4)
    30003680:	02e43423          	sd	a4,40(s0)
    30003684:	00d7b023          	sd	a3,0(a5)
    30003688:	02f43823          	sd	a5,48(s0)
    3000368c:	01544783          	lbu	a5,21(s0)
    30003690:	0017e793          	ori	a5,a5,1
    30003694:	00f40aa3          	sb	a5,21(s0)
    30003698:	651010ef          	jal	ra,300054e8 <rt_hw_interrupt_enable>
    3000369c:	01544783          	lbu	a5,21(s0)
    300036a0:	0047f793          	andi	a5,a5,4
    300036a4:	02078a63          	beqz	a5,300036d8 <rt_timer_start+0x160>
    300036a8:	50001717          	auipc	a4,0x50001
    300036ac:	b2074703          	lbu	a4,-1248(a4) # 800041c8 <soft_timer_status>
    300036b0:	00100793          	li	a5,1
    300036b4:	02f71263          	bne	a4,a5,300036d8 <rt_timer_start+0x160>
    300036b8:	50005517          	auipc	a0,0x50005
    300036bc:	14050513          	addi	a0,a0,320 # 800087f8 <timer_thread>
    300036c0:	06854783          	lbu	a5,104(a0)
    300036c4:	00200713          	li	a4,2
    300036c8:	0077f793          	andi	a5,a5,7
    300036cc:	00e79663          	bne	a5,a4,300036d8 <rt_timer_start+0x160>
    300036d0:	a45ff0ef          	jal	ra,30003114 <rt_thread_resume>
    300036d4:	86cff0ef          	jal	ra,30002740 <rt_schedule>
    300036d8:	01813083          	ld	ra,24(sp)
    300036dc:	01013403          	ld	s0,16(sp)
    300036e0:	00813483          	ld	s1,8(sp)
    300036e4:	00000513          	li	a0,0
    300036e8:	02010113          	addi	sp,sp,32
    300036ec:	00008067          	ret
    300036f0:	02472683          	lw	a3,36(a4)
    300036f4:	00d58663          	beq	a1,a3,30003700 <rt_timer_start+0x188>
    300036f8:	40b686bb          	subw	a3,a3,a1
    300036fc:	f6d674e3          	bgeu	a2,a3,30003664 <rt_timer_start+0xec>
    30003700:	00070793          	mv	a5,a4
    30003704:	f59ff06f          	j	3000365c <rt_timer_start+0xe4>

0000000030003708 <rt_timer_stop>:
    30003708:	fe010113          	addi	sp,sp,-32
    3000370c:	00813823          	sd	s0,16(sp)
    30003710:	00113c23          	sd	ra,24(sp)
    30003714:	00913423          	sd	s1,8(sp)
    30003718:	00050413          	mv	s0,a0
    3000371c:	00051e63          	bnez	a0,30003738 <rt_timer_stop+0x30>
    30003720:	1bb00613          	li	a2,443
    30003724:	4fffe597          	auipc	a1,0x4fffe
    30003728:	95458593          	addi	a1,a1,-1708 # 80001078 <__FUNCTION__.2711>
    3000372c:	4fffe517          	auipc	a0,0x4fffe
    30003730:	85450513          	addi	a0,a0,-1964 # 80000f80 <__FUNCTION__.2747+0x18>
    30003734:	d64fe0ef          	jal	ra,30001c98 <rt_assert_handler>
    30003738:	00040513          	mv	a0,s0
    3000373c:	0f5000ef          	jal	ra,30004030 <rt_object_get_type>
    30003740:	00a00793          	li	a5,10
    30003744:	00f50e63          	beq	a0,a5,30003760 <rt_timer_stop+0x58>
    30003748:	1bc00613          	li	a2,444
    3000374c:	4fffe597          	auipc	a1,0x4fffe
    30003750:	92c58593          	addi	a1,a1,-1748 # 80001078 <__FUNCTION__.2711>
    30003754:	4fffe517          	auipc	a0,0x4fffe
    30003758:	84450513          	addi	a0,a0,-1980 # 80000f98 <__FUNCTION__.2747+0x30>
    3000375c:	d3cfe0ef          	jal	ra,30001c98 <rt_assert_handler>
    30003760:	01544783          	lbu	a5,21(s0)
    30003764:	fff00513          	li	a0,-1
    30003768:	0017f793          	andi	a5,a5,1
    3000376c:	02078e63          	beqz	a5,300037a8 <rt_timer_stop+0xa0>
    30003770:	8b01b783          	ld	a5,-1872(gp) # 80004278 <rt_object_put_hook>
    30003774:	00078663          	beqz	a5,30003780 <rt_timer_stop+0x78>
    30003778:	00040513          	mv	a0,s0
    3000377c:	000780e7          	jalr	a5
    30003780:	561010ef          	jal	ra,300054e0 <rt_hw_interrupt_disable>
    30003784:	00050493          	mv	s1,a0
    30003788:	00040513          	mv	a0,s0
    3000378c:	c61ff0ef          	jal	ra,300033ec <_rt_timer_remove>
    30003790:	01544783          	lbu	a5,21(s0)
    30003794:	00048513          	mv	a0,s1
    30003798:	ffe7f793          	andi	a5,a5,-2
    3000379c:	00f40aa3          	sb	a5,21(s0)
    300037a0:	549010ef          	jal	ra,300054e8 <rt_hw_interrupt_enable>
    300037a4:	00000513          	li	a0,0
    300037a8:	01813083          	ld	ra,24(sp)
    300037ac:	01013403          	ld	s0,16(sp)
    300037b0:	00813483          	ld	s1,8(sp)
    300037b4:	02010113          	addi	sp,sp,32
    300037b8:	00008067          	ret

00000000300037bc <rt_timer_control>:
    300037bc:	fe010113          	addi	sp,sp,-32
    300037c0:	00813823          	sd	s0,16(sp)
    300037c4:	00913423          	sd	s1,8(sp)
    300037c8:	01213023          	sd	s2,0(sp)
    300037cc:	00113c23          	sd	ra,24(sp)
    300037d0:	00050413          	mv	s0,a0
    300037d4:	00058493          	mv	s1,a1
    300037d8:	00060913          	mv	s2,a2
    300037dc:	00051e63          	bnez	a0,300037f8 <rt_timer_control+0x3c>
    300037e0:	1df00613          	li	a2,479
    300037e4:	4fffe597          	auipc	a1,0x4fffe
    300037e8:	8a458593          	addi	a1,a1,-1884 # 80001088 <__FUNCTION__.2718>
    300037ec:	4fffd517          	auipc	a0,0x4fffd
    300037f0:	79450513          	addi	a0,a0,1940 # 80000f80 <__FUNCTION__.2747+0x18>
    300037f4:	ca4fe0ef          	jal	ra,30001c98 <rt_assert_handler>
    300037f8:	00040513          	mv	a0,s0
    300037fc:	035000ef          	jal	ra,30004030 <rt_object_get_type>
    30003800:	00a00793          	li	a5,10
    30003804:	00f50e63          	beq	a0,a5,30003820 <rt_timer_control+0x64>
    30003808:	1e000613          	li	a2,480
    3000380c:	4fffe597          	auipc	a1,0x4fffe
    30003810:	87c58593          	addi	a1,a1,-1924 # 80001088 <__FUNCTION__.2718>
    30003814:	4fffd517          	auipc	a0,0x4fffd
    30003818:	78450513          	addi	a0,a0,1924 # 80000f98 <__FUNCTION__.2747+0x30>
    3000381c:	c7cfe0ef          	jal	ra,30001c98 <rt_assert_handler>
    30003820:	4c1010ef          	jal	ra,300054e0 <rt_hw_interrupt_disable>
    30003824:	00400793          	li	a5,4
    30003828:	0297ea63          	bltu	a5,s1,3000385c <rt_timer_control+0xa0>
    3000382c:	4fffe717          	auipc	a4,0x4fffe
    30003830:	80070713          	addi	a4,a4,-2048 # 8000102c <__FUNCTION__.2747+0xc4>
    30003834:	00249493          	slli	s1,s1,0x2
    30003838:	00e484b3          	add	s1,s1,a4
    3000383c:	0004a783          	lw	a5,0(s1)
    30003840:	00e787b3          	add	a5,a5,a4
    30003844:	00078067          	jr	a5
    30003848:	04842783          	lw	a5,72(s0)
    3000384c:	00f92023          	sw	a5,0(s2)
    30003850:	00c0006f          	j	3000385c <rt_timer_control+0xa0>
    30003854:	00092783          	lw	a5,0(s2)
    30003858:	04f42423          	sw	a5,72(s0)
    3000385c:	48d010ef          	jal	ra,300054e8 <rt_hw_interrupt_enable>
    30003860:	01813083          	ld	ra,24(sp)
    30003864:	01013403          	ld	s0,16(sp)
    30003868:	00813483          	ld	s1,8(sp)
    3000386c:	00013903          	ld	s2,0(sp)
    30003870:	00000513          	li	a0,0
    30003874:	02010113          	addi	sp,sp,32
    30003878:	00008067          	ret
    3000387c:	01544783          	lbu	a5,21(s0)
    30003880:	ffd7f793          	andi	a5,a5,-3
    30003884:	00f40aa3          	sb	a5,21(s0)
    30003888:	fd5ff06f          	j	3000385c <rt_timer_control+0xa0>
    3000388c:	01544783          	lbu	a5,21(s0)
    30003890:	0027e793          	ori	a5,a5,2
    30003894:	ff1ff06f          	j	30003884 <rt_timer_control+0xc8>
    30003898:	01544783          	lbu	a5,21(s0)
    3000389c:	0017f793          	andi	a5,a5,1
    300038a0:	00078663          	beqz	a5,300038ac <rt_timer_control+0xf0>
    300038a4:	00100793          	li	a5,1
    300038a8:	fa5ff06f          	j	3000384c <rt_timer_control+0x90>
    300038ac:	00092023          	sw	zero,0(s2)
    300038b0:	fadff06f          	j	3000385c <rt_timer_control+0xa0>

00000000300038b4 <rt_timer_check>:
    300038b4:	f9010113          	addi	sp,sp,-112
    300038b8:	05213823          	sd	s2,80(sp)
    300038bc:	00010913          	mv	s2,sp
    300038c0:	06113423          	sd	ra,104(sp)
    300038c4:	04913c23          	sd	s1,88(sp)
    300038c8:	05413023          	sd	s4,64(sp)
    300038cc:	03513c23          	sd	s5,56(sp)
    300038d0:	03613823          	sd	s6,48(sp)
    300038d4:	03713423          	sd	s7,40(sp)
    300038d8:	03813023          	sd	s8,32(sp)
    300038dc:	01913c23          	sd	s9,24(sp)
    300038e0:	06813023          	sd	s0,96(sp)
    300038e4:	05313423          	sd	s3,72(sp)
    300038e8:	01213423          	sd	s2,8(sp)
    300038ec:	01213023          	sd	s2,0(sp)
    300038f0:	c8cfd0ef          	jal	ra,30000d7c <rt_tick_get>
    300038f4:	0005049b          	sext.w	s1,a0
    300038f8:	80000ab7          	lui	s5,0x80000
    300038fc:	3e5010ef          	jal	ra,300054e0 <rt_hw_interrupt_disable>
    30003900:	00050a13          	mv	s4,a0
    30003904:	50005b17          	auipc	s6,0x50005
    30003908:	ee4b0b13          	addi	s6,s6,-284 # 800087e8 <rt_timer_list>
    3000390c:	ffeaca93          	xori	s5,s5,-2
    30003910:	89018b93          	addi	s7,gp,-1904 # 80004258 <rt_timer_enter_hook>
    30003914:	89818c13          	addi	s8,gp,-1896 # 80004260 <rt_timer_exit_hook>
    30003918:	00300c93          	li	s9,3
    3000391c:	000b3403          	ld	s0,0(s6)
    30003920:	05641063          	bne	s0,s6,30003960 <rt_timer_check+0xac>
    30003924:	000a0513          	mv	a0,s4
    30003928:	3c1010ef          	jal	ra,300054e8 <rt_hw_interrupt_enable>
    3000392c:	06813083          	ld	ra,104(sp)
    30003930:	06013403          	ld	s0,96(sp)
    30003934:	05813483          	ld	s1,88(sp)
    30003938:	05013903          	ld	s2,80(sp)
    3000393c:	04813983          	ld	s3,72(sp)
    30003940:	04013a03          	ld	s4,64(sp)
    30003944:	03813a83          	ld	s5,56(sp)
    30003948:	03013b03          	ld	s6,48(sp)
    3000394c:	02813b83          	ld	s7,40(sp)
    30003950:	02013c03          	ld	s8,32(sp)
    30003954:	01813c83          	ld	s9,24(sp)
    30003958:	07010113          	addi	sp,sp,112
    3000395c:	00008067          	ret
    30003960:	02442503          	lw	a0,36(s0)
    30003964:	fd840993          	addi	s3,s0,-40
    30003968:	40a484bb          	subw	s1,s1,a0
    3000396c:	fa9aece3          	bltu	s5,s1,30003924 <rt_timer_check+0x70>
    30003970:	000bb783          	ld	a5,0(s7)
    30003974:	00078663          	beqz	a5,30003980 <rt_timer_check+0xcc>
    30003978:	00098513          	mv	a0,s3
    3000397c:	000780e7          	jalr	a5
    30003980:	00098513          	mv	a0,s3
    30003984:	a69ff0ef          	jal	ra,300033ec <_rt_timer_remove>
    30003988:	fed44783          	lbu	a5,-19(s0)
    3000398c:	0027f713          	andi	a4,a5,2
    30003990:	00071663          	bnez	a4,3000399c <rt_timer_check+0xe8>
    30003994:	ffe7f793          	andi	a5,a5,-2
    30003998:	fef406a3          	sb	a5,-19(s0)
    3000399c:	00013783          	ld	a5,0(sp)
    300039a0:	01843503          	ld	a0,24(s0)
    300039a4:	0087b423          	sd	s0,8(a5)
    300039a8:	00f43023          	sd	a5,0(s0)
    300039ac:	01043783          	ld	a5,16(s0)
    300039b0:	00813023          	sd	s0,0(sp)
    300039b4:	01243423          	sd	s2,8(s0)
    300039b8:	000780e7          	jalr	a5
    300039bc:	bc0fd0ef          	jal	ra,30000d7c <rt_tick_get>
    300039c0:	000c3783          	ld	a5,0(s8)
    300039c4:	0005049b          	sext.w	s1,a0
    300039c8:	00078663          	beqz	a5,300039d4 <rt_timer_check+0x120>
    300039cc:	00098513          	mv	a0,s3
    300039d0:	000780e7          	jalr	a5
    300039d4:	00013783          	ld	a5,0(sp)
    300039d8:	f52782e3          	beq	a5,s2,3000391c <rt_timer_check+0x68>
    300039dc:	00043703          	ld	a4,0(s0)
    300039e0:	00843783          	ld	a5,8(s0)
    300039e4:	00f73423          	sd	a5,8(a4)
    300039e8:	00e7b023          	sd	a4,0(a5)
    300039ec:	fed44783          	lbu	a5,-19(s0)
    300039f0:	00843423          	sd	s0,8(s0)
    300039f4:	00843023          	sd	s0,0(s0)
    300039f8:	0037f713          	andi	a4,a5,3
    300039fc:	f39710e3          	bne	a4,s9,3000391c <rt_timer_check+0x68>
    30003a00:	ffe7f793          	andi	a5,a5,-2
    30003a04:	fef406a3          	sb	a5,-19(s0)
    30003a08:	00098513          	mv	a0,s3
    30003a0c:	b6dff0ef          	jal	ra,30003578 <rt_timer_start>
    30003a10:	f0dff06f          	j	3000391c <rt_timer_check+0x68>

0000000030003a14 <rt_soft_timer_check>:
    30003a14:	f9010113          	addi	sp,sp,-112
    30003a18:	05213823          	sd	s2,80(sp)
    30003a1c:	00010913          	mv	s2,sp
    30003a20:	04913c23          	sd	s1,88(sp)
    30003a24:	05413023          	sd	s4,64(sp)
    30003a28:	03513c23          	sd	s5,56(sp)
    30003a2c:	03613823          	sd	s6,48(sp)
    30003a30:	03713423          	sd	s7,40(sp)
    30003a34:	03813023          	sd	s8,32(sp)
    30003a38:	01913c23          	sd	s9,24(sp)
    30003a3c:	01a13823          	sd	s10,16(sp)
    30003a40:	06113423          	sd	ra,104(sp)
    30003a44:	06813023          	sd	s0,96(sp)
    30003a48:	05313423          	sd	s3,72(sp)
    30003a4c:	01213423          	sd	s2,8(sp)
    30003a50:	01213023          	sd	s2,0(sp)
    30003a54:	80000a37          	lui	s4,0x80000
    30003a58:	289010ef          	jal	ra,300054e0 <rt_hw_interrupt_disable>
    30003a5c:	00050493          	mv	s1,a0
    30003a60:	50005a97          	auipc	s5,0x50005
    30003a64:	d78a8a93          	addi	s5,s5,-648 # 800087d8 <rt_soft_timer_list>
    30003a68:	ffea4a13          	xori	s4,s4,-2
    30003a6c:	89018b13          	addi	s6,gp,-1904 # 80004258 <rt_timer_enter_hook>
    30003a70:	89818b93          	addi	s7,gp,-1896 # 80004260 <rt_timer_exit_hook>
    30003a74:	50000c17          	auipc	s8,0x50000
    30003a78:	754c0c13          	addi	s8,s8,1876 # 800041c8 <soft_timer_status>
    30003a7c:	00100c93          	li	s9,1
    30003a80:	00300d13          	li	s10,3
    30003a84:	000ab403          	ld	s0,0(s5)
    30003a88:	01540c63          	beq	s0,s5,30003aa0 <rt_soft_timer_check+0x8c>
    30003a8c:	af0fd0ef          	jal	ra,30000d7c <rt_tick_get>
    30003a90:	02442783          	lw	a5,36(s0)
    30003a94:	fd840993          	addi	s3,s0,-40
    30003a98:	40f5053b          	subw	a0,a0,a5
    30003a9c:	04aa7263          	bgeu	s4,a0,30003ae0 <rt_soft_timer_check+0xcc>
    30003aa0:	00048513          	mv	a0,s1
    30003aa4:	245010ef          	jal	ra,300054e8 <rt_hw_interrupt_enable>
    30003aa8:	06813083          	ld	ra,104(sp)
    30003aac:	06013403          	ld	s0,96(sp)
    30003ab0:	05813483          	ld	s1,88(sp)
    30003ab4:	05013903          	ld	s2,80(sp)
    30003ab8:	04813983          	ld	s3,72(sp)
    30003abc:	04013a03          	ld	s4,64(sp)
    30003ac0:	03813a83          	ld	s5,56(sp)
    30003ac4:	03013b03          	ld	s6,48(sp)
    30003ac8:	02813b83          	ld	s7,40(sp)
    30003acc:	02013c03          	ld	s8,32(sp)
    30003ad0:	01813c83          	ld	s9,24(sp)
    30003ad4:	01013d03          	ld	s10,16(sp)
    30003ad8:	07010113          	addi	sp,sp,112
    30003adc:	00008067          	ret
    30003ae0:	000b3783          	ld	a5,0(s6)
    30003ae4:	00078663          	beqz	a5,30003af0 <rt_soft_timer_check+0xdc>
    30003ae8:	00098513          	mv	a0,s3
    30003aec:	000780e7          	jalr	a5
    30003af0:	00098513          	mv	a0,s3
    30003af4:	8f9ff0ef          	jal	ra,300033ec <_rt_timer_remove>
    30003af8:	fed44783          	lbu	a5,-19(s0)
    30003afc:	0027f713          	andi	a4,a5,2
    30003b00:	00071663          	bnez	a4,30003b0c <rt_soft_timer_check+0xf8>
    30003b04:	ffe7f793          	andi	a5,a5,-2
    30003b08:	fef406a3          	sb	a5,-19(s0)
    30003b0c:	00013783          	ld	a5,0(sp)
    30003b10:	00048513          	mv	a0,s1
    30003b14:	0087b423          	sd	s0,8(a5)
    30003b18:	00f43023          	sd	a5,0(s0)
    30003b1c:	01243423          	sd	s2,8(s0)
    30003b20:	50000797          	auipc	a5,0x50000
    30003b24:	6a078423          	sb	zero,1704(a5) # 800041c8 <soft_timer_status>
    30003b28:	00813023          	sd	s0,0(sp)
    30003b2c:	1bd010ef          	jal	ra,300054e8 <rt_hw_interrupt_enable>
    30003b30:	01043783          	ld	a5,16(s0)
    30003b34:	01843503          	ld	a0,24(s0)
    30003b38:	000780e7          	jalr	a5
    30003b3c:	000bb783          	ld	a5,0(s7)
    30003b40:	00078663          	beqz	a5,30003b4c <rt_soft_timer_check+0x138>
    30003b44:	00098513          	mv	a0,s3
    30003b48:	000780e7          	jalr	a5
    30003b4c:	195010ef          	jal	ra,300054e0 <rt_hw_interrupt_disable>
    30003b50:	00013783          	ld	a5,0(sp)
    30003b54:	019c0023          	sb	s9,0(s8)
    30003b58:	00050493          	mv	s1,a0
    30003b5c:	f32784e3          	beq	a5,s2,30003a84 <rt_soft_timer_check+0x70>
    30003b60:	00043703          	ld	a4,0(s0)
    30003b64:	00843783          	ld	a5,8(s0)
    30003b68:	00f73423          	sd	a5,8(a4)
    30003b6c:	00e7b023          	sd	a4,0(a5)
    30003b70:	fed44783          	lbu	a5,-19(s0)
    30003b74:	00843423          	sd	s0,8(s0)
    30003b78:	00843023          	sd	s0,0(s0)
    30003b7c:	0037f713          	andi	a4,a5,3
    30003b80:	f1a712e3          	bne	a4,s10,30003a84 <rt_soft_timer_check+0x70>
    30003b84:	ffe7f793          	andi	a5,a5,-2
    30003b88:	fef406a3          	sb	a5,-19(s0)
    30003b8c:	00098513          	mv	a0,s3
    30003b90:	9e9ff0ef          	jal	ra,30003578 <rt_timer_start>
    30003b94:	ef1ff06f          	j	30003a84 <rt_soft_timer_check+0x70>

0000000030003b98 <rt_thread_timer_entry>:
    30003b98:	fd010113          	addi	sp,sp,-48
    30003b9c:	00913c23          	sd	s1,24(sp)
    30003ba0:	800004b7          	lui	s1,0x80000
    30003ba4:	01213823          	sd	s2,16(sp)
    30003ba8:	01313423          	sd	s3,8(sp)
    30003bac:	02113423          	sd	ra,40(sp)
    30003bb0:	02813023          	sd	s0,32(sp)
    30003bb4:	50005917          	auipc	s2,0x50005
    30003bb8:	c2490913          	addi	s2,s2,-988 # 800087d8 <rt_soft_timer_list>
    30003bbc:	fff00993          	li	s3,-1
    30003bc0:	ffe4c493          	xori	s1,s1,-2
    30003bc4:	11d010ef          	jal	ra,300054e0 <rt_hw_interrupt_disable>
    30003bc8:	00093783          	ld	a5,0(s2)
    30003bcc:	fff00413          	li	s0,-1
    30003bd0:	01278463          	beq	a5,s2,30003bd8 <rt_thread_timer_entry+0x40>
    30003bd4:	0247a403          	lw	s0,36(a5)
    30003bd8:	111010ef          	jal	ra,300054e8 <rt_hw_interrupt_enable>
    30003bdc:	01341c63          	bne	s0,s3,30003bf4 <rt_thread_timer_entry+0x5c>
    30003be0:	8c0ff0ef          	jal	ra,30002ca0 <rt_thread_self>
    30003be4:	b50ff0ef          	jal	ra,30002f34 <rt_thread_suspend>
    30003be8:	b59fe0ef          	jal	ra,30002740 <rt_schedule>
    30003bec:	e29ff0ef          	jal	ra,30003a14 <rt_soft_timer_check>
    30003bf0:	fd5ff06f          	j	30003bc4 <rt_thread_timer_entry+0x2c>
    30003bf4:	988fd0ef          	jal	ra,30000d7c <rt_tick_get>
    30003bf8:	40a4053b          	subw	a0,s0,a0
    30003bfc:	fea4e8e3          	bltu	s1,a0,30003bec <rt_thread_timer_entry+0x54>
    30003c00:	cf4ff0ef          	jal	ra,300030f4 <rt_thread_delay>
    30003c04:	fe9ff06f          	j	30003bec <rt_thread_timer_entry+0x54>

0000000030003c08 <rt_system_timer_init>:
    30003c08:	50005797          	auipc	a5,0x50005
    30003c0c:	be078793          	addi	a5,a5,-1056 # 800087e8 <rt_timer_list>
    30003c10:	00f7b423          	sd	a5,8(a5)
    30003c14:	00f7b023          	sd	a5,0(a5)
    30003c18:	00008067          	ret

0000000030003c1c <rt_system_timer_thread_init>:
    30003c1c:	ff010113          	addi	sp,sp,-16
    30003c20:	00813023          	sd	s0,0(sp)
    30003c24:	00113423          	sd	ra,8(sp)
    30003c28:	50005797          	auipc	a5,0x50005
    30003c2c:	bb078793          	addi	a5,a5,-1104 # 800087d8 <rt_soft_timer_list>
    30003c30:	50005417          	auipc	s0,0x50005
    30003c34:	bc840413          	addi	s0,s0,-1080 # 800087f8 <timer_thread>
    30003c38:	00f7b423          	sd	a5,8(a5)
    30003c3c:	00f7b023          	sd	a5,0(a5)
    30003c40:	00040513          	mv	a0,s0
    30003c44:	00a00893          	li	a7,10
    30003c48:	00400813          	li	a6,4
    30003c4c:	000047b7          	lui	a5,0x4
    30003c50:	50005717          	auipc	a4,0x50005
    30003c54:	c9070713          	addi	a4,a4,-880 # 800088e0 <timer_thread_stack>
    30003c58:	00000693          	li	a3,0
    30003c5c:	00000617          	auipc	a2,0x0
    30003c60:	f3c60613          	addi	a2,a2,-196 # 30003b98 <rt_thread_timer_entry>
    30003c64:	4fffd597          	auipc	a1,0x4fffd
    30003c68:	3dc58593          	addi	a1,a1,988 # 80001040 <__FUNCTION__.2747+0xd8>
    30003c6c:	f5dfe0ef          	jal	ra,30002bc8 <rt_thread_init>
    30003c70:	00040513          	mv	a0,s0
    30003c74:	00013403          	ld	s0,0(sp)
    30003c78:	00813083          	ld	ra,8(sp)
    30003c7c:	01010113          	addi	sp,sp,16
    30003c80:	d68ff06f          	j	300031e8 <rt_thread_startup>

0000000030003c84 <rt_object_get_information>:
    30003c84:	50000697          	auipc	a3,0x50000
    30003c88:	32468693          	addi	a3,a3,804 # 80003fa8 <rt_object_container>
    30003c8c:	00000793          	li	a5,0
    30003c90:	00068713          	mv	a4,a3
    30003c94:	00900613          	li	a2,9
    30003c98:	0006a583          	lw	a1,0(a3)
    30003c9c:	00a59863          	bne	a1,a0,30003cac <rt_object_get_information+0x28>
    30003ca0:	00579793          	slli	a5,a5,0x5
    30003ca4:	00f70533          	add	a0,a4,a5
    30003ca8:	00008067          	ret
    30003cac:	0017879b          	addiw	a5,a5,1 # 4001 <__stack_size+0x3801>
    30003cb0:	02068693          	addi	a3,a3,32
    30003cb4:	fec792e3          	bne	a5,a2,30003c98 <rt_object_get_information+0x14>
    30003cb8:	00000513          	li	a0,0
    30003cbc:	00008067          	ret

0000000030003cc0 <rt_object_init>:
    30003cc0:	fb010113          	addi	sp,sp,-80
    30003cc4:	04813023          	sd	s0,64(sp)
    30003cc8:	00050413          	mv	s0,a0
    30003ccc:	00058513          	mv	a0,a1
    30003cd0:	02913c23          	sd	s1,56(sp)
    30003cd4:	03213823          	sd	s2,48(sp)
    30003cd8:	03413023          	sd	s4,32(sp)
    30003cdc:	04113423          	sd	ra,72(sp)
    30003ce0:	03313423          	sd	s3,40(sp)
    30003ce4:	01513c23          	sd	s5,24(sp)
    30003ce8:	01613823          	sd	s6,16(sp)
    30003cec:	01713423          	sd	s7,8(sp)
    30003cf0:	00058913          	mv	s2,a1
    30003cf4:	00060a13          	mv	s4,a2
    30003cf8:	f8dff0ef          	jal	ra,30003c84 <rt_object_get_information>
    30003cfc:	00050493          	mv	s1,a0
    30003d00:	00051e63          	bnez	a0,30003d1c <rt_object_init+0x5c>
    30003d04:	13800613          	li	a2,312
    30003d08:	4fffd597          	auipc	a1,0x4fffd
    30003d0c:	40858593          	addi	a1,a1,1032 # 80001110 <__FUNCTION__.2690>
    30003d10:	4fffd517          	auipc	a0,0x4fffd
    30003d14:	39050513          	addi	a0,a0,912 # 800010a0 <__FUNCTION__.2718+0x18>
    30003d18:	f81fd0ef          	jal	ra,30001c98 <rt_assert_handler>
    30003d1c:	b89fe0ef          	jal	ra,300028a4 <rt_enter_critical>
    30003d20:	0084b983          	ld	s3,8(s1) # ffffffff80000008 <__stack_start__+0xfffffffeff000008>
    30003d24:	00848a93          	addi	s5,s1,8
    30003d28:	4fffdb17          	auipc	s6,0x4fffd
    30003d2c:	3e8b0b13          	addi	s6,s6,1000 # 80001110 <__FUNCTION__.2690>
    30003d30:	4fffdb97          	auipc	s7,0x4fffd
    30003d34:	388b8b93          	addi	s7,s7,904 # 800010b8 <__FUNCTION__.2718+0x30>
    30003d38:	07599c63          	bne	s3,s5,30003db0 <rt_object_init+0xf0>
    30003d3c:	b91fe0ef          	jal	ra,300028cc <rt_exit_critical>
    30003d40:	f8096913          	ori	s2,s2,-128
    30003d44:	01240a23          	sb	s2,20(s0)
    30003d48:	01400613          	li	a2,20
    30003d4c:	000a0593          	mv	a1,s4
    30003d50:	00040513          	mv	a0,s0
    30003d54:	e28fd0ef          	jal	ra,3000137c <rt_strncpy>
    30003d58:	8a01b783          	ld	a5,-1888(gp) # 80004268 <rt_object_attach_hook>
    30003d5c:	00078663          	beqz	a5,30003d68 <rt_object_init+0xa8>
    30003d60:	00040513          	mv	a0,s0
    30003d64:	000780e7          	jalr	a5
    30003d68:	778010ef          	jal	ra,300054e0 <rt_hw_interrupt_disable>
    30003d6c:	0084b703          	ld	a4,8(s1)
    30003d70:	01840793          	addi	a5,s0,24
    30003d74:	04813083          	ld	ra,72(sp)
    30003d78:	00f73423          	sd	a5,8(a4)
    30003d7c:	00e43c23          	sd	a4,24(s0)
    30003d80:	00f4b423          	sd	a5,8(s1)
    30003d84:	03343023          	sd	s3,32(s0)
    30003d88:	04013403          	ld	s0,64(sp)
    30003d8c:	03813483          	ld	s1,56(sp)
    30003d90:	03013903          	ld	s2,48(sp)
    30003d94:	02813983          	ld	s3,40(sp)
    30003d98:	02013a03          	ld	s4,32(sp)
    30003d9c:	01813a83          	ld	s5,24(sp)
    30003da0:	01013b03          	ld	s6,16(sp)
    30003da4:	00813b83          	ld	s7,8(sp)
    30003da8:	05010113          	addi	sp,sp,80
    30003dac:	73c0106f          	j	300054e8 <rt_hw_interrupt_enable>
    30003db0:	fe898793          	addi	a5,s3,-24
    30003db4:	00f41a63          	bne	s0,a5,30003dc8 <rt_object_init+0x108>
    30003db8:	14800613          	li	a2,328
    30003dbc:	000b0593          	mv	a1,s6
    30003dc0:	000b8513          	mv	a0,s7
    30003dc4:	ed5fd0ef          	jal	ra,30001c98 <rt_assert_handler>
    30003dc8:	0009b983          	ld	s3,0(s3)
    30003dcc:	f6dff06f          	j	30003d38 <rt_object_init+0x78>

0000000030003dd0 <rt_object_detach>:
    30003dd0:	ff010113          	addi	sp,sp,-16
    30003dd4:	00813023          	sd	s0,0(sp)
    30003dd8:	00113423          	sd	ra,8(sp)
    30003ddc:	00050413          	mv	s0,a0
    30003de0:	00051e63          	bnez	a0,30003dfc <rt_object_detach+0x2c>
    30003de4:	17500613          	li	a2,373
    30003de8:	4fffd597          	auipc	a1,0x4fffd
    30003dec:	33858593          	addi	a1,a1,824 # 80001120 <__FUNCTION__.2699>
    30003df0:	4fffd517          	auipc	a0,0x4fffd
    30003df4:	2d850513          	addi	a0,a0,728 # 800010c8 <__FUNCTION__.2718+0x40>
    30003df8:	ea1fd0ef          	jal	ra,30001c98 <rt_assert_handler>
    30003dfc:	8a81b783          	ld	a5,-1880(gp) # 80004270 <rt_object_detach_hook>
    30003e00:	00078663          	beqz	a5,30003e0c <rt_object_detach+0x3c>
    30003e04:	00040513          	mv	a0,s0
    30003e08:	000780e7          	jalr	a5
    30003e0c:	00040a23          	sb	zero,20(s0)
    30003e10:	6d0010ef          	jal	ra,300054e0 <rt_hw_interrupt_disable>
    30003e14:	01843683          	ld	a3,24(s0)
    30003e18:	02043703          	ld	a4,32(s0)
    30003e1c:	01840793          	addi	a5,s0,24
    30003e20:	00813083          	ld	ra,8(sp)
    30003e24:	00e6b423          	sd	a4,8(a3)
    30003e28:	00d73023          	sd	a3,0(a4)
    30003e2c:	02f43023          	sd	a5,32(s0)
    30003e30:	00f43c23          	sd	a5,24(s0)
    30003e34:	00013403          	ld	s0,0(sp)
    30003e38:	01010113          	addi	sp,sp,16
    30003e3c:	6ac0106f          	j	300054e8 <rt_hw_interrupt_enable>

0000000030003e40 <rt_object_allocate>:
    30003e40:	fd010113          	addi	sp,sp,-48
    30003e44:	02813023          	sd	s0,32(sp)
    30003e48:	01213823          	sd	s2,16(sp)
    30003e4c:	01313423          	sd	s3,8(sp)
    30003e50:	02113423          	sd	ra,40(sp)
    30003e54:	00913c23          	sd	s1,24(sp)
    30003e58:	00050913          	mv	s2,a0
    30003e5c:	00058993          	mv	s3,a1
    30003e60:	680010ef          	jal	ra,300054e0 <rt_hw_interrupt_disable>
    30003e64:	00050413          	mv	s0,a0
    30003e68:	830fd0ef          	jal	ra,30000e98 <rt_interrupt_get_nest>
    30003e6c:	02050863          	beqz	a0,30003e9c <rt_object_allocate+0x5c>
    30003e70:	4fffd597          	auipc	a1,0x4fffd
    30003e74:	2c858593          	addi	a1,a1,712 # 80001138 <__FUNCTION__.2708>
    30003e78:	4fffd517          	auipc	a0,0x4fffd
    30003e7c:	8e050513          	addi	a0,a0,-1824 # 80000758 <_uart_ops+0x118>
    30003e80:	c9dfd0ef          	jal	ra,30001b1c <rt_kprintf>
    30003e84:	19800613          	li	a2,408
    30003e88:	4fffd597          	auipc	a1,0x4fffd
    30003e8c:	2b058593          	addi	a1,a1,688 # 80001138 <__FUNCTION__.2708>
    30003e90:	4fffd517          	auipc	a0,0x4fffd
    30003e94:	82050513          	addi	a0,a0,-2016 # 800006b0 <_uart_ops+0x70>
    30003e98:	e01fd0ef          	jal	ra,30001c98 <rt_assert_handler>
    30003e9c:	00040513          	mv	a0,s0
    30003ea0:	648010ef          	jal	ra,300054e8 <rt_hw_interrupt_enable>
    30003ea4:	00090513          	mv	a0,s2
    30003ea8:	dddff0ef          	jal	ra,30003c84 <rt_object_get_information>
    30003eac:	00050493          	mv	s1,a0
    30003eb0:	00051e63          	bnez	a0,30003ecc <rt_object_allocate+0x8c>
    30003eb4:	19c00613          	li	a2,412
    30003eb8:	4fffd597          	auipc	a1,0x4fffd
    30003ebc:	28058593          	addi	a1,a1,640 # 80001138 <__FUNCTION__.2708>
    30003ec0:	4fffd517          	auipc	a0,0x4fffd
    30003ec4:	1e050513          	addi	a0,a0,480 # 800010a0 <__FUNCTION__.2718+0x18>
    30003ec8:	dd1fd0ef          	jal	ra,30001c98 <rt_assert_handler>
    30003ecc:	0184b503          	ld	a0,24(s1)
    30003ed0:	7f4000ef          	jal	ra,300046c4 <rt_malloc>
    30003ed4:	00050413          	mv	s0,a0
    30003ed8:	04050e63          	beqz	a0,30003f34 <rt_object_allocate+0xf4>
    30003edc:	0184b603          	ld	a2,24(s1)
    30003ee0:	00000593          	li	a1,0
    30003ee4:	a4cfd0ef          	jal	ra,30001130 <rt_memset>
    30003ee8:	01400613          	li	a2,20
    30003eec:	01240a23          	sb	s2,20(s0)
    30003ef0:	00040aa3          	sb	zero,21(s0)
    30003ef4:	00098593          	mv	a1,s3
    30003ef8:	00040513          	mv	a0,s0
    30003efc:	c80fd0ef          	jal	ra,3000137c <rt_strncpy>
    30003f00:	8a01b783          	ld	a5,-1888(gp) # 80004268 <rt_object_attach_hook>
    30003f04:	00078663          	beqz	a5,30003f10 <rt_object_allocate+0xd0>
    30003f08:	00040513          	mv	a0,s0
    30003f0c:	000780e7          	jalr	a5
    30003f10:	5d0010ef          	jal	ra,300054e0 <rt_hw_interrupt_disable>
    30003f14:	0084b703          	ld	a4,8(s1)
    30003f18:	01840793          	addi	a5,s0,24
    30003f1c:	00848493          	addi	s1,s1,8
    30003f20:	00f73423          	sd	a5,8(a4)
    30003f24:	00e43c23          	sd	a4,24(s0)
    30003f28:	00f4b023          	sd	a5,0(s1)
    30003f2c:	02943023          	sd	s1,32(s0)
    30003f30:	5b8010ef          	jal	ra,300054e8 <rt_hw_interrupt_enable>
    30003f34:	02813083          	ld	ra,40(sp)
    30003f38:	00040513          	mv	a0,s0
    30003f3c:	02013403          	ld	s0,32(sp)
    30003f40:	01813483          	ld	s1,24(sp)
    30003f44:	01013903          	ld	s2,16(sp)
    30003f48:	00813983          	ld	s3,8(sp)
    30003f4c:	03010113          	addi	sp,sp,48
    30003f50:	00008067          	ret

0000000030003f54 <rt_object_delete>:
    30003f54:	ff010113          	addi	sp,sp,-16
    30003f58:	00813023          	sd	s0,0(sp)
    30003f5c:	00113423          	sd	ra,8(sp)
    30003f60:	00050413          	mv	s0,a0
    30003f64:	00051e63          	bnez	a0,30003f80 <rt_object_delete+0x2c>
    30003f68:	1d600613          	li	a2,470
    30003f6c:	4fffd597          	auipc	a1,0x4fffd
    30003f70:	1e458593          	addi	a1,a1,484 # 80001150 <__FUNCTION__.2713>
    30003f74:	4fffd517          	auipc	a0,0x4fffd
    30003f78:	15450513          	addi	a0,a0,340 # 800010c8 <__FUNCTION__.2718+0x40>
    30003f7c:	d1dfd0ef          	jal	ra,30001c98 <rt_assert_handler>
    30003f80:	01440783          	lb	a5,20(s0)
    30003f84:	0007de63          	bgez	a5,30003fa0 <rt_object_delete+0x4c>
    30003f88:	1d700613          	li	a2,471
    30003f8c:	4fffd597          	auipc	a1,0x4fffd
    30003f90:	1c458593          	addi	a1,a1,452 # 80001150 <__FUNCTION__.2713>
    30003f94:	4fffd517          	auipc	a0,0x4fffd
    30003f98:	14c50513          	addi	a0,a0,332 # 800010e0 <__FUNCTION__.2718+0x58>
    30003f9c:	cfdfd0ef          	jal	ra,30001c98 <rt_assert_handler>
    30003fa0:	8a81b783          	ld	a5,-1880(gp) # 80004270 <rt_object_detach_hook>
    30003fa4:	00078663          	beqz	a5,30003fb0 <rt_object_delete+0x5c>
    30003fa8:	00040513          	mv	a0,s0
    30003fac:	000780e7          	jalr	a5
    30003fb0:	00040a23          	sb	zero,20(s0)
    30003fb4:	52c010ef          	jal	ra,300054e0 <rt_hw_interrupt_disable>
    30003fb8:	01843683          	ld	a3,24(s0)
    30003fbc:	02043703          	ld	a4,32(s0)
    30003fc0:	01840793          	addi	a5,s0,24
    30003fc4:	00e6b423          	sd	a4,8(a3)
    30003fc8:	00d73023          	sd	a3,0(a4)
    30003fcc:	02f43023          	sd	a5,32(s0)
    30003fd0:	00f43c23          	sd	a5,24(s0)
    30003fd4:	514010ef          	jal	ra,300054e8 <rt_hw_interrupt_enable>
    30003fd8:	00040513          	mv	a0,s0
    30003fdc:	00013403          	ld	s0,0(sp)
    30003fe0:	00813083          	ld	ra,8(sp)
    30003fe4:	01010113          	addi	sp,sp,16
    30003fe8:	2110006f          	j	300049f8 <rt_free>

0000000030003fec <rt_object_is_systemobject>:
    30003fec:	ff010113          	addi	sp,sp,-16
    30003ff0:	00813023          	sd	s0,0(sp)
    30003ff4:	00113423          	sd	ra,8(sp)
    30003ff8:	00050413          	mv	s0,a0
    30003ffc:	00051e63          	bnez	a0,30004018 <rt_object_is_systemobject+0x2c>
    30004000:	1f800613          	li	a2,504
    30004004:	4fffd597          	auipc	a1,0x4fffd
    30004008:	16458593          	addi	a1,a1,356 # 80001168 <__FUNCTION__.2717>
    3000400c:	4fffd517          	auipc	a0,0x4fffd
    30004010:	0bc50513          	addi	a0,a0,188 # 800010c8 <__FUNCTION__.2718+0x40>
    30004014:	c85fd0ef          	jal	ra,30001c98 <rt_assert_handler>
    30004018:	01440503          	lb	a0,20(s0)
    3000401c:	00813083          	ld	ra,8(sp)
    30004020:	00013403          	ld	s0,0(sp)
    30004024:	01f5551b          	srliw	a0,a0,0x1f
    30004028:	01010113          	addi	sp,sp,16
    3000402c:	00008067          	ret

0000000030004030 <rt_object_get_type>:
    30004030:	ff010113          	addi	sp,sp,-16
    30004034:	00813023          	sd	s0,0(sp)
    30004038:	00113423          	sd	ra,8(sp)
    3000403c:	00050413          	mv	s0,a0
    30004040:	00051e63          	bnez	a0,3000405c <rt_object_get_type+0x2c>
    30004044:	20b00613          	li	a2,523
    30004048:	4fffd597          	auipc	a1,0x4fffd
    3000404c:	14058593          	addi	a1,a1,320 # 80001188 <__FUNCTION__.2721>
    30004050:	4fffd517          	auipc	a0,0x4fffd
    30004054:	07850513          	addi	a0,a0,120 # 800010c8 <__FUNCTION__.2718+0x40>
    30004058:	c41fd0ef          	jal	ra,30001c98 <rt_assert_handler>
    3000405c:	01444503          	lbu	a0,20(s0)
    30004060:	00813083          	ld	ra,8(sp)
    30004064:	00013403          	ld	s0,0(sp)
    30004068:	07f57513          	andi	a0,a0,127
    3000406c:	01010113          	addi	sp,sp,16
    30004070:	00008067          	ret

0000000030004074 <rt_object_find>:
    30004074:	fd010113          	addi	sp,sp,-48
    30004078:	01213823          	sd	s2,16(sp)
    3000407c:	00050913          	mv	s2,a0
    30004080:	00058513          	mv	a0,a1
    30004084:	02113423          	sd	ra,40(sp)
    30004088:	02813023          	sd	s0,32(sp)
    3000408c:	00913c23          	sd	s1,24(sp)
    30004090:	01313423          	sd	s3,8(sp)
    30004094:	bf1ff0ef          	jal	ra,30003c84 <rt_object_get_information>
    30004098:	06090263          	beqz	s2,300040fc <rt_object_find+0x88>
    3000409c:	00050413          	mv	s0,a0
    300040a0:	08050063          	beqz	a0,30004120 <rt_object_find+0xac>
    300040a4:	43c010ef          	jal	ra,300054e0 <rt_hw_interrupt_disable>
    300040a8:	00050493          	mv	s1,a0
    300040ac:	dedfc0ef          	jal	ra,30000e98 <rt_interrupt_get_nest>
    300040b0:	02050863          	beqz	a0,300040e0 <rt_object_find+0x6c>
    300040b4:	4fffd597          	auipc	a1,0x4fffd
    300040b8:	0ec58593          	addi	a1,a1,236 # 800011a0 <__FUNCTION__.2730>
    300040bc:	4fffc517          	auipc	a0,0x4fffc
    300040c0:	69c50513          	addi	a0,a0,1692 # 80000758 <_uart_ops+0x118>
    300040c4:	a59fd0ef          	jal	ra,30001b1c <rt_kprintf>
    300040c8:	22800613          	li	a2,552
    300040cc:	4fffd597          	auipc	a1,0x4fffd
    300040d0:	0d458593          	addi	a1,a1,212 # 800011a0 <__FUNCTION__.2730>
    300040d4:	4fffc517          	auipc	a0,0x4fffc
    300040d8:	5dc50513          	addi	a0,a0,1500 # 800006b0 <_uart_ops+0x70>
    300040dc:	bbdfd0ef          	jal	ra,30001c98 <rt_assert_handler>
    300040e0:	00048513          	mv	a0,s1
    300040e4:	404010ef          	jal	ra,300054e8 <rt_hw_interrupt_enable>
    300040e8:	fbcfe0ef          	jal	ra,300028a4 <rt_enter_critical>
    300040ec:	00843483          	ld	s1,8(s0)
    300040f0:	00840993          	addi	s3,s0,8
    300040f4:	01349863          	bne	s1,s3,30004104 <rt_object_find+0x90>
    300040f8:	fd4fe0ef          	jal	ra,300028cc <rt_exit_critical>
    300040fc:	00000413          	li	s0,0
    30004100:	0200006f          	j	30004120 <rt_object_find+0xac>
    30004104:	fe848413          	addi	s0,s1,-24
    30004108:	01400613          	li	a2,20
    3000410c:	00090593          	mv	a1,s2
    30004110:	00040513          	mv	a0,s0
    30004114:	aacfd0ef          	jal	ra,300013c0 <rt_strncmp>
    30004118:	02051463          	bnez	a0,30004140 <rt_object_find+0xcc>
    3000411c:	fb0fe0ef          	jal	ra,300028cc <rt_exit_critical>
    30004120:	02813083          	ld	ra,40(sp)
    30004124:	00040513          	mv	a0,s0
    30004128:	02013403          	ld	s0,32(sp)
    3000412c:	01813483          	ld	s1,24(sp)
    30004130:	01013903          	ld	s2,16(sp)
    30004134:	00813983          	ld	s3,8(sp)
    30004138:	03010113          	addi	sp,sp,48
    3000413c:	00008067          	ret
    30004140:	0004b483          	ld	s1,0(s1)
    30004144:	fb1ff06f          	j	300040f4 <rt_object_find+0x80>

0000000030004148 <rt_mem_setname>:
    30004148:	00000713          	li	a4,0
    3000414c:	00800613          	li	a2,8
    30004150:	00e586b3          	add	a3,a1,a4
    30004154:	0006c683          	lbu	a3,0(a3)
    30004158:	0007079b          	sext.w	a5,a4
    3000415c:	00069c63          	bnez	a3,30004174 <rt_mem_setname+0x2c>
    30004160:	00700713          	li	a4,7
    30004164:	02000613          	li	a2,32
    30004168:	0007869b          	sext.w	a3,a5
    3000416c:	00d75e63          	bge	a4,a3,30004188 <rt_mem_setname+0x40>
    30004170:	00008067          	ret
    30004174:	00e507b3          	add	a5,a0,a4
    30004178:	00d78c23          	sb	a3,24(a5)
    3000417c:	00170713          	addi	a4,a4,1
    30004180:	fcc718e3          	bne	a4,a2,30004150 <rt_mem_setname+0x8>
    30004184:	00008067          	ret
    30004188:	00f506b3          	add	a3,a0,a5
    3000418c:	00c68c23          	sb	a2,24(a3)
    30004190:	00178793          	addi	a5,a5,1
    30004194:	fd5ff06f          	j	30004168 <rt_mem_setname+0x20>

0000000030004198 <list_mem>:
    30004198:	ff010113          	addi	sp,sp,-16
    3000419c:	8e81b583          	ld	a1,-1816(gp) # 800042b0 <mem_size_aligned>
    300041a0:	4fffd517          	auipc	a0,0x4fffd
    300041a4:	01050513          	addi	a0,a0,16 # 800011b0 <__FUNCTION__.2730+0x10>
    300041a8:	00113423          	sd	ra,8(sp)
    300041ac:	971fd0ef          	jal	ra,30001b1c <rt_kprintf>
    300041b0:	9001b583          	ld	a1,-1792(gp) # 800042c8 <used_mem>
    300041b4:	4fffd517          	auipc	a0,0x4fffd
    300041b8:	01450513          	addi	a0,a0,20 # 800011c8 <__FUNCTION__.2730+0x28>
    300041bc:	961fd0ef          	jal	ra,30001b1c <rt_kprintf>
    300041c0:	00813083          	ld	ra,8(sp)
    300041c4:	8e01b583          	ld	a1,-1824(gp) # 800042a8 <max_mem>
    300041c8:	4fffd517          	auipc	a0,0x4fffd
    300041cc:	01850513          	addi	a0,a0,24 # 800011e0 <__FUNCTION__.2730+0x40>
    300041d0:	01010113          	addi	sp,sp,16
    300041d4:	949fd06f          	j	30001b1c <rt_kprintf>

00000000300041d8 <memtrace>:
    300041d8:	fa010113          	addi	sp,sp,-96
    300041dc:	04113c23          	sd	ra,88(sp)
    300041e0:	04813823          	sd	s0,80(sp)
    300041e4:	04913423          	sd	s1,72(sp)
    300041e8:	05213023          	sd	s2,64(sp)
    300041ec:	03313c23          	sd	s3,56(sp)
    300041f0:	03413823          	sd	s4,48(sp)
    300041f4:	03513423          	sd	s5,40(sp)
    300041f8:	03613023          	sd	s6,32(sp)
    300041fc:	01713c23          	sd	s7,24(sp)
    30004200:	01813823          	sd	s8,16(sp)
    30004204:	01913423          	sd	s9,8(sp)
    30004208:	01a13023          	sd	s10,0(sp)
    3000420c:	f8dff0ef          	jal	ra,30004198 <list_mem>
    30004210:	4fffd517          	auipc	a0,0x4fffd
    30004214:	ff050513          	addi	a0,a0,-16 # 80001200 <__FUNCTION__.2730+0x60>
    30004218:	905fd0ef          	jal	ra,30001b1c <rt_kprintf>
    3000421c:	8d018493          	addi	s1,gp,-1840 # 80004298 <heap_ptr>
    30004220:	0004b583          	ld	a1,0(s1)
    30004224:	4fffd517          	auipc	a0,0x4fffd
    30004228:	ff450513          	addi	a0,a0,-12 # 80001218 <__FUNCTION__.2730+0x78>
    3000422c:	8c818913          	addi	s2,gp,-1848 # 80004290 <heap_end>
    30004230:	8edfd0ef          	jal	ra,30001b1c <rt_kprintf>
    30004234:	8d81b583          	ld	a1,-1832(gp) # 800042a0 <lfree>
    30004238:	4fffd517          	auipc	a0,0x4fffd
    3000423c:	ff850513          	addi	a0,a0,-8 # 80001230 <__FUNCTION__.2730+0x90>
    30004240:	8ddfd0ef          	jal	ra,30001b1c <rt_kprintf>
    30004244:	00093583          	ld	a1,0(s2)
    30004248:	4fffd517          	auipc	a0,0x4fffd
    3000424c:	00050513          	mv	a0,a0
    30004250:	000029b7          	lui	s3,0x2
    30004254:	8c9fd0ef          	jal	ra,30001b1c <rt_kprintf>
    30004258:	4fffd517          	auipc	a0,0x4fffd
    3000425c:	00850513          	addi	a0,a0,8 # 80001260 <__FUNCTION__.2730+0xc0>
    30004260:	8bdfd0ef          	jal	ra,30001b1c <rt_kprintf>
    30004264:	0004b403          	ld	s0,0(s1)
    30004268:	4fffda17          	auipc	s4,0x4fffd
    3000426c:	018a0a13          	addi	s4,s4,24 # 80001280 <__FUNCTION__.2730+0xe0>
    30004270:	3ff00a93          	li	s5,1023
    30004274:	00100b37          	lui	s6,0x100
    30004278:	4fffdb97          	auipc	s7,0x4fffd
    3000427c:	028b8b93          	addi	s7,s7,40 # 800012a0 <__FUNCTION__.2730+0x100>
    30004280:	4fffdc17          	auipc	s8,0x4fffd
    30004284:	018c0c13          	addi	s8,s8,24 # 80001298 <__FUNCTION__.2730+0xf8>
    30004288:	4fffdc97          	auipc	s9,0x4fffd
    3000428c:	008c8c93          	addi	s9,s9,8 # 80001290 <__FUNCTION__.2730+0xf0>
    30004290:	ea098993          	addi	s3,s3,-352 # 1ea0 <__stack_size+0x16a0>
    30004294:	00093783          	ld	a5,0(s2)
    30004298:	04879063          	bne	a5,s0,300042d8 <memtrace+0x100>
    3000429c:	05813083          	ld	ra,88(sp)
    300042a0:	05013403          	ld	s0,80(sp)
    300042a4:	04813483          	ld	s1,72(sp)
    300042a8:	04013903          	ld	s2,64(sp)
    300042ac:	03813983          	ld	s3,56(sp)
    300042b0:	03013a03          	ld	s4,48(sp)
    300042b4:	02813a83          	ld	s5,40(sp)
    300042b8:	02013b03          	ld	s6,32(sp)
    300042bc:	01813b83          	ld	s7,24(sp)
    300042c0:	01013c03          	ld	s8,16(sp)
    300042c4:	00813c83          	ld	s9,8(sp)
    300042c8:	00013d03          	ld	s10,0(sp)
    300042cc:	00000513          	li	a0,0
    300042d0:	06010113          	addi	sp,sp,96
    300042d4:	00008067          	ret
    300042d8:	0004b783          	ld	a5,0(s1)
    300042dc:	00040593          	mv	a1,s0
    300042e0:	000a0513          	mv	a0,s4
    300042e4:	40f40d33          	sub	s10,s0,a5
    300042e8:	835fd0ef          	jal	ra,30001b1c <rt_kprintf>
    300042ec:	00843783          	ld	a5,8(s0)
    300042f0:	000c8513          	mv	a0,s9
    300042f4:	fe07879b          	addiw	a5,a5,-32
    300042f8:	41a785bb          	subw	a1,a5,s10
    300042fc:	00bad863          	bge	s5,a1,3000430c <memtrace+0x134>
    30004300:	0565dc63          	bge	a1,s6,30004358 <memtrace+0x180>
    30004304:	40a5d59b          	sraiw	a1,a1,0xa
    30004308:	000c0513          	mv	a0,s8
    3000430c:	811fd0ef          	jal	ra,30001b1c <rt_kprintf>
    30004310:	01b44703          	lbu	a4,27(s0)
    30004314:	01a44683          	lbu	a3,26(s0)
    30004318:	01944603          	lbu	a2,25(s0)
    3000431c:	01844583          	lbu	a1,24(s0)
    30004320:	4fffd517          	auipc	a0,0x4fffd
    30004324:	f8850513          	addi	a0,a0,-120 # 800012a8 <__FUNCTION__.2730+0x108>
    30004328:	ff4fd0ef          	jal	ra,30001b1c <rt_kprintf>
    3000432c:	00045783          	lhu	a5,0(s0)
    30004330:	4fffd517          	auipc	a0,0x4fffd
    30004334:	f8850513          	addi	a0,a0,-120 # 800012b8 <__FUNCTION__.2730+0x118>
    30004338:	01379663          	bne	a5,s3,30004344 <memtrace+0x16c>
    3000433c:	4fffe517          	auipc	a0,0x4fffe
    30004340:	b0450513          	addi	a0,a0,-1276 # 80001e40 <CSWTCH.17+0x60>
    30004344:	fd8fd0ef          	jal	ra,30001b1c <rt_kprintf>
    30004348:	00843783          	ld	a5,8(s0)
    3000434c:	0004b403          	ld	s0,0(s1)
    30004350:	00f40433          	add	s0,s0,a5
    30004354:	f41ff06f          	j	30004294 <memtrace+0xbc>
    30004358:	4145d59b          	sraiw	a1,a1,0x14
    3000435c:	000b8513          	mv	a0,s7
    30004360:	fadff06f          	j	3000430c <memtrace+0x134>

0000000030004364 <plug_holes>:
    30004364:	8d018793          	addi	a5,gp,-1840 # 80004298 <heap_ptr>
    30004368:	0007b703          	ld	a4,0(a5)
    3000436c:	fe010113          	addi	sp,sp,-32
    30004370:	00813823          	sd	s0,16(sp)
    30004374:	01213023          	sd	s2,0(sp)
    30004378:	00113c23          	sd	ra,24(sp)
    3000437c:	00913423          	sd	s1,8(sp)
    30004380:	00050413          	mv	s0,a0
    30004384:	00078913          	mv	s2,a5
    30004388:	00e57e63          	bgeu	a0,a4,300043a4 <plug_holes+0x40>
    3000438c:	0a100613          	li	a2,161
    30004390:	4fffd597          	auipc	a1,0x4fffd
    30004394:	23058593          	addi	a1,a1,560 # 800015c0 <__FUNCTION__.2654>
    30004398:	4fffd517          	auipc	a0,0x4fffd
    3000439c:	f2850513          	addi	a0,a0,-216 # 800012c0 <__FUNCTION__.2730+0x120>
    300043a0:	8f9fd0ef          	jal	ra,30001c98 <rt_assert_handler>
    300043a4:	8c818793          	addi	a5,gp,-1848 # 80004290 <heap_end>
    300043a8:	0007b703          	ld	a4,0(a5)
    300043ac:	00078493          	mv	s1,a5
    300043b0:	00e46e63          	bltu	s0,a4,300043cc <plug_holes+0x68>
    300043b4:	0a200613          	li	a2,162
    300043b8:	4fffd597          	auipc	a1,0x4fffd
    300043bc:	20858593          	addi	a1,a1,520 # 800015c0 <__FUNCTION__.2654>
    300043c0:	4fffd517          	auipc	a0,0x4fffd
    300043c4:	f2050513          	addi	a0,a0,-224 # 800012e0 <__FUNCTION__.2730+0x140>
    300043c8:	8d1fd0ef          	jal	ra,30001c98 <rt_assert_handler>
    300043cc:	00245783          	lhu	a5,2(s0)
    300043d0:	00078e63          	beqz	a5,300043ec <plug_holes+0x88>
    300043d4:	0a300613          	li	a2,163
    300043d8:	4fffd597          	auipc	a1,0x4fffd
    300043dc:	1e858593          	addi	a1,a1,488 # 800015c0 <__FUNCTION__.2654>
    300043e0:	4fffd517          	auipc	a0,0x4fffd
    300043e4:	f3050513          	addi	a0,a0,-208 # 80001310 <__FUNCTION__.2730+0x170>
    300043e8:	8b1fd0ef          	jal	ra,30001c98 <rt_assert_handler>
    300043ec:	00093703          	ld	a4,0(s2)
    300043f0:	00843783          	ld	a5,8(s0)
    300043f4:	00f707b3          	add	a5,a4,a5
    300043f8:	02f40e63          	beq	s0,a5,30004434 <plug_holes+0xd0>
    300043fc:	0027d683          	lhu	a3,2(a5)
    30004400:	02069a63          	bnez	a3,30004434 <plug_holes+0xd0>
    30004404:	0004b683          	ld	a3,0(s1)
    30004408:	02f68663          	beq	a3,a5,30004434 <plug_holes+0xd0>
    3000440c:	8d818693          	addi	a3,gp,-1832 # 800042a0 <lfree>
    30004410:	0006b603          	ld	a2,0(a3)
    30004414:	00f61463          	bne	a2,a5,3000441c <plug_holes+0xb8>
    30004418:	0086b023          	sd	s0,0(a3)
    3000441c:	0087b683          	ld	a3,8(a5)
    30004420:	00d43423          	sd	a3,8(s0)
    30004424:	0087b783          	ld	a5,8(a5)
    30004428:	40e406b3          	sub	a3,s0,a4
    3000442c:	00f707b3          	add	a5,a4,a5
    30004430:	00d7b823          	sd	a3,16(a5)
    30004434:	01043683          	ld	a3,16(s0)
    30004438:	00d707b3          	add	a5,a4,a3
    3000443c:	02f40863          	beq	s0,a5,3000446c <plug_holes+0x108>
    30004440:	0027d603          	lhu	a2,2(a5)
    30004444:	02061463          	bnez	a2,3000446c <plug_holes+0x108>
    30004448:	8d818613          	addi	a2,gp,-1832 # 800042a0 <lfree>
    3000444c:	00063583          	ld	a1,0(a2)
    30004450:	00859463          	bne	a1,s0,30004458 <plug_holes+0xf4>
    30004454:	00f63023          	sd	a5,0(a2)
    30004458:	00843603          	ld	a2,8(s0)
    3000445c:	00c7b423          	sd	a2,8(a5)
    30004460:	00843783          	ld	a5,8(s0)
    30004464:	00f70733          	add	a4,a4,a5
    30004468:	00d73823          	sd	a3,16(a4)
    3000446c:	01813083          	ld	ra,24(sp)
    30004470:	01013403          	ld	s0,16(sp)
    30004474:	00813483          	ld	s1,8(sp)
    30004478:	00013903          	ld	s2,0(sp)
    3000447c:	02010113          	addi	sp,sp,32
    30004480:	00008067          	ret

0000000030004484 <memcheck>:
    30004484:	fe010113          	addi	sp,sp,-32
    30004488:	00813823          	sd	s0,16(sp)
    3000448c:	00913423          	sd	s1,8(sp)
    30004490:	00113c23          	sd	ra,24(sp)
    30004494:	01213023          	sd	s2,0(sp)
    30004498:	048010ef          	jal	ra,300054e0 <rt_hw_interrupt_disable>
    3000449c:	8d01b783          	ld	a5,-1840(gp) # 80004298 <heap_ptr>
    300044a0:	00002737          	lui	a4,0x2
    300044a4:	00050493          	mv	s1,a0
    300044a8:	8c81b683          	ld	a3,-1848(gp) # 80004290 <heap_end>
    300044ac:	8e81a603          	lw	a2,-1816(gp) # 800042b0 <mem_size_aligned>
    300044b0:	00078413          	mv	s0,a5
    300044b4:	ea070713          	addi	a4,a4,-352 # 1ea0 <__stack_size+0x16a0>
    300044b8:	00100593          	li	a1,1
    300044bc:	02869463          	bne	a3,s0,300044e4 <memcheck+0x60>
    300044c0:	00048513          	mv	a0,s1
    300044c4:	024010ef          	jal	ra,300054e8 <rt_hw_interrupt_enable>
    300044c8:	01813083          	ld	ra,24(sp)
    300044cc:	01013403          	ld	s0,16(sp)
    300044d0:	00813483          	ld	s1,8(sp)
    300044d4:	00013903          	ld	s2,0(sp)
    300044d8:	00000513          	li	a0,0
    300044dc:	02010113          	addi	sp,sp,32
    300044e0:	00008067          	ret
    300044e4:	40f4093b          	subw	s2,s0,a5
    300044e8:	02094263          	bltz	s2,3000450c <memcheck+0x88>
    300044ec:	03264063          	blt	a2,s2,3000450c <memcheck+0x88>
    300044f0:	00045503          	lhu	a0,0(s0)
    300044f4:	00e51c63          	bne	a0,a4,3000450c <memcheck+0x88>
    300044f8:	00245503          	lhu	a0,2(s0)
    300044fc:	00a5e863          	bltu	a1,a0,3000450c <memcheck+0x88>
    30004500:	00843403          	ld	s0,8(s0)
    30004504:	00878433          	add	s0,a5,s0
    30004508:	fb5ff06f          	j	300044bc <memcheck+0x38>
    3000450c:	4fffd517          	auipc	a0,0x4fffd
    30004510:	e1450513          	addi	a0,a0,-492 # 80001320 <__FUNCTION__.2730+0x180>
    30004514:	e08fd0ef          	jal	ra,30001b1c <rt_kprintf>
    30004518:	00040593          	mv	a1,s0
    3000451c:	4fffd517          	auipc	a0,0x4fffd
    30004520:	e1c50513          	addi	a0,a0,-484 # 80001338 <__FUNCTION__.2730+0x198>
    30004524:	df8fd0ef          	jal	ra,30001b1c <rt_kprintf>
    30004528:	00045583          	lhu	a1,0(s0)
    3000452c:	4fffd517          	auipc	a0,0x4fffd
    30004530:	e2450513          	addi	a0,a0,-476 # 80001350 <__FUNCTION__.2730+0x1b0>
    30004534:	de8fd0ef          	jal	ra,30001b1c <rt_kprintf>
    30004538:	00245583          	lhu	a1,2(s0)
    3000453c:	4fffd517          	auipc	a0,0x4fffd
    30004540:	e2c50513          	addi	a0,a0,-468 # 80001368 <__FUNCTION__.2730+0x1c8>
    30004544:	dd8fd0ef          	jal	ra,30001b1c <rt_kprintf>
    30004548:	00843583          	ld	a1,8(s0)
    3000454c:	4fffd517          	auipc	a0,0x4fffd
    30004550:	e2c50513          	addi	a0,a0,-468 # 80001378 <__FUNCTION__.2730+0x1d8>
    30004554:	fe058593          	addi	a1,a1,-32
    30004558:	412585b3          	sub	a1,a1,s2
    3000455c:	dc0fd0ef          	jal	ra,30001b1c <rt_kprintf>
    30004560:	f61ff06f          	j	300044c0 <memcheck+0x3c>

0000000030004564 <rt_system_heap_init>:
    30004564:	fd010113          	addi	sp,sp,-48
    30004568:	02813023          	sd	s0,32(sp)
    3000456c:	00913c23          	sd	s1,24(sp)
    30004570:	01213823          	sd	s2,16(sp)
    30004574:	01313423          	sd	s3,8(sp)
    30004578:	01413023          	sd	s4,0(sp)
    3000457c:	02113423          	sd	ra,40(sp)
    30004580:	00750413          	addi	s0,a0,7
    30004584:	00050913          	mv	s2,a0
    30004588:	00058993          	mv	s3,a1
    3000458c:	ff85f493          	andi	s1,a1,-8
    30004590:	751000ef          	jal	ra,300054e0 <rt_hw_interrupt_disable>
    30004594:	ff847413          	andi	s0,s0,-8
    30004598:	00050a13          	mv	s4,a0
    3000459c:	8fdfc0ef          	jal	ra,30000e98 <rt_interrupt_get_nest>
    300045a0:	02050863          	beqz	a0,300045d0 <rt_system_heap_init+0x6c>
    300045a4:	4fffd597          	auipc	a1,0x4fffd
    300045a8:	02c58593          	addi	a1,a1,44 # 800015d0 <__FUNCTION__.2663>
    300045ac:	4fffc517          	auipc	a0,0x4fffc
    300045b0:	1ac50513          	addi	a0,a0,428 # 80000758 <_uart_ops+0x118>
    300045b4:	d68fd0ef          	jal	ra,30001b1c <rt_kprintf>
    300045b8:	0d200613          	li	a2,210
    300045bc:	4fffd597          	auipc	a1,0x4fffd
    300045c0:	01458593          	addi	a1,a1,20 # 800015d0 <__FUNCTION__.2663>
    300045c4:	4fffc517          	auipc	a0,0x4fffc
    300045c8:	0ec50513          	addi	a0,a0,236 # 800006b0 <_uart_ops+0x70>
    300045cc:	eccfd0ef          	jal	ra,30001c98 <rt_assert_handler>
    300045d0:	000a0513          	mv	a0,s4
    300045d4:	715000ef          	jal	ra,300054e8 <rt_hw_interrupt_enable>
    300045d8:	04000793          	li	a5,64
    300045dc:	0a97fc63          	bgeu	a5,s1,30004694 <rt_system_heap_init+0x130>
    300045e0:	fc048793          	addi	a5,s1,-64
    300045e4:	0a87e863          	bltu	a5,s0,30004694 <rt_system_heap_init+0x130>
    300045e8:	408484b3          	sub	s1,s1,s0
    300045ec:	fc048793          	addi	a5,s1,-64
    300045f0:	8ef1b423          	sd	a5,-1816(gp) # 800042b0 <mem_size_aligned>
    300045f4:	000027b7          	lui	a5,0x2
    300045f8:	fe048493          	addi	s1,s1,-32
    300045fc:	ea07879b          	addiw	a5,a5,-352 # 1ea0 <__stack_size+0x16a0>
    30004600:	00f42023          	sw	a5,0(s0)
    30004604:	8d018913          	addi	s2,gp,-1840 # 80004298 <heap_ptr>
    30004608:	00943423          	sd	s1,8(s0)
    3000460c:	00040513          	mv	a0,s0
    30004610:	00043823          	sd	zero,16(s0)
    30004614:	4fffd597          	auipc	a1,0x4fffd
    30004618:	d7458593          	addi	a1,a1,-652 # 80001388 <__FUNCTION__.2730+0x1e8>
    3000461c:	00893023          	sd	s0,0(s2)
    30004620:	b29ff0ef          	jal	ra,30004148 <rt_mem_setname>
    30004624:	00843503          	ld	a0,8(s0)
    30004628:	4fffd597          	auipc	a1,0x4fffd
    3000462c:	d6058593          	addi	a1,a1,-672 # 80001388 <__FUNCTION__.2730+0x1e8>
    30004630:	00a40533          	add	a0,s0,a0
    30004634:	8ca1b423          	sd	a0,-1848(gp) # 80004290 <heap_end>
    30004638:	000127b7          	lui	a5,0x12
    3000463c:	ea07879b          	addiw	a5,a5,-352 # 11ea0 <__stack_size+0x116a0>
    30004640:	00f52023          	sw	a5,0(a0)
    30004644:	00953423          	sd	s1,8(a0)
    30004648:	00953823          	sd	s1,16(a0)
    3000464c:	afdff0ef          	jal	ra,30004148 <rt_mem_setname>
    30004650:	00100693          	li	a3,1
    30004654:	00100613          	li	a2,1
    30004658:	4fffd597          	auipc	a1,0x4fffd
    3000465c:	d3858593          	addi	a1,a1,-712 # 80001390 <__FUNCTION__.2730+0x1f0>
    30004660:	50008517          	auipc	a0,0x50008
    30004664:	28050513          	addi	a0,a0,640 # 8000c8e0 <heap_sem>
    30004668:	f31fb0ef          	jal	ra,30000598 <rt_sem_init>
    3000466c:	00093783          	ld	a5,0(s2)
    30004670:	02813083          	ld	ra,40(sp)
    30004674:	02013403          	ld	s0,32(sp)
    30004678:	8cf1bc23          	sd	a5,-1832(gp) # 800042a0 <lfree>
    3000467c:	01813483          	ld	s1,24(sp)
    30004680:	01013903          	ld	s2,16(sp)
    30004684:	00813983          	ld	s3,8(sp)
    30004688:	00013a03          	ld	s4,0(sp)
    3000468c:	03010113          	addi	sp,sp,48
    30004690:	00008067          	ret
    30004694:	02013403          	ld	s0,32(sp)
    30004698:	02813083          	ld	ra,40(sp)
    3000469c:	01813483          	ld	s1,24(sp)
    300046a0:	00013a03          	ld	s4,0(sp)
    300046a4:	00098613          	mv	a2,s3
    300046a8:	00090593          	mv	a1,s2
    300046ac:	00813983          	ld	s3,8(sp)
    300046b0:	01013903          	ld	s2,16(sp)
    300046b4:	4fffd517          	auipc	a0,0x4fffd
    300046b8:	ce450513          	addi	a0,a0,-796 # 80001398 <__FUNCTION__.2730+0x1f8>
    300046bc:	03010113          	addi	sp,sp,48
    300046c0:	c5cfd06f          	j	30001b1c <rt_kprintf>

00000000300046c4 <rt_malloc>:
    300046c4:	f9010113          	addi	sp,sp,-112
    300046c8:	06113423          	sd	ra,104(sp)
    300046cc:	06813023          	sd	s0,96(sp)
    300046d0:	04913c23          	sd	s1,88(sp)
    300046d4:	05213823          	sd	s2,80(sp)
    300046d8:	05313423          	sd	s3,72(sp)
    300046dc:	05413023          	sd	s4,64(sp)
    300046e0:	03513c23          	sd	s5,56(sp)
    300046e4:	03613823          	sd	s6,48(sp)
    300046e8:	03713423          	sd	s7,40(sp)
    300046ec:	03813023          	sd	s8,32(sp)
    300046f0:	01913c23          	sd	s9,24(sp)
    300046f4:	01a13823          	sd	s10,16(sp)
    300046f8:	01b13423          	sd	s11,8(sp)
    300046fc:	00051663          	bnez	a0,30004708 <rt_malloc+0x44>
    30004700:	00000913          	li	s2,0
    30004704:	22c0006f          	j	30004930 <rt_malloc+0x26c>
    30004708:	00050413          	mv	s0,a0
    3000470c:	5d5000ef          	jal	ra,300054e0 <rt_hw_interrupt_disable>
    30004710:	00050493          	mv	s1,a0
    30004714:	f84fc0ef          	jal	ra,30000e98 <rt_interrupt_get_nest>
    30004718:	02050863          	beqz	a0,30004748 <rt_malloc+0x84>
    3000471c:	4fffd597          	auipc	a1,0x4fffd
    30004720:	ecc58593          	addi	a1,a1,-308 # 800015e8 <__FUNCTION__.2672>
    30004724:	4fffc517          	auipc	a0,0x4fffc
    30004728:	03450513          	addi	a0,a0,52 # 80000758 <_uart_ops+0x118>
    3000472c:	bf0fd0ef          	jal	ra,30001b1c <rt_kprintf>
    30004730:	11800613          	li	a2,280
    30004734:	4fffd597          	auipc	a1,0x4fffd
    30004738:	eb458593          	addi	a1,a1,-332 # 800015e8 <__FUNCTION__.2672>
    3000473c:	4fffc517          	auipc	a0,0x4fffc
    30004740:	f7450513          	addi	a0,a0,-140 # 800006b0 <_uart_ops+0x70>
    30004744:	d54fd0ef          	jal	ra,30001c98 <rt_assert_handler>
    30004748:	00048513          	mv	a0,s1
    3000474c:	59d000ef          	jal	ra,300054e8 <rt_hw_interrupt_enable>
    30004750:	8e818793          	addi	a5,gp,-1816 # 800042b0 <mem_size_aligned>
    30004754:	0007b703          	ld	a4,0(a5)
    30004758:	00740413          	addi	s0,s0,7
    3000475c:	ff847413          	andi	s0,s0,-8
    30004760:	00078493          	mv	s1,a5
    30004764:	f8876ee3          	bltu	a4,s0,30004700 <rt_malloc+0x3c>
    30004768:	01800793          	li	a5,24
    3000476c:	00f47463          	bgeu	s0,a5,30004774 <rt_malloc+0xb0>
    30004770:	01800413          	li	s0,24
    30004774:	fff00593          	li	a1,-1
    30004778:	50008517          	auipc	a0,0x50008
    3000477c:	16850513          	addi	a0,a0,360 # 8000c8e0 <heap_sem>
    30004780:	ec1fb0ef          	jal	ra,30000640 <rt_sem_take>
    30004784:	8d018a93          	addi	s5,gp,-1840 # 80004298 <heap_ptr>
    30004788:	8d818993          	addi	s3,gp,-1832 # 800042a0 <lfree>
    3000478c:	000abb83          	ld	s7,0(s5)
    30004790:	0009b783          	ld	a5,0(s3)
    30004794:	0004bc03          	ld	s8,0(s1)
    30004798:	417787b3          	sub	a5,a5,s7
    3000479c:	408c0633          	sub	a2,s8,s0
    300047a0:	00c7ea63          	bltu	a5,a2,300047b4 <rt_malloc+0xf0>
    300047a4:	50008517          	auipc	a0,0x50008
    300047a8:	13c50513          	addi	a0,a0,316 # 8000c8e0 <heap_sem>
    300047ac:	84cfc0ef          	jal	ra,300007f8 <rt_sem_release>
    300047b0:	f51ff06f          	j	30004700 <rt_malloc+0x3c>
    300047b4:	00fb84b3          	add	s1,s7,a5
    300047b8:	0024d703          	lhu	a4,2(s1)
    300047bc:	0084b683          	ld	a3,8(s1)
    300047c0:	1e071663          	bnez	a4,300049ac <rt_malloc+0x2e8>
    300047c4:	40f68733          	sub	a4,a3,a5
    300047c8:	fe070893          	addi	a7,a4,-32
    300047cc:	1e88e063          	bltu	a7,s0,300049ac <rt_malloc+0x2e8>
    300047d0:	8e018613          	addi	a2,gp,-1824 # 800042a8 <max_mem>
    300047d4:	90018593          	addi	a1,gp,-1792 # 800042c8 <used_mem>
    300047d8:	03840513          	addi	a0,s0,56
    300047dc:	0005b903          	ld	s2,0(a1)
    300047e0:	00063d03          	ld	s10,0(a2)
    300047e4:	02040a13          	addi	s4,s0,32
    300047e8:	00060d93          	mv	s11,a2
    300047ec:	18a8e263          	bltu	a7,a0,30004970 <rt_malloc+0x2ac>
    300047f0:	01478cb3          	add	s9,a5,s4
    300047f4:	00002737          	lui	a4,0x2
    300047f8:	019b8b33          	add	s6,s7,s9
    300047fc:	ea07071b          	addiw	a4,a4,-352 # 1ea0 <__stack_size+0x16a0>
    30004800:	00fb3823          	sd	a5,16(s6) # 100010 <__stack_size+0xff810>
    30004804:	00eb2023          	sw	a4,0(s6)
    30004808:	00db3423          	sd	a3,8(s6)
    3000480c:	4fffd597          	auipc	a1,0x4fffd
    30004810:	bcc58593          	addi	a1,a1,-1076 # 800013d8 <__FUNCTION__.2730+0x238>
    30004814:	000b0513          	mv	a0,s6
    30004818:	931ff0ef          	jal	ra,30004148 <rt_mem_setname>
    3000481c:	00100793          	li	a5,1
    30004820:	0194b423          	sd	s9,8(s1)
    30004824:	00f49123          	sh	a5,2(s1)
    30004828:	008b3783          	ld	a5,8(s6)
    3000482c:	020c0c13          	addi	s8,s8,32
    30004830:	90018813          	addi	a6,gp,-1792 # 800042c8 <used_mem>
    30004834:	01878663          	beq	a5,s8,30004840 <rt_malloc+0x17c>
    30004838:	00fb8bb3          	add	s7,s7,a5
    3000483c:	019bb823          	sd	s9,16(s7)
    30004840:	02090793          	addi	a5,s2,32
    30004844:	008787b3          	add	a5,a5,s0
    30004848:	00f83023          	sd	a5,0(a6)
    3000484c:	00fd7463          	bgeu	s10,a5,30004854 <rt_malloc+0x190>
    30004850:	00fdb023          	sd	a5,0(s11)
    30004854:	000027b7          	lui	a5,0x2
    30004858:	ea07879b          	addiw	a5,a5,-352 # 1ea0 <__stack_size+0x16a0>
    3000485c:	00f49023          	sh	a5,0(s1)
    30004860:	c40fe0ef          	jal	ra,30002ca0 <rt_thread_self>
    30004864:	4fffd597          	auipc	a1,0x4fffd
    30004868:	b7c58593          	addi	a1,a1,-1156 # 800013e0 <__FUNCTION__.2730+0x240>
    3000486c:	00050663          	beqz	a0,30004878 <rt_malloc+0x1b4>
    30004870:	c30fe0ef          	jal	ra,30002ca0 <rt_thread_self>
    30004874:	00050593          	mv	a1,a0
    30004878:	00048513          	mv	a0,s1
    3000487c:	8cdff0ef          	jal	ra,30004148 <rt_mem_setname>
    30004880:	0009b783          	ld	a5,0(s3)
    30004884:	8c818913          	addi	s2,gp,-1848 # 80004290 <heap_end>
    30004888:	02979063          	bne	a5,s1,300048a8 <rt_malloc+0x1e4>
    3000488c:	00093683          	ld	a3,0(s2)
    30004890:	000ab603          	ld	a2,0(s5)
    30004894:	00000713          	li	a4,0
    30004898:	0027d583          	lhu	a1,2(a5)
    3000489c:	10059063          	bnez	a1,3000499c <rt_malloc+0x2d8>
    300048a0:	00070463          	beqz	a4,300048a8 <rt_malloc+0x1e4>
    300048a4:	00f9b023          	sd	a5,0(s3)
    300048a8:	50008517          	auipc	a0,0x50008
    300048ac:	03850513          	addi	a0,a0,56 # 8000c8e0 <heap_sem>
    300048b0:	f49fb0ef          	jal	ra,300007f8 <rt_sem_release>
    300048b4:	00093783          	ld	a5,0(s2)
    300048b8:	01448a33          	add	s4,s1,s4
    300048bc:	0147fe63          	bgeu	a5,s4,300048d8 <rt_malloc+0x214>
    300048c0:	18600613          	li	a2,390
    300048c4:	4fffd597          	auipc	a1,0x4fffd
    300048c8:	d2458593          	addi	a1,a1,-732 # 800015e8 <__FUNCTION__.2672>
    300048cc:	4fffd517          	auipc	a0,0x4fffd
    300048d0:	b1c50513          	addi	a0,a0,-1252 # 800013e8 <__FUNCTION__.2730+0x248>
    300048d4:	bc4fd0ef          	jal	ra,30001c98 <rt_assert_handler>
    300048d8:	0074f793          	andi	a5,s1,7
    300048dc:	02048913          	addi	s2,s1,32
    300048e0:	00078e63          	beqz	a5,300048fc <rt_malloc+0x238>
    300048e4:	18700613          	li	a2,391
    300048e8:	4fffd597          	auipc	a1,0x4fffd
    300048ec:	d0058593          	addi	a1,a1,-768 # 800015e8 <__FUNCTION__.2672>
    300048f0:	4fffd517          	auipc	a0,0x4fffd
    300048f4:	b4050513          	addi	a0,a0,-1216 # 80001430 <__FUNCTION__.2730+0x290>
    300048f8:	ba0fd0ef          	jal	ra,30001c98 <rt_assert_handler>
    300048fc:	0074f493          	andi	s1,s1,7
    30004900:	00048e63          	beqz	s1,3000491c <rt_malloc+0x258>
    30004904:	18800613          	li	a2,392
    30004908:	4fffd597          	auipc	a1,0x4fffd
    3000490c:	ce058593          	addi	a1,a1,-800 # 800015e8 <__FUNCTION__.2672>
    30004910:	4fffd517          	auipc	a0,0x4fffd
    30004914:	b7050513          	addi	a0,a0,-1168 # 80001480 <__FUNCTION__.2730+0x2e0>
    30004918:	b80fd0ef          	jal	ra,30001c98 <rt_assert_handler>
    3000491c:	8f81b783          	ld	a5,-1800(gp) # 800042c0 <rt_malloc_hook>
    30004920:	00078863          	beqz	a5,30004930 <rt_malloc+0x26c>
    30004924:	00040593          	mv	a1,s0
    30004928:	00090513          	mv	a0,s2
    3000492c:	000780e7          	jalr	a5
    30004930:	06813083          	ld	ra,104(sp)
    30004934:	06013403          	ld	s0,96(sp)
    30004938:	05813483          	ld	s1,88(sp)
    3000493c:	04813983          	ld	s3,72(sp)
    30004940:	04013a03          	ld	s4,64(sp)
    30004944:	03813a83          	ld	s5,56(sp)
    30004948:	03013b03          	ld	s6,48(sp)
    3000494c:	02813b83          	ld	s7,40(sp)
    30004950:	02013c03          	ld	s8,32(sp)
    30004954:	01813c83          	ld	s9,24(sp)
    30004958:	01013d03          	ld	s10,16(sp)
    3000495c:	00813d83          	ld	s11,8(sp)
    30004960:	00090513          	mv	a0,s2
    30004964:	05013903          	ld	s2,80(sp)
    30004968:	07010113          	addi	sp,sp,112
    3000496c:	00008067          	ret
    30004970:	00100793          	li	a5,1
    30004974:	00f49123          	sh	a5,2(s1)
    30004978:	012707b3          	add	a5,a4,s2
    3000497c:	00f5b023          	sd	a5,0(a1)
    30004980:	ecfd7ae3          	bgeu	s10,a5,30004854 <rt_malloc+0x190>
    30004984:	00f63023          	sd	a5,0(a2)
    30004988:	ecdff06f          	j	30004854 <rt_malloc+0x190>
    3000498c:	0087b783          	ld	a5,8(a5)
    30004990:	00100713          	li	a4,1
    30004994:	00f607b3          	add	a5,a2,a5
    30004998:	f01ff06f          	j	30004898 <rt_malloc+0x1d4>
    3000499c:	fef698e3          	bne	a3,a5,3000498c <rt_malloc+0x2c8>
    300049a0:	f00704e3          	beqz	a4,300048a8 <rt_malloc+0x1e4>
    300049a4:	00d9b023          	sd	a3,0(s3)
    300049a8:	f01ff06f          	j	300048a8 <rt_malloc+0x1e4>
    300049ac:	00068793          	mv	a5,a3
    300049b0:	df1ff06f          	j	300047a0 <rt_malloc+0xdc>

00000000300049b4 <rt_calloc>:
    300049b4:	02b50633          	mul	a2,a0,a1
    300049b8:	fe010113          	addi	sp,sp,-32
    300049bc:	00813823          	sd	s0,16(sp)
    300049c0:	00113c23          	sd	ra,24(sp)
    300049c4:	00060513          	mv	a0,a2
    300049c8:	00c13423          	sd	a2,8(sp)
    300049cc:	cf9ff0ef          	jal	ra,300046c4 <rt_malloc>
    300049d0:	00050413          	mv	s0,a0
    300049d4:	00050863          	beqz	a0,300049e4 <rt_calloc+0x30>
    300049d8:	00813603          	ld	a2,8(sp)
    300049dc:	00000593          	li	a1,0
    300049e0:	f50fc0ef          	jal	ra,30001130 <rt_memset>
    300049e4:	01813083          	ld	ra,24(sp)
    300049e8:	00040513          	mv	a0,s0
    300049ec:	01013403          	ld	s0,16(sp)
    300049f0:	02010113          	addi	sp,sp,32
    300049f4:	00008067          	ret

00000000300049f8 <rt_free>:
    300049f8:	1e050a63          	beqz	a0,30004bec <rt_free+0x1f4>
    300049fc:	fe010113          	addi	sp,sp,-32
    30004a00:	00813823          	sd	s0,16(sp)
    30004a04:	00913423          	sd	s1,8(sp)
    30004a08:	00113c23          	sd	ra,24(sp)
    30004a0c:	01213023          	sd	s2,0(sp)
    30004a10:	00050413          	mv	s0,a0
    30004a14:	2cd000ef          	jal	ra,300054e0 <rt_hw_interrupt_disable>
    30004a18:	00050493          	mv	s1,a0
    30004a1c:	c7cfc0ef          	jal	ra,30000e98 <rt_interrupt_get_nest>
    30004a20:	02050863          	beqz	a0,30004a50 <rt_free+0x58>
    30004a24:	00008597          	auipc	a1,0x8
    30004a28:	23458593          	addi	a1,a1,564 # 3000cc58 <__FUNCTION__.2701>
    30004a2c:	4fffc517          	auipc	a0,0x4fffc
    30004a30:	d2c50513          	addi	a0,a0,-724 # 80000758 <_uart_ops+0x118>
    30004a34:	8e8fd0ef          	jal	ra,30001b1c <rt_kprintf>
    30004a38:	22f00613          	li	a2,559
    30004a3c:	00008597          	auipc	a1,0x8
    30004a40:	21c58593          	addi	a1,a1,540 # 3000cc58 <__FUNCTION__.2701>
    30004a44:	4fffc517          	auipc	a0,0x4fffc
    30004a48:	c6c50513          	addi	a0,a0,-916 # 800006b0 <_uart_ops+0x70>
    30004a4c:	a4cfd0ef          	jal	ra,30001c98 <rt_assert_handler>
    30004a50:	00048513          	mv	a0,s1
    30004a54:	295000ef          	jal	ra,300054e8 <rt_hw_interrupt_enable>
    30004a58:	00747793          	andi	a5,s0,7
    30004a5c:	00078e63          	beqz	a5,30004a78 <rt_free+0x80>
    30004a60:	23100613          	li	a2,561
    30004a64:	00008597          	auipc	a1,0x8
    30004a68:	1f458593          	addi	a1,a1,500 # 3000cc58 <__FUNCTION__.2701>
    30004a6c:	4fffd517          	auipc	a0,0x4fffd
    30004a70:	a4450513          	addi	a0,a0,-1468 # 800014b0 <__FUNCTION__.2730+0x310>
    30004a74:	a24fd0ef          	jal	ra,30001c98 <rt_assert_handler>
    30004a78:	8d018913          	addi	s2,gp,-1840 # 80004298 <heap_ptr>
    30004a7c:	00093783          	ld	a5,0(s2)
    30004a80:	00f46663          	bltu	s0,a5,30004a8c <rt_free+0x94>
    30004a84:	8c81b783          	ld	a5,-1848(gp) # 80004290 <heap_end>
    30004a88:	00f46e63          	bltu	s0,a5,30004aa4 <rt_free+0xac>
    30004a8c:	23200613          	li	a2,562
    30004a90:	00008597          	auipc	a1,0x8
    30004a94:	1c858593          	addi	a1,a1,456 # 3000cc58 <__FUNCTION__.2701>
    30004a98:	4fffd517          	auipc	a0,0x4fffd
    30004a9c:	a4850513          	addi	a0,a0,-1464 # 800014e0 <__FUNCTION__.2730+0x340>
    30004aa0:	9f8fd0ef          	jal	ra,30001c98 <rt_assert_handler>
    30004aa4:	8f01b783          	ld	a5,-1808(gp) # 800042b8 <rt_free_hook>
    30004aa8:	00078663          	beqz	a5,30004ab4 <rt_free+0xbc>
    30004aac:	00040513          	mv	a0,s0
    30004ab0:	000780e7          	jalr	a5
    30004ab4:	00093783          	ld	a5,0(s2)
    30004ab8:	10f46e63          	bltu	s0,a5,30004bd4 <rt_free+0x1dc>
    30004abc:	8c81b783          	ld	a5,-1848(gp) # 80004290 <heap_end>
    30004ac0:	10f47a63          	bgeu	s0,a5,30004bd4 <rt_free+0x1dc>
    30004ac4:	fff00593          	li	a1,-1
    30004ac8:	50008517          	auipc	a0,0x50008
    30004acc:	e1850513          	addi	a0,a0,-488 # 8000c8e0 <heap_sem>
    30004ad0:	b71fb0ef          	jal	ra,30000640 <rt_sem_take>
    30004ad4:	fe245783          	lhu	a5,-30(s0)
    30004ad8:	fe040493          	addi	s1,s0,-32
    30004adc:	00078a63          	beqz	a5,30004af0 <rt_free+0xf8>
    30004ae0:	fe045703          	lhu	a4,-32(s0)
    30004ae4:	000027b7          	lui	a5,0x2
    30004ae8:	ea078793          	addi	a5,a5,-352 # 1ea0 <__stack_size+0x16a0>
    30004aec:	06f70863          	beq	a4,a5,30004b5c <rt_free+0x164>
    30004af0:	4fffd517          	auipc	a0,0x4fffd
    30004af4:	a5050513          	addi	a0,a0,-1456 # 80001540 <__FUNCTION__.2730+0x3a0>
    30004af8:	824fd0ef          	jal	ra,30001b1c <rt_kprintf>
    30004afc:	fe045683          	lhu	a3,-32(s0)
    30004b00:	fe245603          	lhu	a2,-30(s0)
    30004b04:	00048593          	mv	a1,s1
    30004b08:	4fffd517          	auipc	a0,0x4fffd
    30004b0c:	a5850513          	addi	a0,a0,-1448 # 80001560 <__FUNCTION__.2730+0x3c0>
    30004b10:	80cfd0ef          	jal	ra,30001b1c <rt_kprintf>
    30004b14:	fe245783          	lhu	a5,-30(s0)
    30004b18:	00079e63          	bnez	a5,30004b34 <rt_free+0x13c>
    30004b1c:	25100613          	li	a2,593
    30004b20:	00008597          	auipc	a1,0x8
    30004b24:	13858593          	addi	a1,a1,312 # 3000cc58 <__FUNCTION__.2701>
    30004b28:	4fffd517          	auipc	a0,0x4fffd
    30004b2c:	a6850513          	addi	a0,a0,-1432 # 80001590 <__FUNCTION__.2730+0x3f0>
    30004b30:	968fd0ef          	jal	ra,30001c98 <rt_assert_handler>
    30004b34:	fe045703          	lhu	a4,-32(s0)
    30004b38:	000027b7          	lui	a5,0x2
    30004b3c:	ea078793          	addi	a5,a5,-352 # 1ea0 <__stack_size+0x16a0>
    30004b40:	00f70e63          	beq	a4,a5,30004b5c <rt_free+0x164>
    30004b44:	25200613          	li	a2,594
    30004b48:	00008597          	auipc	a1,0x8
    30004b4c:	11058593          	addi	a1,a1,272 # 3000cc58 <__FUNCTION__.2701>
    30004b50:	4fffd517          	auipc	a0,0x4fffd
    30004b54:	a5050513          	addi	a0,a0,-1456 # 800015a0 <__FUNCTION__.2730+0x400>
    30004b58:	940fd0ef          	jal	ra,30001c98 <rt_assert_handler>
    30004b5c:	000027b7          	lui	a5,0x2
    30004b60:	ea07879b          	addiw	a5,a5,-352 # 1ea0 <__stack_size+0x16a0>
    30004b64:	fef41023          	sh	a5,-32(s0)
    30004b68:	fe041123          	sh	zero,-30(s0)
    30004b6c:	4fffd597          	auipc	a1,0x4fffd
    30004b70:	86c58593          	addi	a1,a1,-1940 # 800013d8 <__FUNCTION__.2730+0x238>
    30004b74:	00048513          	mv	a0,s1
    30004b78:	dd0ff0ef          	jal	ra,30004148 <rt_mem_setname>
    30004b7c:	8d818793          	addi	a5,gp,-1832 # 800042a0 <lfree>
    30004b80:	0007b703          	ld	a4,0(a5)
    30004b84:	00e4f463          	bgeu	s1,a4,30004b8c <rt_free+0x194>
    30004b88:	0097b023          	sd	s1,0(a5)
    30004b8c:	90018693          	addi	a3,gp,-1792 # 800042c8 <used_mem>
    30004b90:	fe843703          	ld	a4,-24(s0)
    30004b94:	0006b783          	ld	a5,0(a3)
    30004b98:	00048513          	mv	a0,s1
    30004b9c:	40e787b3          	sub	a5,a5,a4
    30004ba0:	00093703          	ld	a4,0(s2)
    30004ba4:	40e48733          	sub	a4,s1,a4
    30004ba8:	00e787b3          	add	a5,a5,a4
    30004bac:	00f6b023          	sd	a5,0(a3)
    30004bb0:	fb4ff0ef          	jal	ra,30004364 <plug_holes>
    30004bb4:	01013403          	ld	s0,16(sp)
    30004bb8:	01813083          	ld	ra,24(sp)
    30004bbc:	00813483          	ld	s1,8(sp)
    30004bc0:	00013903          	ld	s2,0(sp)
    30004bc4:	50008517          	auipc	a0,0x50008
    30004bc8:	d1c50513          	addi	a0,a0,-740 # 8000c8e0 <heap_sem>
    30004bcc:	02010113          	addi	sp,sp,32
    30004bd0:	c29fb06f          	j	300007f8 <rt_sem_release>
    30004bd4:	01813083          	ld	ra,24(sp)
    30004bd8:	01013403          	ld	s0,16(sp)
    30004bdc:	00813483          	ld	s1,8(sp)
    30004be0:	00013903          	ld	s2,0(sp)
    30004be4:	02010113          	addi	sp,sp,32
    30004be8:	00008067          	ret
    30004bec:	00008067          	ret

0000000030004bf0 <rt_realloc>:
    30004bf0:	fc010113          	addi	sp,sp,-64
    30004bf4:	02813823          	sd	s0,48(sp)
    30004bf8:	02913423          	sd	s1,40(sp)
    30004bfc:	03213023          	sd	s2,32(sp)
    30004c00:	02113c23          	sd	ra,56(sp)
    30004c04:	01313c23          	sd	s3,24(sp)
    30004c08:	01413823          	sd	s4,16(sp)
    30004c0c:	00050493          	mv	s1,a0
    30004c10:	00058413          	mv	s0,a1
    30004c14:	0cd000ef          	jal	ra,300054e0 <rt_hw_interrupt_disable>
    30004c18:	00050913          	mv	s2,a0
    30004c1c:	a7cfc0ef          	jal	ra,30000e98 <rt_interrupt_get_nest>
    30004c20:	02050863          	beqz	a0,30004c50 <rt_realloc+0x60>
    30004c24:	4fffd597          	auipc	a1,0x4fffd
    30004c28:	9d458593          	addi	a1,a1,-1580 # 800015f8 <__FUNCTION__.2690>
    30004c2c:	4fffc517          	auipc	a0,0x4fffc
    30004c30:	b2c50513          	addi	a0,a0,-1236 # 80000758 <_uart_ops+0x118>
    30004c34:	ee9fc0ef          	jal	ra,30001b1c <rt_kprintf>
    30004c38:	1ac00613          	li	a2,428
    30004c3c:	4fffd597          	auipc	a1,0x4fffd
    30004c40:	9bc58593          	addi	a1,a1,-1604 # 800015f8 <__FUNCTION__.2690>
    30004c44:	4fffc517          	auipc	a0,0x4fffc
    30004c48:	a6c50513          	addi	a0,a0,-1428 # 800006b0 <_uart_ops+0x70>
    30004c4c:	84cfd0ef          	jal	ra,30001c98 <rt_assert_handler>
    30004c50:	00090513          	mv	a0,s2
    30004c54:	095000ef          	jal	ra,300054e8 <rt_hw_interrupt_enable>
    30004c58:	8e818a13          	addi	s4,gp,-1816 # 800042b0 <mem_size_aligned>
    30004c5c:	000a3783          	ld	a5,0(s4)
    30004c60:	00740413          	addi	s0,s0,7
    30004c64:	ff847413          	andi	s0,s0,-8
    30004c68:	0087e863          	bltu	a5,s0,30004c78 <rt_realloc+0x88>
    30004c6c:	00041a63          	bnez	s0,30004c80 <rt_realloc+0x90>
    30004c70:	00048513          	mv	a0,s1
    30004c74:	d85ff0ef          	jal	ra,300049f8 <rt_free>
    30004c78:	00000913          	li	s2,0
    30004c7c:	05c0006f          	j	30004cd8 <rt_realloc+0xe8>
    30004c80:	02049463          	bnez	s1,30004ca8 <rt_realloc+0xb8>
    30004c84:	00040513          	mv	a0,s0
    30004c88:	03013403          	ld	s0,48(sp)
    30004c8c:	03813083          	ld	ra,56(sp)
    30004c90:	02813483          	ld	s1,40(sp)
    30004c94:	02013903          	ld	s2,32(sp)
    30004c98:	01813983          	ld	s3,24(sp)
    30004c9c:	01013a03          	ld	s4,16(sp)
    30004ca0:	04010113          	addi	sp,sp,64
    30004ca4:	a21ff06f          	j	300046c4 <rt_malloc>
    30004ca8:	fff00593          	li	a1,-1
    30004cac:	50008517          	auipc	a0,0x50008
    30004cb0:	c3450513          	addi	a0,a0,-972 # 8000c8e0 <heap_sem>
    30004cb4:	98dfb0ef          	jal	ra,30000640 <rt_sem_take>
    30004cb8:	8d01b903          	ld	s2,-1840(gp) # 80004298 <heap_ptr>
    30004cbc:	0124e663          	bltu	s1,s2,30004cc8 <rt_realloc+0xd8>
    30004cc0:	8c81b783          	ld	a5,-1848(gp) # 80004290 <heap_end>
    30004cc4:	02f4ec63          	bltu	s1,a5,30004cfc <rt_realloc+0x10c>
    30004cc8:	50008517          	auipc	a0,0x50008
    30004ccc:	c1850513          	addi	a0,a0,-1000 # 8000c8e0 <heap_sem>
    30004cd0:	b29fb0ef          	jal	ra,300007f8 <rt_sem_release>
    30004cd4:	00048913          	mv	s2,s1
    30004cd8:	03813083          	ld	ra,56(sp)
    30004cdc:	03013403          	ld	s0,48(sp)
    30004ce0:	02813483          	ld	s1,40(sp)
    30004ce4:	01813983          	ld	s3,24(sp)
    30004ce8:	01013a03          	ld	s4,16(sp)
    30004cec:	00090513          	mv	a0,s2
    30004cf0:	02013903          	ld	s2,32(sp)
    30004cf4:	04010113          	addi	sp,sp,64
    30004cf8:	00008067          	ret
    30004cfc:	fe84b683          	ld	a3,-24(s1)
    30004d00:	fe048793          	addi	a5,s1,-32
    30004d04:	412787b3          	sub	a5,a5,s2
    30004d08:	fe068593          	addi	a1,a3,-32
    30004d0c:	40f589b3          	sub	s3,a1,a5
    30004d10:	fb340ce3          	beq	s0,s3,30004cc8 <rt_realloc+0xd8>
    30004d14:	03840713          	addi	a4,s0,56
    30004d18:	09377063          	bgeu	a4,s3,30004d98 <rt_realloc+0x1a8>
    30004d1c:	90018613          	addi	a2,gp,-1792 # 800042c8 <used_mem>
    30004d20:	00063703          	ld	a4,0(a2)
    30004d24:	00f40433          	add	s0,s0,a5
    30004d28:	00e40733          	add	a4,s0,a4
    30004d2c:	40b70733          	sub	a4,a4,a1
    30004d30:	00e63023          	sd	a4,0(a2)
    30004d34:	02040413          	addi	s0,s0,32
    30004d38:	00002737          	lui	a4,0x2
    30004d3c:	00890533          	add	a0,s2,s0
    30004d40:	ea07071b          	addiw	a4,a4,-352 # 1ea0 <__stack_size+0x16a0>
    30004d44:	00e52023          	sw	a4,0(a0)
    30004d48:	00f53823          	sd	a5,16(a0)
    30004d4c:	00d53423          	sd	a3,8(a0)
    30004d50:	4fffc597          	auipc	a1,0x4fffc
    30004d54:	68858593          	addi	a1,a1,1672 # 800013d8 <__FUNCTION__.2730+0x238>
    30004d58:	00a13423          	sd	a0,8(sp)
    30004d5c:	becff0ef          	jal	ra,30004148 <rt_mem_setname>
    30004d60:	00813503          	ld	a0,8(sp)
    30004d64:	000a3783          	ld	a5,0(s4)
    30004d68:	fe84b423          	sd	s0,-24(s1)
    30004d6c:	00853703          	ld	a4,8(a0)
    30004d70:	02078793          	addi	a5,a5,32
    30004d74:	00f70663          	beq	a4,a5,30004d80 <rt_realloc+0x190>
    30004d78:	00e90933          	add	s2,s2,a4
    30004d7c:	00893823          	sd	s0,16(s2)
    30004d80:	8d818793          	addi	a5,gp,-1832 # 800042a0 <lfree>
    30004d84:	0007b703          	ld	a4,0(a5)
    30004d88:	00e57463          	bgeu	a0,a4,30004d90 <rt_realloc+0x1a0>
    30004d8c:	00a7b023          	sd	a0,0(a5)
    30004d90:	dd4ff0ef          	jal	ra,30004364 <plug_holes>
    30004d94:	f35ff06f          	j	30004cc8 <rt_realloc+0xd8>
    30004d98:	50008517          	auipc	a0,0x50008
    30004d9c:	b4850513          	addi	a0,a0,-1208 # 8000c8e0 <heap_sem>
    30004da0:	a59fb0ef          	jal	ra,300007f8 <rt_sem_release>
    30004da4:	00040513          	mv	a0,s0
    30004da8:	91dff0ef          	jal	ra,300046c4 <rt_malloc>
    30004dac:	00050913          	mv	s2,a0
    30004db0:	f20504e3          	beqz	a0,30004cd8 <rt_realloc+0xe8>
    30004db4:	00040613          	mv	a2,s0
    30004db8:	0089f463          	bgeu	s3,s0,30004dc0 <rt_realloc+0x1d0>
    30004dbc:	00098613          	mv	a2,s3
    30004dc0:	00048593          	mv	a1,s1
    30004dc4:	00090513          	mv	a0,s2
    30004dc8:	c2cfc0ef          	jal	ra,300011f4 <rt_memcpy>
    30004dcc:	00048513          	mv	a0,s1
    30004dd0:	c29ff0ef          	jal	ra,300049f8 <rt_free>
    30004dd4:	f05ff06f          	j	30004cd8 <rt_realloc+0xe8>

0000000030004dd8 <rt_hw_stack_init>:
    30004dd8:	00860613          	addi	a2,a2,8
    30004ddc:	ff867613          	andi	a2,a2,-8
    30004de0:	37ab77b7          	lui	a5,0x37ab7
    30004de4:	00050813          	mv	a6,a0
    30004de8:	00279793          	slli	a5,a5,0x2
    30004dec:	ef860513          	addi	a0,a2,-264
    30004df0:	00050713          	mv	a4,a0
    30004df4:	eef78793          	addi	a5,a5,-273 # 37ab6eef <_data_lma+0x7aaa287>
    30004df8:	00f73023          	sd	a5,0(a4)
    30004dfc:	00870713          	addi	a4,a4,8
    30004e00:	fee61ce3          	bne	a2,a4,30004df8 <rt_hw_stack_init+0x20>
    30004e04:	00018793          	mv	a5,gp
    30004e08:	f0f63823          	sd	a5,-240(a2)
    30004e0c:	10850793          	addi	a5,a0,264
    30004e10:	fef63c23          	sd	a5,-8(a2)
    30004e14:	000087b7          	lui	a5,0x8
    30004e18:	88078793          	addi	a5,a5,-1920 # 7880 <__stack_size+0x7080>
    30004e1c:	f0d63023          	sd	a3,-256(a2)
    30004e20:	f4b63423          	sd	a1,-184(a2)
    30004e24:	ef063c23          	sd	a6,-264(a2)
    30004e28:	f0f63423          	sd	a5,-248(a2)
    30004e2c:	00008067          	ret

0000000030004e30 <rt_hw_context_switch_interrupt>:
    30004e30:	91818793          	addi	a5,gp,-1768 # 800042e0 <rt_thread_switch_interrupt_flag>
    30004e34:	0007b703          	ld	a4,0(a5)
    30004e38:	00071463          	bnez	a4,30004e40 <rt_hw_context_switch_interrupt+0x10>
    30004e3c:	90a1b423          	sd	a0,-1784(gp) # 800042d0 <rt_interrupt_from_thread>
    30004e40:	90b1b823          	sd	a1,-1776(gp) # 800042d8 <rt_interrupt_to_thread>
    30004e44:	00100713          	li	a4,1
    30004e48:	00e7b023          	sd	a4,0(a5)
    30004e4c:	00008067          	ret

0000000030004e50 <rt_hw_interrupt_handle>:
    30004e50:	ff010113          	addi	sp,sp,-16
    30004e54:	00050593          	mv	a1,a0
    30004e58:	4fffd517          	auipc	a0,0x4fffd
    30004e5c:	83850513          	addi	a0,a0,-1992 # 80001690 <__fsym_list_mem_name+0x10>
    30004e60:	00113423          	sd	ra,8(sp)
    30004e64:	cb9fc0ef          	jal	ra,30001b1c <rt_kprintf>
    30004e68:	00813083          	ld	ra,8(sp)
    30004e6c:	00000513          	li	a0,0
    30004e70:	01010113          	addi	sp,sp,16
    30004e74:	00008067          	ret

0000000030004e78 <rt_hw_interrupt_init>:
    30004e78:	50008797          	auipc	a5,0x50008
    30004e7c:	aa878793          	addi	a5,a5,-1368 # 8000c920 <irq_desc>
    30004e80:	50008717          	auipc	a4,0x50008
    30004e84:	2a070713          	addi	a4,a4,672 # 8000d120 <finsh_prompt.4521>
    30004e88:	00000697          	auipc	a3,0x0
    30004e8c:	fc868693          	addi	a3,a3,-56 # 30004e50 <rt_hw_interrupt_handle>
    30004e90:	00d7b023          	sd	a3,0(a5)
    30004e94:	0007b423          	sd	zero,8(a5)
    30004e98:	01078793          	addi	a5,a5,16
    30004e9c:	fee79ae3          	bne	a5,a4,30004e90 <rt_hw_interrupt_init+0x18>
    30004ea0:	00008067          	ret

0000000030004ea4 <dump_regs>:
    30004ea4:	ff010113          	addi	sp,sp,-16
    30004ea8:	00813023          	sd	s0,0(sp)
    30004eac:	00050413          	mv	s0,a0
    30004eb0:	4fffd517          	auipc	a0,0x4fffd
    30004eb4:	9a050513          	addi	a0,a0,-1632 # 80001850 <__fsym_list_mem_name+0x1d0>
    30004eb8:	00113423          	sd	ra,8(sp)
    30004ebc:	c61fc0ef          	jal	ra,30001b1c <rt_kprintf>
    30004ec0:	4fffd517          	auipc	a0,0x4fffd
    30004ec4:	9c050513          	addi	a0,a0,-1600 # 80001880 <__fsym_list_mem_name+0x200>
    30004ec8:	c55fc0ef          	jal	ra,30001b1c <rt_kprintf>
    30004ecc:	10043603          	ld	a2,256(s0)
    30004ed0:	00843583          	ld	a1,8(s0)
    30004ed4:	4fffd517          	auipc	a0,0x4fffd
    30004ed8:	9c450513          	addi	a0,a0,-1596 # 80001898 <__fsym_list_mem_name+0x218>
    30004edc:	c41fc0ef          	jal	ra,30001b1c <rt_kprintf>
    30004ee0:	02043603          	ld	a2,32(s0)
    30004ee4:	01843583          	ld	a1,24(s0)
    30004ee8:	4fffd517          	auipc	a0,0x4fffd
    30004eec:	9d050513          	addi	a0,a0,-1584 # 800018b8 <__fsym_list_mem_name+0x238>
    30004ef0:	c2dfc0ef          	jal	ra,30001b1c <rt_kprintf>
    30004ef4:	4fffd517          	auipc	a0,0x4fffd
    30004ef8:	9e450513          	addi	a0,a0,-1564 # 800018d8 <__fsym_list_mem_name+0x258>
    30004efc:	c21fc0ef          	jal	ra,30001b1c <rt_kprintf>
    30004f00:	03043603          	ld	a2,48(s0)
    30004f04:	02843583          	ld	a1,40(s0)
    30004f08:	4fffd517          	auipc	a0,0x4fffd
    30004f0c:	9e850513          	addi	a0,a0,-1560 # 800018f0 <__fsym_list_mem_name+0x270>
    30004f10:	c0dfc0ef          	jal	ra,30001b1c <rt_kprintf>
    30004f14:	03843583          	ld	a1,56(s0)
    30004f18:	4fffd517          	auipc	a0,0x4fffd
    30004f1c:	9f850513          	addi	a0,a0,-1544 # 80001910 <__fsym_list_mem_name+0x290>
    30004f20:	bfdfc0ef          	jal	ra,30001b1c <rt_kprintf>
    30004f24:	0e843603          	ld	a2,232(s0)
    30004f28:	0e043583          	ld	a1,224(s0)
    30004f2c:	4fffd517          	auipc	a0,0x4fffd
    30004f30:	9f450513          	addi	a0,a0,-1548 # 80001920 <__fsym_list_mem_name+0x2a0>
    30004f34:	be9fc0ef          	jal	ra,30001b1c <rt_kprintf>
    30004f38:	0f843603          	ld	a2,248(s0)
    30004f3c:	0f043583          	ld	a1,240(s0)
    30004f40:	4fffd517          	auipc	a0,0x4fffd
    30004f44:	a0050513          	addi	a0,a0,-1536 # 80001940 <__fsym_list_mem_name+0x2c0>
    30004f48:	bd5fc0ef          	jal	ra,30001b1c <rt_kprintf>
    30004f4c:	4fffd517          	auipc	a0,0x4fffd
    30004f50:	a1450513          	addi	a0,a0,-1516 # 80001960 <__fsym_list_mem_name+0x2e0>
    30004f54:	bc9fc0ef          	jal	ra,30001b1c <rt_kprintf>
    30004f58:	04843603          	ld	a2,72(s0)
    30004f5c:	04043583          	ld	a1,64(s0)
    30004f60:	4fffd517          	auipc	a0,0x4fffd
    30004f64:	a1850513          	addi	a0,a0,-1512 # 80001978 <__fsym_list_mem_name+0x2f8>
    30004f68:	bb5fc0ef          	jal	ra,30001b1c <rt_kprintf>
    30004f6c:	09843603          	ld	a2,152(s0)
    30004f70:	09043583          	ld	a1,144(s0)
    30004f74:	4fffd517          	auipc	a0,0x4fffd
    30004f78:	a2c50513          	addi	a0,a0,-1492 # 800019a0 <__fsym_list_mem_name+0x320>
    30004f7c:	ba1fc0ef          	jal	ra,30001b1c <rt_kprintf>
    30004f80:	0a843603          	ld	a2,168(s0)
    30004f84:	0a043583          	ld	a1,160(s0)
    30004f88:	4fffd517          	auipc	a0,0x4fffd
    30004f8c:	a3850513          	addi	a0,a0,-1480 # 800019c0 <__fsym_list_mem_name+0x340>
    30004f90:	b8dfc0ef          	jal	ra,30001b1c <rt_kprintf>
    30004f94:	0b843603          	ld	a2,184(s0)
    30004f98:	0b043583          	ld	a1,176(s0)
    30004f9c:	4fffd517          	auipc	a0,0x4fffd
    30004fa0:	a4450513          	addi	a0,a0,-1468 # 800019e0 <__fsym_list_mem_name+0x360>
    30004fa4:	b79fc0ef          	jal	ra,30001b1c <rt_kprintf>
    30004fa8:	0c843603          	ld	a2,200(s0)
    30004fac:	0c043583          	ld	a1,192(s0)
    30004fb0:	4fffd517          	auipc	a0,0x4fffd
    30004fb4:	a5050513          	addi	a0,a0,-1456 # 80001a00 <__fsym_list_mem_name+0x380>
    30004fb8:	b65fc0ef          	jal	ra,30001b1c <rt_kprintf>
    30004fbc:	0d843603          	ld	a2,216(s0)
    30004fc0:	0d043583          	ld	a1,208(s0)
    30004fc4:	4fffd517          	auipc	a0,0x4fffd
    30004fc8:	a5c50513          	addi	a0,a0,-1444 # 80001a20 <__fsym_list_mem_name+0x3a0>
    30004fcc:	b51fc0ef          	jal	ra,30001b1c <rt_kprintf>
    30004fd0:	4fffd517          	auipc	a0,0x4fffd
    30004fd4:	a7850513          	addi	a0,a0,-1416 # 80001a48 <__fsym_list_mem_name+0x3c8>
    30004fd8:	b45fc0ef          	jal	ra,30001b1c <rt_kprintf>
    30004fdc:	05843603          	ld	a2,88(s0)
    30004fe0:	05043583          	ld	a1,80(s0)
    30004fe4:	4fffd517          	auipc	a0,0x4fffd
    30004fe8:	a8450513          	addi	a0,a0,-1404 # 80001a68 <__fsym_list_mem_name+0x3e8>
    30004fec:	b31fc0ef          	jal	ra,30001b1c <rt_kprintf>
    30004ff0:	06843603          	ld	a2,104(s0)
    30004ff4:	06043583          	ld	a1,96(s0)
    30004ff8:	4fffd517          	auipc	a0,0x4fffd
    30004ffc:	a9050513          	addi	a0,a0,-1392 # 80001a88 <__fsym_list_mem_name+0x408>
    30005000:	b1dfc0ef          	jal	ra,30001b1c <rt_kprintf>
    30005004:	07843603          	ld	a2,120(s0)
    30005008:	07043583          	ld	a1,112(s0)
    3000500c:	4fffd517          	auipc	a0,0x4fffd
    30005010:	a9c50513          	addi	a0,a0,-1380 # 80001aa8 <__fsym_list_mem_name+0x428>
    30005014:	b09fc0ef          	jal	ra,30001b1c <rt_kprintf>
    30005018:	08843603          	ld	a2,136(s0)
    3000501c:	08043583          	ld	a1,128(s0)
    30005020:	4fffd517          	auipc	a0,0x4fffd
    30005024:	aa850513          	addi	a0,a0,-1368 # 80001ac8 <__fsym_list_mem_name+0x448>
    30005028:	af5fc0ef          	jal	ra,30001b1c <rt_kprintf>
    3000502c:	01043583          	ld	a1,16(s0)
    30005030:	4fffd517          	auipc	a0,0x4fffd
    30005034:	ab850513          	addi	a0,a0,-1352 # 80001ae8 <__fsym_list_mem_name+0x468>
    30005038:	ae5fc0ef          	jal	ra,30001b1c <rt_kprintf>
    3000503c:	01043783          	ld	a5,16(s0)
    30005040:	4fffc597          	auipc	a1,0x4fffc
    30005044:	69858593          	addi	a1,a1,1688 # 800016d8 <__fsym_list_mem_name+0x58>
    30005048:	0027f793          	andi	a5,a5,2
    3000504c:	00078663          	beqz	a5,30005058 <dump_regs+0x1b4>
    30005050:	4fffc597          	auipc	a1,0x4fffc
    30005054:	66858593          	addi	a1,a1,1640 # 800016b8 <__fsym_list_mem_name+0x38>
    30005058:	4fffd517          	auipc	a0,0x4fffd
    3000505c:	aa050513          	addi	a0,a0,-1376 # 80001af8 <__fsym_list_mem_name+0x478>
    30005060:	abdfc0ef          	jal	ra,30001b1c <rt_kprintf>
    30005064:	01043783          	ld	a5,16(s0)
    30005068:	4fffc597          	auipc	a1,0x4fffc
    3000506c:	69058593          	addi	a1,a1,1680 # 800016f8 <__fsym_list_mem_name+0x78>
    30005070:	0207f793          	andi	a5,a5,32
    30005074:	00079663          	bnez	a5,30005080 <dump_regs+0x1dc>
    30005078:	4fffc597          	auipc	a1,0x4fffc
    3000507c:	6a858593          	addi	a1,a1,1704 # 80001720 <__fsym_list_mem_name+0xa0>
    30005080:	4fffd517          	auipc	a0,0x4fffd
    30005084:	a7850513          	addi	a0,a0,-1416 # 80001af8 <__fsym_list_mem_name+0x478>
    30005088:	a95fc0ef          	jal	ra,30001b1c <rt_kprintf>
    3000508c:	01043783          	ld	a5,16(s0)
    30005090:	4fffc597          	auipc	a1,0x4fffc
    30005094:	6b858593          	addi	a1,a1,1720 # 80001748 <__fsym_list_mem_name+0xc8>
    30005098:	1007f793          	andi	a5,a5,256
    3000509c:	00079663          	bnez	a5,300050a8 <dump_regs+0x204>
    300050a0:	4fffc597          	auipc	a1,0x4fffc
    300050a4:	6d058593          	addi	a1,a1,1744 # 80001770 <__fsym_list_mem_name+0xf0>
    300050a8:	4fffd517          	auipc	a0,0x4fffd
    300050ac:	a5050513          	addi	a0,a0,-1456 # 80001af8 <__fsym_list_mem_name+0x478>
    300050b0:	a6dfc0ef          	jal	ra,30001b1c <rt_kprintf>
    300050b4:	01043783          	ld	a5,16(s0)
    300050b8:	4fffc597          	auipc	a1,0x4fffc
    300050bc:	6d858593          	addi	a1,a1,1752 # 80001790 <__fsym_list_mem_name+0x110>
    300050c0:	02d79713          	slli	a4,a5,0x2d
    300050c4:	00074663          	bltz	a4,300050d0 <dump_regs+0x22c>
    300050c8:	4fffc597          	auipc	a1,0x4fffc
    300050cc:	6e858593          	addi	a1,a1,1768 # 800017b0 <__fsym_list_mem_name+0x130>
    300050d0:	4fffd517          	auipc	a0,0x4fffd
    300050d4:	a2850513          	addi	a0,a0,-1496 # 80001af8 <__fsym_list_mem_name+0x478>
    300050d8:	a45fc0ef          	jal	ra,30001b1c <rt_kprintf>
    300050dc:	01043783          	ld	a5,16(s0)
    300050e0:	4fffc597          	auipc	a1,0x4fffc
    300050e4:	6f058593          	addi	a1,a1,1776 # 800017d0 <__fsym_list_mem_name+0x150>
    300050e8:	02c79713          	slli	a4,a5,0x2c
    300050ec:	00074663          	bltz	a4,300050f8 <dump_regs+0x254>
    300050f0:	4fffc597          	auipc	a1,0x4fffc
    300050f4:	70858593          	addi	a1,a1,1800 # 800017f8 <__fsym_list_mem_name+0x178>
    300050f8:	4fffd517          	auipc	a0,0x4fffd
    300050fc:	a0050513          	addi	a0,a0,-1536 # 80001af8 <__fsym_list_mem_name+0x478>
    30005100:	a1dfc0ef          	jal	ra,30001b1c <rt_kprintf>
    30005104:	18002473          	csrr	s0,satp
    30005108:	4fffd517          	auipc	a0,0x4fffd
    3000510c:	9f850513          	addi	a0,a0,-1544 # 80001b00 <__fsym_list_mem_name+0x480>
    30005110:	00040593          	mv	a1,s0
    30005114:	a09fc0ef          	jal	ra,30001b1c <rt_kprintf>
    30005118:	03c45413          	srli	s0,s0,0x3c
    3000511c:	00900793          	li	a5,9
    30005120:	4fffc597          	auipc	a1,0x4fffc
    30005124:	70058593          	addi	a1,a1,1792 # 80001820 <__fsym_list_mem_name+0x1a0>
    30005128:	0087ec63          	bltu	a5,s0,30005140 <dump_regs+0x29c>
    3000512c:	4fffd597          	auipc	a1,0x4fffd
    30005130:	cb458593          	addi	a1,a1,-844 # 80001de0 <CSWTCH.17>
    30005134:	00341413          	slli	s0,s0,0x3
    30005138:	00858433          	add	s0,a1,s0
    3000513c:	00043583          	ld	a1,0(s0)
    30005140:	4fffd517          	auipc	a0,0x4fffd
    30005144:	9d050513          	addi	a0,a0,-1584 # 80001b10 <__fsym_list_mem_name+0x490>
    30005148:	9d5fc0ef          	jal	ra,30001b1c <rt_kprintf>
    3000514c:	00013403          	ld	s0,0(sp)
    30005150:	00813083          	ld	ra,8(sp)
    30005154:	4fffd517          	auipc	a0,0x4fffd
    30005158:	9cc50513          	addi	a0,a0,-1588 # 80001b20 <__fsym_list_mem_name+0x4a0>
    3000515c:	01010113          	addi	sp,sp,16
    30005160:	9bdfc06f          	j	30001b1c <rt_kprintf>

0000000030005164 <handle_trap>:
    30005164:	fd010113          	addi	sp,sp,-48
    30005168:	02813023          	sd	s0,32(sp)
    3000516c:	02113423          	sd	ra,40(sp)
    30005170:	00913c23          	sd	s1,24(sp)
    30005174:	01213823          	sd	s2,16(sp)
    30005178:	01313423          	sd	s3,8(sp)
    3000517c:	01413023          	sd	s4,0(sp)
    30005180:	0005041b          	sext.w	s0,a0
    30005184:	08055063          	bgez	a0,30005204 <handle_trap+0xa0>
    30005188:	00900793          	li	a5,9
    3000518c:	04f40463          	beq	s0,a5,300051d4 <handle_trap+0x70>
    30005190:	0087cc63          	blt	a5,s0,300051a8 <handle_trap+0x44>
    30005194:	ffd47413          	andi	s0,s0,-3
    30005198:	00500793          	li	a5,5
    3000519c:	00f41a63          	bne	s0,a5,300051b0 <handle_trap+0x4c>
    300051a0:	1ac000ef          	jal	ra,3000534c <tick_isr>
    300051a4:	00c0006f          	j	300051b0 <handle_trap+0x4c>
    300051a8:	00b00793          	li	a5,11
    300051ac:	02f40463          	beq	s0,a5,300051d4 <handle_trap+0x70>
    300051b0:	02013403          	ld	s0,32(sp)
    300051b4:	02813083          	ld	ra,40(sp)
    300051b8:	01813483          	ld	s1,24(sp)
    300051bc:	01013903          	ld	s2,16(sp)
    300051c0:	00813983          	ld	s3,8(sp)
    300051c4:	00013a03          	ld	s4,0(sp)
    300051c8:	00000513          	li	a0,0
    300051cc:	03010113          	addi	sp,sp,48
    300051d0:	3180006f          	j	300054e8 <rt_hw_interrupt_enable>
    300051d4:	eddfa0ef          	jal	ra,300000b0 <plic_claim>
    300051d8:	00050413          	mv	s0,a0
    300051dc:	eedfa0ef          	jal	ra,300000c8 <plic_complete>
    300051e0:	00441713          	slli	a4,s0,0x4
    300051e4:	50007797          	auipc	a5,0x50007
    300051e8:	73c78793          	addi	a5,a5,1852 # 8000c920 <irq_desc>
    300051ec:	00e787b3          	add	a5,a5,a4
    300051f0:	0007b703          	ld	a4,0(a5)
    300051f4:	0087b583          	ld	a1,8(a5)
    300051f8:	00040513          	mv	a0,s0
    300051fc:	000700e7          	jalr	a4
    30005200:	fb1ff06f          	j	300051b0 <handle_trap+0x4c>
    30005204:	00050493          	mv	s1,a0
    30005208:	00058a13          	mv	s4,a1
    3000520c:	00060913          	mv	s2,a2
    30005210:	00068993          	mv	s3,a3
    30005214:	2cc000ef          	jal	ra,300054e0 <rt_hw_interrupt_disable>
    30005218:	00048593          	mv	a1,s1
    3000521c:	00090693          	mv	a3,s2
    30005220:	000a0613          	mv	a2,s4
    30005224:	4fffd517          	auipc	a0,0x4fffd
    30005228:	92c50513          	addi	a0,a0,-1748 # 80001b50 <__fsym_list_mem_name+0x4d0>
    3000522c:	8f1fc0ef          	jal	ra,30001b1c <rt_kprintf>
    30005230:	a71fd0ef          	jal	ra,30002ca0 <rt_thread_self>
    30005234:	00050493          	mv	s1,a0
    30005238:	4fffd517          	auipc	a0,0x4fffd
    3000523c:	94050513          	addi	a0,a0,-1728 # 80001b78 <__fsym_list_mem_name+0x4f8>
    30005240:	8ddfc0ef          	jal	ra,30001b1c <rt_kprintf>
    30005244:	00b00793          	li	a5,11
    30005248:	0e87e863          	bltu	a5,s0,30005338 <handle_trap+0x1d4>
    3000524c:	4fffd717          	auipc	a4,0x4fffd
    30005250:	adc70713          	addi	a4,a4,-1316 # 80001d28 <__fsym_list_mem_name+0x6a8>
    30005254:	00241413          	slli	s0,s0,0x2
    30005258:	00e40433          	add	s0,s0,a4
    3000525c:	00042783          	lw	a5,0(s0)
    30005260:	00e787b3          	add	a5,a5,a4
    30005264:	00078067          	jr	a5
    30005268:	4fffd517          	auipc	a0,0x4fffd
    3000526c:	92050513          	addi	a0,a0,-1760 # 80001b88 <__fsym_list_mem_name+0x508>
    30005270:	8adfc0ef          	jal	ra,30001b1c <rt_kprintf>
    30005274:	4fffd517          	auipc	a0,0x4fffd
    30005278:	bcc50513          	addi	a0,a0,-1076 # 80001e40 <CSWTCH.17+0x60>
    3000527c:	8a1fc0ef          	jal	ra,30001b1c <rt_kprintf>
    30005280:	00098513          	mv	a0,s3
    30005284:	c21ff0ef          	jal	ra,30004ea4 <dump_regs>
    30005288:	00090593          	mv	a1,s2
    3000528c:	4fffd517          	auipc	a0,0x4fffd
    30005290:	a6c50513          	addi	a0,a0,-1428 # 80001cf8 <__fsym_list_mem_name+0x678>
    30005294:	889fc0ef          	jal	ra,30001b1c <rt_kprintf>
    30005298:	00048613          	mv	a2,s1
    3000529c:	01400593          	li	a1,20
    300052a0:	4fffd517          	auipc	a0,0x4fffd
    300052a4:	a7050513          	addi	a0,a0,-1424 # 80001d10 <__fsym_list_mem_name+0x690>
    300052a8:	875fc0ef          	jal	ra,30001b1c <rt_kprintf>
    300052ac:	640000ef          	jal	ra,300058ec <list_thread>
    300052b0:	0000006f          	j	300052b0 <handle_trap+0x14c>
    300052b4:	4fffd517          	auipc	a0,0x4fffd
    300052b8:	8f450513          	addi	a0,a0,-1804 # 80001ba8 <__fsym_list_mem_name+0x528>
    300052bc:	fb5ff06f          	j	30005270 <handle_trap+0x10c>
    300052c0:	4fffd517          	auipc	a0,0x4fffd
    300052c4:	90850513          	addi	a0,a0,-1784 # 80001bc8 <__fsym_list_mem_name+0x548>
    300052c8:	fa9ff06f          	j	30005270 <handle_trap+0x10c>
    300052cc:	4fffd517          	auipc	a0,0x4fffd
    300052d0:	91450513          	addi	a0,a0,-1772 # 80001be0 <__fsym_list_mem_name+0x560>
    300052d4:	f9dff06f          	j	30005270 <handle_trap+0x10c>
    300052d8:	4fffd517          	auipc	a0,0x4fffd
    300052dc:	91850513          	addi	a0,a0,-1768 # 80001bf0 <__fsym_list_mem_name+0x570>
    300052e0:	f91ff06f          	j	30005270 <handle_trap+0x10c>
    300052e4:	4fffd517          	auipc	a0,0x4fffd
    300052e8:	92450513          	addi	a0,a0,-1756 # 80001c08 <__fsym_list_mem_name+0x588>
    300052ec:	f85ff06f          	j	30005270 <handle_trap+0x10c>
    300052f0:	4fffd517          	auipc	a0,0x4fffd
    300052f4:	93050513          	addi	a0,a0,-1744 # 80001c20 <__fsym_list_mem_name+0x5a0>
    300052f8:	f79ff06f          	j	30005270 <handle_trap+0x10c>
    300052fc:	4fffd517          	auipc	a0,0x4fffd
    30005300:	94450513          	addi	a0,a0,-1724 # 80001c40 <__fsym_list_mem_name+0x5c0>
    30005304:	f6dff06f          	j	30005270 <handle_trap+0x10c>
    30005308:	4fffd517          	auipc	a0,0x4fffd
    3000530c:	95050513          	addi	a0,a0,-1712 # 80001c58 <__fsym_list_mem_name+0x5d8>
    30005310:	f61ff06f          	j	30005270 <handle_trap+0x10c>
    30005314:	4fffd517          	auipc	a0,0x4fffd
    30005318:	96450513          	addi	a0,a0,-1692 # 80001c78 <__fsym_list_mem_name+0x5f8>
    3000531c:	f55ff06f          	j	30005270 <handle_trap+0x10c>
    30005320:	4fffd517          	auipc	a0,0x4fffd
    30005324:	97850513          	addi	a0,a0,-1672 # 80001c98 <__fsym_list_mem_name+0x618>
    30005328:	f49ff06f          	j	30005270 <handle_trap+0x10c>
    3000532c:	4fffd517          	auipc	a0,0x4fffd
    30005330:	98c50513          	addi	a0,a0,-1652 # 80001cb8 <__fsym_list_mem_name+0x638>
    30005334:	f3dff06f          	j	30005270 <handle_trap+0x10c>
    30005338:	00040593          	mv	a1,s0
    3000533c:	4fffd517          	auipc	a0,0x4fffd
    30005340:	99c50513          	addi	a0,a0,-1636 # 80001cd8 <__fsym_list_mem_name+0x658>
    30005344:	fd8fc0ef          	jal	ra,30001b1c <rt_kprintf>
    30005348:	f2dff06f          	j	30005274 <handle_trap+0x110>

000000003000534c <tick_isr>:
    3000534c:	ff010113          	addi	sp,sp,-16
    30005350:	00113423          	sd	ra,8(sp)
    30005354:	a31fb0ef          	jal	ra,30000d84 <rt_tick_increase>
    30005358:	f14027f3          	csrr	a5,mhartid
    3000535c:	0027979b          	slliw	a5,a5,0x2
    30005360:	02079793          	slli	a5,a5,0x20
    30005364:	02004737          	lui	a4,0x2004
    30005368:	0207d793          	srli	a5,a5,0x20
    3000536c:	00f707b3          	add	a5,a4,a5
    30005370:	0200c737          	lui	a4,0x200c
    30005374:	ff873703          	ld	a4,-8(a4) # 200bff8 <__stack_size+0x200b7f8>
    30005378:	000186b7          	lui	a3,0x18
    3000537c:	00813083          	ld	ra,8(sp)
    30005380:	6a068693          	addi	a3,a3,1696 # 186a0 <__stack_size+0x17ea0>
    30005384:	00d70733          	add	a4,a4,a3
    30005388:	00e7b023          	sd	a4,0(a5)
    3000538c:	00000513          	li	a0,0
    30005390:	01010113          	addi	sp,sp,16
    30005394:	00008067          	ret

0000000030005398 <rt_hw_tick_init>:
    30005398:	08000713          	li	a4,128
    3000539c:	304737f3          	csrrc	a5,mie,a4
    300053a0:	344737f3          	csrrc	a5,mip,a4
    300053a4:	f14027f3          	csrr	a5,mhartid
    300053a8:	0027979b          	slliw	a5,a5,0x2
    300053ac:	02079793          	slli	a5,a5,0x20
    300053b0:	020046b7          	lui	a3,0x2004
    300053b4:	0207d793          	srli	a5,a5,0x20
    300053b8:	00f687b3          	add	a5,a3,a5
    300053bc:	0200c6b7          	lui	a3,0x200c
    300053c0:	ff86b683          	ld	a3,-8(a3) # 200bff8 <__stack_size+0x200b7f8>
    300053c4:	00018637          	lui	a2,0x18
    300053c8:	6a060613          	addi	a2,a2,1696 # 186a0 <__stack_size+0x17ea0>
    300053cc:	00c686b3          	add	a3,a3,a2
    300053d0:	00d7b023          	sd	a3,0(a5)
    300053d4:	30472773          	csrrs	a4,mie,a4
    300053d8:	00000513          	li	a0,0
    300053dc:	00008067          	ret

00000000300053e0 <trap_entry>:
    300053e0:	f0010113          	addi	sp,sp,-256
    300053e4:	00113423          	sd	ra,8(sp)
    300053e8:	300020f3          	csrr	ra,mstatus
    300053ec:	00113823          	sd	ra,16(sp)
    300053f0:	341020f3          	csrr	ra,mepc
    300053f4:	00113023          	sd	ra,0(sp)
    300053f8:	02413023          	sd	tp,32(sp)
    300053fc:	02513423          	sd	t0,40(sp)
    30005400:	02613823          	sd	t1,48(sp)
    30005404:	02713c23          	sd	t2,56(sp)
    30005408:	04813023          	sd	s0,64(sp)
    3000540c:	04913423          	sd	s1,72(sp)
    30005410:	04a13823          	sd	a0,80(sp)
    30005414:	04b13c23          	sd	a1,88(sp)
    30005418:	06c13023          	sd	a2,96(sp)
    3000541c:	06d13423          	sd	a3,104(sp)
    30005420:	06e13823          	sd	a4,112(sp)
    30005424:	06f13c23          	sd	a5,120(sp)
    30005428:	09013023          	sd	a6,128(sp)
    3000542c:	09113423          	sd	a7,136(sp)
    30005430:	09213823          	sd	s2,144(sp)
    30005434:	09313c23          	sd	s3,152(sp)
    30005438:	0b413023          	sd	s4,160(sp)
    3000543c:	0b513423          	sd	s5,168(sp)
    30005440:	0b613823          	sd	s6,176(sp)
    30005444:	0b713c23          	sd	s7,184(sp)
    30005448:	0d813023          	sd	s8,192(sp)
    3000544c:	0d913423          	sd	s9,200(sp)
    30005450:	0da13823          	sd	s10,208(sp)
    30005454:	0db13c23          	sd	s11,216(sp)
    30005458:	0fc13023          	sd	t3,224(sp)
    3000545c:	0fd13423          	sd	t4,232(sp)
    30005460:	0fe13823          	sd	t5,240(sp)
    30005464:	0ff13c23          	sd	t6,248(sp)
    30005468:	00010413          	mv	s0,sp
    3000546c:	f14022f3          	csrr	t0,mhartid
    30005470:	50ffb117          	auipc	sp,0x50ffb
    30005474:	b9010113          	addi	sp,sp,-1136 # 81000000 <__stack_start__>
    30005478:	00128313          	addi	t1,t0,1
    3000547c:	000043b7          	lui	t2,0x4
    30005480:	00000e13          	li	t3,0

0000000030005484 <mul_begin>:
    30005484:	007e0e33          	add	t3,t3,t2
    30005488:	fff30313          	addi	t1,t1,-1
    3000548c:	fe031ce3          	bnez	t1,30005484 <mul_begin>
    30005490:	000e0313          	mv	t1,t3
    30005494:	00610133          	add	sp,sp,t1
    30005498:	991fb0ef          	jal	ra,30000e28 <rt_interrupt_enter>
    3000549c:	34202573          	csrr	a0,mcause
    300054a0:	341025f3          	csrr	a1,mepc
    300054a4:	00040613          	mv	a2,s0
    300054a8:	cbdff0ef          	jal	ra,30005164 <handle_trap>
    300054ac:	9b5fb0ef          	jal	ra,30000e60 <rt_interrupt_leave>
    300054b0:	00040113          	mv	sp,s0
    300054b4:	91818413          	addi	s0,gp,-1768 # 800042e0 <rt_thread_switch_interrupt_flag>
    300054b8:	00042903          	lw	s2,0(s0)
    300054bc:	02090063          	beqz	s2,300054dc <spurious_interrupt>
    300054c0:	00042023          	sw	zero,0(s0)
    300054c4:	90818413          	addi	s0,gp,-1784 # 800042d0 <rt_interrupt_from_thread>
    300054c8:	00043483          	ld	s1,0(s0)
    300054cc:	0024b023          	sd	sp,0(s1)
    300054d0:	91018413          	addi	s0,gp,-1776 # 800042d8 <rt_interrupt_to_thread>
    300054d4:	00043483          	ld	s1,0(s0)
    300054d8:	0004b103          	ld	sp,0(s1)

00000000300054dc <spurious_interrupt>:
    300054dc:	0c00006f          	j	3000559c <rt_hw_context_switch_exit>

00000000300054e0 <rt_hw_interrupt_disable>:
    300054e0:	30047573          	csrrci	a0,mstatus,8
    300054e4:	00008067          	ret

00000000300054e8 <rt_hw_interrupt_enable>:
    300054e8:	30051073          	csrw	mstatus,a0
    300054ec:	00008067          	ret

00000000300054f0 <rt_hw_context_switch_to>:
    300054f0:	00053103          	ld	sp,0(a0)
    300054f4:	01013503          	ld	a0,16(sp)
    300054f8:	30051073          	csrw	mstatus,a0
    300054fc:	0a00006f          	j	3000559c <rt_hw_context_switch_exit>

0000000030005500 <rt_hw_context_switch>:
    30005500:	f0010113          	addi	sp,sp,-256
    30005504:	00253023          	sd	sp,0(a0)
    30005508:	00113023          	sd	ra,0(sp)
    3000550c:	00113423          	sd	ra,8(sp)
    30005510:	30002573          	csrr	a0,mstatus
    30005514:	00857513          	andi	a0,a0,8
    30005518:	00050463          	beqz	a0,30005520 <save_mpie>
    3000551c:	08000513          	li	a0,128

0000000030005520 <save_mpie>:
    30005520:	00a13823          	sd	a0,16(sp)
    30005524:	02413023          	sd	tp,32(sp)
    30005528:	02513423          	sd	t0,40(sp)
    3000552c:	02613823          	sd	t1,48(sp)
    30005530:	02713c23          	sd	t2,56(sp)
    30005534:	04813023          	sd	s0,64(sp)
    30005538:	04913423          	sd	s1,72(sp)
    3000553c:	04a13823          	sd	a0,80(sp)
    30005540:	04b13c23          	sd	a1,88(sp)
    30005544:	06c13023          	sd	a2,96(sp)
    30005548:	06d13423          	sd	a3,104(sp)
    3000554c:	06e13823          	sd	a4,112(sp)
    30005550:	06f13c23          	sd	a5,120(sp)
    30005554:	09013023          	sd	a6,128(sp)
    30005558:	09113423          	sd	a7,136(sp)
    3000555c:	09213823          	sd	s2,144(sp)
    30005560:	09313c23          	sd	s3,152(sp)
    30005564:	0b413023          	sd	s4,160(sp)
    30005568:	0b513423          	sd	s5,168(sp)
    3000556c:	0b613823          	sd	s6,176(sp)
    30005570:	0b713c23          	sd	s7,184(sp)
    30005574:	0d813023          	sd	s8,192(sp)
    30005578:	0d913423          	sd	s9,200(sp)
    3000557c:	0da13823          	sd	s10,208(sp)
    30005580:	0db13c23          	sd	s11,216(sp)
    30005584:	0fc13023          	sd	t3,224(sp)
    30005588:	0fd13423          	sd	t4,232(sp)
    3000558c:	0fe13823          	sd	t5,240(sp)
    30005590:	0ff13c23          	sd	t6,248(sp)
    30005594:	0005b103          	ld	sp,0(a1)
    30005598:	0040006f          	j	3000559c <rt_hw_context_switch_exit>

000000003000559c <rt_hw_context_switch_exit>:
    3000559c:	00013503          	ld	a0,0(sp)
    300055a0:	34151073          	csrw	mepc,a0
    300055a4:	00813083          	ld	ra,8(sp)
    300055a8:	000082b7          	lui	t0,0x8
    300055ac:	8002829b          	addiw	t0,t0,-2048 # 7800 <__stack_size+0x7000>
    300055b0:	30029073          	csrw	mstatus,t0
    300055b4:	01013503          	ld	a0,16(sp)
    300055b8:	30052073          	csrs	mstatus,a0
    300055bc:	02013203          	ld	tp,32(sp)
    300055c0:	02813283          	ld	t0,40(sp)
    300055c4:	03013303          	ld	t1,48(sp)
    300055c8:	03813383          	ld	t2,56(sp)
    300055cc:	04013403          	ld	s0,64(sp)
    300055d0:	04813483          	ld	s1,72(sp)
    300055d4:	05013503          	ld	a0,80(sp)
    300055d8:	05813583          	ld	a1,88(sp)
    300055dc:	06013603          	ld	a2,96(sp)
    300055e0:	06813683          	ld	a3,104(sp)
    300055e4:	07013703          	ld	a4,112(sp)
    300055e8:	07813783          	ld	a5,120(sp)
    300055ec:	08013803          	ld	a6,128(sp)
    300055f0:	08813883          	ld	a7,136(sp)
    300055f4:	09013903          	ld	s2,144(sp)
    300055f8:	09813983          	ld	s3,152(sp)
    300055fc:	0a013a03          	ld	s4,160(sp)
    30005600:	0a813a83          	ld	s5,168(sp)
    30005604:	0b013b03          	ld	s6,176(sp)
    30005608:	0b813b83          	ld	s7,184(sp)
    3000560c:	0c013c03          	ld	s8,192(sp)
    30005610:	0c813c83          	ld	s9,200(sp)
    30005614:	0d013d03          	ld	s10,208(sp)
    30005618:	0d813d83          	ld	s11,216(sp)
    3000561c:	0e013e03          	ld	t3,224(sp)
    30005620:	0e813e83          	ld	t4,232(sp)
    30005624:	0f013f03          	ld	t5,240(sp)
    30005628:	0f813f83          	ld	t6,248(sp)
    3000562c:	10010113          	addi	sp,sp,256
    30005630:	30200073          	mret

0000000030005634 <rt_list_len>:
    30005634:	00050793          	mv	a5,a0
    30005638:	00050713          	mv	a4,a0
    3000563c:	00000513          	li	a0,0
    30005640:	00073703          	ld	a4,0(a4)
    30005644:	00f71463          	bne	a4,a5,3000564c <rt_list_len+0x18>
    30005648:	00008067          	ret
    3000564c:	0015051b          	addiw	a0,a0,1
    30005650:	ff1ff06f          	j	30005640 <rt_list_len+0xc>

0000000030005654 <hello>:
    30005654:	ff010113          	addi	sp,sp,-16
    30005658:	4fffc517          	auipc	a0,0x4fffc
    3000565c:	7d850513          	addi	a0,a0,2008 # 80001e30 <CSWTCH.17+0x50>
    30005660:	00113423          	sd	ra,8(sp)
    30005664:	cb8fc0ef          	jal	ra,30001b1c <rt_kprintf>
    30005668:	00813083          	ld	ra,8(sp)
    3000566c:	00000513          	li	a0,0
    30005670:	01010113          	addi	sp,sp,16
    30005674:	00008067          	ret

0000000030005678 <clear>:
    30005678:	ff010113          	addi	sp,sp,-16
    3000567c:	4fffc517          	auipc	a0,0x4fffc
    30005680:	7cc50513          	addi	a0,a0,1996 # 80001e48 <CSWTCH.17+0x68>
    30005684:	00113423          	sd	ra,8(sp)
    30005688:	c94fc0ef          	jal	ra,30001b1c <rt_kprintf>
    3000568c:	00813083          	ld	ra,8(sp)
    30005690:	00000513          	li	a0,0
    30005694:	01010113          	addi	sp,sp,16
    30005698:	00008067          	ret

000000003000569c <show_wait_queue>:
    3000569c:	fd010113          	addi	sp,sp,-48
    300056a0:	00913c23          	sd	s1,24(sp)
    300056a4:	00053483          	ld	s1,0(a0)
    300056a8:	02813023          	sd	s0,32(sp)
    300056ac:	01213823          	sd	s2,16(sp)
    300056b0:	01313423          	sd	s3,8(sp)
    300056b4:	02113423          	sd	ra,40(sp)
    300056b8:	00050413          	mv	s0,a0
    300056bc:	4fffc917          	auipc	s2,0x4fffc
    300056c0:	79490913          	addi	s2,s2,1940 # 80001e50 <CSWTCH.17+0x70>
    300056c4:	4fffc997          	auipc	s3,0x4fffc
    300056c8:	79498993          	addi	s3,s3,1940 # 80001e58 <CSWTCH.17+0x78>
    300056cc:	02849063          	bne	s1,s0,300056ec <show_wait_queue+0x50>
    300056d0:	02813083          	ld	ra,40(sp)
    300056d4:	02013403          	ld	s0,32(sp)
    300056d8:	01813483          	ld	s1,24(sp)
    300056dc:	01013903          	ld	s2,16(sp)
    300056e0:	00813983          	ld	s3,8(sp)
    300056e4:	03010113          	addi	sp,sp,48
    300056e8:	00008067          	ret
    300056ec:	fd848593          	addi	a1,s1,-40
    300056f0:	00090513          	mv	a0,s2
    300056f4:	c28fc0ef          	jal	ra,30001b1c <rt_kprintf>
    300056f8:	0004b783          	ld	a5,0(s1)
    300056fc:	00878663          	beq	a5,s0,30005708 <show_wait_queue+0x6c>
    30005700:	00098513          	mv	a0,s3
    30005704:	c18fc0ef          	jal	ra,30001b1c <rt_kprintf>
    30005708:	0004b483          	ld	s1,0(s1)
    3000570c:	fc1ff06f          	j	300056cc <show_wait_queue+0x30>

0000000030005710 <version>:
    30005710:	ff010113          	addi	sp,sp,-16
    30005714:	00113423          	sd	ra,8(sp)
    30005718:	ca8fc0ef          	jal	ra,30001bc0 <rt_show_version>
    3000571c:	00813083          	ld	ra,8(sp)
    30005720:	00000513          	li	a0,0
    30005724:	01010113          	addi	sp,sp,16
    30005728:	00008067          	ret

000000003000572c <list>:
    3000572c:	fd010113          	addi	sp,sp,-48
    30005730:	4fffc517          	auipc	a0,0x4fffc
    30005734:	73050513          	addi	a0,a0,1840 # 80001e60 <CSWTCH.17+0x80>
    30005738:	02813023          	sd	s0,32(sp)
    3000573c:	01213823          	sd	s2,16(sp)
    30005740:	01313423          	sd	s3,8(sp)
    30005744:	01413023          	sd	s4,0(sp)
    30005748:	02113423          	sd	ra,40(sp)
    3000574c:	00913c23          	sd	s1,24(sp)
    30005750:	92818913          	addi	s2,gp,-1752 # 800042f0 <_syscall_table_end>
    30005754:	bc8fc0ef          	jal	ra,30001b1c <rt_kprintf>
    30005758:	4fffc997          	auipc	s3,0x4fffc
    3000575c:	72098993          	addi	s3,s3,1824 # 80001e78 <CSWTCH.17+0x98>
    30005760:	9201b403          	ld	s0,-1760(gp) # 800042e8 <_syscall_table_begin>
    30005764:	4fffca17          	auipc	s4,0x4fffc
    30005768:	71ca0a13          	addi	s4,s4,1820 # 80001e80 <CSWTCH.17+0xa0>
    3000576c:	00093783          	ld	a5,0(s2)
    30005770:	02f46463          	bltu	s0,a5,30005798 <list+0x6c>
    30005774:	02813083          	ld	ra,40(sp)
    30005778:	02013403          	ld	s0,32(sp)
    3000577c:	01813483          	ld	s1,24(sp)
    30005780:	01013903          	ld	s2,16(sp)
    30005784:	00813983          	ld	s3,8(sp)
    30005788:	00013a03          	ld	s4,0(sp)
    3000578c:	00000513          	li	a0,0
    30005790:	03010113          	addi	sp,sp,48
    30005794:	00008067          	ret
    30005798:	00043483          	ld	s1,0(s0)
    3000579c:	00200613          	li	a2,2
    300057a0:	00098593          	mv	a1,s3
    300057a4:	00048513          	mv	a0,s1
    300057a8:	bf5fa0ef          	jal	ra,3000039c <strncmp>
    300057ac:	00050a63          	beqz	a0,300057c0 <list+0x94>
    300057b0:	00843603          	ld	a2,8(s0)
    300057b4:	00048593          	mv	a1,s1
    300057b8:	000a0513          	mv	a0,s4
    300057bc:	b60fc0ef          	jal	ra,30001b1c <rt_kprintf>
    300057c0:	01840413          	addi	s0,s0,24
    300057c4:	fa9ff06f          	j	3000576c <list+0x40>

00000000300057c8 <list_get_next>:
    300057c8:	0145a783          	lw	a5,20(a1)
    300057cc:	0005ac23          	sw	zero,24(a1)
    300057d0:	0c078863          	beqz	a5,300058a0 <list_get_next+0xd8>
    300057d4:	0105c783          	lbu	a5,16(a1)
    300057d8:	fd010113          	addi	sp,sp,-48
    300057dc:	02813023          	sd	s0,32(sp)
    300057e0:	00913c23          	sd	s1,24(sp)
    300057e4:	02113423          	sd	ra,40(sp)
    300057e8:	01213823          	sd	s2,16(sp)
    300057ec:	01313423          	sd	s3,8(sp)
    300057f0:	00050413          	mv	s0,a0
    300057f4:	00058493          	mv	s1,a1
    300057f8:	00000513          	li	a0,0
    300057fc:	02078e63          	beqz	a5,30005838 <list_get_next+0x70>
    30005800:	0005b983          	ld	s3,0(a1)
    30005804:	00000913          	li	s2,0
    30005808:	00041663          	bnez	s0,30005814 <list_get_next+0x4c>
    3000580c:	00098413          	mv	s0,s3
    30005810:	00100913          	li	s2,1
    30005814:	ccdff0ef          	jal	ra,300054e0 <rt_hw_interrupt_disable>
    30005818:	00050713          	mv	a4,a0
    3000581c:	02091c63          	bnez	s2,30005854 <list_get_next+0x8c>
    30005820:	ffc44783          	lbu	a5,-4(s0)
    30005824:	0104c683          	lbu	a3,16(s1)
    30005828:	07f7f793          	andi	a5,a5,127
    3000582c:	02f68463          	beq	a3,a5,30005854 <list_get_next+0x8c>
    30005830:	cb9ff0ef          	jal	ra,300054e8 <rt_hw_interrupt_enable>
    30005834:	00000513          	li	a0,0
    30005838:	02813083          	ld	ra,40(sp)
    3000583c:	02013403          	ld	s0,32(sp)
    30005840:	01813483          	ld	s1,24(sp)
    30005844:	01013903          	ld	s2,16(sp)
    30005848:	00813983          	ld	s3,8(sp)
    3000584c:	03010113          	addi	sp,sp,48
    30005850:	00008067          	ret
    30005854:	0084b603          	ld	a2,8(s1)
    30005858:	00000793          	li	a5,0
    3000585c:	00043403          	ld	s0,0(s0)
    30005860:	0007891b          	sext.w	s2,a5
    30005864:	02898a63          	beq	s3,s0,30005898 <list_get_next+0xd0>
    30005868:	00379693          	slli	a3,a5,0x3
    3000586c:	0144a903          	lw	s2,20(s1)
    30005870:	00d606b3          	add	a3,a2,a3
    30005874:	00178793          	addi	a5,a5,1
    30005878:	0086b023          	sd	s0,0(a3)
    3000587c:	0007869b          	sext.w	a3,a5
    30005880:	fcd91ee3          	bne	s2,a3,3000585c <list_get_next+0x94>
    30005884:	00070513          	mv	a0,a4
    30005888:	c61ff0ef          	jal	ra,300054e8 <rt_hw_interrupt_enable>
    3000588c:	00040513          	mv	a0,s0
    30005890:	0124ac23          	sw	s2,24(s1)
    30005894:	fa5ff06f          	j	30005838 <list_get_next+0x70>
    30005898:	00000413          	li	s0,0
    3000589c:	fe9ff06f          	j	30005884 <list_get_next+0xbc>
    300058a0:	00000513          	li	a0,0
    300058a4:	00008067          	ret

00000000300058a8 <object_split.constprop.0>:
    300058a8:	fe010113          	addi	sp,sp,-32
    300058ac:	00813823          	sd	s0,16(sp)
    300058b0:	00913423          	sd	s1,8(sp)
    300058b4:	00113c23          	sd	ra,24(sp)
    300058b8:	01500413          	li	s0,21
    300058bc:	4fffc497          	auipc	s1,0x4fffc
    300058c0:	5d448493          	addi	s1,s1,1492 # 80001e90 <CSWTCH.17+0xb0>
    300058c4:	fff4041b          	addiw	s0,s0,-1
    300058c8:	00041c63          	bnez	s0,300058e0 <object_split.constprop.0+0x38>
    300058cc:	01813083          	ld	ra,24(sp)
    300058d0:	01013403          	ld	s0,16(sp)
    300058d4:	00813483          	ld	s1,8(sp)
    300058d8:	02010113          	addi	sp,sp,32
    300058dc:	00008067          	ret
    300058e0:	00048513          	mv	a0,s1
    300058e4:	a38fc0ef          	jal	ra,30001b1c <rt_kprintf>
    300058e8:	fddff06f          	j	300058c4 <object_split.constprop.0+0x1c>

00000000300058ec <list_thread>:
    300058ec:	e3010113          	addi	sp,sp,-464
    300058f0:	00100513          	li	a0,1
    300058f4:	1c113423          	sd	ra,456(sp)
    300058f8:	1a913c23          	sd	s1,440(sp)
    300058fc:	1b413023          	sd	s4,416(sp)
    30005900:	19513c23          	sd	s5,408(sp)
    30005904:	19613823          	sd	s6,400(sp)
    30005908:	19713423          	sd	s7,392(sp)
    3000590c:	1c813023          	sd	s0,448(sp)
    30005910:	1b213823          	sd	s2,432(sp)
    30005914:	1b313423          	sd	s3,424(sp)
    30005918:	19813023          	sd	s8,384(sp)
    3000591c:	17913c23          	sd	s9,376(sp)
    30005920:	17a13823          	sd	s10,368(sp)
    30005924:	17b13423          	sd	s11,360(sp)
    30005928:	b5cfe0ef          	jal	ra,30003c84 <rt_object_get_information>
    3000592c:	00850513          	addi	a0,a0,8
    30005930:	00100793          	li	a5,1
    30005934:	4fffc617          	auipc	a2,0x4fffc
    30005938:	56460613          	addi	a2,a2,1380 # 80001e98 <CSWTCH.17+0xb8>
    3000593c:	01400593          	li	a1,20
    30005940:	00a13c23          	sd	a0,24(sp)
    30005944:	02f10423          	sb	a5,40(sp)
    30005948:	4fffc517          	auipc	a0,0x4fffc
    3000594c:	55850513          	addi	a0,a0,1368 # 80001ea0 <CSWTCH.17+0xc0>
    30005950:	00800793          	li	a5,8
    30005954:	03810a13          	addi	s4,sp,56
    30005958:	02f12623          	sw	a5,44(sp)
    3000595c:	03413023          	sd	s4,32(sp)
    30005960:	02012823          	sw	zero,48(sp)
    30005964:	9b8fc0ef          	jal	ra,30001b1c <rt_kprintf>
    30005968:	f41ff0ef          	jal	ra,300058a8 <object_split.constprop.0>
    3000596c:	4fffc517          	auipc	a0,0x4fffc
    30005970:	57c50513          	addi	a0,a0,1404 # 80001ee8 <CSWTCH.17+0x108>
    30005974:	9a8fc0ef          	jal	ra,30001b1c <rt_kprintf>
    30005978:	00000493          	li	s1,0
    3000597c:	4fffca97          	auipc	s5,0x4fffc
    30005980:	5aca8a93          	addi	s5,s5,1452 # 80001f28 <CSWTCH.17+0x148>
    30005984:	00100b13          	li	s6,1
    30005988:	4fffcb97          	auipc	s7,0x4fffc
    3000598c:	600b8b93          	addi	s7,s7,1536 # 80001f88 <CSWTCH.17+0x1a8>
    30005990:	00048513          	mv	a0,s1
    30005994:	01810593          	addi	a1,sp,24
    30005998:	e31ff0ef          	jal	ra,300057c8 <list_get_next>
    3000599c:	00050493          	mv	s1,a0
    300059a0:	000a0993          	mv	s3,s4
    300059a4:	00000913          	li	s2,0
    300059a8:	02300c13          	li	s8,35
    300059ac:	06400c93          	li	s9,100
    300059b0:	00200d13          	li	s10,2
    300059b4:	00400d93          	li	s11,4
    300059b8:	03012783          	lw	a5,48(sp)
    300059bc:	04f94463          	blt	s2,a5,30005a04 <list_thread+0x118>
    300059c0:	fc0498e3          	bnez	s1,30005990 <list_thread+0xa4>
    300059c4:	1c813083          	ld	ra,456(sp)
    300059c8:	1c013403          	ld	s0,448(sp)
    300059cc:	1b813483          	ld	s1,440(sp)
    300059d0:	1b013903          	ld	s2,432(sp)
    300059d4:	1a813983          	ld	s3,424(sp)
    300059d8:	1a013a03          	ld	s4,416(sp)
    300059dc:	19813a83          	ld	s5,408(sp)
    300059e0:	19013b03          	ld	s6,400(sp)
    300059e4:	18813b83          	ld	s7,392(sp)
    300059e8:	18013c03          	ld	s8,384(sp)
    300059ec:	17813c83          	ld	s9,376(sp)
    300059f0:	17013d03          	ld	s10,368(sp)
    300059f4:	16813d83          	ld	s11,360(sp)
    300059f8:	00000513          	li	a0,0
    300059fc:	1d010113          	addi	sp,sp,464
    30005a00:	00008067          	ret
    30005a04:	0009b403          	ld	s0,0(s3)
    30005a08:	ad9ff0ef          	jal	ra,300054e0 <rt_hw_interrupt_disable>
    30005a0c:	02814683          	lbu	a3,40(sp)
    30005a10:	ffc44703          	lbu	a4,-4(s0)
    30005a14:	07f77713          	andi	a4,a4,127
    30005a18:	00e68a63          	beq	a3,a4,30005a2c <list_thread+0x140>
    30005a1c:	acdff0ef          	jal	ra,300054e8 <rt_hw_interrupt_enable>
    30005a20:	0019091b          	addiw	s2,s2,1
    30005a24:	00898993          	addi	s3,s3,8
    30005a28:	f91ff06f          	j	300059b8 <list_thread+0xcc>
    30005a2c:	fe840693          	addi	a3,s0,-24
    30005a30:	00068593          	mv	a1,a3
    30005a34:	0e800613          	li	a2,232
    30005a38:	00a13423          	sd	a0,8(sp)
    30005a3c:	07810513          	addi	a0,sp,120
    30005a40:	00d13023          	sd	a3,0(sp)
    30005a44:	961fa0ef          	jal	ra,300003a4 <memcpy>
    30005a48:	00813783          	ld	a5,8(sp)
    30005a4c:	00078513          	mv	a0,a5
    30005a50:	a99ff0ef          	jal	ra,300054e8 <rt_hw_interrupt_enable>
    30005a54:	05144703          	lbu	a4,81(s0)
    30005a58:	00013683          	ld	a3,0(sp)
    30005a5c:	000a8513          	mv	a0,s5
    30005a60:	01400613          	li	a2,20
    30005a64:	01400593          	li	a1,20
    30005a68:	8b4fc0ef          	jal	ra,30001b1c <rt_kprintf>
    30005a6c:	05044783          	lbu	a5,80(s0)
    30005a70:	4fffc517          	auipc	a0,0x4fffc
    30005a74:	4c850513          	addi	a0,a0,1224 # 80001f38 <CSWTCH.17+0x158>
    30005a78:	0077f793          	andi	a5,a5,7
    30005a7c:	03678c63          	beq	a5,s6,30005ab4 <list_thread+0x1c8>
    30005a80:	4fffc517          	auipc	a0,0x4fffc
    30005a84:	4c850513          	addi	a0,a0,1224 # 80001f48 <CSWTCH.17+0x168>
    30005a88:	03a78663          	beq	a5,s10,30005ab4 <list_thread+0x1c8>
    30005a8c:	4fffc517          	auipc	a0,0x4fffc
    30005a90:	4cc50513          	addi	a0,a0,1228 # 80001f58 <CSWTCH.17+0x178>
    30005a94:	02078063          	beqz	a5,30005ab4 <list_thread+0x1c8>
    30005a98:	4fffc517          	auipc	a0,0x4fffc
    30005a9c:	4d050513          	addi	a0,a0,1232 # 80001f68 <CSWTCH.17+0x188>
    30005aa0:	01b78a63          	beq	a5,s11,30005ab4 <list_thread+0x1c8>
    30005aa4:	00300713          	li	a4,3
    30005aa8:	00e79863          	bne	a5,a4,30005ab8 <list_thread+0x1cc>
    30005aac:	4fffc517          	auipc	a0,0x4fffc
    30005ab0:	4cc50513          	addi	a0,a0,1228 # 80001f78 <CSWTCH.17+0x198>
    30005ab4:	868fc0ef          	jal	ra,30001b1c <rt_kprintf>
    30005ab8:	03843583          	ld	a1,56(s0)
    30005abc:	00058793          	mv	a5,a1
    30005ac0:	0007c703          	lbu	a4,0(a5)
    30005ac4:	03870e63          	beq	a4,s8,30005b00 <list_thread+0x214>
    30005ac8:	04042603          	lw	a2,64(s0)
    30005acc:	02043803          	ld	a6,32(s0)
    30005ad0:	06843703          	ld	a4,104(s0)
    30005ad4:	02061513          	slli	a0,a2,0x20
    30005ad8:	02055513          	srli	a0,a0,0x20
    30005adc:	00a585b3          	add	a1,a1,a0
    30005ae0:	40f587b3          	sub	a5,a1,a5
    30005ae4:	039786b3          	mul	a3,a5,s9
    30005ae8:	04843783          	ld	a5,72(s0)
    30005aec:	410585b3          	sub	a1,a1,a6
    30005af0:	02a6d6b3          	divu	a3,a3,a0
    30005af4:	000b8513          	mv	a0,s7
    30005af8:	824fc0ef          	jal	ra,30001b1c <rt_kprintf>
    30005afc:	f25ff06f          	j	30005a20 <list_thread+0x134>
    30005b00:	00178793          	addi	a5,a5,1
    30005b04:	fbdff06f          	j	30005ac0 <list_thread+0x1d4>

0000000030005b08 <list_device>:
    30005b08:	f5010113          	addi	sp,sp,-176
    30005b0c:	00900513          	li	a0,9
    30005b10:	0a113423          	sd	ra,168(sp)
    30005b14:	0a813023          	sd	s0,160(sp)
    30005b18:	09313423          	sd	s3,136(sp)
    30005b1c:	09413023          	sd	s4,128(sp)
    30005b20:	07513c23          	sd	s5,120(sp)
    30005b24:	07613823          	sd	s6,112(sp)
    30005b28:	07713423          	sd	s7,104(sp)
    30005b2c:	08913c23          	sd	s1,152(sp)
    30005b30:	09213823          	sd	s2,144(sp)
    30005b34:	07813023          	sd	s8,96(sp)
    30005b38:	94cfe0ef          	jal	ra,30003c84 <rt_object_get_information>
    30005b3c:	00850513          	addi	a0,a0,8
    30005b40:	00900793          	li	a5,9
    30005b44:	4fffc617          	auipc	a2,0x4fffc
    30005b48:	47460613          	addi	a2,a2,1140 # 80001fb8 <CSWTCH.17+0x1d8>
    30005b4c:	01400593          	li	a1,20
    30005b50:	00a13023          	sd	a0,0(sp)
    30005b54:	00f10823          	sb	a5,16(sp)
    30005b58:	4fffc517          	auipc	a0,0x4fffc
    30005b5c:	46850513          	addi	a0,a0,1128 # 80001fc0 <CSWTCH.17+0x1e0>
    30005b60:	00800793          	li	a5,8
    30005b64:	02010993          	addi	s3,sp,32
    30005b68:	00f12a23          	sw	a5,20(sp)
    30005b6c:	01313423          	sd	s3,8(sp)
    30005b70:	00012c23          	sw	zero,24(sp)
    30005b74:	fa9fb0ef          	jal	ra,30001b1c <rt_kprintf>
    30005b78:	d31ff0ef          	jal	ra,300058a8 <object_split.constprop.0>
    30005b7c:	4fffc517          	auipc	a0,0x4fffc
    30005b80:	46c50513          	addi	a0,a0,1132 # 80001fe8 <CSWTCH.17+0x208>
    30005b84:	f99fb0ef          	jal	ra,30001b1c <rt_kprintf>
    30005b88:	00000413          	li	s0,0
    30005b8c:	01600a13          	li	s4,22
    30005b90:	4fffca97          	auipc	s5,0x4fffc
    30005b94:	420a8a93          	addi	s5,s5,1056 # 80001fb0 <CSWTCH.17+0x1d0>
    30005b98:	4fffcb17          	auipc	s6,0x4fffc
    30005b9c:	478b0b13          	addi	s6,s6,1144 # 80002010 <CSWTCH.17+0x230>
    30005ba0:	4fffdb97          	auipc	s7,0x4fffd
    30005ba4:	970b8b93          	addi	s7,s7,-1680 # 80002510 <device_type_str>
    30005ba8:	00040513          	mv	a0,s0
    30005bac:	00010593          	mv	a1,sp
    30005bb0:	c19ff0ef          	jal	ra,300057c8 <list_get_next>
    30005bb4:	00050413          	mv	s0,a0
    30005bb8:	00098913          	mv	s2,s3
    30005bbc:	00000493          	li	s1,0
    30005bc0:	01812783          	lw	a5,24(sp)
    30005bc4:	02f4ce63          	blt	s1,a5,30005c00 <list_device+0xf8>
    30005bc8:	fe0410e3          	bnez	s0,30005ba8 <list_device+0xa0>
    30005bcc:	0a813083          	ld	ra,168(sp)
    30005bd0:	0a013403          	ld	s0,160(sp)
    30005bd4:	09813483          	ld	s1,152(sp)
    30005bd8:	09013903          	ld	s2,144(sp)
    30005bdc:	08813983          	ld	s3,136(sp)
    30005be0:	08013a03          	ld	s4,128(sp)
    30005be4:	07813a83          	ld	s5,120(sp)
    30005be8:	07013b03          	ld	s6,112(sp)
    30005bec:	06813b83          	ld	s7,104(sp)
    30005bf0:	06013c03          	ld	s8,96(sp)
    30005bf4:	00000513          	li	a0,0
    30005bf8:	0b010113          	addi	sp,sp,176
    30005bfc:	00008067          	ret
    30005c00:	00093c03          	ld	s8,0(s2)
    30005c04:	8ddff0ef          	jal	ra,300054e0 <rt_hw_interrupt_disable>
    30005c08:	01014703          	lbu	a4,16(sp)
    30005c0c:	ffcc4783          	lbu	a5,-4(s8)
    30005c10:	07f7f793          	andi	a5,a5,127
    30005c14:	00f70a63          	beq	a4,a5,30005c28 <list_device+0x120>
    30005c18:	8d1ff0ef          	jal	ra,300054e8 <rt_hw_interrupt_enable>
    30005c1c:	0014849b          	addiw	s1,s1,1
    30005c20:	00890913          	addi	s2,s2,8
    30005c24:	f9dff06f          	j	30005bc0 <list_device+0xb8>
    30005c28:	8c1ff0ef          	jal	ra,300054e8 <rt_hw_interrupt_enable>
    30005c2c:	010c2783          	lw	a5,16(s8)
    30005c30:	fe8c0693          	addi	a3,s8,-24
    30005c34:	000a8713          	mv	a4,s5
    30005c38:	00fa6a63          	bltu	s4,a5,30005c4c <list_device+0x144>
    30005c3c:	02079793          	slli	a5,a5,0x20
    30005c40:	01d7d793          	srli	a5,a5,0x1d
    30005c44:	00fb87b3          	add	a5,s7,a5
    30005c48:	0007b703          	ld	a4,0(a5)
    30005c4c:	018c4783          	lbu	a5,24(s8)
    30005c50:	01400613          	li	a2,20
    30005c54:	01400593          	li	a1,20
    30005c58:	000b0513          	mv	a0,s6
    30005c5c:	ec1fb0ef          	jal	ra,30001b1c <rt_kprintf>
    30005c60:	fbdff06f          	j	30005c1c <list_device+0x114>

0000000030005c64 <list_mutex>:
    30005c64:	f5010113          	addi	sp,sp,-176
    30005c68:	00300513          	li	a0,3
    30005c6c:	0a113423          	sd	ra,168(sp)
    30005c70:	0a813023          	sd	s0,160(sp)
    30005c74:	09413023          	sd	s4,128(sp)
    30005c78:	07513c23          	sd	s5,120(sp)
    30005c7c:	08913c23          	sd	s1,152(sp)
    30005c80:	09213823          	sd	s2,144(sp)
    30005c84:	09313423          	sd	s3,136(sp)
    30005c88:	ffdfd0ef          	jal	ra,30003c84 <rt_object_get_information>
    30005c8c:	00850513          	addi	a0,a0,8
    30005c90:	00300793          	li	a5,3
    30005c94:	4fffc617          	auipc	a2,0x4fffc
    30005c98:	39460613          	addi	a2,a2,916 # 80002028 <CSWTCH.17+0x248>
    30005c9c:	01400593          	li	a1,20
    30005ca0:	00a13823          	sd	a0,16(sp)
    30005ca4:	02f10023          	sb	a5,32(sp)
    30005ca8:	4fffc517          	auipc	a0,0x4fffc
    30005cac:	38850513          	addi	a0,a0,904 # 80002030 <CSWTCH.17+0x250>
    30005cb0:	00800793          	li	a5,8
    30005cb4:	03010a13          	addi	s4,sp,48
    30005cb8:	02f12223          	sw	a5,36(sp)
    30005cbc:	01413c23          	sd	s4,24(sp)
    30005cc0:	02012423          	sw	zero,40(sp)
    30005cc4:	e59fb0ef          	jal	ra,30001b1c <rt_kprintf>
    30005cc8:	be1ff0ef          	jal	ra,300058a8 <object_split.constprop.0>
    30005ccc:	4fffc517          	auipc	a0,0x4fffc
    30005cd0:	38c50513          	addi	a0,a0,908 # 80002058 <CSWTCH.17+0x278>
    30005cd4:	e49fb0ef          	jal	ra,30001b1c <rt_kprintf>
    30005cd8:	00000413          	li	s0,0
    30005cdc:	4fffca97          	auipc	s5,0x4fffc
    30005ce0:	39ca8a93          	addi	s5,s5,924 # 80002078 <CSWTCH.17+0x298>
    30005ce4:	00040513          	mv	a0,s0
    30005ce8:	01010593          	addi	a1,sp,16
    30005cec:	addff0ef          	jal	ra,300057c8 <list_get_next>
    30005cf0:	00050413          	mv	s0,a0
    30005cf4:	000a0993          	mv	s3,s4
    30005cf8:	00000913          	li	s2,0
    30005cfc:	02812783          	lw	a5,40(sp)
    30005d00:	02f94863          	blt	s2,a5,30005d30 <list_mutex+0xcc>
    30005d04:	fe0410e3          	bnez	s0,30005ce4 <list_mutex+0x80>
    30005d08:	0a813083          	ld	ra,168(sp)
    30005d0c:	0a013403          	ld	s0,160(sp)
    30005d10:	09813483          	ld	s1,152(sp)
    30005d14:	09013903          	ld	s2,144(sp)
    30005d18:	08813983          	ld	s3,136(sp)
    30005d1c:	08013a03          	ld	s4,128(sp)
    30005d20:	07813a83          	ld	s5,120(sp)
    30005d24:	00000513          	li	a0,0
    30005d28:	0b010113          	addi	sp,sp,176
    30005d2c:	00008067          	ret
    30005d30:	0009b483          	ld	s1,0(s3)
    30005d34:	facff0ef          	jal	ra,300054e0 <rt_hw_interrupt_disable>
    30005d38:	02014703          	lbu	a4,32(sp)
    30005d3c:	ffc4c783          	lbu	a5,-4(s1)
    30005d40:	07f7f793          	andi	a5,a5,127
    30005d44:	00f70a63          	beq	a4,a5,30005d58 <list_mutex+0xf4>
    30005d48:	fa0ff0ef          	jal	ra,300054e8 <rt_hw_interrupt_enable>
    30005d4c:	0019091b          	addiw	s2,s2,1
    30005d50:	00898993          	addi	s3,s3,8
    30005d54:	fa9ff06f          	j	30005cfc <list_mutex+0x98>
    30005d58:	f90ff0ef          	jal	ra,300054e8 <rt_hw_interrupt_enable>
    30005d5c:	fe848693          	addi	a3,s1,-24
    30005d60:	01048513          	addi	a0,s1,16
    30005d64:	00d13423          	sd	a3,8(sp)
    30005d68:	8cdff0ef          	jal	ra,30005634 <rt_list_len>
    30005d6c:	0234c803          	lbu	a6,35(s1)
    30005d70:	0284b783          	ld	a5,40(s1)
    30005d74:	00813683          	ld	a3,8(sp)
    30005d78:	0005089b          	sext.w	a7,a0
    30005d7c:	01400713          	li	a4,20
    30005d80:	01400613          	li	a2,20
    30005d84:	01400593          	li	a1,20
    30005d88:	000a8513          	mv	a0,s5
    30005d8c:	d91fb0ef          	jal	ra,30001b1c <rt_kprintf>
    30005d90:	fbdff06f          	j	30005d4c <list_mutex+0xe8>

0000000030005d94 <list_timer>:
    30005d94:	f5010113          	addi	sp,sp,-176
    30005d98:	00a00513          	li	a0,10
    30005d9c:	0a113423          	sd	ra,168(sp)
    30005da0:	0a813023          	sd	s0,160(sp)
    30005da4:	09413023          	sd	s4,128(sp)
    30005da8:	07513c23          	sd	s5,120(sp)
    30005dac:	07613823          	sd	s6,112(sp)
    30005db0:	07713423          	sd	s7,104(sp)
    30005db4:	08913c23          	sd	s1,152(sp)
    30005db8:	09213823          	sd	s2,144(sp)
    30005dbc:	09313423          	sd	s3,136(sp)
    30005dc0:	ec5fd0ef          	jal	ra,30003c84 <rt_object_get_information>
    30005dc4:	00850513          	addi	a0,a0,8
    30005dc8:	00a00793          	li	a5,10
    30005dcc:	4fffb617          	auipc	a2,0x4fffb
    30005dd0:	27460613          	addi	a2,a2,628 # 80001040 <__FUNCTION__.2747+0xd8>
    30005dd4:	01400593          	li	a1,20
    30005dd8:	00a13023          	sd	a0,0(sp)
    30005ddc:	00f10823          	sb	a5,16(sp)
    30005de0:	4fffc517          	auipc	a0,0x4fffc
    30005de4:	2b050513          	addi	a0,a0,688 # 80002090 <CSWTCH.17+0x2b0>
    30005de8:	00800793          	li	a5,8
    30005dec:	02010a13          	addi	s4,sp,32
    30005df0:	00f12a23          	sw	a5,20(sp)
    30005df4:	01413423          	sd	s4,8(sp)
    30005df8:	00012c23          	sw	zero,24(sp)
    30005dfc:	d21fb0ef          	jal	ra,30001b1c <rt_kprintf>
    30005e00:	aa9ff0ef          	jal	ra,300058a8 <object_split.constprop.0>
    30005e04:	4fffc517          	auipc	a0,0x4fffc
    30005e08:	2b450513          	addi	a0,a0,692 # 800020b8 <CSWTCH.17+0x2d8>
    30005e0c:	d11fb0ef          	jal	ra,30001b1c <rt_kprintf>
    30005e10:	00000413          	li	s0,0
    30005e14:	4fffca97          	auipc	s5,0x4fffc
    30005e18:	2cca8a93          	addi	s5,s5,716 # 800020e0 <CSWTCH.17+0x300>
    30005e1c:	4fffcb17          	auipc	s6,0x4fffc
    30005e20:	2ecb0b13          	addi	s6,s6,748 # 80002108 <CSWTCH.17+0x328>
    30005e24:	4fffcb97          	auipc	s7,0x4fffc
    30005e28:	2d4b8b93          	addi	s7,s7,724 # 800020f8 <CSWTCH.17+0x318>
    30005e2c:	00040513          	mv	a0,s0
    30005e30:	00010593          	mv	a1,sp
    30005e34:	995ff0ef          	jal	ra,300057c8 <list_get_next>
    30005e38:	00050413          	mv	s0,a0
    30005e3c:	000a0993          	mv	s3,s4
    30005e40:	00000913          	li	s2,0
    30005e44:	01812783          	lw	a5,24(sp)
    30005e48:	04f94663          	blt	s2,a5,30005e94 <list_timer+0x100>
    30005e4c:	fe0410e3          	bnez	s0,30005e2c <list_timer+0x98>
    30005e50:	f2dfa0ef          	jal	ra,30000d7c <rt_tick_get>
    30005e54:	0005059b          	sext.w	a1,a0
    30005e58:	4fffc517          	auipc	a0,0x4fffc
    30005e5c:	2c050513          	addi	a0,a0,704 # 80002118 <CSWTCH.17+0x338>
    30005e60:	cbdfb0ef          	jal	ra,30001b1c <rt_kprintf>
    30005e64:	0a813083          	ld	ra,168(sp)
    30005e68:	0a013403          	ld	s0,160(sp)
    30005e6c:	09813483          	ld	s1,152(sp)
    30005e70:	09013903          	ld	s2,144(sp)
    30005e74:	08813983          	ld	s3,136(sp)
    30005e78:	08013a03          	ld	s4,128(sp)
    30005e7c:	07813a83          	ld	s5,120(sp)
    30005e80:	07013b03          	ld	s6,112(sp)
    30005e84:	06813b83          	ld	s7,104(sp)
    30005e88:	00000513          	li	a0,0
    30005e8c:	0b010113          	addi	sp,sp,176
    30005e90:	00008067          	ret
    30005e94:	0009b483          	ld	s1,0(s3)
    30005e98:	e48ff0ef          	jal	ra,300054e0 <rt_hw_interrupt_disable>
    30005e9c:	01014703          	lbu	a4,16(sp)
    30005ea0:	ffc4c783          	lbu	a5,-4(s1)
    30005ea4:	07f7f793          	andi	a5,a5,127
    30005ea8:	00f70a63          	beq	a4,a5,30005ebc <list_timer+0x128>
    30005eac:	e3cff0ef          	jal	ra,300054e8 <rt_hw_interrupt_enable>
    30005eb0:	0019091b          	addiw	s2,s2,1
    30005eb4:	00898993          	addi	s3,s3,8
    30005eb8:	f8dff06f          	j	30005e44 <list_timer+0xb0>
    30005ebc:	e2cff0ef          	jal	ra,300054e8 <rt_hw_interrupt_enable>
    30005ec0:	0344a783          	lw	a5,52(s1)
    30005ec4:	0304a703          	lw	a4,48(s1)
    30005ec8:	000a8513          	mv	a0,s5
    30005ecc:	fe848693          	addi	a3,s1,-24
    30005ed0:	01400613          	li	a2,20
    30005ed4:	01400593          	li	a1,20
    30005ed8:	c45fb0ef          	jal	ra,30001b1c <rt_kprintf>
    30005edc:	ffd4c783          	lbu	a5,-3(s1)
    30005ee0:	000b8513          	mv	a0,s7
    30005ee4:	0017f793          	andi	a5,a5,1
    30005ee8:	00079463          	bnez	a5,30005ef0 <list_timer+0x15c>
    30005eec:	000b0513          	mv	a0,s6
    30005ef0:	c2dfb0ef          	jal	ra,30001b1c <rt_kprintf>
    30005ef4:	fbdff06f          	j	30005eb0 <list_timer+0x11c>

0000000030005ef8 <list_event>:
    30005ef8:	f4010113          	addi	sp,sp,-192
    30005efc:	00400513          	li	a0,4
    30005f00:	0a113c23          	sd	ra,184(sp)
    30005f04:	0a913423          	sd	s1,168(sp)
    30005f08:	09513423          	sd	s5,136(sp)
    30005f0c:	09613023          	sd	s6,128(sp)
    30005f10:	07713c23          	sd	s7,120(sp)
    30005f14:	07813823          	sd	s8,112(sp)
    30005f18:	0a813823          	sd	s0,176(sp)
    30005f1c:	0b213023          	sd	s2,160(sp)
    30005f20:	09313c23          	sd	s3,152(sp)
    30005f24:	09413823          	sd	s4,144(sp)
    30005f28:	d5dfd0ef          	jal	ra,30003c84 <rt_object_get_information>
    30005f2c:	00850513          	addi	a0,a0,8
    30005f30:	00400793          	li	a5,4
    30005f34:	4fffc617          	auipc	a2,0x4fffc
    30005f38:	1fc60613          	addi	a2,a2,508 # 80002130 <CSWTCH.17+0x350>
    30005f3c:	01400593          	li	a1,20
    30005f40:	00a13823          	sd	a0,16(sp)
    30005f44:	02f10023          	sb	a5,32(sp)
    30005f48:	4fffc517          	auipc	a0,0x4fffc
    30005f4c:	1f050513          	addi	a0,a0,496 # 80002138 <CSWTCH.17+0x358>
    30005f50:	00800793          	li	a5,8
    30005f54:	03010a93          	addi	s5,sp,48
    30005f58:	02f12223          	sw	a5,36(sp)
    30005f5c:	01513c23          	sd	s5,24(sp)
    30005f60:	02012423          	sw	zero,40(sp)
    30005f64:	bb9fb0ef          	jal	ra,30001b1c <rt_kprintf>
    30005f68:	941ff0ef          	jal	ra,300058a8 <object_split.constprop.0>
    30005f6c:	4fffc517          	auipc	a0,0x4fffc
    30005f70:	1f450513          	addi	a0,a0,500 # 80002160 <CSWTCH.17+0x380>
    30005f74:	ba9fb0ef          	jal	ra,30001b1c <rt_kprintf>
    30005f78:	00000493          	li	s1,0
    30005f7c:	4fffcb17          	auipc	s6,0x4fffc
    30005f80:	21cb0b13          	addi	s6,s6,540 # 80002198 <CSWTCH.17+0x3b8>
    30005f84:	4fffcb97          	auipc	s7,0x4fffc
    30005f88:	1fcb8b93          	addi	s7,s7,508 # 80002180 <CSWTCH.17+0x3a0>
    30005f8c:	4fffcc17          	auipc	s8,0x4fffc
    30005f90:	eb4c0c13          	addi	s8,s8,-332 # 80001e40 <CSWTCH.17+0x60>
    30005f94:	00048513          	mv	a0,s1
    30005f98:	01010593          	addi	a1,sp,16
    30005f9c:	82dff0ef          	jal	ra,300057c8 <list_get_next>
    30005fa0:	00050493          	mv	s1,a0
    30005fa4:	000a8993          	mv	s3,s5
    30005fa8:	00000913          	li	s2,0
    30005fac:	02812783          	lw	a5,40(sp)
    30005fb0:	02f94e63          	blt	s2,a5,30005fec <list_event+0xf4>
    30005fb4:	fe0490e3          	bnez	s1,30005f94 <list_event+0x9c>
    30005fb8:	0b813083          	ld	ra,184(sp)
    30005fbc:	0b013403          	ld	s0,176(sp)
    30005fc0:	0a813483          	ld	s1,168(sp)
    30005fc4:	0a013903          	ld	s2,160(sp)
    30005fc8:	09813983          	ld	s3,152(sp)
    30005fcc:	09013a03          	ld	s4,144(sp)
    30005fd0:	08813a83          	ld	s5,136(sp)
    30005fd4:	08013b03          	ld	s6,128(sp)
    30005fd8:	07813b83          	ld	s7,120(sp)
    30005fdc:	07013c03          	ld	s8,112(sp)
    30005fe0:	00000513          	li	a0,0
    30005fe4:	0c010113          	addi	sp,sp,192
    30005fe8:	00008067          	ret
    30005fec:	0009b403          	ld	s0,0(s3)
    30005ff0:	cf0ff0ef          	jal	ra,300054e0 <rt_hw_interrupt_disable>
    30005ff4:	02014703          	lbu	a4,32(sp)
    30005ff8:	ffc44783          	lbu	a5,-4(s0)
    30005ffc:	07f7f793          	andi	a5,a5,127
    30006000:	00f70a63          	beq	a4,a5,30006014 <list_event+0x11c>
    30006004:	ce4ff0ef          	jal	ra,300054e8 <rt_hw_interrupt_enable>
    30006008:	0019091b          	addiw	s2,s2,1
    3000600c:	00898993          	addi	s3,s3,8
    30006010:	f9dff06f          	j	30005fac <list_event+0xb4>
    30006014:	cd4ff0ef          	jal	ra,300054e8 <rt_hw_interrupt_enable>
    30006018:	01043783          	ld	a5,16(s0)
    3000601c:	01040a13          	addi	s4,s0,16
    30006020:	fe840693          	addi	a3,s0,-24
    30006024:	04fa0063          	beq	s4,a5,30006064 <list_event+0x16c>
    30006028:	000a0513          	mv	a0,s4
    3000602c:	00d13423          	sd	a3,8(sp)
    30006030:	e04ff0ef          	jal	ra,30005634 <rt_list_len>
    30006034:	02042703          	lw	a4,32(s0)
    30006038:	00813683          	ld	a3,8(sp)
    3000603c:	0005079b          	sext.w	a5,a0
    30006040:	01400613          	li	a2,20
    30006044:	01400593          	li	a1,20
    30006048:	000b8513          	mv	a0,s7
    3000604c:	ad1fb0ef          	jal	ra,30001b1c <rt_kprintf>
    30006050:	000a0513          	mv	a0,s4
    30006054:	e48ff0ef          	jal	ra,3000569c <show_wait_queue>
    30006058:	000c0513          	mv	a0,s8
    3000605c:	ac1fb0ef          	jal	ra,30001b1c <rt_kprintf>
    30006060:	fa9ff06f          	j	30006008 <list_event+0x110>
    30006064:	02042703          	lw	a4,32(s0)
    30006068:	01400613          	li	a2,20
    3000606c:	01400593          	li	a1,20
    30006070:	000b0513          	mv	a0,s6
    30006074:	aa9fb0ef          	jal	ra,30001b1c <rt_kprintf>
    30006078:	f91ff06f          	j	30006008 <list_event+0x110>

000000003000607c <list_msgqueue>:
    3000607c:	f4010113          	addi	sp,sp,-192
    30006080:	00600513          	li	a0,6
    30006084:	0a113c23          	sd	ra,184(sp)
    30006088:	0a913423          	sd	s1,168(sp)
    3000608c:	09513423          	sd	s5,136(sp)
    30006090:	09613023          	sd	s6,128(sp)
    30006094:	07713c23          	sd	s7,120(sp)
    30006098:	07813823          	sd	s8,112(sp)
    3000609c:	0a813823          	sd	s0,176(sp)
    300060a0:	0b213023          	sd	s2,160(sp)
    300060a4:	09313c23          	sd	s3,152(sp)
    300060a8:	09413823          	sd	s4,144(sp)
    300060ac:	bd9fd0ef          	jal	ra,30003c84 <rt_object_get_information>
    300060b0:	00850513          	addi	a0,a0,8
    300060b4:	00600793          	li	a5,6
    300060b8:	4fffc617          	auipc	a2,0x4fffc
    300060bc:	0f860613          	addi	a2,a2,248 # 800021b0 <CSWTCH.17+0x3d0>
    300060c0:	01400593          	li	a1,20
    300060c4:	00a13823          	sd	a0,16(sp)
    300060c8:	02f10023          	sb	a5,32(sp)
    300060cc:	4fffc517          	auipc	a0,0x4fffc
    300060d0:	0f450513          	addi	a0,a0,244 # 800021c0 <CSWTCH.17+0x3e0>
    300060d4:	00800793          	li	a5,8
    300060d8:	03010a93          	addi	s5,sp,48
    300060dc:	02f12223          	sw	a5,36(sp)
    300060e0:	01513c23          	sd	s5,24(sp)
    300060e4:	02012423          	sw	zero,40(sp)
    300060e8:	a35fb0ef          	jal	ra,30001b1c <rt_kprintf>
    300060ec:	fbcff0ef          	jal	ra,300058a8 <object_split.constprop.0>
    300060f0:	4fffc517          	auipc	a0,0x4fffc
    300060f4:	0f050513          	addi	a0,a0,240 # 800021e0 <CSWTCH.17+0x400>
    300060f8:	a25fb0ef          	jal	ra,30001b1c <rt_kprintf>
    300060fc:	00000493          	li	s1,0
    30006100:	4fffcb17          	auipc	s6,0x4fffc
    30006104:	110b0b13          	addi	s6,s6,272 # 80002210 <CSWTCH.17+0x430>
    30006108:	4fffcb97          	auipc	s7,0x4fffc
    3000610c:	0f0b8b93          	addi	s7,s7,240 # 800021f8 <CSWTCH.17+0x418>
    30006110:	4fffcc17          	auipc	s8,0x4fffc
    30006114:	d30c0c13          	addi	s8,s8,-720 # 80001e40 <CSWTCH.17+0x60>
    30006118:	00048513          	mv	a0,s1
    3000611c:	01010593          	addi	a1,sp,16
    30006120:	ea8ff0ef          	jal	ra,300057c8 <list_get_next>
    30006124:	00050493          	mv	s1,a0
    30006128:	000a8a13          	mv	s4,s5
    3000612c:	00000993          	li	s3,0
    30006130:	02812783          	lw	a5,40(sp)
    30006134:	02f9ce63          	blt	s3,a5,30006170 <list_msgqueue+0xf4>
    30006138:	fe0490e3          	bnez	s1,30006118 <list_msgqueue+0x9c>
    3000613c:	0b813083          	ld	ra,184(sp)
    30006140:	0b013403          	ld	s0,176(sp)
    30006144:	0a813483          	ld	s1,168(sp)
    30006148:	0a013903          	ld	s2,160(sp)
    3000614c:	09813983          	ld	s3,152(sp)
    30006150:	09013a03          	ld	s4,144(sp)
    30006154:	08813a83          	ld	s5,136(sp)
    30006158:	08013b03          	ld	s6,128(sp)
    3000615c:	07813b83          	ld	s7,120(sp)
    30006160:	07013c03          	ld	s8,112(sp)
    30006164:	00000513          	li	a0,0
    30006168:	0c010113          	addi	sp,sp,192
    3000616c:	00008067          	ret
    30006170:	000a3403          	ld	s0,0(s4)
    30006174:	b6cff0ef          	jal	ra,300054e0 <rt_hw_interrupt_disable>
    30006178:	02014703          	lbu	a4,32(sp)
    3000617c:	ffc44783          	lbu	a5,-4(s0)
    30006180:	07f7f793          	andi	a5,a5,127
    30006184:	00f70a63          	beq	a4,a5,30006198 <list_msgqueue+0x11c>
    30006188:	b60ff0ef          	jal	ra,300054e8 <rt_hw_interrupt_enable>
    3000618c:	0019899b          	addiw	s3,s3,1
    30006190:	008a0a13          	addi	s4,s4,8
    30006194:	f9dff06f          	j	30006130 <list_msgqueue+0xb4>
    30006198:	b50ff0ef          	jal	ra,300054e8 <rt_hw_interrupt_enable>
    3000619c:	01043783          	ld	a5,16(s0)
    300061a0:	fe840693          	addi	a3,s0,-24
    300061a4:	01040913          	addi	s2,s0,16
    300061a8:	00d13423          	sd	a3,8(sp)
    300061ac:	00090513          	mv	a0,s2
    300061b0:	02f90c63          	beq	s2,a5,300061e8 <list_msgqueue+0x16c>
    300061b4:	c80ff0ef          	jal	ra,30005634 <rt_list_len>
    300061b8:	02c45703          	lhu	a4,44(s0)
    300061bc:	00813683          	ld	a3,8(sp)
    300061c0:	0005079b          	sext.w	a5,a0
    300061c4:	01400613          	li	a2,20
    300061c8:	01400593          	li	a1,20
    300061cc:	000b8513          	mv	a0,s7
    300061d0:	94dfb0ef          	jal	ra,30001b1c <rt_kprintf>
    300061d4:	00090513          	mv	a0,s2
    300061d8:	cc4ff0ef          	jal	ra,3000569c <show_wait_queue>
    300061dc:	000c0513          	mv	a0,s8
    300061e0:	93dfb0ef          	jal	ra,30001b1c <rt_kprintf>
    300061e4:	fa9ff06f          	j	3000618c <list_msgqueue+0x110>
    300061e8:	c4cff0ef          	jal	ra,30005634 <rt_list_len>
    300061ec:	02c45703          	lhu	a4,44(s0)
    300061f0:	00813683          	ld	a3,8(sp)
    300061f4:	0005079b          	sext.w	a5,a0
    300061f8:	01400613          	li	a2,20
    300061fc:	01400593          	li	a1,20
    30006200:	000b0513          	mv	a0,s6
    30006204:	919fb0ef          	jal	ra,30001b1c <rt_kprintf>
    30006208:	f85ff06f          	j	3000618c <list_msgqueue+0x110>

000000003000620c <list_sem>:
    3000620c:	f4010113          	addi	sp,sp,-192
    30006210:	00200513          	li	a0,2
    30006214:	0a113c23          	sd	ra,184(sp)
    30006218:	0a913423          	sd	s1,168(sp)
    3000621c:	09513423          	sd	s5,136(sp)
    30006220:	09613023          	sd	s6,128(sp)
    30006224:	07713c23          	sd	s7,120(sp)
    30006228:	07813823          	sd	s8,112(sp)
    3000622c:	0a813823          	sd	s0,176(sp)
    30006230:	0b213023          	sd	s2,160(sp)
    30006234:	09313c23          	sd	s3,152(sp)
    30006238:	09413823          	sd	s4,144(sp)
    3000623c:	a49fd0ef          	jal	ra,30003c84 <rt_object_get_information>
    30006240:	00850513          	addi	a0,a0,8
    30006244:	00200793          	li	a5,2
    30006248:	4fffc617          	auipc	a2,0x4fffc
    3000624c:	fe060613          	addi	a2,a2,-32 # 80002228 <CSWTCH.17+0x448>
    30006250:	01400593          	li	a1,20
    30006254:	00a13823          	sd	a0,16(sp)
    30006258:	02f10023          	sb	a5,32(sp)
    3000625c:	4fffc517          	auipc	a0,0x4fffc
    30006260:	fdc50513          	addi	a0,a0,-36 # 80002238 <CSWTCH.17+0x458>
    30006264:	00800793          	li	a5,8
    30006268:	03010a93          	addi	s5,sp,48
    3000626c:	02f12223          	sw	a5,36(sp)
    30006270:	01513c23          	sd	s5,24(sp)
    30006274:	02012423          	sw	zero,40(sp)
    30006278:	8a5fb0ef          	jal	ra,30001b1c <rt_kprintf>
    3000627c:	e2cff0ef          	jal	ra,300058a8 <object_split.constprop.0>
    30006280:	4fffc517          	auipc	a0,0x4fffc
    30006284:	fd850513          	addi	a0,a0,-40 # 80002258 <CSWTCH.17+0x478>
    30006288:	895fb0ef          	jal	ra,30001b1c <rt_kprintf>
    3000628c:	00000493          	li	s1,0
    30006290:	4fffcb17          	auipc	s6,0x4fffc
    30006294:	ff0b0b13          	addi	s6,s6,-16 # 80002280 <CSWTCH.17+0x4a0>
    30006298:	4fffcb97          	auipc	s7,0x4fffc
    3000629c:	fd8b8b93          	addi	s7,s7,-40 # 80002270 <CSWTCH.17+0x490>
    300062a0:	4fffcc17          	auipc	s8,0x4fffc
    300062a4:	ba0c0c13          	addi	s8,s8,-1120 # 80001e40 <CSWTCH.17+0x60>
    300062a8:	00048513          	mv	a0,s1
    300062ac:	01010593          	addi	a1,sp,16
    300062b0:	d18ff0ef          	jal	ra,300057c8 <list_get_next>
    300062b4:	00050493          	mv	s1,a0
    300062b8:	000a8a13          	mv	s4,s5
    300062bc:	00000993          	li	s3,0
    300062c0:	02812783          	lw	a5,40(sp)
    300062c4:	02f9ce63          	blt	s3,a5,30006300 <list_sem+0xf4>
    300062c8:	fe0490e3          	bnez	s1,300062a8 <list_sem+0x9c>
    300062cc:	0b813083          	ld	ra,184(sp)
    300062d0:	0b013403          	ld	s0,176(sp)
    300062d4:	0a813483          	ld	s1,168(sp)
    300062d8:	0a013903          	ld	s2,160(sp)
    300062dc:	09813983          	ld	s3,152(sp)
    300062e0:	09013a03          	ld	s4,144(sp)
    300062e4:	08813a83          	ld	s5,136(sp)
    300062e8:	08013b03          	ld	s6,128(sp)
    300062ec:	07813b83          	ld	s7,120(sp)
    300062f0:	07013c03          	ld	s8,112(sp)
    300062f4:	00000513          	li	a0,0
    300062f8:	0c010113          	addi	sp,sp,192
    300062fc:	00008067          	ret
    30006300:	000a3403          	ld	s0,0(s4)
    30006304:	9dcff0ef          	jal	ra,300054e0 <rt_hw_interrupt_disable>
    30006308:	02014703          	lbu	a4,32(sp)
    3000630c:	ffc44783          	lbu	a5,-4(s0)
    30006310:	07f7f793          	andi	a5,a5,127
    30006314:	00f70a63          	beq	a4,a5,30006328 <list_sem+0x11c>
    30006318:	9d0ff0ef          	jal	ra,300054e8 <rt_hw_interrupt_enable>
    3000631c:	0019899b          	addiw	s3,s3,1
    30006320:	008a0a13          	addi	s4,s4,8
    30006324:	f9dff06f          	j	300062c0 <list_sem+0xb4>
    30006328:	9c0ff0ef          	jal	ra,300054e8 <rt_hw_interrupt_enable>
    3000632c:	01043783          	ld	a5,16(s0)
    30006330:	fe840693          	addi	a3,s0,-24
    30006334:	01040913          	addi	s2,s0,16
    30006338:	00d13423          	sd	a3,8(sp)
    3000633c:	00090513          	mv	a0,s2
    30006340:	02f90c63          	beq	s2,a5,30006378 <list_sem+0x16c>
    30006344:	af0ff0ef          	jal	ra,30005634 <rt_list_len>
    30006348:	02045703          	lhu	a4,32(s0)
    3000634c:	00813683          	ld	a3,8(sp)
    30006350:	0005079b          	sext.w	a5,a0
    30006354:	01400613          	li	a2,20
    30006358:	01400593          	li	a1,20
    3000635c:	000b8513          	mv	a0,s7
    30006360:	fbcfb0ef          	jal	ra,30001b1c <rt_kprintf>
    30006364:	00090513          	mv	a0,s2
    30006368:	b34ff0ef          	jal	ra,3000569c <show_wait_queue>
    3000636c:	000c0513          	mv	a0,s8
    30006370:	facfb0ef          	jal	ra,30001b1c <rt_kprintf>
    30006374:	fa9ff06f          	j	3000631c <list_sem+0x110>
    30006378:	abcff0ef          	jal	ra,30005634 <rt_list_len>
    3000637c:	02045703          	lhu	a4,32(s0)
    30006380:	00813683          	ld	a3,8(sp)
    30006384:	0005079b          	sext.w	a5,a0
    30006388:	01400613          	li	a2,20
    3000638c:	01400593          	li	a1,20
    30006390:	000b0513          	mv	a0,s6
    30006394:	f88fb0ef          	jal	ra,30001b1c <rt_kprintf>
    30006398:	f85ff06f          	j	3000631c <list_sem+0x110>

000000003000639c <list_mailbox>:
    3000639c:	f4010113          	addi	sp,sp,-192
    300063a0:	00500513          	li	a0,5
    300063a4:	0a113c23          	sd	ra,184(sp)
    300063a8:	0a913423          	sd	s1,168(sp)
    300063ac:	09513423          	sd	s5,136(sp)
    300063b0:	09613023          	sd	s6,128(sp)
    300063b4:	07713c23          	sd	s7,120(sp)
    300063b8:	07813823          	sd	s8,112(sp)
    300063bc:	0a813823          	sd	s0,176(sp)
    300063c0:	0b213023          	sd	s2,160(sp)
    300063c4:	09313c23          	sd	s3,152(sp)
    300063c8:	09413823          	sd	s4,144(sp)
    300063cc:	8b9fd0ef          	jal	ra,30003c84 <rt_object_get_information>
    300063d0:	00850513          	addi	a0,a0,8
    300063d4:	00500793          	li	a5,5
    300063d8:	4fffc617          	auipc	a2,0x4fffc
    300063dc:	eb860613          	addi	a2,a2,-328 # 80002290 <CSWTCH.17+0x4b0>
    300063e0:	01400593          	li	a1,20
    300063e4:	00a13823          	sd	a0,16(sp)
    300063e8:	02f10023          	sb	a5,32(sp)
    300063ec:	4fffc517          	auipc	a0,0x4fffc
    300063f0:	eac50513          	addi	a0,a0,-340 # 80002298 <CSWTCH.17+0x4b8>
    300063f4:	00800793          	li	a5,8
    300063f8:	03010a93          	addi	s5,sp,48
    300063fc:	02f12223          	sw	a5,36(sp)
    30006400:	01513c23          	sd	s5,24(sp)
    30006404:	02012423          	sw	zero,40(sp)
    30006408:	f14fb0ef          	jal	ra,30001b1c <rt_kprintf>
    3000640c:	c9cff0ef          	jal	ra,300058a8 <object_split.constprop.0>
    30006410:	4fffc517          	auipc	a0,0x4fffc
    30006414:	eb050513          	addi	a0,a0,-336 # 800022c0 <CSWTCH.17+0x4e0>
    30006418:	f04fb0ef          	jal	ra,30001b1c <rt_kprintf>
    3000641c:	00000493          	li	s1,0
    30006420:	4fffcb17          	auipc	s6,0x4fffc
    30006424:	ed8b0b13          	addi	s6,s6,-296 # 800022f8 <CSWTCH.17+0x518>
    30006428:	4fffcb97          	auipc	s7,0x4fffc
    3000642c:	eb8b8b93          	addi	s7,s7,-328 # 800022e0 <CSWTCH.17+0x500>
    30006430:	4fffcc17          	auipc	s8,0x4fffc
    30006434:	a10c0c13          	addi	s8,s8,-1520 # 80001e40 <CSWTCH.17+0x60>
    30006438:	00048513          	mv	a0,s1
    3000643c:	01010593          	addi	a1,sp,16
    30006440:	b88ff0ef          	jal	ra,300057c8 <list_get_next>
    30006444:	00050493          	mv	s1,a0
    30006448:	000a8a13          	mv	s4,s5
    3000644c:	00000993          	li	s3,0
    30006450:	02812783          	lw	a5,40(sp)
    30006454:	02f9ce63          	blt	s3,a5,30006490 <list_mailbox+0xf4>
    30006458:	fe0490e3          	bnez	s1,30006438 <list_mailbox+0x9c>
    3000645c:	0b813083          	ld	ra,184(sp)
    30006460:	0b013403          	ld	s0,176(sp)
    30006464:	0a813483          	ld	s1,168(sp)
    30006468:	0a013903          	ld	s2,160(sp)
    3000646c:	09813983          	ld	s3,152(sp)
    30006470:	09013a03          	ld	s4,144(sp)
    30006474:	08813a83          	ld	s5,136(sp)
    30006478:	08013b03          	ld	s6,128(sp)
    3000647c:	07813b83          	ld	s7,120(sp)
    30006480:	07013c03          	ld	s8,112(sp)
    30006484:	00000513          	li	a0,0
    30006488:	0c010113          	addi	sp,sp,192
    3000648c:	00008067          	ret
    30006490:	000a3403          	ld	s0,0(s4)
    30006494:	84cff0ef          	jal	ra,300054e0 <rt_hw_interrupt_disable>
    30006498:	02014703          	lbu	a4,32(sp)
    3000649c:	ffc44783          	lbu	a5,-4(s0)
    300064a0:	07f7f793          	andi	a5,a5,127
    300064a4:	00f70a63          	beq	a4,a5,300064b8 <list_mailbox+0x11c>
    300064a8:	840ff0ef          	jal	ra,300054e8 <rt_hw_interrupt_enable>
    300064ac:	0019899b          	addiw	s3,s3,1
    300064b0:	008a0a13          	addi	s4,s4,8
    300064b4:	f9dff06f          	j	30006450 <list_mailbox+0xb4>
    300064b8:	830ff0ef          	jal	ra,300054e8 <rt_hw_interrupt_enable>
    300064bc:	01043783          	ld	a5,16(s0)
    300064c0:	fe840693          	addi	a3,s0,-24
    300064c4:	01040913          	addi	s2,s0,16
    300064c8:	00d13423          	sd	a3,8(sp)
    300064cc:	00090513          	mv	a0,s2
    300064d0:	02f90e63          	beq	s2,a5,3000650c <list_mailbox+0x170>
    300064d4:	960ff0ef          	jal	ra,30005634 <rt_list_len>
    300064d8:	02845783          	lhu	a5,40(s0)
    300064dc:	02a45703          	lhu	a4,42(s0)
    300064e0:	00813683          	ld	a3,8(sp)
    300064e4:	0005081b          	sext.w	a6,a0
    300064e8:	01400613          	li	a2,20
    300064ec:	01400593          	li	a1,20
    300064f0:	000b8513          	mv	a0,s7
    300064f4:	e28fb0ef          	jal	ra,30001b1c <rt_kprintf>
    300064f8:	00090513          	mv	a0,s2
    300064fc:	9a0ff0ef          	jal	ra,3000569c <show_wait_queue>
    30006500:	000c0513          	mv	a0,s8
    30006504:	e18fb0ef          	jal	ra,30001b1c <rt_kprintf>
    30006508:	fa5ff06f          	j	300064ac <list_mailbox+0x110>
    3000650c:	928ff0ef          	jal	ra,30005634 <rt_list_len>
    30006510:	02845783          	lhu	a5,40(s0)
    30006514:	02a45703          	lhu	a4,42(s0)
    30006518:	00813683          	ld	a3,8(sp)
    3000651c:	0005081b          	sext.w	a6,a0
    30006520:	01400613          	li	a2,20
    30006524:	01400593          	li	a1,20
    30006528:	000b0513          	mv	a0,s6
    3000652c:	df0fb0ef          	jal	ra,30001b1c <rt_kprintf>
    30006530:	f7dff06f          	j	300064ac <list_mailbox+0x110>

0000000030006534 <list_mempool>:
    30006534:	f5010113          	addi	sp,sp,-176
    30006538:	00800513          	li	a0,8
    3000653c:	0a113423          	sd	ra,168(sp)
    30006540:	08913c23          	sd	s1,152(sp)
    30006544:	07513c23          	sd	s5,120(sp)
    30006548:	07613823          	sd	s6,112(sp)
    3000654c:	07713423          	sd	s7,104(sp)
    30006550:	07813023          	sd	s8,96(sp)
    30006554:	0a813023          	sd	s0,160(sp)
    30006558:	09213823          	sd	s2,144(sp)
    3000655c:	09313423          	sd	s3,136(sp)
    30006560:	09413023          	sd	s4,128(sp)
    30006564:	f20fd0ef          	jal	ra,30003c84 <rt_object_get_information>
    30006568:	00850513          	addi	a0,a0,8
    3000656c:	00800793          	li	a5,8
    30006570:	4fffc617          	auipc	a2,0x4fffc
    30006574:	da060613          	addi	a2,a2,-608 # 80002310 <CSWTCH.17+0x530>
    30006578:	01400593          	li	a1,20
    3000657c:	00a13023          	sd	a0,0(sp)
    30006580:	00f10823          	sb	a5,16(sp)
    30006584:	4fffc517          	auipc	a0,0x4fffc
    30006588:	d9450513          	addi	a0,a0,-620 # 80002318 <CSWTCH.17+0x538>
    3000658c:	00800793          	li	a5,8
    30006590:	02010a93          	addi	s5,sp,32
    30006594:	00f12a23          	sw	a5,20(sp)
    30006598:	01513423          	sd	s5,8(sp)
    3000659c:	00012c23          	sw	zero,24(sp)
    300065a0:	d7cfb0ef          	jal	ra,30001b1c <rt_kprintf>
    300065a4:	b04ff0ef          	jal	ra,300058a8 <object_split.constprop.0>
    300065a8:	4fffc517          	auipc	a0,0x4fffc
    300065ac:	d9850513          	addi	a0,a0,-616 # 80002340 <CSWTCH.17+0x560>
    300065b0:	d6cfb0ef          	jal	ra,30001b1c <rt_kprintf>
    300065b4:	00000493          	li	s1,0
    300065b8:	4fffcb17          	auipc	s6,0x4fffc
    300065bc:	dd0b0b13          	addi	s6,s6,-560 # 80002388 <CSWTCH.17+0x5a8>
    300065c0:	4fffcb97          	auipc	s7,0x4fffc
    300065c4:	da8b8b93          	addi	s7,s7,-600 # 80002368 <CSWTCH.17+0x588>
    300065c8:	4fffcc17          	auipc	s8,0x4fffc
    300065cc:	878c0c13          	addi	s8,s8,-1928 # 80001e40 <CSWTCH.17+0x60>
    300065d0:	00048513          	mv	a0,s1
    300065d4:	00010593          	mv	a1,sp
    300065d8:	9f0ff0ef          	jal	ra,300057c8 <list_get_next>
    300065dc:	00050493          	mv	s1,a0
    300065e0:	000a8a13          	mv	s4,s5
    300065e4:	00000993          	li	s3,0
    300065e8:	01812783          	lw	a5,24(sp)
    300065ec:	02f9ce63          	blt	s3,a5,30006628 <list_mempool+0xf4>
    300065f0:	fe0490e3          	bnez	s1,300065d0 <list_mempool+0x9c>
    300065f4:	0a813083          	ld	ra,168(sp)
    300065f8:	0a013403          	ld	s0,160(sp)
    300065fc:	09813483          	ld	s1,152(sp)
    30006600:	09013903          	ld	s2,144(sp)
    30006604:	08813983          	ld	s3,136(sp)
    30006608:	08013a03          	ld	s4,128(sp)
    3000660c:	07813a83          	ld	s5,120(sp)
    30006610:	07013b03          	ld	s6,112(sp)
    30006614:	06813b83          	ld	s7,104(sp)
    30006618:	06013c03          	ld	s8,96(sp)
    3000661c:	00000513          	li	a0,0
    30006620:	0b010113          	addi	sp,sp,176
    30006624:	00008067          	ret
    30006628:	000a3403          	ld	s0,0(s4)
    3000662c:	eb5fe0ef          	jal	ra,300054e0 <rt_hw_interrupt_disable>
    30006630:	01014703          	lbu	a4,16(sp)
    30006634:	ffc44783          	lbu	a5,-4(s0)
    30006638:	07f7f793          	andi	a5,a5,127
    3000663c:	00f70a63          	beq	a4,a5,30006650 <list_mempool+0x11c>
    30006640:	ea9fe0ef          	jal	ra,300054e8 <rt_hw_interrupt_enable>
    30006644:	0019899b          	addiw	s3,s3,1
    30006648:	008a0a13          	addi	s4,s4,8
    3000664c:	f9dff06f          	j	300065e8 <list_mempool+0xb4>
    30006650:	e99fe0ef          	jal	ra,300054e8 <rt_hw_interrupt_enable>
    30006654:	04043903          	ld	s2,64(s0)
    30006658:	00000893          	li	a7,0
    3000665c:	fe840693          	addi	a3,s0,-24
    30006660:	04040793          	addi	a5,s0,64
    30006664:	02f91c63          	bne	s2,a5,3000669c <list_mempool+0x168>
    30006668:	02043703          	ld	a4,32(s0)
    3000666c:	03043783          	ld	a5,48(s0)
    30006670:	03843803          	ld	a6,56(s0)
    30006674:	02088a63          	beqz	a7,300066a8 <list_mempool+0x174>
    30006678:	01400613          	li	a2,20
    3000667c:	01400593          	li	a1,20
    30006680:	000b8513          	mv	a0,s7
    30006684:	c98fb0ef          	jal	ra,30001b1c <rt_kprintf>
    30006688:	00090513          	mv	a0,s2
    3000668c:	810ff0ef          	jal	ra,3000569c <show_wait_queue>
    30006690:	000c0513          	mv	a0,s8
    30006694:	c88fb0ef          	jal	ra,30001b1c <rt_kprintf>
    30006698:	fadff06f          	j	30006644 <list_mempool+0x110>
    3000669c:	00093903          	ld	s2,0(s2)
    300066a0:	0018889b          	addiw	a7,a7,1
    300066a4:	fc1ff06f          	j	30006664 <list_mempool+0x130>
    300066a8:	00000893          	li	a7,0
    300066ac:	01400613          	li	a2,20
    300066b0:	01400593          	li	a1,20
    300066b4:	000b0513          	mv	a0,s6
    300066b8:	c64fb0ef          	jal	ra,30001b1c <rt_kprintf>
    300066bc:	f89ff06f          	j	30006644 <list_mempool+0x110>

00000000300066c0 <finsh_rx_ind>:
    300066c0:	94818793          	addi	a5,gp,-1720 # 80004310 <shell>
    300066c4:	0007b703          	ld	a4,0(a5)
    300066c8:	ff010113          	addi	sp,sp,-16
    300066cc:	00813023          	sd	s0,0(sp)
    300066d0:	00113423          	sd	ra,8(sp)
    300066d4:	00078413          	mv	s0,a5
    300066d8:	00071e63          	bnez	a4,300066f4 <finsh_rx_ind+0x34>
    300066dc:	0bf00613          	li	a2,191
    300066e0:	4fffc597          	auipc	a1,0x4fffc
    300066e4:	3e058593          	addi	a1,a1,992 # 80002ac0 <__FUNCTION__.4542>
    300066e8:	4fffc517          	auipc	a0,0x4fffc
    300066ec:	31050513          	addi	a0,a0,784 # 800029f8 <__fsym_hello_name+0x8>
    300066f0:	da8fb0ef          	jal	ra,30001c98 <rt_assert_handler>
    300066f4:	00043503          	ld	a0,0(s0)
    300066f8:	900fa0ef          	jal	ra,300007f8 <rt_sem_release>
    300066fc:	00813083          	ld	ra,8(sp)
    30006700:	00013403          	ld	s0,0(sp)
    30006704:	00000513          	li	a0,0
    30006708:	01010113          	addi	sp,sp,16
    3000670c:	00008067          	ret

0000000030006710 <finsh_get_prompt>:
    30006710:	9481b783          	ld	a5,-1720(gp) # 80004310 <shell>
    30006714:	0447c783          	lbu	a5,68(a5)
    30006718:	0027f793          	andi	a5,a5,2
    3000671c:	00079c63          	bnez	a5,30006734 <finsh_get_prompt+0x24>
    30006720:	50007797          	auipc	a5,0x50007
    30006724:	a0078023          	sb	zero,-1536(a5) # 8000d120 <finsh_prompt.4521>
    30006728:	50007517          	auipc	a0,0x50007
    3000672c:	9f850513          	addi	a0,a0,-1544 # 8000d120 <finsh_prompt.4521>
    30006730:	00008067          	ret
    30006734:	fe010113          	addi	sp,sp,-32
    30006738:	00113c23          	sd	ra,24(sp)
    3000673c:	00813823          	sd	s0,16(sp)
    30006740:	00913423          	sd	s1,8(sp)
    30006744:	9401b583          	ld	a1,-1728(gp) # 80004308 <finsh_prompt_custom>
    30006748:	02058863          	beqz	a1,30006778 <finsh_get_prompt+0x68>
    3000674c:	10000613          	li	a2,256
    30006750:	50007517          	auipc	a0,0x50007
    30006754:	9d050513          	addi	a0,a0,-1584 # 8000d120 <finsh_prompt.4521>
    30006758:	c05f90ef          	jal	ra,3000035c <strncpy>
    3000675c:	01813083          	ld	ra,24(sp)
    30006760:	01013403          	ld	s0,16(sp)
    30006764:	00813483          	ld	s1,8(sp)
    30006768:	50007517          	auipc	a0,0x50007
    3000676c:	9b850513          	addi	a0,a0,-1608 # 8000d120 <finsh_prompt.4521>
    30006770:	02010113          	addi	sp,sp,32
    30006774:	00008067          	ret
    30006778:	181000ef          	jal	ra,300070f8 <msh_is_used>
    3000677c:	4fffc597          	auipc	a1,0x4fffc
    30006780:	29458593          	addi	a1,a1,660 # 80002a10 <__fsym_hello_name+0x20>
    30006784:	00051663          	bnez	a0,30006790 <finsh_get_prompt+0x80>
    30006788:	4fffc597          	auipc	a1,0x4fffc
    3000678c:	29058593          	addi	a1,a1,656 # 80002a18 <__fsym_hello_name+0x28>
    30006790:	50007517          	auipc	a0,0x50007
    30006794:	99050513          	addi	a0,a0,-1648 # 8000d120 <finsh_prompt.4521>
    30006798:	ba1f90ef          	jal	ra,30000338 <strcpy>
    3000679c:	50007417          	auipc	s0,0x50007
    300067a0:	98440413          	addi	s0,s0,-1660 # 8000d120 <finsh_prompt.4521>
    300067a4:	00040513          	mv	a0,s0
    300067a8:	c7dfa0ef          	jal	ra,30001424 <rt_strlen>
    300067ac:	00050493          	mv	s1,a0
    300067b0:	00040513          	mv	a0,s0
    300067b4:	c71fa0ef          	jal	ra,30001424 <rt_strlen>
    300067b8:	10000593          	li	a1,256
    300067bc:	40a585b3          	sub	a1,a1,a0
    300067c0:	00940533          	add	a0,s0,s1
    300067c4:	335030ef          	jal	ra,3000a2f8 <getcwd>
    300067c8:	4fffc597          	auipc	a1,0x4fffc
    300067cc:	25858593          	addi	a1,a1,600 # 80002a20 <__fsym_hello_name+0x30>
    300067d0:	00040513          	mv	a0,s0
    300067d4:	b8df90ef          	jal	ra,30000360 <strcat>
    300067d8:	f85ff06f          	j	3000675c <finsh_get_prompt+0x4c>

00000000300067dc <shell_handle_history>:
    300067dc:	ff010113          	addi	sp,sp,-16
    300067e0:	00813023          	sd	s0,0(sp)
    300067e4:	00050413          	mv	s0,a0
    300067e8:	4fffc517          	auipc	a0,0x4fffc
    300067ec:	24050513          	addi	a0,a0,576 # 80002a28 <__fsym_hello_name+0x38>
    300067f0:	00113423          	sd	ra,8(sp)
    300067f4:	b28fb0ef          	jal	ra,30001b1c <rt_kprintf>
    300067f8:	f19ff0ef          	jal	ra,30006710 <finsh_get_prompt>
    300067fc:	00050593          	mv	a1,a0
    30006800:	1da40613          	addi	a2,s0,474
    30006804:	4fffc517          	auipc	a0,0x4fffc
    30006808:	22c50513          	addi	a0,a0,556 # 80002a30 <__fsym_hello_name+0x40>
    3000680c:	b10fb0ef          	jal	ra,30001b1c <rt_kprintf>
    30006810:	00813083          	ld	ra,8(sp)
    30006814:	00013403          	ld	s0,0(sp)
    30006818:	00000513          	li	a0,0
    3000681c:	01010113          	addi	sp,sp,16
    30006820:	00008067          	ret

0000000030006824 <finsh_set_prompt_mode>:
    30006824:	94818793          	addi	a5,gp,-1720 # 80004310 <shell>
    30006828:	0007b703          	ld	a4,0(a5)
    3000682c:	fe010113          	addi	sp,sp,-32
    30006830:	00813823          	sd	s0,16(sp)
    30006834:	00913423          	sd	s1,8(sp)
    30006838:	00113c23          	sd	ra,24(sp)
    3000683c:	00050413          	mv	s0,a0
    30006840:	00078493          	mv	s1,a5
    30006844:	00071e63          	bnez	a4,30006860 <finsh_set_prompt_mode+0x3c>
    30006848:	0a300613          	li	a2,163
    3000684c:	4fffc597          	auipc	a1,0x4fffc
    30006850:	24c58593          	addi	a1,a1,588 # 80002a98 <__FUNCTION__.4529>
    30006854:	4fffc517          	auipc	a0,0x4fffc
    30006858:	1a450513          	addi	a0,a0,420 # 800029f8 <__fsym_hello_name+0x8>
    3000685c:	c3cfb0ef          	jal	ra,30001c98 <rt_assert_handler>
    30006860:	0004b703          	ld	a4,0(s1)
    30006864:	00147413          	andi	s0,s0,1
    30006868:	00141413          	slli	s0,s0,0x1
    3000686c:	04474783          	lbu	a5,68(a4)
    30006870:	01813083          	ld	ra,24(sp)
    30006874:	00813483          	ld	s1,8(sp)
    30006878:	ffd7f793          	andi	a5,a5,-3
    3000687c:	0087e433          	or	s0,a5,s0
    30006880:	04870223          	sb	s0,68(a4)
    30006884:	01013403          	ld	s0,16(sp)
    30006888:	02010113          	addi	sp,sp,32
    3000688c:	00008067          	ret

0000000030006890 <finsh_system_init>:
    30006890:	4fff9797          	auipc	a5,0x4fff9
    30006894:	77078793          	addi	a5,a5,1904 # 80000000 <__fsym___cmd_reboot>
    30006898:	92f1b023          	sd	a5,-1760(gp) # 800042e8 <_syscall_table_begin>
    3000689c:	4fffa797          	auipc	a5,0x4fffa
    300068a0:	cd478793          	addi	a5,a5,-812 # 80000570 <__rt_init_rti_start>
    300068a4:	92f1b423          	sd	a5,-1752(gp) # 800042f0 <_syscall_table_end>
    300068a8:	4fffa797          	auipc	a5,0x4fffa
    300068ac:	cc878793          	addi	a5,a5,-824 # 80000570 <__rt_init_rti_start>
    300068b0:	fe010113          	addi	sp,sp,-32
    300068b4:	92f1b823          	sd	a5,-1744(gp) # 800042f8 <_sysvar_table_begin>
    300068b8:	23800593          	li	a1,568
    300068bc:	4fffa797          	auipc	a5,0x4fffa
    300068c0:	cb478793          	addi	a5,a5,-844 # 80000570 <__rt_init_rti_start>
    300068c4:	00100513          	li	a0,1
    300068c8:	00913423          	sd	s1,8(sp)
    300068cc:	00113c23          	sd	ra,24(sp)
    300068d0:	00813823          	sd	s0,16(sp)
    300068d4:	92f1bc23          	sd	a5,-1736(gp) # 80004300 <_sysvar_table_end>
    300068d8:	94818493          	addi	s1,gp,-1720 # 80004310 <shell>
    300068dc:	8d8fe0ef          	jal	ra,300049b4 <rt_calloc>
    300068e0:	00a4b023          	sd	a0,0(s1)
    300068e4:	02051663          	bnez	a0,30006910 <finsh_system_init+0x80>
    300068e8:	4fffc517          	auipc	a0,0x4fffc
    300068ec:	15050513          	addi	a0,a0,336 # 80002a38 <__fsym_hello_name+0x48>
    300068f0:	a2cfb0ef          	jal	ra,30001b1c <rt_kprintf>
    300068f4:	fff00493          	li	s1,-1
    300068f8:	01813083          	ld	ra,24(sp)
    300068fc:	01013403          	ld	s0,16(sp)
    30006900:	00048513          	mv	a0,s1
    30006904:	00813483          	ld	s1,8(sp)
    30006908:	02010113          	addi	sp,sp,32
    3000690c:	00008067          	ret
    30006910:	00a00793          	li	a5,10
    30006914:	01400713          	li	a4,20
    30006918:	000016b7          	lui	a3,0x1
    3000691c:	00000613          	li	a2,0
    30006920:	00000597          	auipc	a1,0x0
    30006924:	15058593          	addi	a1,a1,336 # 30006a70 <finsh_thread_entry>
    30006928:	4fffc517          	auipc	a0,0x4fffc
    3000692c:	12850513          	addi	a0,a0,296 # 80002a50 <__fsym_hello_name+0x60>
    30006930:	c74fc0ef          	jal	ra,30002da4 <rt_thread_create>
    30006934:	00050413          	mv	s0,a0
    30006938:	0004b503          	ld	a0,0(s1)
    3000693c:	00000693          	li	a3,0
    30006940:	00000613          	li	a2,0
    30006944:	4fffc597          	auipc	a1,0x4fffc
    30006948:	11458593          	addi	a1,a1,276 # 80002a58 <__fsym_hello_name+0x68>
    3000694c:	c4df90ef          	jal	ra,30000598 <rt_sem_init>
    30006950:	00100513          	li	a0,1
    30006954:	ed1ff0ef          	jal	ra,30006824 <finsh_set_prompt_mode>
    30006958:	00000493          	li	s1,0
    3000695c:	f8040ee3          	beqz	s0,300068f8 <finsh_system_init+0x68>
    30006960:	00040513          	mv	a0,s0
    30006964:	885fc0ef          	jal	ra,300031e8 <rt_thread_startup>
    30006968:	f91ff06f          	j	300068f8 <finsh_system_init+0x68>

000000003000696c <finsh_set_device>:
    3000696c:	fe010113          	addi	sp,sp,-32
    30006970:	00813823          	sd	s0,16(sp)
    30006974:	94818413          	addi	s0,gp,-1720 # 80004310 <shell>
    30006978:	00043783          	ld	a5,0(s0)
    3000697c:	01213023          	sd	s2,0(sp)
    30006980:	00113c23          	sd	ra,24(sp)
    30006984:	00913423          	sd	s1,8(sp)
    30006988:	00050913          	mv	s2,a0
    3000698c:	00079e63          	bnez	a5,300069a8 <finsh_set_device+0x3c>
    30006990:	0d200613          	li	a2,210
    30006994:	4fffc597          	auipc	a1,0x4fffc
    30006998:	13c58593          	addi	a1,a1,316 # 80002ad0 <__FUNCTION__.4547>
    3000699c:	4fffc517          	auipc	a0,0x4fffc
    300069a0:	05c50513          	addi	a0,a0,92 # 800029f8 <__fsym_hello_name+0x8>
    300069a4:	af4fb0ef          	jal	ra,30001c98 <rt_assert_handler>
    300069a8:	00090513          	mv	a0,s2
    300069ac:	b3cfb0ef          	jal	ra,30001ce8 <rt_device_find>
    300069b0:	00050493          	mv	s1,a0
    300069b4:	02051463          	bnez	a0,300069dc <finsh_set_device+0x70>
    300069b8:	01013403          	ld	s0,16(sp)
    300069bc:	01813083          	ld	ra,24(sp)
    300069c0:	00813483          	ld	s1,8(sp)
    300069c4:	00090593          	mv	a1,s2
    300069c8:	00013903          	ld	s2,0(sp)
    300069cc:	4fffc517          	auipc	a0,0x4fffc
    300069d0:	09450513          	addi	a0,a0,148 # 80002a60 <__fsym_hello_name+0x70>
    300069d4:	02010113          	addi	sp,sp,32
    300069d8:	944fb06f          	j	30001b1c <rt_kprintf>
    300069dc:	00043783          	ld	a5,0(s0)
    300069e0:	2307b783          	ld	a5,560(a5)
    300069e4:	06a78a63          	beq	a5,a0,30006a58 <finsh_set_device+0xec>
    300069e8:	04300593          	li	a1,67
    300069ec:	b7cfb0ef          	jal	ra,30001d68 <rt_device_open>
    300069f0:	06051463          	bnez	a0,30006a58 <finsh_set_device+0xec>
    300069f4:	00043783          	ld	a5,0(s0)
    300069f8:	2307b503          	ld	a0,560(a5)
    300069fc:	00050c63          	beqz	a0,30006a14 <finsh_set_device+0xa8>
    30006a00:	cc0fb0ef          	jal	ra,30001ec0 <rt_device_close>
    30006a04:	00043783          	ld	a5,0(s0)
    30006a08:	00000593          	li	a1,0
    30006a0c:	2307b503          	ld	a0,560(a5)
    30006a10:	fb0fb0ef          	jal	ra,300021c0 <rt_device_set_rx_indicate>
    30006a14:	00043503          	ld	a0,0(s0)
    30006a18:	00000593          	li	a1,0
    30006a1c:	05100613          	li	a2,81
    30006a20:	1da50513          	addi	a0,a0,474
    30006a24:	97df90ef          	jal	ra,300003a0 <memset>
    30006a28:	00043783          	ld	a5,0(s0)
    30006a2c:	01013403          	ld	s0,16(sp)
    30006a30:	01813083          	ld	ra,24(sp)
    30006a34:	00013903          	ld	s2,0(sp)
    30006a38:	2297b823          	sd	s1,560(a5)
    30006a3c:	00048513          	mv	a0,s1
    30006a40:	00813483          	ld	s1,8(sp)
    30006a44:	2207a623          	sw	zero,556(a5)
    30006a48:	00000597          	auipc	a1,0x0
    30006a4c:	c7858593          	addi	a1,a1,-904 # 300066c0 <finsh_rx_ind>
    30006a50:	02010113          	addi	sp,sp,32
    30006a54:	f6cfb06f          	j	300021c0 <rt_device_set_rx_indicate>
    30006a58:	01813083          	ld	ra,24(sp)
    30006a5c:	01013403          	ld	s0,16(sp)
    30006a60:	00813483          	ld	s1,8(sp)
    30006a64:	00013903          	ld	s2,0(sp)
    30006a68:	02010113          	addi	sp,sp,32
    30006a6c:	00008067          	ret

0000000030006a70 <finsh_thread_entry>:
    30006a70:	f8010113          	addi	sp,sp,-128
    30006a74:	06913423          	sd	s1,104(sp)
    30006a78:	94818493          	addi	s1,gp,-1720 # 80004310 <shell>
    30006a7c:	0004b783          	ld	a5,0(s1)
    30006a80:	06113c23          	sd	ra,120(sp)
    30006a84:	06813823          	sd	s0,112(sp)
    30006a88:	0447c703          	lbu	a4,68(a5)
    30006a8c:	07213023          	sd	s2,96(sp)
    30006a90:	05313c23          	sd	s3,88(sp)
    30006a94:	05413823          	sd	s4,80(sp)
    30006a98:	05513423          	sd	s5,72(sp)
    30006a9c:	05613023          	sd	s6,64(sp)
    30006aa0:	03713c23          	sd	s7,56(sp)
    30006aa4:	03813823          	sd	s8,48(sp)
    30006aa8:	03913423          	sd	s9,40(sp)
    30006aac:	03a13023          	sd	s10,32(sp)
    30006ab0:	01b13c23          	sd	s11,24(sp)
    30006ab4:	00176713          	ori	a4,a4,1
    30006ab8:	04e78223          	sb	a4,68(a5)
    30006abc:	2307b783          	ld	a5,560(a5)
    30006ac0:	00079863          	bnez	a5,30006ad0 <finsh_thread_entry+0x60>
    30006ac4:	fe1fa0ef          	jal	ra,30001aa4 <rt_console_get_device>
    30006ac8:	00050463          	beqz	a0,30006ad0 <finsh_thread_entry+0x60>
    30006acc:	ea1ff0ef          	jal	ra,3000696c <finsh_set_device>
    30006ad0:	c41ff0ef          	jal	ra,30006710 <finsh_get_prompt>
    30006ad4:	848fb0ef          	jal	ra,30001b1c <rt_kprintf>
    30006ad8:	4fffca17          	auipc	s4,0x4fffc
    30006adc:	fd8a0a13          	addi	s4,s4,-40 # 80002ab0 <__FUNCTION__.4534>
    30006ae0:	4fffca97          	auipc	s5,0x4fffc
    30006ae4:	f18a8a93          	addi	s5,s5,-232 # 800029f8 <__fsym_hello_name+0x8>
    30006ae8:	01b00993          	li	s3,27
    30006aec:	0fd00b13          	li	s6,253
    30006af0:	00900b93          	li	s7,9
    30006af4:	07f00c13          	li	s8,127
    30006af8:	4fffc917          	auipc	s2,0x4fffc
    30006afc:	f8890913          	addi	s2,s2,-120 # 80002a80 <__fsym_hello_name+0x90>
    30006b00:	0004b783          	ld	a5,0(s1)
    30006b04:	000107a3          	sb	zero,15(sp)
    30006b08:	00079a63          	bnez	a5,30006b1c <finsh_thread_entry+0xac>
    30006b0c:	0af00613          	li	a2,175
    30006b10:	000a0593          	mv	a1,s4
    30006b14:	000a8513          	mv	a0,s5
    30006b18:	980fb0ef          	jal	ra,30001c98 <rt_assert_handler>
    30006b1c:	0004b783          	ld	a5,0(s1)
    30006b20:	00100693          	li	a3,1
    30006b24:	00f10613          	addi	a2,sp,15
    30006b28:	2307b503          	ld	a0,560(a5)
    30006b2c:	fff00593          	li	a1,-1
    30006b30:	c3cfb0ef          	jal	ra,30001f6c <rt_device_read>
    30006b34:	00100793          	li	a5,1
    30006b38:	00f51e63          	bne	a0,a5,30006b54 <finsh_thread_entry+0xe4>
    30006b3c:	00f14c83          	lbu	s9,15(sp)
    30006b40:	0004b403          	ld	s0,0(s1)
    30006b44:	000c859b          	sext.w	a1,s9
    30006b48:	013c9c63          	bne	s9,s3,30006b60 <finsh_thread_entry+0xf0>
    30006b4c:	04a42023          	sw	a0,64(s0)
    30006b50:	fb1ff06f          	j	30006b00 <finsh_thread_entry+0x90>
    30006b54:	01400513          	li	a0,20
    30006b58:	da0fc0ef          	jal	ra,300030f8 <rt_thread_mdelay>
    30006b5c:	fc1ff06f          	j	30006b1c <finsh_thread_entry+0xac>
    30006b60:	04042783          	lw	a5,64(s0)
    30006b64:	02a79a63          	bne	a5,a0,30006b98 <finsh_thread_entry+0x128>
    30006b68:	05b00793          	li	a5,91
    30006b6c:	00f59863          	bne	a1,a5,30006b7c <finsh_thread_entry+0x10c>
    30006b70:	00200793          	li	a5,2
    30006b74:	04f42023          	sw	a5,64(s0)
    30006b78:	f89ff06f          	j	30006b00 <finsh_thread_entry+0x90>
    30006b7c:	04042023          	sw	zero,64(s0)
    30006b80:	fffc879b          	addiw	a5,s9,-1
    30006b84:	0ff7f793          	zext.b	a5,a5
    30006b88:	f6fb6ce3          	bltu	s6,a5,30006b00 <finsh_thread_entry+0x90>
    30006b8c:	19759463          	bne	a1,s7,30006d14 <finsh_thread_entry+0x2a4>
    30006b90:	00000c93          	li	s9,0
    30006b94:	1180006f          	j	30006cac <finsh_thread_entry+0x23c>
    30006b98:	00200713          	li	a4,2
    30006b9c:	fee792e3          	bne	a5,a4,30006b80 <finsh_thread_entry+0x110>
    30006ba0:	04042023          	sw	zero,64(s0)
    30006ba4:	04100793          	li	a5,65
    30006ba8:	06f59063          	bne	a1,a5,30006c08 <finsh_thread_entry+0x198>
    30006bac:	04645583          	lhu	a1,70(s0)
    30006bb0:	f40588e3          	beqz	a1,30006b00 <finsh_thread_entry+0x90>
    30006bb4:	fff5859b          	addiw	a1,a1,-1
    30006bb8:	03059593          	slli	a1,a1,0x30
    30006bbc:	0305d593          	srli	a1,a1,0x30
    30006bc0:	04b41323          	sh	a1,70(s0)
    30006bc4:	05000793          	li	a5,80
    30006bc8:	02f585b3          	mul	a1,a1,a5
    30006bcc:	05000613          	li	a2,80
    30006bd0:	1da40513          	addi	a0,s0,474
    30006bd4:	04a58593          	addi	a1,a1,74
    30006bd8:	00b405b3          	add	a1,s0,a1
    30006bdc:	fc8f90ef          	jal	ra,300003a4 <memcpy>
    30006be0:	0004b403          	ld	s0,0(s1)
    30006be4:	1da40513          	addi	a0,s0,474
    30006be8:	f4cf90ef          	jal	ra,30000334 <strlen>
    30006bec:	03051513          	slli	a0,a0,0x30
    30006bf0:	03055513          	srli	a0,a0,0x30
    30006bf4:	22a41623          	sh	a0,556(s0)
    30006bf8:	22a41723          	sh	a0,558(s0)
    30006bfc:	00040513          	mv	a0,s0
    30006c00:	bddff0ef          	jal	ra,300067dc <shell_handle_history>
    30006c04:	efdff06f          	j	30006b00 <finsh_thread_entry+0x90>
    30006c08:	04200793          	li	a5,66
    30006c0c:	02f59863          	bne	a1,a5,30006c3c <finsh_thread_entry+0x1cc>
    30006c10:	04845683          	lhu	a3,72(s0)
    30006c14:	04645783          	lhu	a5,70(s0)
    30006c18:	fff6861b          	addiw	a2,a3,-1 # fff <__stack_size+0x7ff>
    30006c1c:	00c7da63          	bge	a5,a2,30006c30 <finsh_thread_entry+0x1c0>
    30006c20:	0017879b          	addiw	a5,a5,1
    30006c24:	04f41323          	sh	a5,70(s0)
    30006c28:	04645583          	lhu	a1,70(s0)
    30006c2c:	f99ff06f          	j	30006bc4 <finsh_thread_entry+0x154>
    30006c30:	ec0688e3          	beqz	a3,30006b00 <finsh_thread_entry+0x90>
    30006c34:	04c41323          	sh	a2,70(s0)
    30006c38:	ff1ff06f          	j	30006c28 <finsh_thread_entry+0x1b8>
    30006c3c:	04400793          	li	a5,68
    30006c40:	02f59463          	bne	a1,a5,30006c68 <finsh_thread_entry+0x1f8>
    30006c44:	22e45783          	lhu	a5,558(s0)
    30006c48:	ea078ce3          	beqz	a5,30006b00 <finsh_thread_entry+0x90>
    30006c4c:	00090513          	mv	a0,s2
    30006c50:	ecdfa0ef          	jal	ra,30001b1c <rt_kprintf>
    30006c54:	0004b703          	ld	a4,0(s1)
    30006c58:	22e75783          	lhu	a5,558(a4)
    30006c5c:	fff7879b          	addiw	a5,a5,-1
    30006c60:	22f71723          	sh	a5,558(a4)
    30006c64:	e9dff06f          	j	30006b00 <finsh_thread_entry+0x90>
    30006c68:	04300793          	li	a5,67
    30006c6c:	f0f59ae3          	bne	a1,a5,30006b80 <finsh_thread_entry+0x110>
    30006c70:	22c45703          	lhu	a4,556(s0)
    30006c74:	22e45783          	lhu	a5,558(s0)
    30006c78:	e8e7f4e3          	bgeu	a5,a4,30006b00 <finsh_thread_entry+0x90>
    30006c7c:	00f40433          	add	s0,s0,a5
    30006c80:	1da44583          	lbu	a1,474(s0)
    30006c84:	4fffa517          	auipc	a0,0x4fffa
    30006c88:	62c50513          	addi	a0,a0,1580 # 800012b0 <__FUNCTION__.2730+0x110>
    30006c8c:	e91fa0ef          	jal	ra,30001b1c <rt_kprintf>
    30006c90:	0004b703          	ld	a4,0(s1)
    30006c94:	22e75783          	lhu	a5,558(a4)
    30006c98:	0017879b          	addiw	a5,a5,1
    30006c9c:	fc5ff06f          	j	30006c60 <finsh_thread_entry+0x1f0>
    30006ca0:	00090513          	mv	a0,s2
    30006ca4:	e79fa0ef          	jal	ra,30001b1c <rt_kprintf>
    30006ca8:	001c8c9b          	addiw	s9,s9,1
    30006cac:	0004b403          	ld	s0,0(s1)
    30006cb0:	22e45783          	lhu	a5,558(s0)
    30006cb4:	fefcc6e3          	blt	s9,a5,30006ca0 <finsh_thread_entry+0x230>
    30006cb8:	4fffb517          	auipc	a0,0x4fffb
    30006cbc:	18850513          	addi	a0,a0,392 # 80001e40 <CSWTCH.17+0x60>
    30006cc0:	e5dfa0ef          	jal	ra,30001b1c <rt_kprintf>
    30006cc4:	434000ef          	jal	ra,300070f8 <msh_is_used>
    30006cc8:	00100793          	li	a5,1
    30006ccc:	1da40413          	addi	s0,s0,474
    30006cd0:	00f51663          	bne	a0,a5,30006cdc <finsh_thread_entry+0x26c>
    30006cd4:	00040513          	mv	a0,s0
    30006cd8:	139000ef          	jal	ra,30007610 <msh_auto_complete>
    30006cdc:	a35ff0ef          	jal	ra,30006710 <finsh_get_prompt>
    30006ce0:	00050593          	mv	a1,a0
    30006ce4:	00040613          	mv	a2,s0
    30006ce8:	4fffc517          	auipc	a0,0x4fffc
    30006cec:	d4850513          	addi	a0,a0,-696 # 80002a30 <__fsym_hello_name+0x40>
    30006cf0:	e2dfa0ef          	jal	ra,30001b1c <rt_kprintf>
    30006cf4:	0004b403          	ld	s0,0(s1)
    30006cf8:	1da40513          	addi	a0,s0,474
    30006cfc:	e38f90ef          	jal	ra,30000334 <strlen>
    30006d00:	03051513          	slli	a0,a0,0x30
    30006d04:	03055513          	srli	a0,a0,0x30
    30006d08:	22a41623          	sh	a0,556(s0)
    30006d0c:	22a41723          	sh	a0,558(s0)
    30006d10:	df1ff06f          	j	30006b00 <finsh_thread_entry+0x90>
    30006d14:	01858663          	beq	a1,s8,30006d20 <finsh_thread_entry+0x2b0>
    30006d18:	00800793          	li	a5,8
    30006d1c:	0af59e63          	bne	a1,a5,30006dd8 <finsh_thread_entry+0x368>
    30006d20:	22e45503          	lhu	a0,558(s0)
    30006d24:	dc050ee3          	beqz	a0,30006b00 <finsh_thread_entry+0x90>
    30006d28:	22c45783          	lhu	a5,556(s0)
    30006d2c:	fff5051b          	addiw	a0,a0,-1
    30006d30:	03051513          	slli	a0,a0,0x30
    30006d34:	fff7879b          	addiw	a5,a5,-1
    30006d38:	03079793          	slli	a5,a5,0x30
    30006d3c:	03055513          	srli	a0,a0,0x30
    30006d40:	0307d793          	srli	a5,a5,0x30
    30006d44:	22f41623          	sh	a5,556(s0)
    30006d48:	22a41723          	sh	a0,558(s0)
    30006d4c:	0005061b          	sext.w	a2,a0
    30006d50:	06f57463          	bgeu	a0,a5,30006db8 <finsh_thread_entry+0x348>
    30006d54:	1db60593          	addi	a1,a2,475
    30006d58:	1da50513          	addi	a0,a0,474
    30006d5c:	40c7863b          	subw	a2,a5,a2
    30006d60:	00b405b3          	add	a1,s0,a1
    30006d64:	00a40533          	add	a0,s0,a0
    30006d68:	d84fa0ef          	jal	ra,300012ec <rt_memmove>
    30006d6c:	0004b783          	ld	a5,0(s1)
    30006d70:	4fffc517          	auipc	a0,0x4fffc
    30006d74:	d1850513          	addi	a0,a0,-744 # 80002a88 <__fsym_hello_name+0x98>
    30006d78:	22c7d703          	lhu	a4,556(a5)
    30006d7c:	00e78733          	add	a4,a5,a4
    30006d80:	1c070d23          	sb	zero,474(a4)
    30006d84:	22e7d583          	lhu	a1,558(a5)
    30006d88:	1da58593          	addi	a1,a1,474
    30006d8c:	00b785b3          	add	a1,a5,a1
    30006d90:	d8dfa0ef          	jal	ra,30001b1c <rt_kprintf>
    30006d94:	0004b783          	ld	a5,0(s1)
    30006d98:	22e7d403          	lhu	s0,558(a5)
    30006d9c:	0004b783          	ld	a5,0(s1)
    30006da0:	22c7d783          	lhu	a5,556(a5)
    30006da4:	d487cee3          	blt	a5,s0,30006b00 <finsh_thread_entry+0x90>
    30006da8:	00090513          	mv	a0,s2
    30006dac:	d71fa0ef          	jal	ra,30001b1c <rt_kprintf>
    30006db0:	0014041b          	addiw	s0,s0,1
    30006db4:	fe9ff06f          	j	30006d9c <finsh_thread_entry+0x32c>
    30006db8:	4fffc517          	auipc	a0,0x4fffc
    30006dbc:	cd850513          	addi	a0,a0,-808 # 80002a90 <__fsym_hello_name+0xa0>
    30006dc0:	d5dfa0ef          	jal	ra,30001b1c <rt_kprintf>
    30006dc4:	0004b783          	ld	a5,0(s1)
    30006dc8:	22c7d703          	lhu	a4,556(a5)
    30006dcc:	00e787b3          	add	a5,a5,a4
    30006dd0:	1c078d23          	sb	zero,474(a5)
    30006dd4:	d2dff06f          	j	30006b00 <finsh_thread_entry+0x90>
    30006dd8:	00d00713          	li	a4,13
    30006ddc:	22c45783          	lhu	a5,556(s0)
    30006de0:	00e58663          	beq	a1,a4,30006dec <finsh_thread_entry+0x37c>
    30006de4:	00a00713          	li	a4,10
    30006de8:	14e59863          	bne	a1,a4,30006f38 <finsh_thread_entry+0x4c8>
    30006dec:	06078a63          	beqz	a5,30006e60 <finsh_thread_entry+0x3f0>
    30006df0:	04845c83          	lhu	s9,72(s0)
    30006df4:	00400793          	li	a5,4
    30006df8:	1da40d13          	addi	s10,s0,474
    30006dfc:	000c851b          	sext.w	a0,s9
    30006e00:	0d97f463          	bgeu	a5,s9,30006ec8 <finsh_thread_entry+0x458>
    30006e04:	18a40d93          	addi	s11,s0,394
    30006e08:	05000613          	li	a2,80
    30006e0c:	000d0593          	mv	a1,s10
    30006e10:	000d8513          	mv	a0,s11
    30006e14:	d94f90ef          	jal	ra,300003a8 <memcmp>
    30006e18:	04050463          	beqz	a0,30006e60 <finsh_thread_entry+0x3f0>
    30006e1c:	04a40c93          	addi	s9,s0,74
    30006e20:	000c8513          	mv	a0,s9
    30006e24:	050c8c93          	addi	s9,s9,80
    30006e28:	05000613          	li	a2,80
    30006e2c:	000c8593          	mv	a1,s9
    30006e30:	d74f90ef          	jal	ra,300003a4 <memcpy>
    30006e34:	ff9d96e3          	bne	s11,s9,30006e20 <finsh_thread_entry+0x3b0>
    30006e38:	05000613          	li	a2,80
    30006e3c:	00000593          	li	a1,0
    30006e40:	000d8513          	mv	a0,s11
    30006e44:	d5cf90ef          	jal	ra,300003a0 <memset>
    30006e48:	22c45603          	lhu	a2,556(s0)
    30006e4c:	000d0593          	mv	a1,s10
    30006e50:	000d8513          	mv	a0,s11
    30006e54:	d50f90ef          	jal	ra,300003a4 <memcpy>
    30006e58:	00500793          	li	a5,5
    30006e5c:	04f41423          	sh	a5,72(s0)
    30006e60:	04845783          	lhu	a5,72(s0)
    30006e64:	04f41323          	sh	a5,70(s0)
    30006e68:	290000ef          	jal	ra,300070f8 <msh_is_used>
    30006e6c:	00100793          	li	a5,1
    30006e70:	02f51863          	bne	a0,a5,30006ea0 <finsh_thread_entry+0x430>
    30006e74:	0004b783          	ld	a5,0(s1)
    30006e78:	0447c783          	lbu	a5,68(a5)
    30006e7c:	0017f793          	andi	a5,a5,1
    30006e80:	00078863          	beqz	a5,30006e90 <finsh_thread_entry+0x420>
    30006e84:	4fffb517          	auipc	a0,0x4fffb
    30006e88:	fbc50513          	addi	a0,a0,-68 # 80001e40 <CSWTCH.17+0x60>
    30006e8c:	c91fa0ef          	jal	ra,30001b1c <rt_kprintf>
    30006e90:	0004b503          	ld	a0,0(s1)
    30006e94:	22c55583          	lhu	a1,556(a0)
    30006e98:	1da50513          	addi	a0,a0,474
    30006e9c:	264000ef          	jal	ra,30007100 <msh_exec>
    30006ea0:	871ff0ef          	jal	ra,30006710 <finsh_get_prompt>
    30006ea4:	c79fa0ef          	jal	ra,30001b1c <rt_kprintf>
    30006ea8:	0004b503          	ld	a0,0(s1)
    30006eac:	05100613          	li	a2,81
    30006eb0:	00000593          	li	a1,0
    30006eb4:	1da50513          	addi	a0,a0,474
    30006eb8:	ce8f90ef          	jal	ra,300003a0 <memset>
    30006ebc:	0004b783          	ld	a5,0(s1)
    30006ec0:	2207a623          	sw	zero,556(a5)
    30006ec4:	c3dff06f          	j	30006b00 <finsh_thread_entry+0x90>
    30006ec8:	020c8463          	beqz	s9,30006ef0 <finsh_thread_entry+0x480>
    30006ecc:	fff5051b          	addiw	a0,a0,-1
    30006ed0:	05000793          	li	a5,80
    30006ed4:	02f50533          	mul	a0,a0,a5
    30006ed8:	05000613          	li	a2,80
    30006edc:	000d0593          	mv	a1,s10
    30006ee0:	04a50513          	addi	a0,a0,74
    30006ee4:	00a40533          	add	a0,s0,a0
    30006ee8:	cc0f90ef          	jal	ra,300003a8 <memcmp>
    30006eec:	f6050ae3          	beqz	a0,30006e60 <finsh_thread_entry+0x3f0>
    30006ef0:	05000d93          	li	s11,80
    30006ef4:	03bc8533          	mul	a0,s9,s11
    30006ef8:	05000613          	li	a2,80
    30006efc:	00000593          	li	a1,0
    30006f00:	05941323          	sh	s9,70(s0)
    30006f04:	04a50513          	addi	a0,a0,74
    30006f08:	00a40533          	add	a0,s0,a0
    30006f0c:	c94f90ef          	jal	ra,300003a0 <memset>
    30006f10:	04845503          	lhu	a0,72(s0)
    30006f14:	22c45603          	lhu	a2,556(s0)
    30006f18:	000d0593          	mv	a1,s10
    30006f1c:	03b50533          	mul	a0,a0,s11
    30006f20:	04a50513          	addi	a0,a0,74
    30006f24:	00a40533          	add	a0,s0,a0
    30006f28:	c7cf90ef          	jal	ra,300003a4 <memcpy>
    30006f2c:	04845783          	lhu	a5,72(s0)
    30006f30:	0017879b          	addiw	a5,a5,1
    30006f34:	f29ff06f          	j	30006e5c <finsh_thread_entry+0x3ec>
    30006f38:	04f00713          	li	a4,79
    30006f3c:	00f77463          	bgeu	a4,a5,30006f44 <finsh_thread_entry+0x4d4>
    30006f40:	22041623          	sh	zero,556(s0)
    30006f44:	22e45703          	lhu	a4,558(s0)
    30006f48:	22c45783          	lhu	a5,556(s0)
    30006f4c:	0007061b          	sext.w	a2,a4
    30006f50:	0af77263          	bgeu	a4,a5,30006ff4 <finsh_thread_entry+0x584>
    30006f54:	1da70593          	addi	a1,a4,474
    30006f58:	1db60513          	addi	a0,a2,475
    30006f5c:	00b405b3          	add	a1,s0,a1
    30006f60:	40c7863b          	subw	a2,a5,a2
    30006f64:	00a40533          	add	a0,s0,a0
    30006f68:	b84fa0ef          	jal	ra,300012ec <rt_memmove>
    30006f6c:	0004b583          	ld	a1,0(s1)
    30006f70:	22e5d783          	lhu	a5,558(a1)
    30006f74:	00f58733          	add	a4,a1,a5
    30006f78:	1d970d23          	sb	s9,474(a4)
    30006f7c:	0445c703          	lbu	a4,68(a1)
    30006f80:	00177713          	andi	a4,a4,1
    30006f84:	00070c63          	beqz	a4,30006f9c <finsh_thread_entry+0x52c>
    30006f88:	1da78793          	addi	a5,a5,474
    30006f8c:	00f585b3          	add	a1,a1,a5
    30006f90:	4fffb517          	auipc	a0,0x4fffb
    30006f94:	ec050513          	addi	a0,a0,-320 # 80001e50 <CSWTCH.17+0x70>
    30006f98:	b85fa0ef          	jal	ra,30001b1c <rt_kprintf>
    30006f9c:	0004b783          	ld	a5,0(s1)
    30006fa0:	22e7d403          	lhu	s0,558(a5)
    30006fa4:	0004b783          	ld	a5,0(s1)
    30006fa8:	22c7d783          	lhu	a5,556(a5)
    30006fac:	02f44c63          	blt	s0,a5,30006fe4 <finsh_thread_entry+0x574>
    30006fb0:	0004b703          	ld	a4,0(s1)
    30006fb4:	22c75783          	lhu	a5,556(a4)
    30006fb8:	22e75683          	lhu	a3,558(a4)
    30006fbc:	0017879b          	addiw	a5,a5,1
    30006fc0:	03079793          	slli	a5,a5,0x30
    30006fc4:	0016869b          	addiw	a3,a3,1
    30006fc8:	0307d793          	srli	a5,a5,0x30
    30006fcc:	22d71723          	sh	a3,558(a4)
    30006fd0:	22f71623          	sh	a5,556(a4)
    30006fd4:	04f00693          	li	a3,79
    30006fd8:	b2f6f4e3          	bgeu	a3,a5,30006b00 <finsh_thread_entry+0x90>
    30006fdc:	22072623          	sw	zero,556(a4)
    30006fe0:	b21ff06f          	j	30006b00 <finsh_thread_entry+0x90>
    30006fe4:	00090513          	mv	a0,s2
    30006fe8:	b35fa0ef          	jal	ra,30001b1c <rt_kprintf>
    30006fec:	0014041b          	addiw	s0,s0,1
    30006ff0:	fb5ff06f          	j	30006fa4 <finsh_thread_entry+0x534>
    30006ff4:	00f407b3          	add	a5,s0,a5
    30006ff8:	1d978d23          	sb	s9,474(a5)
    30006ffc:	04444783          	lbu	a5,68(s0)
    30007000:	0017f793          	andi	a5,a5,1
    30007004:	fa0786e3          	beqz	a5,30006fb0 <finsh_thread_entry+0x540>
    30007008:	4fffa517          	auipc	a0,0x4fffa
    3000700c:	2a850513          	addi	a0,a0,680 # 800012b0 <__FUNCTION__.2730+0x110>
    30007010:	b0dfa0ef          	jal	ra,30001b1c <rt_kprintf>
    30007014:	f9dff06f          	j	30006fb0 <finsh_thread_entry+0x540>

0000000030007018 <msh_help>:
    30007018:	fd010113          	addi	sp,sp,-48
    3000701c:	4fffc517          	auipc	a0,0x4fffc
    30007020:	acc50513          	addi	a0,a0,-1332 # 80002ae8 <__FUNCTION__.4547+0x18>
    30007024:	02813023          	sd	s0,32(sp)
    30007028:	01213823          	sd	s2,16(sp)
    3000702c:	01313423          	sd	s3,8(sp)
    30007030:	01413023          	sd	s4,0(sp)
    30007034:	02113423          	sd	ra,40(sp)
    30007038:	00913c23          	sd	s1,24(sp)
    3000703c:	92818913          	addi	s2,gp,-1752 # 800042f0 <_syscall_table_end>
    30007040:	addfa0ef          	jal	ra,30001b1c <rt_kprintf>
    30007044:	4fffc997          	auipc	s3,0x4fffc
    30007048:	ac498993          	addi	s3,s3,-1340 # 80002b08 <__FUNCTION__.4547+0x38>
    3000704c:	9201b403          	ld	s0,-1760(gp) # 800042e8 <_syscall_table_begin>
    30007050:	4fffca17          	auipc	s4,0x4fffc
    30007054:	ac0a0a13          	addi	s4,s4,-1344 # 80002b10 <__FUNCTION__.4547+0x40>
    30007058:	00093783          	ld	a5,0(s2)
    3000705c:	02f46a63          	bltu	s0,a5,30007090 <msh_help+0x78>
    30007060:	4fffb517          	auipc	a0,0x4fffb
    30007064:	de050513          	addi	a0,a0,-544 # 80001e40 <CSWTCH.17+0x60>
    30007068:	ab5fa0ef          	jal	ra,30001b1c <rt_kprintf>
    3000706c:	02813083          	ld	ra,40(sp)
    30007070:	02013403          	ld	s0,32(sp)
    30007074:	01813483          	ld	s1,24(sp)
    30007078:	01013903          	ld	s2,16(sp)
    3000707c:	00813983          	ld	s3,8(sp)
    30007080:	00013a03          	ld	s4,0(sp)
    30007084:	00000513          	li	a0,0
    30007088:	03010113          	addi	sp,sp,48
    3000708c:	00008067          	ret
    30007090:	00043483          	ld	s1,0(s0)
    30007094:	00600613          	li	a2,6
    30007098:	00098593          	mv	a1,s3
    3000709c:	00048513          	mv	a0,s1
    300070a0:	afcf90ef          	jal	ra,3000039c <strncmp>
    300070a4:	00051a63          	bnez	a0,300070b8 <msh_help+0xa0>
    300070a8:	00843603          	ld	a2,8(s0)
    300070ac:	00648593          	addi	a1,s1,6
    300070b0:	000a0513          	mv	a0,s4
    300070b4:	a69fa0ef          	jal	ra,30001b1c <rt_kprintf>
    300070b8:	01840413          	addi	s0,s0,24
    300070bc:	f9dff06f          	j	30007058 <msh_help+0x40>

00000000300070c0 <cmd_ps>:
    300070c0:	ff010113          	addi	sp,sp,-16
    300070c4:	00113423          	sd	ra,8(sp)
    300070c8:	825fe0ef          	jal	ra,300058ec <list_thread>
    300070cc:	00813083          	ld	ra,8(sp)
    300070d0:	00000513          	li	a0,0
    300070d4:	01010113          	addi	sp,sp,16
    300070d8:	00008067          	ret

00000000300070dc <cmd_free>:
    300070dc:	ff010113          	addi	sp,sp,-16
    300070e0:	00113423          	sd	ra,8(sp)
    300070e4:	8b4fd0ef          	jal	ra,30004198 <list_mem>
    300070e8:	00813083          	ld	ra,8(sp)
    300070ec:	00000513          	li	a0,0
    300070f0:	01010113          	addi	sp,sp,16
    300070f4:	00008067          	ret

00000000300070f8 <msh_is_used>:
    300070f8:	00100513          	li	a0,1
    300070fc:	00008067          	ret

0000000030007100 <msh_exec>:
    30007100:	f6010113          	addi	sp,sp,-160
    30007104:	08813823          	sd	s0,144(sp)
    30007108:	08913423          	sd	s1,136(sp)
    3000710c:	08113c23          	sd	ra,152(sp)
    30007110:	09213023          	sd	s2,128(sp)
    30007114:	07313c23          	sd	s3,120(sp)
    30007118:	07413823          	sd	s4,112(sp)
    3000711c:	07513423          	sd	s5,104(sp)
    30007120:	07613023          	sd	s6,96(sp)
    30007124:	05713c23          	sd	s7,88(sp)
    30007128:	00050493          	mv	s1,a0
    3000712c:	00058413          	mv	s0,a1
    30007130:	02000693          	li	a3,32
    30007134:	00900713          	li	a4,9
    30007138:	04041063          	bnez	s0,30007178 <msh_exec+0x78>
    3000713c:	00000513          	li	a0,0
    30007140:	09813083          	ld	ra,152(sp)
    30007144:	09013403          	ld	s0,144(sp)
    30007148:	08813483          	ld	s1,136(sp)
    3000714c:	08013903          	ld	s2,128(sp)
    30007150:	07813983          	ld	s3,120(sp)
    30007154:	07013a03          	ld	s4,112(sp)
    30007158:	06813a83          	ld	s5,104(sp)
    3000715c:	06013b03          	ld	s6,96(sp)
    30007160:	05813b83          	ld	s7,88(sp)
    30007164:	0a010113          	addi	sp,sp,160
    30007168:	00008067          	ret
    3000716c:	00148493          	addi	s1,s1,1
    30007170:	fff40413          	addi	s0,s0,-1
    30007174:	fc5ff06f          	j	30007138 <msh_exec+0x38>
    30007178:	0004c783          	lbu	a5,0(s1)
    3000717c:	fed788e3          	beq	a5,a3,3000716c <msh_exec+0x6c>
    30007180:	fee786e3          	beq	a5,a4,3000716c <msh_exec+0x6c>
    30007184:	00000793          	li	a5,0
    30007188:	02000693          	li	a3,32
    3000718c:	00900613          	li	a2,9
    30007190:	00f48733          	add	a4,s1,a5
    30007194:	00074703          	lbu	a4,0(a4)
    30007198:	0cd70263          	beq	a4,a3,3000725c <msh_exec+0x15c>
    3000719c:	0cc70063          	beq	a4,a2,3000725c <msh_exec+0x15c>
    300071a0:	0af41a63          	bne	s0,a5,30007254 <msh_exec+0x154>
    300071a4:	00078b1b          	sext.w	s6,a5
    300071a8:	9201b983          	ld	s3,-1760(gp) # 800042e8 <_syscall_table_begin>
    300071ac:	9281ba83          	ld	s5,-1752(gp) # 800042f0 <_syscall_table_end>
    300071b0:	4fffcb97          	auipc	s7,0x4fffc
    300071b4:	958b8b93          	addi	s7,s7,-1704 # 80002b08 <__FUNCTION__.4547+0x38>
    300071b8:	0067891b          	addiw	s2,a5,6
    300071bc:	0b59f263          	bgeu	s3,s5,30007260 <msh_exec+0x160>
    300071c0:	0009ba03          	ld	s4,0(s3)
    300071c4:	00600613          	li	a2,6
    300071c8:	000b8593          	mv	a1,s7
    300071cc:	000a0513          	mv	a0,s4
    300071d0:	9ccf90ef          	jal	ra,3000039c <strncmp>
    300071d4:	0c051463          	bnez	a0,3000729c <msh_exec+0x19c>
    300071d8:	000b0613          	mv	a2,s6
    300071dc:	00048593          	mv	a1,s1
    300071e0:	006a0513          	addi	a0,s4,6
    300071e4:	9b8f90ef          	jal	ra,3000039c <strncmp>
    300071e8:	0a051a63          	bnez	a0,3000729c <msh_exec+0x19c>
    300071ec:	012a0a33          	add	s4,s4,s2
    300071f0:	000a4783          	lbu	a5,0(s4)
    300071f4:	0a079463          	bnez	a5,3000729c <msh_exec+0x19c>
    300071f8:	0109b983          	ld	s3,16(s3)
    300071fc:	06098263          	beqz	s3,30007260 <msh_exec+0x160>
    30007200:	05000613          	li	a2,80
    30007204:	00000593          	li	a1,0
    30007208:	00010513          	mv	a0,sp
    3000720c:	994f90ef          	jal	ra,300003a0 <memset>
    30007210:	00010913          	mv	s2,sp
    30007214:	00010613          	mv	a2,sp
    30007218:	00048793          	mv	a5,s1
    3000721c:	00000713          	li	a4,0
    30007220:	00000693          	li	a3,0
    30007224:	02000813          	li	a6,32
    30007228:	00900893          	li	a7,9
    3000722c:	00a00313          	li	t1,10
    30007230:	02200593          	li	a1,34
    30007234:	05c00e13          	li	t3,92
    30007238:	0007c503          	lbu	a0,0(a5)
    3000723c:	01050463          	beq	a0,a6,30007244 <msh_exec+0x144>
    30007240:	07151a63          	bne	a0,a7,300072b4 <msh_exec+0x1b4>
    30007244:	06e41063          	bne	s0,a4,300072a4 <msh_exec+0x1a4>
    30007248:	00a00793          	li	a5,10
    3000724c:	06f68663          	beq	a3,a5,300072b8 <msh_exec+0x1b8>
    30007250:	0d40006f          	j	30007324 <msh_exec+0x224>
    30007254:	00178793          	addi	a5,a5,1
    30007258:	f39ff06f          	j	30007190 <msh_exec+0x90>
    3000725c:	f40794e3          	bnez	a5,300071a4 <msh_exec+0xa4>
    30007260:	0004059b          	sext.w	a1,s0
    30007264:	00048513          	mv	a0,s1
    30007268:	16c010ef          	jal	ra,300083d4 <msh_exec_script>
    3000726c:	00048793          	mv	a5,s1
    30007270:	ec0506e3          	beqz	a0,3000713c <msh_exec+0x3c>
    30007274:	0007c703          	lbu	a4,0(a5)
    30007278:	0df77713          	andi	a4,a4,223
    3000727c:	10071c63          	bnez	a4,30007394 <msh_exec+0x294>
    30007280:	4fffc517          	auipc	a0,0x4fffc
    30007284:	8c850513          	addi	a0,a0,-1848 # 80002b48 <__FUNCTION__.4547+0x78>
    30007288:	00078023          	sb	zero,0(a5)
    3000728c:	00048593          	mv	a1,s1
    30007290:	88dfa0ef          	jal	ra,30001b1c <rt_kprintf>
    30007294:	fff00513          	li	a0,-1
    30007298:	ea9ff06f          	j	30007140 <msh_exec+0x40>
    3000729c:	01898993          	addi	s3,s3,24
    300072a0:	f1dff06f          	j	300071bc <msh_exec+0xbc>
    300072a4:	00078023          	sb	zero,0(a5)
    300072a8:	00170713          	addi	a4,a4,1
    300072ac:	00178793          	addi	a5,a5,1
    300072b0:	f89ff06f          	j	30007238 <msh_exec+0x138>
    300072b4:	04669663          	bne	a3,t1,30007300 <msh_exec+0x200>
    300072b8:	4fffc517          	auipc	a0,0x4fffc
    300072bc:	86850513          	addi	a0,a0,-1944 # 80002b20 <__FUNCTION__.4547+0x50>
    300072c0:	85dfa0ef          	jal	ra,30001b1c <rt_kprintf>
    300072c4:	05010413          	addi	s0,sp,80
    300072c8:	4fffc497          	auipc	s1,0x4fffc
    300072cc:	87848493          	addi	s1,s1,-1928 # 80002b40 <__FUNCTION__.4547+0x70>
    300072d0:	00093583          	ld	a1,0(s2)
    300072d4:	00048513          	mv	a0,s1
    300072d8:	00890913          	addi	s2,s2,8
    300072dc:	841fa0ef          	jal	ra,30001b1c <rt_kprintf>
    300072e0:	fe8918e3          	bne	s2,s0,300072d0 <msh_exec+0x1d0>
    300072e4:	4fffb517          	auipc	a0,0x4fffb
    300072e8:	b5c50513          	addi	a0,a0,-1188 # 80001e40 <CSWTCH.17+0x60>
    300072ec:	831fa0ef          	jal	ra,30001b1c <rt_kprintf>
    300072f0:	00a00513          	li	a0,10
    300072f4:	00010593          	mv	a1,sp
    300072f8:	000980e7          	jalr	s3
    300072fc:	e45ff06f          	j	30007140 <msh_exec+0x40>
    30007300:	02877263          	bgeu	a4,s0,30007324 <msh_exec+0x224>
    30007304:	00168693          	addi	a3,a3,1
    30007308:	06b51263          	bne	a0,a1,3000736c <msh_exec+0x26c>
    3000730c:	00178793          	addi	a5,a5,1
    30007310:	00170713          	addi	a4,a4,1
    30007314:	00f63023          	sd	a5,0(a2)
    30007318:	0007c503          	lbu	a0,0(a5)
    3000731c:	02b50a63          	beq	a0,a1,30007350 <msh_exec+0x250>
    30007320:	00876863          	bltu	a4,s0,30007330 <msh_exec+0x230>
    30007324:	0006851b          	sext.w	a0,a3
    30007328:	fc0696e3          	bnez	a3,300072f4 <msh_exec+0x1f4>
    3000732c:	f35ff06f          	j	30007260 <msh_exec+0x160>
    30007330:	0017ce83          	lbu	t4,1(a5)
    30007334:	01c51863          	bne	a0,t3,30007344 <msh_exec+0x244>
    30007338:	00be9663          	bne	t4,a1,30007344 <msh_exec+0x244>
    3000733c:	00178793          	addi	a5,a5,1
    30007340:	00170713          	addi	a4,a4,1
    30007344:	00178793          	addi	a5,a5,1
    30007348:	00170713          	addi	a4,a4,1
    3000734c:	fcdff06f          	j	30007318 <msh_exec+0x218>
    30007350:	fc877ae3          	bgeu	a4,s0,30007324 <msh_exec+0x224>
    30007354:	00078023          	sb	zero,0(a5)
    30007358:	00170713          	addi	a4,a4,1
    3000735c:	00178793          	addi	a5,a5,1
    30007360:	00860613          	addi	a2,a2,8
    30007364:	ec876ae3          	bltu	a4,s0,30007238 <msh_exec+0x138>
    30007368:	fbdff06f          	j	30007324 <msh_exec+0x224>
    3000736c:	00f63023          	sd	a5,0(a2)
    30007370:	0007c503          	lbu	a0,0(a5)
    30007374:	01050c63          	beq	a0,a6,3000738c <msh_exec+0x28c>
    30007378:	01150a63          	beq	a0,a7,3000738c <msh_exec+0x28c>
    3000737c:	fae404e3          	beq	s0,a4,30007324 <msh_exec+0x224>
    30007380:	00178793          	addi	a5,a5,1
    30007384:	00170713          	addi	a4,a4,1
    30007388:	fe9ff06f          	j	30007370 <msh_exec+0x270>
    3000738c:	fc876ae3          	bltu	a4,s0,30007360 <msh_exec+0x260>
    30007390:	f95ff06f          	j	30007324 <msh_exec+0x224>
    30007394:	00178793          	addi	a5,a5,1
    30007398:	eddff06f          	j	30007274 <msh_exec+0x174>

000000003000739c <msh_auto_complete_path>:
    3000739c:	26050863          	beqz	a0,3000760c <msh_auto_complete_path+0x270>
    300073a0:	fc010113          	addi	sp,sp,-64
    300073a4:	03213023          	sd	s2,32(sp)
    300073a8:	00050913          	mv	s2,a0
    300073ac:	10000513          	li	a0,256
    300073b0:	02813823          	sd	s0,48(sp)
    300073b4:	02113c23          	sd	ra,56(sp)
    300073b8:	02913423          	sd	s1,40(sp)
    300073bc:	01313c23          	sd	s3,24(sp)
    300073c0:	01413823          	sd	s4,16(sp)
    300073c4:	01513423          	sd	s5,8(sp)
    300073c8:	afcfd0ef          	jal	ra,300046c4 <rt_malloc>
    300073cc:	00050413          	mv	s0,a0
    300073d0:	20050c63          	beqz	a0,300075e8 <msh_auto_complete_path+0x24c>
    300073d4:	00094783          	lbu	a5,0(s2)
    300073d8:	02f00493          	li	s1,47
    300073dc:	04978863          	beq	a5,s1,3000742c <msh_auto_complete_path+0x90>
    300073e0:	10000593          	li	a1,256
    300073e4:	715020ef          	jal	ra,3000a2f8 <getcwd>
    300073e8:	00040513          	mv	a0,s0
    300073ec:	838fa0ef          	jal	ra,30001424 <rt_strlen>
    300073f0:	00a40533          	add	a0,s0,a0
    300073f4:	fff54783          	lbu	a5,-1(a0)
    300073f8:	00978a63          	beq	a5,s1,3000740c <msh_auto_complete_path+0x70>
    300073fc:	4fffb597          	auipc	a1,0x4fffb
    30007400:	a5c58593          	addi	a1,a1,-1444 # 80001e58 <CSWTCH.17+0x78>
    30007404:	00040513          	mv	a0,s0
    30007408:	f59f80ef          	jal	ra,30000360 <strcat>
    3000740c:	00090793          	mv	a5,s2
    30007410:	00000993          	li	s3,0
    30007414:	02f00693          	li	a3,47
    30007418:	0007c703          	lbu	a4,0(a5)
    3000741c:	00d71c63          	bne	a4,a3,30007434 <msh_auto_complete_path+0x98>
    30007420:	00178993          	addi	s3,a5,1
    30007424:	00178793          	addi	a5,a5,1
    30007428:	ff1ff06f          	j	30007418 <msh_auto_complete_path+0x7c>
    3000742c:	00050023          	sb	zero,0(a0)
    30007430:	fddff06f          	j	3000740c <msh_auto_complete_path+0x70>
    30007434:	fe0718e3          	bnez	a4,30007424 <msh_auto_complete_path+0x88>
    30007438:	00099463          	bnez	s3,30007440 <msh_auto_complete_path+0xa4>
    3000743c:	00090993          	mv	s3,s2
    30007440:	00040513          	mv	a0,s0
    30007444:	0080006f          	j	3000744c <msh_auto_complete_path+0xb0>
    30007448:	00150513          	addi	a0,a0,1
    3000744c:	00054783          	lbu	a5,0(a0)
    30007450:	fe079ce3          	bnez	a5,30007448 <msh_auto_complete_path+0xac>
    30007454:	00050793          	mv	a5,a0
    30007458:	00090493          	mv	s1,s2
    3000745c:	05349463          	bne	s1,s3,300074a4 <msh_auto_complete_path+0x108>
    30007460:	41248933          	sub	s2,s1,s2
    30007464:	01250933          	add	s2,a0,s2
    30007468:	00090023          	sb	zero,0(s2)
    3000746c:	00040513          	mv	a0,s0
    30007470:	361020ef          	jal	ra,30009fd0 <opendir>
    30007474:	00050a13          	mv	s4,a0
    30007478:	04051063          	bnez	a0,300074b8 <msh_auto_complete_path+0x11c>
    3000747c:	00040513          	mv	a0,s0
    30007480:	03013403          	ld	s0,48(sp)
    30007484:	03813083          	ld	ra,56(sp)
    30007488:	02813483          	ld	s1,40(sp)
    3000748c:	02013903          	ld	s2,32(sp)
    30007490:	01813983          	ld	s3,24(sp)
    30007494:	01013a03          	ld	s4,16(sp)
    30007498:	00813a83          	ld	s5,8(sp)
    3000749c:	04010113          	addi	sp,sp,64
    300074a0:	d58fd06f          	j	300049f8 <rt_free>
    300074a4:	0004c703          	lbu	a4,0(s1)
    300074a8:	00148493          	addi	s1,s1,1
    300074ac:	00178793          	addi	a5,a5,1
    300074b0:	fee78fa3          	sb	a4,-1(a5)
    300074b4:	fa9ff06f          	j	3000745c <msh_auto_complete_path+0xc0>
    300074b8:	0004c783          	lbu	a5,0(s1)
    300074bc:	02079463          	bnez	a5,300074e4 <msh_auto_complete_path+0x148>
    300074c0:	4fffb497          	auipc	s1,0x4fffb
    300074c4:	65848493          	addi	s1,s1,1624 # 80002b18 <__FUNCTION__.4547+0x48>
    300074c8:	000a0513          	mv	a0,s4
    300074cc:	3c9020ef          	jal	ra,3000a094 <readdir>
    300074d0:	10050663          	beqz	a0,300075dc <msh_auto_complete_path+0x240>
    300074d4:	00450593          	addi	a1,a0,4
    300074d8:	00048513          	mv	a0,s1
    300074dc:	e40fa0ef          	jal	ra,30001b1c <rt_kprintf>
    300074e0:	fe9ff06f          	j	300074c8 <msh_auto_complete_path+0x12c>
    300074e4:	00000493          	li	s1,0
    300074e8:	000a0513          	mv	a0,s4
    300074ec:	3a9020ef          	jal	ra,3000a094 <readdir>
    300074f0:	06050c63          	beqz	a0,30007568 <msh_auto_complete_path+0x1cc>
    300074f4:	00450913          	addi	s2,a0,4
    300074f8:	00098513          	mv	a0,s3
    300074fc:	f29f90ef          	jal	ra,30001424 <rt_strlen>
    30007500:	00050613          	mv	a2,a0
    30007504:	00090593          	mv	a1,s2
    30007508:	00098513          	mv	a0,s3
    3000750c:	e91f80ef          	jal	ra,3000039c <strncmp>
    30007510:	fc051ce3          	bnez	a0,300074e8 <msh_auto_complete_path+0x14c>
    30007514:	00049e63          	bnez	s1,30007530 <msh_auto_complete_path+0x194>
    30007518:	00090513          	mv	a0,s2
    3000751c:	f09f90ef          	jal	ra,30001424 <rt_strlen>
    30007520:	00050493          	mv	s1,a0
    30007524:	00090593          	mv	a1,s2
    30007528:	00040513          	mv	a0,s0
    3000752c:	e0df80ef          	jal	ra,30000338 <strcpy>
    30007530:	00090593          	mv	a1,s2
    30007534:	00040793          	mv	a5,s0
    30007538:	0005c683          	lbu	a3,0(a1)
    3000753c:	00068863          	beqz	a3,3000754c <msh_auto_complete_path+0x1b0>
    30007540:	0007c703          	lbu	a4,0(a5)
    30007544:	00070463          	beqz	a4,3000754c <msh_auto_complete_path+0x1b0>
    30007548:	00e68a63          	beq	a3,a4,3000755c <msh_auto_complete_path+0x1c0>
    3000754c:	412585bb          	subw	a1,a1,s2
    30007550:	f895fce3          	bgeu	a1,s1,300074e8 <msh_auto_complete_path+0x14c>
    30007554:	00058493          	mv	s1,a1
    30007558:	f91ff06f          	j	300074e8 <msh_auto_complete_path+0x14c>
    3000755c:	00158593          	addi	a1,a1,1
    30007560:	00178793          	addi	a5,a5,1
    30007564:	fd5ff06f          	j	30007538 <msh_auto_complete_path+0x19c>
    30007568:	06048a63          	beqz	s1,300075dc <msh_auto_complete_path+0x240>
    3000756c:	00040513          	mv	a0,s0
    30007570:	eb5f90ef          	jal	ra,30001424 <rt_strlen>
    30007574:	04a4f863          	bgeu	s1,a0,300075c4 <msh_auto_complete_path+0x228>
    30007578:	000a0513          	mv	a0,s4
    3000757c:	3e1020ef          	jal	ra,3000a15c <rewinddir>
    30007580:	4fffba97          	auipc	s5,0x4fffb
    30007584:	598a8a93          	addi	s5,s5,1432 # 80002b18 <__FUNCTION__.4547+0x48>
    30007588:	000a0513          	mv	a0,s4
    3000758c:	309020ef          	jal	ra,3000a094 <readdir>
    30007590:	02050a63          	beqz	a0,300075c4 <msh_auto_complete_path+0x228>
    30007594:	00450913          	addi	s2,a0,4
    30007598:	00098513          	mv	a0,s3
    3000759c:	e89f90ef          	jal	ra,30001424 <rt_strlen>
    300075a0:	00050613          	mv	a2,a0
    300075a4:	00090593          	mv	a1,s2
    300075a8:	00098513          	mv	a0,s3
    300075ac:	df1f80ef          	jal	ra,3000039c <strncmp>
    300075b0:	fc051ce3          	bnez	a0,30007588 <msh_auto_complete_path+0x1ec>
    300075b4:	00090593          	mv	a1,s2
    300075b8:	000a8513          	mv	a0,s5
    300075bc:	d60fa0ef          	jal	ra,30001b1c <rt_kprintf>
    300075c0:	fc9ff06f          	j	30007588 <msh_auto_complete_path+0x1ec>
    300075c4:	00048613          	mv	a2,s1
    300075c8:	00040593          	mv	a1,s0
    300075cc:	00098513          	mv	a0,s3
    300075d0:	009984b3          	add	s1,s3,s1
    300075d4:	dd1f80ef          	jal	ra,300003a4 <memcpy>
    300075d8:	00048023          	sb	zero,0(s1)
    300075dc:	000a0513          	mv	a0,s4
    300075e0:	3e5020ef          	jal	ra,3000a1c4 <closedir>
    300075e4:	e99ff06f          	j	3000747c <msh_auto_complete_path+0xe0>
    300075e8:	03813083          	ld	ra,56(sp)
    300075ec:	03013403          	ld	s0,48(sp)
    300075f0:	02813483          	ld	s1,40(sp)
    300075f4:	02013903          	ld	s2,32(sp)
    300075f8:	01813983          	ld	s3,24(sp)
    300075fc:	01013a03          	ld	s4,16(sp)
    30007600:	00813a83          	ld	s5,8(sp)
    30007604:	04010113          	addi	sp,sp,64
    30007608:	00008067          	ret
    3000760c:	00008067          	ret

0000000030007610 <msh_auto_complete>:
    30007610:	00054783          	lbu	a5,0(a0)
    30007614:	00079863          	bnez	a5,30007624 <msh_auto_complete+0x14>
    30007618:	00000593          	li	a1,0
    3000761c:	00000513          	li	a0,0
    30007620:	9f9ff06f          	j	30007018 <msh_help>
    30007624:	fb010113          	addi	sp,sp,-80
    30007628:	04813023          	sd	s0,64(sp)
    3000762c:	04113423          	sd	ra,72(sp)
    30007630:	00050413          	mv	s0,a0
    30007634:	02913c23          	sd	s1,56(sp)
    30007638:	03213823          	sd	s2,48(sp)
    3000763c:	03313423          	sd	s3,40(sp)
    30007640:	03413023          	sd	s4,32(sp)
    30007644:	01513c23          	sd	s5,24(sp)
    30007648:	01613823          	sd	s6,16(sp)
    3000764c:	01713423          	sd	s7,8(sp)
    30007650:	dd5f90ef          	jal	ra,30001424 <rt_strlen>
    30007654:	00a40533          	add	a0,s0,a0
    30007658:	02000793          	li	a5,32
    3000765c:	00850a63          	beq	a0,s0,30007670 <msh_auto_complete+0x60>
    30007660:	00054703          	lbu	a4,0(a0)
    30007664:	06f71863          	bne	a4,a5,300076d4 <msh_auto_complete+0xc4>
    30007668:	00150513          	addi	a0,a0,1
    3000766c:	d31ff0ef          	jal	ra,3000739c <msh_auto_complete_path>
    30007670:	9201b983          	ld	s3,-1760(gp) # 800042e8 <_syscall_table_begin>
    30007674:	00000b93          	li	s7,0
    30007678:	00000493          	li	s1,0
    3000767c:	92818a13          	addi	s4,gp,-1752 # 800042f0 <_syscall_table_end>
    30007680:	4fffba97          	auipc	s5,0x4fffb
    30007684:	488a8a93          	addi	s5,s5,1160 # 80002b08 <__FUNCTION__.4547+0x38>
    30007688:	4fffbb17          	auipc	s6,0x4fffb
    3000768c:	490b0b13          	addi	s6,s6,1168 # 80002b18 <__FUNCTION__.4547+0x48>
    30007690:	000a3783          	ld	a5,0(s4)
    30007694:	04f9e463          	bltu	s3,a5,300076dc <msh_auto_complete+0xcc>
    30007698:	0e0b8263          	beqz	s7,3000777c <msh_auto_complete+0x16c>
    3000769c:	00040513          	mv	a0,s0
    300076a0:	04013403          	ld	s0,64(sp)
    300076a4:	04813083          	ld	ra,72(sp)
    300076a8:	03013903          	ld	s2,48(sp)
    300076ac:	02813983          	ld	s3,40(sp)
    300076b0:	02013a03          	ld	s4,32(sp)
    300076b4:	01813a83          	ld	s5,24(sp)
    300076b8:	01013b03          	ld	s6,16(sp)
    300076bc:	00048613          	mv	a2,s1
    300076c0:	000b8593          	mv	a1,s7
    300076c4:	03813483          	ld	s1,56(sp)
    300076c8:	00813b83          	ld	s7,8(sp)
    300076cc:	05010113          	addi	sp,sp,80
    300076d0:	cadf906f          	j	3000137c <rt_strncpy>
    300076d4:	fff50513          	addi	a0,a0,-1
    300076d8:	f85ff06f          	j	3000765c <msh_auto_complete+0x4c>
    300076dc:	0009b903          	ld	s2,0(s3)
    300076e0:	00600613          	li	a2,6
    300076e4:	000a8593          	mv	a1,s5
    300076e8:	00090513          	mv	a0,s2
    300076ec:	cb1f80ef          	jal	ra,3000039c <strncmp>
    300076f0:	06051663          	bnez	a0,3000775c <msh_auto_complete+0x14c>
    300076f4:	00040513          	mv	a0,s0
    300076f8:	c3df80ef          	jal	ra,30000334 <strlen>
    300076fc:	00690913          	addi	s2,s2,6
    30007700:	00050613          	mv	a2,a0
    30007704:	00090593          	mv	a1,s2
    30007708:	00040513          	mv	a0,s0
    3000770c:	c91f80ef          	jal	ra,3000039c <strncmp>
    30007710:	04051663          	bnez	a0,3000775c <msh_auto_complete+0x14c>
    30007714:	00049a63          	bnez	s1,30007728 <msh_auto_complete+0x118>
    30007718:	00090513          	mv	a0,s2
    3000771c:	c19f80ef          	jal	ra,30000334 <strlen>
    30007720:	0005049b          	sext.w	s1,a0
    30007724:	00090b93          	mv	s7,s2
    30007728:	000b8793          	mv	a5,s7
    3000772c:	00090713          	mv	a4,s2
    30007730:	0007c603          	lbu	a2,0(a5)
    30007734:	02061863          	bnez	a2,30007764 <msh_auto_complete+0x154>
    30007738:	417787b3          	sub	a5,a5,s7
    3000773c:	00078713          	mv	a4,a5
    30007740:	0007879b          	sext.w	a5,a5
    30007744:	00f4d463          	bge	s1,a5,3000774c <msh_auto_complete+0x13c>
    30007748:	00048713          	mv	a4,s1
    3000774c:	00090593          	mv	a1,s2
    30007750:	000b0513          	mv	a0,s6
    30007754:	0007049b          	sext.w	s1,a4
    30007758:	bc4fa0ef          	jal	ra,30001b1c <rt_kprintf>
    3000775c:	01898993          	addi	s3,s3,24
    30007760:	f31ff06f          	j	30007690 <msh_auto_complete+0x80>
    30007764:	00074683          	lbu	a3,0(a4)
    30007768:	fc0688e3          	beqz	a3,30007738 <msh_auto_complete+0x128>
    3000776c:	fcd616e3          	bne	a2,a3,30007738 <msh_auto_complete+0x128>
    30007770:	00178793          	addi	a5,a5,1
    30007774:	00170713          	addi	a4,a4,1
    30007778:	fb9ff06f          	j	30007730 <msh_auto_complete+0x120>
    3000777c:	04813083          	ld	ra,72(sp)
    30007780:	04013403          	ld	s0,64(sp)
    30007784:	03813483          	ld	s1,56(sp)
    30007788:	03013903          	ld	s2,48(sp)
    3000778c:	02813983          	ld	s3,40(sp)
    30007790:	02013a03          	ld	s4,32(sp)
    30007794:	01813a83          	ld	s5,24(sp)
    30007798:	01013b03          	ld	s6,16(sp)
    3000779c:	00813b83          	ld	s7,8(sp)
    300077a0:	05010113          	addi	sp,sp,80
    300077a4:	00008067          	ret

00000000300077a8 <cmd_ls>:
    300077a8:	ff010113          	addi	sp,sp,-16
    300077ac:	00113423          	sd	ra,8(sp)
    300077b0:	00100793          	li	a5,1
    300077b4:	02f51063          	bne	a0,a5,300077d4 <cmd_ls+0x2c>
    300077b8:	4fffd517          	auipc	a0,0x4fffd
    300077bc:	91050513          	addi	a0,a0,-1776 # 800040c8 <working_directory>
    300077c0:	54c010ef          	jal	ra,30008d0c <ls>
    300077c4:	00813083          	ld	ra,8(sp)
    300077c8:	00000513          	li	a0,0
    300077cc:	01010113          	addi	sp,sp,16
    300077d0:	00008067          	ret
    300077d4:	0085b503          	ld	a0,8(a1)
    300077d8:	fe9ff06f          	j	300077c0 <cmd_ls+0x18>

00000000300077dc <cmd_pwd>:
    300077dc:	ff010113          	addi	sp,sp,-16
    300077e0:	4fffb517          	auipc	a0,0x4fffb
    300077e4:	33850513          	addi	a0,a0,824 # 80002b18 <__FUNCTION__.4547+0x48>
    300077e8:	4fffd597          	auipc	a1,0x4fffd
    300077ec:	8e058593          	addi	a1,a1,-1824 # 800040c8 <working_directory>
    300077f0:	00113423          	sd	ra,8(sp)
    300077f4:	b28fa0ef          	jal	ra,30001b1c <rt_kprintf>
    300077f8:	00813083          	ld	ra,8(sp)
    300077fc:	00000513          	li	a0,0
    30007800:	01010113          	addi	sp,sp,16
    30007804:	00008067          	ret

0000000030007808 <directory_delete_for_msh>:
    30007808:	24050063          	beqz	a0,30007a48 <directory_delete_for_msh+0x240>
    3000780c:	f8010113          	addi	sp,sp,-128
    30007810:	06913423          	sd	s1,104(sp)
    30007814:	00050493          	mv	s1,a0
    30007818:	10000513          	li	a0,256
    3000781c:	06813823          	sd	s0,112(sp)
    30007820:	07213023          	sd	s2,96(sp)
    30007824:	05313c23          	sd	s3,88(sp)
    30007828:	06113c23          	sd	ra,120(sp)
    3000782c:	05413823          	sd	s4,80(sp)
    30007830:	05513423          	sd	s5,72(sp)
    30007834:	05613023          	sd	s6,64(sp)
    30007838:	03713c23          	sd	s7,56(sp)
    3000783c:	03813823          	sd	s8,48(sp)
    30007840:	03913423          	sd	s9,40(sp)
    30007844:	03a13023          	sd	s10,32(sp)
    30007848:	01b13c23          	sd	s11,24(sp)
    3000784c:	00058913          	mv	s2,a1
    30007850:	00060993          	mv	s3,a2
    30007854:	e71fc0ef          	jal	ra,300046c4 <rt_malloc>
    30007858:	00050413          	mv	s0,a0
    3000785c:	1a050863          	beqz	a0,30007a0c <directory_delete_for_msh+0x204>
    30007860:	00048513          	mv	a0,s1
    30007864:	76c020ef          	jal	ra,30009fd0 <opendir>
    30007868:	00050a13          	mv	s4,a0
    3000786c:	0a050463          	beqz	a0,30007914 <directory_delete_for_msh+0x10c>
    30007870:	4fffbb17          	auipc	s6,0x4fffb
    30007874:	398b0b13          	addi	s6,s6,920 # 80002c08 <__fsym___cmd_help_name+0x28>
    30007878:	4fffbb97          	auipc	s7,0x4fffb
    3000787c:	398b8b93          	addi	s7,s7,920 # 80002c10 <__fsym___cmd_help_name+0x30>
    30007880:	00100c13          	li	s8,1
    30007884:	00200c93          	li	s9,2
    30007888:	4fffbd17          	auipc	s10,0x4fffb
    3000788c:	390d0d13          	addi	s10,s10,912 # 80002c18 <__fsym___cmd_help_name+0x38>
    30007890:	4fffbd97          	auipc	s11,0x4fffb
    30007894:	360d8d93          	addi	s11,s11,864 # 80002bf0 <__fsym___cmd_help_name+0x10>
    30007898:	000a0513          	mv	a0,s4
    3000789c:	7f8020ef          	jal	ra,3000a094 <readdir>
    300078a0:	00050a93          	mv	s5,a0
    300078a4:	0e050663          	beqz	a0,30007990 <directory_delete_for_msh+0x188>
    300078a8:	00450693          	addi	a3,a0,4
    300078ac:	00068593          	mv	a1,a3
    300078b0:	4fffc517          	auipc	a0,0x4fffc
    300078b4:	f5050513          	addi	a0,a0,-176 # 80003800 <__fsym_mkdir_name+0x90>
    300078b8:	00d13423          	sd	a3,8(sp)
    300078bc:	b45f90ef          	jal	ra,30001400 <rt_strcmp>
    300078c0:	00813683          	ld	a3,8(sp)
    300078c4:	fc050ae3          	beqz	a0,30007898 <directory_delete_for_msh+0x90>
    300078c8:	00068593          	mv	a1,a3
    300078cc:	000b0513          	mv	a0,s6
    300078d0:	b31f90ef          	jal	ra,30001400 <rt_strcmp>
    300078d4:	00813683          	ld	a3,8(sp)
    300078d8:	fc0500e3          	beqz	a0,30007898 <directory_delete_for_msh+0x90>
    300078dc:	00048613          	mv	a2,s1
    300078e0:	000b8593          	mv	a1,s7
    300078e4:	00040513          	mv	a0,s0
    300078e8:	984fa0ef          	jal	ra,30001a6c <rt_sprintf>
    300078ec:	000ac783          	lbu	a5,0(s5)
    300078f0:	09879463          	bne	a5,s8,30007978 <directory_delete_for_msh+0x170>
    300078f4:	00040513          	mv	a0,s0
    300078f8:	680020ef          	jal	ra,30009f78 <unlink>
    300078fc:	06050663          	beqz	a0,30007968 <directory_delete_for_msh+0x160>
    30007900:	f8091ce3          	bnez	s2,30007898 <directory_delete_for_msh+0x90>
    30007904:	00040593          	mv	a1,s0
    30007908:	000d8513          	mv	a0,s11
    3000790c:	a10fa0ef          	jal	ra,30001b1c <rt_kprintf>
    30007910:	f89ff06f          	j	30007898 <directory_delete_for_msh+0x90>
    30007914:	00091a63          	bnez	s2,30007928 <directory_delete_for_msh+0x120>
    30007918:	00048593          	mv	a1,s1
    3000791c:	4fffb517          	auipc	a0,0x4fffb
    30007920:	2d450513          	addi	a0,a0,724 # 80002bf0 <__fsym___cmd_help_name+0x10>
    30007924:	9f8fa0ef          	jal	ra,30001b1c <rt_kprintf>
    30007928:	00040513          	mv	a0,s0
    3000792c:	07013403          	ld	s0,112(sp)
    30007930:	07813083          	ld	ra,120(sp)
    30007934:	06813483          	ld	s1,104(sp)
    30007938:	06013903          	ld	s2,96(sp)
    3000793c:	05813983          	ld	s3,88(sp)
    30007940:	05013a03          	ld	s4,80(sp)
    30007944:	04813a83          	ld	s5,72(sp)
    30007948:	04013b03          	ld	s6,64(sp)
    3000794c:	03813b83          	ld	s7,56(sp)
    30007950:	03013c03          	ld	s8,48(sp)
    30007954:	02813c83          	ld	s9,40(sp)
    30007958:	02013d03          	ld	s10,32(sp)
    3000795c:	01813d83          	ld	s11,24(sp)
    30007960:	08010113          	addi	sp,sp,128
    30007964:	894fd06f          	j	300049f8 <rt_free>
    30007968:	f20988e3          	beqz	s3,30007898 <directory_delete_for_msh+0x90>
    3000796c:	00040593          	mv	a1,s0
    30007970:	000d0513          	mv	a0,s10
    30007974:	f99ff06f          	j	3000790c <directory_delete_for_msh+0x104>
    30007978:	f39790e3          	bne	a5,s9,30007898 <directory_delete_for_msh+0x90>
    3000797c:	00098613          	mv	a2,s3
    30007980:	00090593          	mv	a1,s2
    30007984:	00040513          	mv	a0,s0
    30007988:	e81ff0ef          	jal	ra,30007808 <directory_delete_for_msh>
    3000798c:	f0dff06f          	j	30007898 <directory_delete_for_msh+0x90>
    30007990:	000a0513          	mv	a0,s4
    30007994:	031020ef          	jal	ra,3000a1c4 <closedir>
    30007998:	00040513          	mv	a0,s0
    3000799c:	85cfd0ef          	jal	ra,300049f8 <rt_free>
    300079a0:	00048513          	mv	a0,s1
    300079a4:	5d4020ef          	jal	ra,30009f78 <unlink>
    300079a8:	04050863          	beqz	a0,300079f8 <directory_delete_for_msh+0x1f0>
    300079ac:	06091063          	bnez	s2,30007a0c <directory_delete_for_msh+0x204>
    300079b0:	00048593          	mv	a1,s1
    300079b4:	4fffb517          	auipc	a0,0x4fffb
    300079b8:	23c50513          	addi	a0,a0,572 # 80002bf0 <__fsym___cmd_help_name+0x10>
    300079bc:	07013403          	ld	s0,112(sp)
    300079c0:	07813083          	ld	ra,120(sp)
    300079c4:	06813483          	ld	s1,104(sp)
    300079c8:	06013903          	ld	s2,96(sp)
    300079cc:	05813983          	ld	s3,88(sp)
    300079d0:	05013a03          	ld	s4,80(sp)
    300079d4:	04813a83          	ld	s5,72(sp)
    300079d8:	04013b03          	ld	s6,64(sp)
    300079dc:	03813b83          	ld	s7,56(sp)
    300079e0:	03013c03          	ld	s8,48(sp)
    300079e4:	02813c83          	ld	s9,40(sp)
    300079e8:	02013d03          	ld	s10,32(sp)
    300079ec:	01813d83          	ld	s11,24(sp)
    300079f0:	08010113          	addi	sp,sp,128
    300079f4:	928fa06f          	j	30001b1c <rt_kprintf>
    300079f8:	00098a63          	beqz	s3,30007a0c <directory_delete_for_msh+0x204>
    300079fc:	00048593          	mv	a1,s1
    30007a00:	4fffb517          	auipc	a0,0x4fffb
    30007a04:	22850513          	addi	a0,a0,552 # 80002c28 <__fsym___cmd_help_name+0x48>
    30007a08:	fb5ff06f          	j	300079bc <directory_delete_for_msh+0x1b4>
    30007a0c:	07813083          	ld	ra,120(sp)
    30007a10:	07013403          	ld	s0,112(sp)
    30007a14:	06813483          	ld	s1,104(sp)
    30007a18:	06013903          	ld	s2,96(sp)
    30007a1c:	05813983          	ld	s3,88(sp)
    30007a20:	05013a03          	ld	s4,80(sp)
    30007a24:	04813a83          	ld	s5,72(sp)
    30007a28:	04013b03          	ld	s6,64(sp)
    30007a2c:	03813b83          	ld	s7,56(sp)
    30007a30:	03013c03          	ld	s8,48(sp)
    30007a34:	02813c83          	ld	s9,40(sp)
    30007a38:	02013d03          	ld	s10,32(sp)
    30007a3c:	01813d83          	ld	s11,24(sp)
    30007a40:	08010113          	addi	sp,sp,128
    30007a44:	00008067          	ret
    30007a48:	00008067          	ret

0000000030007a4c <cmd_rm>:
    30007a4c:	f1010113          	addi	sp,sp,-240
    30007a50:	0e113423          	sd	ra,232(sp)
    30007a54:	0e813023          	sd	s0,224(sp)
    30007a58:	0c913c23          	sd	s1,216(sp)
    30007a5c:	0d213823          	sd	s2,208(sp)
    30007a60:	0d313423          	sd	s3,200(sp)
    30007a64:	0d413023          	sd	s4,192(sp)
    30007a68:	0b513c23          	sd	s5,184(sp)
    30007a6c:	0b613823          	sd	s6,176(sp)
    30007a70:	0b713423          	sd	s7,168(sp)
    30007a74:	0b813023          	sd	s8,160(sp)
    30007a78:	09913c23          	sd	s9,152(sp)
    30007a7c:	09a13823          	sd	s10,144(sp)
    30007a80:	09b13423          	sd	s11,136(sp)
    30007a84:	00100793          	li	a5,1
    30007a88:	04f51e63          	bne	a0,a5,30007ae4 <cmd_rm+0x98>
    30007a8c:	4fffb517          	auipc	a0,0x4fffb
    30007a90:	1b450513          	addi	a0,a0,436 # 80002c40 <__fsym___cmd_help_name+0x60>
    30007a94:	888fa0ef          	jal	ra,30001b1c <rt_kprintf>
    30007a98:	4fffb517          	auipc	a0,0x4fffb
    30007a9c:	1c850513          	addi	a0,a0,456 # 80002c60 <__fsym___cmd_help_name+0x80>
    30007aa0:	87cfa0ef          	jal	ra,30001b1c <rt_kprintf>
    30007aa4:	0e813083          	ld	ra,232(sp)
    30007aa8:	0e013403          	ld	s0,224(sp)
    30007aac:	0d813483          	ld	s1,216(sp)
    30007ab0:	0d013903          	ld	s2,208(sp)
    30007ab4:	0c813983          	ld	s3,200(sp)
    30007ab8:	0c013a03          	ld	s4,192(sp)
    30007abc:	0b813a83          	ld	s5,184(sp)
    30007ac0:	0b013b03          	ld	s6,176(sp)
    30007ac4:	0a813b83          	ld	s7,168(sp)
    30007ac8:	0a013c03          	ld	s8,160(sp)
    30007acc:	09813c83          	ld	s9,152(sp)
    30007ad0:	09013d03          	ld	s10,144(sp)
    30007ad4:	08813d83          	ld	s11,136(sp)
    30007ad8:	00000513          	li	a0,0
    30007adc:	0f010113          	addi	sp,sp,240
    30007ae0:	00008067          	ret
    30007ae4:	0085b783          	ld	a5,8(a1)
    30007ae8:	02d00713          	li	a4,45
    30007aec:	00050493          	mv	s1,a0
    30007af0:	0007c683          	lbu	a3,0(a5)
    30007af4:	00058413          	mv	s0,a1
    30007af8:	00000993          	li	s3,0
    30007afc:	00000a93          	li	s5,0
    30007b00:	00000913          	li	s2,0
    30007b04:	02e69263          	bne	a3,a4,30007b28 <cmd_rm+0xdc>
    30007b08:	07200713          	li	a4,114
    30007b0c:	07600693          	li	a3,118
    30007b10:	02d00613          	li	a2,45
    30007b14:	06600513          	li	a0,102
    30007b18:	0007c583          	lbu	a1,0(a5)
    30007b1c:	06059c63          	bnez	a1,30007b94 <cmd_rm+0x148>
    30007b20:	fff4849b          	addiw	s1,s1,-1
    30007b24:	00840413          	addi	s0,s0,8
    30007b28:	00840413          	addi	s0,s0,8
    30007b2c:	00100a13          	li	s4,1
    30007b30:	4fffbb17          	auipc	s6,0x4fffb
    30007b34:	190b0b13          	addi	s6,s6,400 # 80002cc0 <__fsym___cmd_help_name+0xe0>
    30007b38:	00004bb7          	lui	s7,0x4
    30007b3c:	00008c37          	lui	s8,0x8
    30007b40:	4fffbc97          	auipc	s9,0x4fffb
    30007b44:	0d8c8c93          	addi	s9,s9,216 # 80002c18 <__fsym___cmd_help_name+0x38>
    30007b48:	4fffbd17          	auipc	s10,0x4fffb
    30007b4c:	0a8d0d13          	addi	s10,s10,168 # 80002bf0 <__fsym___cmd_help_name+0x10>
    30007b50:	4fffbd97          	auipc	s11,0x4fffb
    30007b54:	148d8d93          	addi	s11,s11,328 # 80002c98 <__fsym___cmd_help_name+0xb8>
    30007b58:	f49a56e3          	bge	s4,s1,30007aa4 <cmd_rm+0x58>
    30007b5c:	00043503          	ld	a0,0(s0)
    30007b60:	00010593          	mv	a1,sp
    30007b64:	440020ef          	jal	ra,30009fa4 <stat>
    30007b68:	0a051e63          	bnez	a0,30007c24 <cmd_rm+0x1d8>
    30007b6c:	01012783          	lw	a5,16(sp)
    30007b70:	0177f733          	and	a4,a5,s7
    30007b74:	0007071b          	sext.w	a4,a4
    30007b78:	06070a63          	beqz	a4,30007bec <cmd_rm+0x1a0>
    30007b7c:	00043503          	ld	a0,0(s0)
    30007b80:	040a9a63          	bnez	s5,30007bd4 <cmd_rm+0x188>
    30007b84:	00050593          	mv	a1,a0
    30007b88:	000d8513          	mv	a0,s11
    30007b8c:	f91f90ef          	jal	ra,30001b1c <rt_kprintf>
    30007b90:	0500006f          	j	30007be0 <cmd_rm+0x194>
    30007b94:	02e58663          	beq	a1,a4,30007bc0 <cmd_rm+0x174>
    30007b98:	00b76e63          	bltu	a4,a1,30007bb4 <cmd_rm+0x168>
    30007b9c:	02c58463          	beq	a1,a2,30007bc4 <cmd_rm+0x178>
    30007ba0:	02a58663          	beq	a1,a0,30007bcc <cmd_rm+0x180>
    30007ba4:	4fffb517          	auipc	a0,0x4fffb
    30007ba8:	0dc50513          	addi	a0,a0,220 # 80002c80 <__fsym___cmd_help_name+0xa0>
    30007bac:	f71f90ef          	jal	ra,30001b1c <rt_kprintf>
    30007bb0:	ef5ff06f          	j	30007aa4 <cmd_rm+0x58>
    30007bb4:	fed598e3          	bne	a1,a3,30007ba4 <cmd_rm+0x158>
    30007bb8:	00100993          	li	s3,1
    30007bbc:	0080006f          	j	30007bc4 <cmd_rm+0x178>
    30007bc0:	00100a93          	li	s5,1
    30007bc4:	00178793          	addi	a5,a5,1
    30007bc8:	f51ff06f          	j	30007b18 <cmd_rm+0xcc>
    30007bcc:	00100913          	li	s2,1
    30007bd0:	ff5ff06f          	j	30007bc4 <cmd_rm+0x178>
    30007bd4:	00098613          	mv	a2,s3
    30007bd8:	00090593          	mv	a1,s2
    30007bdc:	c2dff0ef          	jal	ra,30007808 <directory_delete_for_msh>
    30007be0:	001a0a1b          	addiw	s4,s4,1
    30007be4:	00840413          	addi	s0,s0,8
    30007be8:	f71ff06f          	j	30007b58 <cmd_rm+0x10c>
    30007bec:	0187f7b3          	and	a5,a5,s8
    30007bf0:	0007879b          	sext.w	a5,a5
    30007bf4:	fe0786e3          	beqz	a5,30007be0 <cmd_rm+0x194>
    30007bf8:	00043503          	ld	a0,0(s0)
    30007bfc:	37c020ef          	jal	ra,30009f78 <unlink>
    30007c00:	00050a63          	beqz	a0,30007c14 <cmd_rm+0x1c8>
    30007c04:	fc091ee3          	bnez	s2,30007be0 <cmd_rm+0x194>
    30007c08:	00043583          	ld	a1,0(s0)
    30007c0c:	000d0513          	mv	a0,s10
    30007c10:	f7dff06f          	j	30007b8c <cmd_rm+0x140>
    30007c14:	fc0986e3          	beqz	s3,30007be0 <cmd_rm+0x194>
    30007c18:	00043583          	ld	a1,0(s0)
    30007c1c:	000c8513          	mv	a0,s9
    30007c20:	f6dff06f          	j	30007b8c <cmd_rm+0x140>
    30007c24:	fa091ee3          	bnez	s2,30007be0 <cmd_rm+0x194>
    30007c28:	00043583          	ld	a1,0(s0)
    30007c2c:	000b0513          	mv	a0,s6
    30007c30:	f5dff06f          	j	30007b8c <cmd_rm+0x140>

0000000030007c34 <cmd_mkfs>:
    30007c34:	ff010113          	addi	sp,sp,-16
    30007c38:	00813023          	sd	s0,0(sp)
    30007c3c:	00113423          	sd	ra,8(sp)
    30007c40:	00200793          	li	a5,2
    30007c44:	00058413          	mv	s0,a1
    30007c48:	02f51663          	bne	a0,a5,30007c74 <cmd_mkfs+0x40>
    30007c4c:	0085b583          	ld	a1,8(a1)
    30007c50:	4fffb517          	auipc	a0,0x4fffb
    30007c54:	0a050513          	addi	a0,a0,160 # 80002cf0 <__fsym___cmd_help_name+0x110>
    30007c58:	455020ef          	jal	ra,3000a8ac <dfs_mkfs>
    30007c5c:	00050593          	mv	a1,a0
    30007c60:	04050463          	beqz	a0,30007ca8 <cmd_mkfs+0x74>
    30007c64:	4fffb517          	auipc	a0,0x4fffb
    30007c68:	0bc50513          	addi	a0,a0,188 # 80002d20 <__fsym___cmd_help_name+0x140>
    30007c6c:	eb1f90ef          	jal	ra,30001b1c <rt_kprintf>
    30007c70:	0380006f          	j	30007ca8 <cmd_mkfs+0x74>
    30007c74:	00400793          	li	a5,4
    30007c78:	02f51263          	bne	a0,a5,30007c9c <cmd_mkfs+0x68>
    30007c7c:	00843503          	ld	a0,8(s0)
    30007c80:	4fffb597          	auipc	a1,0x4fffb
    30007c84:	07858593          	addi	a1,a1,120 # 80002cf8 <__fsym___cmd_help_name+0x118>
    30007c88:	f10f80ef          	jal	ra,30000398 <strcmp>
    30007c8c:	00051e63          	bnez	a0,30007ca8 <cmd_mkfs+0x74>
    30007c90:	01843583          	ld	a1,24(s0)
    30007c94:	01043503          	ld	a0,16(s0)
    30007c98:	fc1ff06f          	j	30007c58 <cmd_mkfs+0x24>
    30007c9c:	4fffb517          	auipc	a0,0x4fffb
    30007ca0:	06450513          	addi	a0,a0,100 # 80002d00 <__fsym___cmd_help_name+0x120>
    30007ca4:	e79f90ef          	jal	ra,30001b1c <rt_kprintf>
    30007ca8:	00813083          	ld	ra,8(sp)
    30007cac:	00013403          	ld	s0,0(sp)
    30007cb0:	00000513          	li	a0,0
    30007cb4:	01010113          	addi	sp,sp,16
    30007cb8:	00008067          	ret

0000000030007cbc <cmd_umount>:
    30007cbc:	ff010113          	addi	sp,sp,-16
    30007cc0:	00813023          	sd	s0,0(sp)
    30007cc4:	00113423          	sd	ra,8(sp)
    30007cc8:	00200793          	li	a5,2
    30007ccc:	0085b403          	ld	s0,8(a1)
    30007cd0:	02f50263          	beq	a0,a5,30007cf4 <cmd_umount+0x38>
    30007cd4:	4fffb517          	auipc	a0,0x4fffb
    30007cd8:	06450513          	addi	a0,a0,100 # 80002d38 <__fsym___cmd_help_name+0x158>
    30007cdc:	e41f90ef          	jal	ra,30001b1c <rt_kprintf>
    30007ce0:	fff00513          	li	a0,-1
    30007ce4:	00813083          	ld	ra,8(sp)
    30007ce8:	00013403          	ld	s0,0(sp)
    30007cec:	01010113          	addi	sp,sp,16
    30007cf0:	00008067          	ret
    30007cf4:	4fffb517          	auipc	a0,0x4fffb
    30007cf8:	06450513          	addi	a0,a0,100 # 80002d58 <__fsym___cmd_help_name+0x178>
    30007cfc:	00040593          	mv	a1,s0
    30007d00:	e1df90ef          	jal	ra,30001b1c <rt_kprintf>
    30007d04:	00040513          	mv	a0,s0
    30007d08:	2b5020ef          	jal	ra,3000a7bc <dfs_unmount>
    30007d0c:	00055863          	bgez	a0,30007d1c <cmd_umount+0x60>
    30007d10:	4fffb517          	auipc	a0,0x4fffb
    30007d14:	05850513          	addi	a0,a0,88 # 80002d68 <__fsym___cmd_help_name+0x188>
    30007d18:	fc5ff06f          	j	30007cdc <cmd_umount+0x20>
    30007d1c:	4fffb517          	auipc	a0,0x4fffb
    30007d20:	05c50513          	addi	a0,a0,92 # 80002d78 <__fsym___cmd_help_name+0x198>
    30007d24:	df9f90ef          	jal	ra,30001b1c <rt_kprintf>
    30007d28:	00000513          	li	a0,0
    30007d2c:	fb9ff06f          	j	30007ce4 <cmd_umount+0x28>

0000000030007d30 <cmd_tail>:
    30007d30:	fc010113          	addi	sp,sp,-64
    30007d34:	02113c23          	sd	ra,56(sp)
    30007d38:	02813823          	sd	s0,48(sp)
    30007d3c:	02913423          	sd	s1,40(sp)
    30007d40:	03213023          	sd	s2,32(sp)
    30007d44:	01313c23          	sd	s3,24(sp)
    30007d48:	01413823          	sd	s4,16(sp)
    30007d4c:	000107a3          	sb	zero,15(sp)
    30007d50:	00100713          	li	a4,1
    30007d54:	02a74a63          	blt	a4,a0,30007d88 <cmd_tail+0x58>
    30007d58:	4fffb517          	auipc	a0,0x4fffb
    30007d5c:	03050513          	addi	a0,a0,48 # 80002d88 <__fsym___cmd_help_name+0x1a8>
    30007d60:	dbdf90ef          	jal	ra,30001b1c <rt_kprintf>
    30007d64:	fff00513          	li	a0,-1
    30007d68:	03813083          	ld	ra,56(sp)
    30007d6c:	03013403          	ld	s0,48(sp)
    30007d70:	02813483          	ld	s1,40(sp)
    30007d74:	02013903          	ld	s2,32(sp)
    30007d78:	01813983          	ld	s3,24(sp)
    30007d7c:	01013a03          	ld	s4,16(sp)
    30007d80:	04010113          	addi	sp,sp,64
    30007d84:	00008067          	ret
    30007d88:	00050793          	mv	a5,a0
    30007d8c:	00200713          	li	a4,2
    30007d90:	0085b503          	ld	a0,8(a1)
    30007d94:	00058413          	mv	s0,a1
    30007d98:	06e78663          	beq	a5,a4,30007e04 <cmd_tail+0xd4>
    30007d9c:	4fffb597          	auipc	a1,0x4fffb
    30007da0:	01458593          	addi	a1,a1,20 # 80002db0 <__fsym___cmd_help_name+0x1d0>
    30007da4:	e5cf90ef          	jal	ra,30001400 <rt_strcmp>
    30007da8:	fa0518e3          	bnez	a0,30007d58 <cmd_tail+0x28>
    30007dac:	01043503          	ld	a0,16(s0)
    30007db0:	02b00793          	li	a5,43
    30007db4:	00054703          	lbu	a4,0(a0)
    30007db8:	02f70c63          	beq	a4,a5,30007df0 <cmd_tail+0xc0>
    30007dbc:	d2cf80ef          	jal	ra,300002e8 <atoi>
    30007dc0:	0005091b          	sext.w	s2,a0
    30007dc4:	00000993          	li	s3,0
    30007dc8:	01843503          	ld	a0,24(s0)
    30007dcc:	00000593          	li	a1,0
    30007dd0:	6cd010ef          	jal	ra,30009c9c <open>
    30007dd4:	00050413          	mv	s0,a0
    30007dd8:	00000493          	li	s1,0
    30007ddc:	00a00a13          	li	s4,10
    30007de0:	02055e63          	bgez	a0,30007e1c <cmd_tail+0xec>
    30007de4:	4fffb517          	auipc	a0,0x4fffb
    30007de8:	fd450513          	addi	a0,a0,-44 # 80002db8 <__fsym___cmd_help_name+0x1d8>
    30007dec:	f75ff06f          	j	30007d60 <cmd_tail+0x30>
    30007df0:	00150513          	addi	a0,a0,1
    30007df4:	cf4f80ef          	jal	ra,300002e8 <atoi>
    30007df8:	0005099b          	sext.w	s3,a0
    30007dfc:	00000913          	li	s2,0
    30007e00:	fc9ff06f          	j	30007dc8 <cmd_tail+0x98>
    30007e04:	00000993          	li	s3,0
    30007e08:	00a00913          	li	s2,10
    30007e0c:	fc1ff06f          	j	30007dcc <cmd_tail+0x9c>
    30007e10:	00f14783          	lbu	a5,15(sp)
    30007e14:	01479463          	bne	a5,s4,30007e1c <cmd_tail+0xec>
    30007e18:	0014849b          	addiw	s1,s1,1
    30007e1c:	00100613          	li	a2,1
    30007e20:	00f10593          	addi	a1,sp,15
    30007e24:	00040513          	mv	a0,s0
    30007e28:	789010ef          	jal	ra,30009db0 <read>
    30007e2c:	fea042e3          	bgtz	a0,30007e10 <cmd_tail+0xe0>
    30007e30:	00048593          	mv	a1,s1
    30007e34:	4fffb517          	auipc	a0,0x4fffb
    30007e38:	f9c50513          	addi	a0,a0,-100 # 80002dd0 <__fsym___cmd_help_name+0x1f0>
    30007e3c:	ce1f90ef          	jal	ra,30001b1c <rt_kprintf>
    30007e40:	00098663          	beqz	s3,30007e4c <cmd_tail+0x11c>
    30007e44:	0099f663          	bgeu	s3,s1,30007e50 <cmd_tail+0x120>
    30007e48:	4134893b          	subw	s2,s1,s3
    30007e4c:	0124fe63          	bgeu	s1,s2,30007e68 <cmd_tail+0x138>
    30007e50:	4fffb517          	auipc	a0,0x4fffb
    30007e54:	fa050513          	addi	a0,a0,-96 # 80002df0 <__fsym___cmd_help_name+0x210>
    30007e58:	cc5f90ef          	jal	ra,30001b1c <rt_kprintf>
    30007e5c:	00040513          	mv	a0,s0
    30007e60:	6e9010ef          	jal	ra,30009d48 <close>
    30007e64:	f01ff06f          	j	30007d64 <cmd_tail+0x34>
    30007e68:	00090593          	mv	a1,s2
    30007e6c:	4fffb517          	auipc	a0,0x4fffb
    30007e70:	fc450513          	addi	a0,a0,-60 # 80002e30 <__fsym___cmd_help_name+0x250>
    30007e74:	ca9f90ef          	jal	ra,30001b1c <rt_kprintf>
    30007e78:	00000613          	li	a2,0
    30007e7c:	00000593          	li	a1,0
    30007e80:	00040513          	mv	a0,s0
    30007e84:	412484bb          	subw	s1,s1,s2
    30007e88:	010020ef          	jal	ra,30009e98 <lseek>
    30007e8c:	00000913          	li	s2,0
    30007e90:	00a00993          	li	s3,10
    30007e94:	4fff9a17          	auipc	s4,0x4fff9
    30007e98:	41ca0a13          	addi	s4,s4,1052 # 800012b0 <__FUNCTION__.2730+0x110>
    30007e9c:	00100613          	li	a2,1
    30007ea0:	00f10593          	addi	a1,sp,15
    30007ea4:	00040513          	mv	a0,s0
    30007ea8:	709010ef          	jal	ra,30009db0 <read>
    30007eac:	02a04063          	bgtz	a0,30007ecc <cmd_tail+0x19c>
    30007eb0:	4fffa517          	auipc	a0,0x4fffa
    30007eb4:	f9050513          	addi	a0,a0,-112 # 80001e40 <CSWTCH.17+0x60>
    30007eb8:	c65f90ef          	jal	ra,30001b1c <rt_kprintf>
    30007ebc:	00040513          	mv	a0,s0
    30007ec0:	689010ef          	jal	ra,30009d48 <close>
    30007ec4:	00000513          	li	a0,0
    30007ec8:	ea1ff06f          	j	30007d68 <cmd_tail+0x38>
    30007ecc:	00f14583          	lbu	a1,15(sp)
    30007ed0:	01359463          	bne	a1,s3,30007ed8 <cmd_tail+0x1a8>
    30007ed4:	0019091b          	addiw	s2,s2,1
    30007ed8:	fd24f2e3          	bgeu	s1,s2,30007e9c <cmd_tail+0x16c>
    30007edc:	000a0513          	mv	a0,s4
    30007ee0:	c3df90ef          	jal	ra,30001b1c <rt_kprintf>
    30007ee4:	fb9ff06f          	j	30007e9c <cmd_tail+0x16c>

0000000030007ee8 <cmd_cp>:
    30007ee8:	ff010113          	addi	sp,sp,-16
    30007eec:	00113423          	sd	ra,8(sp)
    30007ef0:	00300713          	li	a4,3
    30007ef4:	02e50663          	beq	a0,a4,30007f20 <cmd_cp+0x38>
    30007ef8:	4fffb517          	auipc	a0,0x4fffb
    30007efc:	f5850513          	addi	a0,a0,-168 # 80002e50 <__fsym___cmd_help_name+0x270>
    30007f00:	c1df90ef          	jal	ra,30001b1c <rt_kprintf>
    30007f04:	4fffb517          	auipc	a0,0x4fffb
    30007f08:	f6450513          	addi	a0,a0,-156 # 80002e68 <__fsym___cmd_help_name+0x288>
    30007f0c:	c11f90ef          	jal	ra,30001b1c <rt_kprintf>
    30007f10:	00813083          	ld	ra,8(sp)
    30007f14:	00000513          	li	a0,0
    30007f18:	01010113          	addi	sp,sp,16
    30007f1c:	00008067          	ret
    30007f20:	00058793          	mv	a5,a1
    30007f24:	0087b503          	ld	a0,8(a5)
    30007f28:	0105b583          	ld	a1,16(a1)
    30007f2c:	14c010ef          	jal	ra,30009078 <copy>
    30007f30:	fe1ff06f          	j	30007f10 <cmd_cp+0x28>

0000000030007f34 <cmd_mv>:
    30007f34:	fe010113          	addi	sp,sp,-32
    30007f38:	00113c23          	sd	ra,24(sp)
    30007f3c:	00813823          	sd	s0,16(sp)
    30007f40:	00913423          	sd	s1,8(sp)
    30007f44:	01213023          	sd	s2,0(sp)
    30007f48:	00300793          	li	a5,3
    30007f4c:	02f50e63          	beq	a0,a5,30007f88 <cmd_mv+0x54>
    30007f50:	4fffb517          	auipc	a0,0x4fffb
    30007f54:	f3050513          	addi	a0,a0,-208 # 80002e80 <__fsym___cmd_help_name+0x2a0>
    30007f58:	bc5f90ef          	jal	ra,30001b1c <rt_kprintf>
    30007f5c:	4fffb517          	auipc	a0,0x4fffb
    30007f60:	f3c50513          	addi	a0,a0,-196 # 80002e98 <__fsym___cmd_help_name+0x2b8>
    30007f64:	bb9f90ef          	jal	ra,30001b1c <rt_kprintf>
    30007f68:	00000913          	li	s2,0
    30007f6c:	01813083          	ld	ra,24(sp)
    30007f70:	01013403          	ld	s0,16(sp)
    30007f74:	00813483          	ld	s1,8(sp)
    30007f78:	00090513          	mv	a0,s2
    30007f7c:	00013903          	ld	s2,0(sp)
    30007f80:	02010113          	addi	sp,sp,32
    30007f84:	00008067          	ret
    30007f88:	0105b603          	ld	a2,16(a1)
    30007f8c:	00058413          	mv	s0,a1
    30007f90:	0085b583          	ld	a1,8(a1)
    30007f94:	4fffb517          	auipc	a0,0x4fffb
    30007f98:	f3c50513          	addi	a0,a0,-196 # 80002ed0 <__fsym___cmd_help_name+0x2f0>
    30007f9c:	b81f90ef          	jal	ra,30001b1c <rt_kprintf>
    30007fa0:	01043503          	ld	a0,16(s0)
    30007fa4:	00000613          	li	a2,0
    30007fa8:	000105b7          	lui	a1,0x10
    30007fac:	4f1010ef          	jal	ra,30009c9c <open>
    30007fb0:	08054c63          	bltz	a0,30008048 <cmd_mv+0x114>
    30007fb4:	595010ef          	jal	ra,30009d48 <close>
    30007fb8:	10000513          	li	a0,256
    30007fbc:	f08fc0ef          	jal	ra,300046c4 <rt_malloc>
    30007fc0:	00050493          	mv	s1,a0
    30007fc4:	00051c63          	bnez	a0,30007fdc <cmd_mv+0xa8>
    30007fc8:	4fffb517          	auipc	a0,0x4fffb
    30007fcc:	f1850513          	addi	a0,a0,-232 # 80002ee0 <__fsym___cmd_help_name+0x300>
    30007fd0:	b4df90ef          	jal	ra,30001b1c <rt_kprintf>
    30007fd4:	ffb00913          	li	s2,-5
    30007fd8:	f95ff06f          	j	30007f6c <cmd_mv+0x38>
    30007fdc:	00843903          	ld	s2,8(s0)
    30007fe0:	00090513          	mv	a0,s2
    30007fe4:	c40f90ef          	jal	ra,30001424 <rt_strlen>
    30007fe8:	00843783          	ld	a5,8(s0)
    30007fec:	00a90733          	add	a4,s2,a0
    30007ff0:	02f00693          	li	a3,47
    30007ff4:	00f70663          	beq	a4,a5,30008000 <cmd_mv+0xcc>
    30007ff8:	00074603          	lbu	a2,0(a4)
    30007ffc:	04d61263          	bne	a2,a3,30008040 <cmd_mv+0x10c>
    30008000:	01043683          	ld	a3,16(s0)
    30008004:	4fffb617          	auipc	a2,0x4fffb
    30008008:	c0c60613          	addi	a2,a2,-1012 # 80002c10 <__fsym___cmd_help_name+0x30>
    3000800c:	0ff00593          	li	a1,255
    30008010:	00048513          	mv	a0,s1
    30008014:	a15f90ef          	jal	ra,30001a28 <rt_snprintf>
    30008018:	00843503          	ld	a0,8(s0)
    3000801c:	00048593          	mv	a1,s1
    30008020:	00000913          	li	s2,0
    30008024:	729010ef          	jal	ra,30009f4c <rename>
    30008028:	f40482e3          	beqz	s1,30007f6c <cmd_mv+0x38>
    3000802c:	01043783          	ld	a5,16(s0)
    30008030:	f2f48ee3          	beq	s1,a5,30007f6c <cmd_mv+0x38>
    30008034:	00048513          	mv	a0,s1
    30008038:	9c1fc0ef          	jal	ra,300049f8 <rt_free>
    3000803c:	f31ff06f          	j	30007f6c <cmd_mv+0x38>
    30008040:	fff70713          	addi	a4,a4,-1
    30008044:	fb1ff06f          	j	30007ff4 <cmd_mv+0xc0>
    30008048:	01043503          	ld	a0,16(s0)
    3000804c:	00000613          	li	a2,0
    30008050:	00000593          	li	a1,0
    30008054:	449010ef          	jal	ra,30009c9c <open>
    30008058:	00054863          	bltz	a0,30008068 <cmd_mv+0x134>
    3000805c:	4ed010ef          	jal	ra,30009d48 <close>
    30008060:	01043503          	ld	a0,16(s0)
    30008064:	715010ef          	jal	ra,30009f78 <unlink>
    30008068:	01043483          	ld	s1,16(s0)
    3000806c:	fadff06f          	j	30008018 <cmd_mv+0xe4>

0000000030008070 <cmd_cat>:
    30008070:	fe010113          	addi	sp,sp,-32
    30008074:	00113c23          	sd	ra,24(sp)
    30008078:	00813823          	sd	s0,16(sp)
    3000807c:	00913423          	sd	s1,8(sp)
    30008080:	01213023          	sd	s2,0(sp)
    30008084:	00100793          	li	a5,1
    30008088:	04f51c63          	bne	a0,a5,300080e0 <cmd_cat+0x70>
    3000808c:	4fffb517          	auipc	a0,0x4fffb
    30008090:	e6450513          	addi	a0,a0,-412 # 80002ef0 <__fsym___cmd_help_name+0x310>
    30008094:	a89f90ef          	jal	ra,30001b1c <rt_kprintf>
    30008098:	4fffb517          	auipc	a0,0x4fffb
    3000809c:	e7050513          	addi	a0,a0,-400 # 80002f08 <__fsym___cmd_help_name+0x328>
    300080a0:	a7df90ef          	jal	ra,30001b1c <rt_kprintf>
    300080a4:	01813083          	ld	ra,24(sp)
    300080a8:	01013403          	ld	s0,16(sp)
    300080ac:	00813483          	ld	s1,8(sp)
    300080b0:	00013903          	ld	s2,0(sp)
    300080b4:	00000513          	li	a0,0
    300080b8:	02010113          	addi	sp,sp,32
    300080bc:	00008067          	ret
    300080c0:	00349793          	slli	a5,s1,0x3
    300080c4:	00f907b3          	add	a5,s2,a5
    300080c8:	0007b503          	ld	a0,0(a5)
    300080cc:	754000ef          	jal	ra,30008820 <cat>
    300080d0:	00148493          	addi	s1,s1,1
    300080d4:	0004879b          	sext.w	a5,s1
    300080d8:	fe87c4e3          	blt	a5,s0,300080c0 <cmd_cat+0x50>
    300080dc:	fc9ff06f          	j	300080a4 <cmd_cat+0x34>
    300080e0:	00050413          	mv	s0,a0
    300080e4:	00058913          	mv	s2,a1
    300080e8:	00000493          	li	s1,0
    300080ec:	fe5ff06f          	j	300080d0 <cmd_cat+0x60>

00000000300080f0 <cmd_cd>:
    300080f0:	ff010113          	addi	sp,sp,-16
    300080f4:	00113423          	sd	ra,8(sp)
    300080f8:	00813023          	sd	s0,0(sp)
    300080fc:	00100793          	li	a5,1
    30008100:	02f51663          	bne	a0,a5,3000812c <cmd_cd+0x3c>
    30008104:	4fffc597          	auipc	a1,0x4fffc
    30008108:	fc458593          	addi	a1,a1,-60 # 800040c8 <working_directory>
    3000810c:	4fffb517          	auipc	a0,0x4fffb
    30008110:	a0c50513          	addi	a0,a0,-1524 # 80002b18 <__FUNCTION__.4547+0x48>
    30008114:	a09f90ef          	jal	ra,30001b1c <rt_kprintf>
    30008118:	00813083          	ld	ra,8(sp)
    3000811c:	00013403          	ld	s0,0(sp)
    30008120:	00000513          	li	a0,0
    30008124:	01010113          	addi	sp,sp,16
    30008128:	00008067          	ret
    3000812c:	00200793          	li	a5,2
    30008130:	fef514e3          	bne	a0,a5,30008118 <cmd_cd+0x28>
    30008134:	0085b503          	ld	a0,8(a1)
    30008138:	00058413          	mv	s0,a1
    3000813c:	104020ef          	jal	ra,3000a240 <chdir>
    30008140:	fc050ce3          	beqz	a0,30008118 <cmd_cd+0x28>
    30008144:	00843583          	ld	a1,8(s0)
    30008148:	4fffb517          	auipc	a0,0x4fffb
    3000814c:	dd850513          	addi	a0,a0,-552 # 80002f20 <__fsym___cmd_help_name+0x340>
    30008150:	fc5ff06f          	j	30008114 <cmd_cd+0x24>

0000000030008154 <cmd_mkdir>:
    30008154:	ff010113          	addi	sp,sp,-16
    30008158:	00113423          	sd	ra,8(sp)
    3000815c:	00100713          	li	a4,1
    30008160:	02e51663          	bne	a0,a4,3000818c <cmd_mkdir+0x38>
    30008164:	4fffb517          	auipc	a0,0x4fffb
    30008168:	dd450513          	addi	a0,a0,-556 # 80002f38 <__fsym___cmd_help_name+0x358>
    3000816c:	9b1f90ef          	jal	ra,30001b1c <rt_kprintf>
    30008170:	4fffb517          	auipc	a0,0x4fffb
    30008174:	df050513          	addi	a0,a0,-528 # 80002f60 <__fsym___cmd_help_name+0x380>
    30008178:	9a5f90ef          	jal	ra,30001b1c <rt_kprintf>
    3000817c:	00813083          	ld	ra,8(sp)
    30008180:	00000513          	li	a0,0
    30008184:	01010113          	addi	sp,sp,16
    30008188:	00008067          	ret
    3000818c:	00058793          	mv	a5,a1
    30008190:	0087b503          	ld	a0,8(a5)
    30008194:	00000593          	li	a1,0
    30008198:	265010ef          	jal	ra,30009bfc <mkdir>
    3000819c:	fe1ff06f          	j	3000817c <cmd_mkdir+0x28>

00000000300081a0 <cmd_mount>:
    300081a0:	fd010113          	addi	sp,sp,-48
    300081a4:	02113423          	sd	ra,40(sp)
    300081a8:	02813023          	sd	s0,32(sp)
    300081ac:	00913c23          	sd	s1,24(sp)
    300081b0:	01213823          	sd	s2,16(sp)
    300081b4:	00100793          	li	a5,1
    300081b8:	06f51c63          	bne	a0,a5,30008230 <cmd_mount+0x90>
    300081bc:	4fffb517          	auipc	a0,0x4fffb
    300081c0:	ddc50513          	addi	a0,a0,-548 # 80002f98 <__fsym___cmd_help_name+0x3b8>
    300081c4:	959f90ef          	jal	ra,30001b1c <rt_kprintf>
    300081c8:	4fffb517          	auipc	a0,0x4fffb
    300081cc:	df050513          	addi	a0,a0,-528 # 80002fb8 <__fsym___cmd_help_name+0x3d8>
    300081d0:	94df90ef          	jal	ra,30001b1c <rt_kprintf>
    300081d4:	50005417          	auipc	s0,0x50005
    300081d8:	1c440413          	addi	s0,s0,452 # 8000d398 <filesystem_table>
    300081dc:	4fffb917          	auipc	s2,0x4fffb
    300081e0:	dfc90913          	addi	s2,s2,-516 # 80002fd8 <__fsym___cmd_help_name+0x3f8>
    300081e4:	50005497          	auipc	s1,0x50005
    300081e8:	1f448493          	addi	s1,s1,500 # 8000d3d8 <fslock>
    300081ec:	00843683          	ld	a3,8(s0)
    300081f0:	00068c63          	beqz	a3,30008208 <cmd_mount+0x68>
    300081f4:	01043783          	ld	a5,16(s0)
    300081f8:	00043603          	ld	a2,0(s0)
    300081fc:	00090513          	mv	a0,s2
    30008200:	0007b583          	ld	a1,0(a5)
    30008204:	919f90ef          	jal	ra,30001b1c <rt_kprintf>
    30008208:	02040413          	addi	s0,s0,32
    3000820c:	fe9410e3          	bne	s0,s1,300081ec <cmd_mount+0x4c>
    30008210:	00000413          	li	s0,0
    30008214:	02813083          	ld	ra,40(sp)
    30008218:	00040513          	mv	a0,s0
    3000821c:	02013403          	ld	s0,32(sp)
    30008220:	01813483          	ld	s1,24(sp)
    30008224:	01013903          	ld	s2,16(sp)
    30008228:	03010113          	addi	sp,sp,48
    3000822c:	00008067          	ret
    30008230:	00400793          	li	a5,4
    30008234:	06f51663          	bne	a0,a5,300082a0 <cmd_mount+0x100>
    30008238:	0085b403          	ld	s0,8(a1)
    3000823c:	0105b483          	ld	s1,16(a1)
    30008240:	0185b603          	ld	a2,24(a1)
    30008244:	4fffb517          	auipc	a0,0x4fffb
    30008248:	dac50513          	addi	a0,a0,-596 # 80002ff0 <__fsym___cmd_help_name+0x410>
    3000824c:	00040593          	mv	a1,s0
    30008250:	00048693          	mv	a3,s1
    30008254:	00c13423          	sd	a2,8(sp)
    30008258:	8c5f90ef          	jal	ra,30001b1c <rt_kprintf>
    3000825c:	00813603          	ld	a2,8(sp)
    30008260:	00040513          	mv	a0,s0
    30008264:	00000713          	li	a4,0
    30008268:	00000693          	li	a3,0
    3000826c:	00048593          	mv	a1,s1
    30008270:	2cc020ef          	jal	ra,3000a53c <dfs_mount>
    30008274:	00050413          	mv	s0,a0
    30008278:	00051a63          	bnez	a0,3000828c <cmd_mount+0xec>
    3000827c:	4fffb517          	auipc	a0,0x4fffb
    30008280:	afc50513          	addi	a0,a0,-1284 # 80002d78 <__fsym___cmd_help_name+0x198>
    30008284:	899f90ef          	jal	ra,30001b1c <rt_kprintf>
    30008288:	f8dff06f          	j	30008214 <cmd_mount+0x74>
    3000828c:	4fffb517          	auipc	a0,0x4fffb
    30008290:	adc50513          	addi	a0,a0,-1316 # 80002d68 <__fsym___cmd_help_name+0x188>
    30008294:	889f90ef          	jal	ra,30001b1c <rt_kprintf>
    30008298:	fff00413          	li	s0,-1
    3000829c:	f79ff06f          	j	30008214 <cmd_mount+0x74>
    300082a0:	4fffb517          	auipc	a0,0x4fffb
    300082a4:	d7850513          	addi	a0,a0,-648 # 80003018 <__fsym___cmd_help_name+0x438>
    300082a8:	fedff06f          	j	30008294 <cmd_mount+0xf4>

00000000300082ac <cmd_df>:
    300082ac:	ff010113          	addi	sp,sp,-16
    300082b0:	00113423          	sd	ra,8(sp)
    300082b4:	00813023          	sd	s0,0(sp)
    300082b8:	00200793          	li	a5,2
    300082bc:	00f50a63          	beq	a0,a5,300082d0 <cmd_df+0x24>
    300082c0:	4fffa517          	auipc	a0,0x4fffa
    300082c4:	b9850513          	addi	a0,a0,-1128 # 80001e58 <CSWTCH.17+0x78>
    300082c8:	784020ef          	jal	ra,3000aa4c <df>
    300082cc:	03c0006f          	j	30008308 <cmd_df+0x5c>
    300082d0:	0085b403          	ld	s0,8(a1)
    300082d4:	4fffb597          	auipc	a1,0x4fffb
    300082d8:	d7458593          	addi	a1,a1,-652 # 80003048 <__fsym___cmd_help_name+0x468>
    300082dc:	00040513          	mv	a0,s0
    300082e0:	8b8f80ef          	jal	ra,30000398 <strcmp>
    300082e4:	00050c63          	beqz	a0,300082fc <cmd_df+0x50>
    300082e8:	4fffb597          	auipc	a1,0x4fffb
    300082ec:	d6858593          	addi	a1,a1,-664 # 80003050 <__fsym___cmd_help_name+0x470>
    300082f0:	00040513          	mv	a0,s0
    300082f4:	8a4f80ef          	jal	ra,30000398 <strcmp>
    300082f8:	02051263          	bnez	a0,3000831c <cmd_df+0x70>
    300082fc:	4fffb517          	auipc	a0,0x4fffb
    30008300:	d5c50513          	addi	a0,a0,-676 # 80003058 <__fsym___cmd_help_name+0x478>
    30008304:	819f90ef          	jal	ra,30001b1c <rt_kprintf>
    30008308:	00813083          	ld	ra,8(sp)
    3000830c:	00013403          	ld	s0,0(sp)
    30008310:	00000513          	li	a0,0
    30008314:	01010113          	addi	sp,sp,16
    30008318:	00008067          	ret
    3000831c:	00040513          	mv	a0,s0
    30008320:	fa9ff06f          	j	300082c8 <cmd_df+0x1c>

0000000030008324 <cmd_echo>:
    30008324:	fd010113          	addi	sp,sp,-48
    30008328:	02813023          	sd	s0,32(sp)
    3000832c:	02113423          	sd	ra,40(sp)
    30008330:	00913c23          	sd	s1,24(sp)
    30008334:	00200793          	li	a5,2
    30008338:	00058413          	mv	s0,a1
    3000833c:	00f51c63          	bne	a0,a5,30008354 <cmd_echo+0x30>
    30008340:	0085b583          	ld	a1,8(a1)
    30008344:	4fffa517          	auipc	a0,0x4fffa
    30008348:	7d450513          	addi	a0,a0,2004 # 80002b18 <__FUNCTION__.4547+0x48>
    3000834c:	fd0f90ef          	jal	ra,30001b1c <rt_kprintf>
    30008350:	04c0006f          	j	3000839c <cmd_echo+0x78>
    30008354:	00300793          	li	a5,3
    30008358:	06f51663          	bne	a0,a5,300083c4 <cmd_echo+0xa0>
    3000835c:	01043503          	ld	a0,16(s0)
    30008360:	00000613          	li	a2,0
    30008364:	44200593          	li	a1,1090
    30008368:	135010ef          	jal	ra,30009c9c <open>
    3000836c:	00050493          	mv	s1,a0
    30008370:	04054263          	bltz	a0,300083b4 <cmd_echo+0x90>
    30008374:	00843583          	ld	a1,8(s0)
    30008378:	00058513          	mv	a0,a1
    3000837c:	00b13423          	sd	a1,8(sp)
    30008380:	fb5f70ef          	jal	ra,30000334 <strlen>
    30008384:	00813583          	ld	a1,8(sp)
    30008388:	00050613          	mv	a2,a0
    3000838c:	00048513          	mv	a0,s1
    30008390:	295010ef          	jal	ra,30009e24 <write>
    30008394:	00048513          	mv	a0,s1
    30008398:	1b1010ef          	jal	ra,30009d48 <close>
    3000839c:	02813083          	ld	ra,40(sp)
    300083a0:	02013403          	ld	s0,32(sp)
    300083a4:	01813483          	ld	s1,24(sp)
    300083a8:	00000513          	li	a0,0
    300083ac:	03010113          	addi	sp,sp,48
    300083b0:	00008067          	ret
    300083b4:	01043583          	ld	a1,16(s0)
    300083b8:	4fffb517          	auipc	a0,0x4fffb
    300083bc:	cb050513          	addi	a0,a0,-848 # 80003068 <__fsym___cmd_help_name+0x488>
    300083c0:	f8dff06f          	j	3000834c <cmd_echo+0x28>
    300083c4:	4fffb517          	auipc	a0,0x4fffb
    300083c8:	cbc50513          	addi	a0,a0,-836 # 80003080 <__fsym___cmd_help_name+0x4a0>
    300083cc:	f50f90ef          	jal	ra,30001b1c <rt_kprintf>
    300083d0:	fcdff06f          	j	3000839c <cmd_echo+0x78>

00000000300083d4 <msh_exec_script>:
    300083d4:	22058263          	beqz	a1,300085f8 <msh_exec_script+0x224>
    300083d8:	fa010113          	addi	sp,sp,-96
    300083dc:	04813823          	sd	s0,80(sp)
    300083e0:	05213023          	sd	s2,64(sp)
    300083e4:	04113c23          	sd	ra,88(sp)
    300083e8:	04913423          	sd	s1,72(sp)
    300083ec:	03313c23          	sd	s3,56(sp)
    300083f0:	03413823          	sd	s4,48(sp)
    300083f4:	03513423          	sd	s5,40(sp)
    300083f8:	03613023          	sd	s6,32(sp)
    300083fc:	01713c23          	sd	s7,24(sp)
    30008400:	00050913          	mv	s2,a0
    30008404:	00000413          	li	s0,0
    30008408:	02000713          	li	a4,32
    3000840c:	00900693          	li	a3,9
    30008410:	008907b3          	add	a5,s2,s0
    30008414:	0007c783          	lbu	a5,0(a5)
    30008418:	0004099b          	sext.w	s3,s0
    3000841c:	00e78663          	beq	a5,a4,30008428 <msh_exec_script+0x54>
    30008420:	00d78463          	beq	a5,a3,30008428 <msh_exec_script+0x54>
    30008424:	12b9c863          	blt	s3,a1,30008554 <msh_exec_script+0x180>
    30008428:	0209851b          	addiw	a0,s3,32
    3000842c:	a98fc0ef          	jal	ra,300046c4 <rt_malloc>
    30008430:	00050493          	mv	s1,a0
    30008434:	ffb00793          	li	a5,-5
    30008438:	12050863          	beqz	a0,30008568 <msh_exec_script+0x194>
    3000843c:	00040613          	mv	a2,s0
    30008440:	00090593          	mv	a1,s2
    30008444:	f61f70ef          	jal	ra,300003a4 <memcpy>
    30008448:	00848433          	add	s0,s1,s0
    3000844c:	00040023          	sb	zero,0(s0)
    30008450:	4fffb597          	auipc	a1,0x4fffb
    30008454:	c5858593          	addi	a1,a1,-936 # 800030a8 <__fsym___cmd_help_name+0x4c8>
    30008458:	00048513          	mv	a0,s1
    3000845c:	f51f70ef          	jal	ra,300003ac <strstr>
    30008460:	00051e63          	bnez	a0,3000847c <msh_exec_script+0xa8>
    30008464:	4fffb597          	auipc	a1,0x4fffb
    30008468:	c4c58593          	addi	a1,a1,-948 # 800030b0 <__fsym___cmd_help_name+0x4d0>
    3000846c:	00048513          	mv	a0,s1
    30008470:	f3df70ef          	jal	ra,300003ac <strstr>
    30008474:	fff00413          	li	s0,-1
    30008478:	04050663          	beqz	a0,300084c4 <msh_exec_script+0xf0>
    3000847c:	00000613          	li	a2,0
    30008480:	00000593          	li	a1,0
    30008484:	00048513          	mv	a0,s1
    30008488:	015010ef          	jal	ra,30009c9c <open>
    3000848c:	00050413          	mv	s0,a0
    30008490:	02055a63          	bgez	a0,300084c4 <msh_exec_script+0xf0>
    30008494:	00090713          	mv	a4,s2
    30008498:	00098693          	mv	a3,s3
    3000849c:	4fffb617          	auipc	a2,0x4fffb
    300084a0:	c1c60613          	addi	a2,a2,-996 # 800030b8 <__fsym___cmd_help_name+0x4d8>
    300084a4:	01f9859b          	addiw	a1,s3,31
    300084a8:	00048513          	mv	a0,s1
    300084ac:	d7cf90ef          	jal	ra,30001a28 <rt_snprintf>
    300084b0:	00000613          	li	a2,0
    300084b4:	00000593          	li	a1,0
    300084b8:	00048513          	mv	a0,s1
    300084bc:	7e0010ef          	jal	ra,30009c9c <open>
    300084c0:	00050413          	mv	s0,a0
    300084c4:	00048513          	mv	a0,s1
    300084c8:	d30fc0ef          	jal	ra,300049f8 <rt_free>
    300084cc:	fff00793          	li	a5,-1
    300084d0:	08044c63          	bltz	s0,30008568 <msh_exec_script+0x194>
    300084d4:	10000513          	li	a0,256
    300084d8:	9ecfc0ef          	jal	ra,300046c4 <rt_malloc>
    300084dc:	00050493          	mv	s1,a0
    300084e0:	06050e63          	beqz	a0,3000855c <msh_exec_script+0x188>
    300084e4:	00a00a13          	li	s4,10
    300084e8:	00d00a93          	li	s5,13
    300084ec:	10000b13          	li	s6,256
    300084f0:	02000b93          	li	s7,32
    300084f4:	00100613          	li	a2,1
    300084f8:	00f10593          	addi	a1,sp,15
    300084fc:	00040513          	mv	a0,s0
    30008500:	0b1010ef          	jal	ra,30009db0 <read>
    30008504:	00100793          	li	a5,1
    30008508:	0cf51c63          	bne	a0,a5,300085e0 <msh_exec_script+0x20c>
    3000850c:	00f14783          	lbu	a5,15(sp)
    30008510:	ff4782e3          	beq	a5,s4,300084f4 <msh_exec_script+0x120>
    30008514:	ff5780e3          	beq	a5,s5,300084f4 <msh_exec_script+0x120>
    30008518:	00f48023          	sb	a5,0(s1)
    3000851c:	00100913          	li	s2,1
    30008520:	00100613          	li	a2,1
    30008524:	00f10593          	addi	a1,sp,15
    30008528:	00040513          	mv	a0,s0
    3000852c:	085010ef          	jal	ra,30009db0 <read>
    30008530:	00100713          	li	a4,1
    30008534:	0009099b          	sext.w	s3,s2
    30008538:	009907b3          	add	a5,s2,s1
    3000853c:	00e51863          	bne	a0,a4,3000854c <msh_exec_script+0x178>
    30008540:	00f14703          	lbu	a4,15(sp)
    30008544:	01470463          	beq	a4,s4,3000854c <msh_exec_script+0x178>
    30008548:	05571863          	bne	a4,s5,30008598 <msh_exec_script+0x1c4>
    3000854c:	00078023          	sb	zero,0(a5)
    30008550:	0580006f          	j	300085a8 <msh_exec_script+0x1d4>
    30008554:	00140413          	addi	s0,s0,1
    30008558:	eb9ff06f          	j	30008410 <msh_exec_script+0x3c>
    3000855c:	00040513          	mv	a0,s0
    30008560:	7e8010ef          	jal	ra,30009d48 <close>
    30008564:	ffb00793          	li	a5,-5
    30008568:	05813083          	ld	ra,88(sp)
    3000856c:	05013403          	ld	s0,80(sp)
    30008570:	04813483          	ld	s1,72(sp)
    30008574:	04013903          	ld	s2,64(sp)
    30008578:	03813983          	ld	s3,56(sp)
    3000857c:	03013a03          	ld	s4,48(sp)
    30008580:	02813a83          	ld	s5,40(sp)
    30008584:	02013b03          	ld	s6,32(sp)
    30008588:	01813b83          	ld	s7,24(sp)
    3000858c:	00078513          	mv	a0,a5
    30008590:	06010113          	addi	sp,sp,96
    30008594:	00008067          	ret
    30008598:	00e78023          	sb	a4,0(a5)
    3000859c:	00190913          	addi	s2,s2,1
    300085a0:	f96910e3          	bne	s2,s6,30008520 <msh_exec_script+0x14c>
    300085a4:	10000993          	li	s3,256
    300085a8:	00048793          	mv	a5,s1
    300085ac:	00900693          	li	a3,9
    300085b0:	0007c703          	lbu	a4,0(a5)
    300085b4:	01770463          	beq	a4,s7,300085bc <msh_exec_script+0x1e8>
    300085b8:	00d71863          	bne	a4,a3,300085c8 <msh_exec_script+0x1f4>
    300085bc:	00178793          	addi	a5,a5,1
    300085c0:	4097863b          	subw	a2,a5,s1
    300085c4:	ff3646e3          	blt	a2,s3,300085b0 <msh_exec_script+0x1dc>
    300085c8:	02300793          	li	a5,35
    300085cc:	f2f704e3          	beq	a4,a5,300084f4 <msh_exec_script+0x120>
    300085d0:	00098593          	mv	a1,s3
    300085d4:	00048513          	mv	a0,s1
    300085d8:	b29fe0ef          	jal	ra,30007100 <msh_exec>
    300085dc:	f15ff06f          	j	300084f0 <msh_exec_script+0x11c>
    300085e0:	00040513          	mv	a0,s0
    300085e4:	764010ef          	jal	ra,30009d48 <close>
    300085e8:	00048513          	mv	a0,s1
    300085ec:	c0cfc0ef          	jal	ra,300049f8 <rt_free>
    300085f0:	00000793          	li	a5,0
    300085f4:	f75ff06f          	j	30008568 <msh_exec_script+0x194>
    300085f8:	fff00793          	li	a5,-1
    300085fc:	00078513          	mv	a0,a5
    30008600:	00008067          	ret

0000000030008604 <dfs_file_open>:
    30008604:	fd010113          	addi	sp,sp,-48
    30008608:	00913c23          	sd	s1,24(sp)
    3000860c:	02113423          	sd	ra,40(sp)
    30008610:	02813023          	sd	s0,32(sp)
    30008614:	01213823          	sd	s2,16(sp)
    30008618:	01313423          	sd	s3,8(sp)
    3000861c:	fea00493          	li	s1,-22
    30008620:	02050c63          	beqz	a0,30008658 <dfs_file_open+0x54>
    30008624:	00050413          	mv	s0,a0
    30008628:	00000513          	li	a0,0
    3000862c:	00060993          	mv	s3,a2
    30008630:	2c8010ef          	jal	ra,300098f8 <dfs_normalize_path>
    30008634:	00050913          	mv	s2,a0
    30008638:	ff400493          	li	s1,-12
    3000863c:	00050e63          	beqz	a0,30008658 <dfs_file_open+0x54>
    30008640:	5d5010ef          	jal	ra,3000a414 <dfs_filesystem_lookup>
    30008644:	00050493          	mv	s1,a0
    30008648:	02051863          	bnez	a0,30008678 <dfs_file_open+0x74>
    3000864c:	00090513          	mv	a0,s2
    30008650:	ba8fc0ef          	jal	ra,300049f8 <rt_free>
    30008654:	ffe00493          	li	s1,-2
    30008658:	02813083          	ld	ra,40(sp)
    3000865c:	02013403          	ld	s0,32(sp)
    30008660:	01013903          	ld	s2,16(sp)
    30008664:	00813983          	ld	s3,8(sp)
    30008668:	00048513          	mv	a0,s1
    3000866c:	01813483          	ld	s1,24(sp)
    30008670:	03010113          	addi	sp,sp,48
    30008674:	00008067          	ret
    30008678:	01053783          	ld	a5,16(a0)
    3000867c:	00a43c23          	sd	a0,24(s0)
    30008680:	0107b703          	ld	a4,16(a5)
    30008684:	0087a783          	lw	a5,8(a5)
    30008688:	00041123          	sh	zero,2(s0)
    3000868c:	02e43023          	sd	a4,32(s0)
    30008690:	03342423          	sw	s3,40(s0)
    30008694:	02043823          	sd	zero,48(s0)
    30008698:	02043c23          	sd	zero,56(s0)
    3000869c:	04a43023          	sd	a0,64(s0)
    300086a0:	0017f793          	andi	a5,a5,1
    300086a4:	04079e63          	bnez	a5,30008700 <dfs_file_open+0xfc>
    300086a8:	00853503          	ld	a0,8(a0)
    300086ac:	00090593          	mv	a1,s2
    300086b0:	1ec010ef          	jal	ra,3000989c <dfs_subdir>
    300086b4:	02051e63          	bnez	a0,300086f0 <dfs_file_open+0xec>
    300086b8:	4fff9517          	auipc	a0,0x4fff9
    300086bc:	7a050513          	addi	a0,a0,1952 # 80001e58 <CSWTCH.17+0x78>
    300086c0:	e05f80ef          	jal	ra,300014c4 <rt_strdup>
    300086c4:	00a43423          	sd	a0,8(s0)
    300086c8:	00090513          	mv	a0,s2
    300086cc:	b2cfc0ef          	jal	ra,300049f8 <rt_free>
    300086d0:	02043783          	ld	a5,32(s0)
    300086d4:	0007b783          	ld	a5,0(a5)
    300086d8:	02079863          	bnez	a5,30008708 <dfs_file_open+0x104>
    300086dc:	00843503          	ld	a0,8(s0)
    300086e0:	fda00493          	li	s1,-38
    300086e4:	b14fc0ef          	jal	ra,300049f8 <rt_free>
    300086e8:	00043423          	sd	zero,8(s0)
    300086ec:	f6dff06f          	j	30008658 <dfs_file_open+0x54>
    300086f0:	0084b503          	ld	a0,8(s1)
    300086f4:	00090593          	mv	a1,s2
    300086f8:	1a4010ef          	jal	ra,3000989c <dfs_subdir>
    300086fc:	fc5ff06f          	j	300086c0 <dfs_file_open+0xbc>
    30008700:	01243423          	sd	s2,8(s0)
    30008704:	fcdff06f          	j	300086d0 <dfs_file_open+0xcc>
    30008708:	00040513          	mv	a0,s0
    3000870c:	000780e7          	jalr	a5
    30008710:	00050493          	mv	s1,a0
    30008714:	00055a63          	bgez	a0,30008728 <dfs_file_open+0x124>
    30008718:	00843503          	ld	a0,8(s0)
    3000871c:	adcfc0ef          	jal	ra,300049f8 <rt_free>
    30008720:	00043423          	sd	zero,8(s0)
    30008724:	f35ff06f          	j	30008658 <dfs_file_open+0x54>
    30008728:	02842783          	lw	a5,40(s0)
    3000872c:	01000737          	lui	a4,0x1000
    30008730:	000104b7          	lui	s1,0x10
    30008734:	00e7e733          	or	a4,a5,a4
    30008738:	02e42423          	sw	a4,40(s0)
    3000873c:	0099f4b3          	and	s1,s3,s1
    30008740:	f0048ce3          	beqz	s1,30008658 <dfs_file_open+0x54>
    30008744:	00200713          	li	a4,2
    30008748:	00e41123          	sh	a4,2(s0)
    3000874c:	03000737          	lui	a4,0x3000
    30008750:	00e7e7b3          	or	a5,a5,a4
    30008754:	02f42423          	sw	a5,40(s0)
    30008758:	00000493          	li	s1,0
    3000875c:	efdff06f          	j	30008658 <dfs_file_open+0x54>

0000000030008760 <dfs_file_close>:
    30008760:	fe010113          	addi	sp,sp,-32
    30008764:	00813823          	sd	s0,16(sp)
    30008768:	00113c23          	sd	ra,24(sp)
    3000876c:	00913423          	sd	s1,8(sp)
    30008770:	ffa00413          	li	s0,-6
    30008774:	02050063          	beqz	a0,30008794 <dfs_file_close+0x34>
    30008778:	02053783          	ld	a5,32(a0)
    3000877c:	00050493          	mv	s1,a0
    30008780:	0087b783          	ld	a5,8(a5)
    30008784:	02078463          	beqz	a5,300087ac <dfs_file_close+0x4c>
    30008788:	000780e7          	jalr	a5
    3000878c:	00050413          	mv	s0,a0
    30008790:	02055063          	bgez	a0,300087b0 <dfs_file_close+0x50>
    30008794:	01813083          	ld	ra,24(sp)
    30008798:	00040513          	mv	a0,s0
    3000879c:	01013403          	ld	s0,16(sp)
    300087a0:	00813483          	ld	s1,8(sp)
    300087a4:	02010113          	addi	sp,sp,32
    300087a8:	00008067          	ret
    300087ac:	00000413          	li	s0,0
    300087b0:	0084b503          	ld	a0,8(s1) # 10008 <__stack_size+0xf808>
    300087b4:	a44fc0ef          	jal	ra,300049f8 <rt_free>
    300087b8:	0004b423          	sd	zero,8(s1)
    300087bc:	fd9ff06f          	j	30008794 <dfs_file_close+0x34>

00000000300087c0 <dfs_file_read>:
    300087c0:	04050a63          	beqz	a0,30008814 <dfs_file_read+0x54>
    300087c4:	02053783          	ld	a5,32(a0)
    300087c8:	ff010113          	addi	sp,sp,-16
    300087cc:	00813023          	sd	s0,0(sp)
    300087d0:	0187b703          	ld	a4,24(a5)
    300087d4:	00113423          	sd	ra,8(sp)
    300087d8:	00050413          	mv	s0,a0
    300087dc:	fda00793          	li	a5,-38
    300087e0:	02070063          	beqz	a4,30008800 <dfs_file_read+0x40>
    300087e4:	000700e7          	jalr	a4 # 3000000 <__stack_size+0x2fff800>
    300087e8:	00050793          	mv	a5,a0
    300087ec:	00055a63          	bgez	a0,30008800 <dfs_file_read+0x40>
    300087f0:	02842703          	lw	a4,40(s0)
    300087f4:	040006b7          	lui	a3,0x4000
    300087f8:	00d76733          	or	a4,a4,a3
    300087fc:	02e42423          	sw	a4,40(s0)
    30008800:	00813083          	ld	ra,8(sp)
    30008804:	00013403          	ld	s0,0(sp)
    30008808:	00078513          	mv	a0,a5
    3000880c:	01010113          	addi	sp,sp,16
    30008810:	00008067          	ret
    30008814:	fea00793          	li	a5,-22
    30008818:	00078513          	mv	a0,a5
    3000881c:	00008067          	ret

0000000030008820 <cat>:
    30008820:	f8010113          	addi	sp,sp,-128
    30008824:	00050593          	mv	a1,a0
    30008828:	00a13423          	sd	a0,8(sp)
    3000882c:	00000613          	li	a2,0
    30008830:	50005517          	auipc	a0,0x50005
    30008834:	b0050513          	addi	a0,a0,-1280 # 8000d330 <fd>
    30008838:	06813823          	sd	s0,112(sp)
    3000883c:	06113c23          	sd	ra,120(sp)
    30008840:	dc5ff0ef          	jal	ra,30008604 <dfs_file_open>
    30008844:	00813583          	ld	a1,8(sp)
    30008848:	4fff9417          	auipc	s0,0x4fff9
    3000884c:	60840413          	addi	s0,s0,1544 # 80001e50 <CSWTCH.17+0x70>
    30008850:	02055063          	bgez	a0,30008870 <cat+0x50>
    30008854:	4fffb517          	auipc	a0,0x4fffb
    30008858:	b1c50513          	addi	a0,a0,-1252 # 80003370 <__fsym___cmd_ls_name+0x10>
    3000885c:	ac0f90ef          	jal	ra,30001b1c <rt_kprintf>
    30008860:	07813083          	ld	ra,120(sp)
    30008864:	07013403          	ld	s0,112(sp)
    30008868:	08010113          	addi	sp,sp,128
    3000886c:	00008067          	ret
    30008870:	05100613          	li	a2,81
    30008874:	00000593          	li	a1,0
    30008878:	01810513          	addi	a0,sp,24
    3000887c:	b25f70ef          	jal	ra,300003a0 <memset>
    30008880:	05000613          	li	a2,80
    30008884:	01810593          	addi	a1,sp,24
    30008888:	50005517          	auipc	a0,0x50005
    3000888c:	aa850513          	addi	a0,a0,-1368 # 8000d330 <fd>
    30008890:	f31ff0ef          	jal	ra,300087c0 <dfs_file_read>
    30008894:	00050a63          	beqz	a0,300088a8 <cat+0x88>
    30008898:	01810593          	addi	a1,sp,24
    3000889c:	00040513          	mv	a0,s0
    300088a0:	a7cf90ef          	jal	ra,30001b1c <rt_kprintf>
    300088a4:	fcdff06f          	j	30008870 <cat+0x50>
    300088a8:	4fff9517          	auipc	a0,0x4fff9
    300088ac:	59850513          	addi	a0,a0,1432 # 80001e40 <CSWTCH.17+0x60>
    300088b0:	a6cf90ef          	jal	ra,30001b1c <rt_kprintf>
    300088b4:	50005517          	auipc	a0,0x50005
    300088b8:	a7c50513          	addi	a0,a0,-1412 # 8000d330 <fd>
    300088bc:	ea5ff0ef          	jal	ra,30008760 <dfs_file_close>
    300088c0:	fa1ff06f          	j	30008860 <cat+0x40>

00000000300088c4 <dfs_file_getdents>:
    300088c4:	02050263          	beqz	a0,300088e8 <dfs_file_getdents+0x24>
    300088c8:	00255683          	lhu	a3,2(a0)
    300088cc:	00200713          	li	a4,2
    300088d0:	00e69c63          	bne	a3,a4,300088e8 <dfs_file_getdents+0x24>
    300088d4:	02053783          	ld	a5,32(a0)
    300088d8:	0387b303          	ld	t1,56(a5)
    300088dc:	00030a63          	beqz	t1,300088f0 <dfs_file_getdents+0x2c>
    300088e0:	0006061b          	sext.w	a2,a2
    300088e4:	00030067          	jr	t1
    300088e8:	fea00513          	li	a0,-22
    300088ec:	00008067          	ret
    300088f0:	fda00513          	li	a0,-38
    300088f4:	00008067          	ret

00000000300088f8 <dfs_file_unlink>:
    300088f8:	fe010113          	addi	sp,sp,-32
    300088fc:	00050593          	mv	a1,a0
    30008900:	00000513          	li	a0,0
    30008904:	00813823          	sd	s0,16(sp)
    30008908:	00113c23          	sd	ra,24(sp)
    3000890c:	00913423          	sd	s1,8(sp)
    30008910:	01213023          	sd	s2,0(sp)
    30008914:	7e5000ef          	jal	ra,300098f8 <dfs_normalize_path>
    30008918:	fea00413          	li	s0,-22
    3000891c:	06050c63          	beqz	a0,30008994 <dfs_file_unlink+0x9c>
    30008920:	00050913          	mv	s2,a0
    30008924:	2f1010ef          	jal	ra,3000a414 <dfs_filesystem_lookup>
    30008928:	00050493          	mv	s1,a0
    3000892c:	ffe00413          	li	s0,-2
    30008930:	04050e63          	beqz	a0,3000898c <dfs_file_unlink+0x94>
    30008934:	00090513          	mv	a0,s2
    30008938:	1ac010ef          	jal	ra,30009ae4 <fd_is_open>
    3000893c:	ff000413          	li	s0,-16
    30008940:	04050663          	beqz	a0,3000898c <dfs_file_unlink+0x94>
    30008944:	0104b783          	ld	a5,16(s1)
    30008948:	fda00413          	li	s0,-38
    3000894c:	0387b703          	ld	a4,56(a5)
    30008950:	02070e63          	beqz	a4,3000898c <dfs_file_unlink+0x94>
    30008954:	0087a783          	lw	a5,8(a5)
    30008958:	00090593          	mv	a1,s2
    3000895c:	0017f793          	andi	a5,a5,1
    30008960:	06079863          	bnez	a5,300089d0 <dfs_file_unlink+0xd8>
    30008964:	0084b503          	ld	a0,8(s1)
    30008968:	735000ef          	jal	ra,3000989c <dfs_subdir>
    3000896c:	0104b783          	ld	a5,16(s1)
    30008970:	04051063          	bnez	a0,300089b0 <dfs_file_unlink+0xb8>
    30008974:	0387b783          	ld	a5,56(a5)
    30008978:	4fff9597          	auipc	a1,0x4fff9
    3000897c:	4e058593          	addi	a1,a1,1248 # 80001e58 <CSWTCH.17+0x78>
    30008980:	00048513          	mv	a0,s1
    30008984:	000780e7          	jalr	a5
    30008988:	00050413          	mv	s0,a0
    3000898c:	00090513          	mv	a0,s2
    30008990:	868fc0ef          	jal	ra,300049f8 <rt_free>
    30008994:	01813083          	ld	ra,24(sp)
    30008998:	00040513          	mv	a0,s0
    3000899c:	01013403          	ld	s0,16(sp)
    300089a0:	00813483          	ld	s1,8(sp)
    300089a4:	00013903          	ld	s2,0(sp)
    300089a8:	02010113          	addi	sp,sp,32
    300089ac:	00008067          	ret
    300089b0:	0084b503          	ld	a0,8(s1)
    300089b4:	00090593          	mv	a1,s2
    300089b8:	0387b403          	ld	s0,56(a5)
    300089bc:	6e1000ef          	jal	ra,3000989c <dfs_subdir>
    300089c0:	00050593          	mv	a1,a0
    300089c4:	00048513          	mv	a0,s1
    300089c8:	000400e7          	jalr	s0
    300089cc:	fbdff06f          	j	30008988 <dfs_file_unlink+0x90>
    300089d0:	00048513          	mv	a0,s1
    300089d4:	000700e7          	jalr	a4
    300089d8:	fb1ff06f          	j	30008988 <dfs_file_unlink+0x90>

00000000300089dc <rm>:
    300089dc:	fe010113          	addi	sp,sp,-32
    300089e0:	00113c23          	sd	ra,24(sp)
    300089e4:	00a13423          	sd	a0,8(sp)
    300089e8:	f11ff0ef          	jal	ra,300088f8 <dfs_file_unlink>
    300089ec:	00813583          	ld	a1,8(sp)
    300089f0:	00055c63          	bgez	a0,30008a08 <rm+0x2c>
    300089f4:	01813083          	ld	ra,24(sp)
    300089f8:	4fffb517          	auipc	a0,0x4fffb
    300089fc:	98850513          	addi	a0,a0,-1656 # 80003380 <__fsym___cmd_ls_name+0x20>
    30008a00:	02010113          	addi	sp,sp,32
    30008a04:	918f906f          	j	30001b1c <rt_kprintf>
    30008a08:	01813083          	ld	ra,24(sp)
    30008a0c:	02010113          	addi	sp,sp,32
    30008a10:	00008067          	ret

0000000030008a14 <dfs_file_write>:
    30008a14:	00050a63          	beqz	a0,30008a28 <dfs_file_write+0x14>
    30008a18:	02053783          	ld	a5,32(a0)
    30008a1c:	0207b303          	ld	t1,32(a5)
    30008a20:	00030863          	beqz	t1,30008a30 <dfs_file_write+0x1c>
    30008a24:	00030067          	jr	t1
    30008a28:	fea00513          	li	a0,-22
    30008a2c:	00008067          	ret
    30008a30:	fda00513          	li	a0,-38
    30008a34:	00008067          	ret

0000000030008a38 <copyfile>:
    30008a38:	f9010113          	addi	sp,sp,-112
    30008a3c:	05213823          	sd	s2,80(sp)
    30008a40:	00050913          	mv	s2,a0
    30008a44:	00001537          	lui	a0,0x1
    30008a48:	04913c23          	sd	s1,88(sp)
    30008a4c:	06113423          	sd	ra,104(sp)
    30008a50:	06813023          	sd	s0,96(sp)
    30008a54:	00058493          	mv	s1,a1
    30008a58:	c6dfb0ef          	jal	ra,300046c4 <rt_malloc>
    30008a5c:	02051463          	bnez	a0,30008a84 <copyfile+0x4c>
    30008a60:	4fffa517          	auipc	a0,0x4fffa
    30008a64:	48050513          	addi	a0,a0,1152 # 80002ee0 <__fsym___cmd_help_name+0x300>
    30008a68:	8b4f90ef          	jal	ra,30001b1c <rt_kprintf>
    30008a6c:	06813083          	ld	ra,104(sp)
    30008a70:	06013403          	ld	s0,96(sp)
    30008a74:	05813483          	ld	s1,88(sp)
    30008a78:	05013903          	ld	s2,80(sp)
    30008a7c:	07010113          	addi	sp,sp,112
    30008a80:	00008067          	ret
    30008a84:	00050413          	mv	s0,a0
    30008a88:	00000613          	li	a2,0
    30008a8c:	00090593          	mv	a1,s2
    30008a90:	00810513          	addi	a0,sp,8
    30008a94:	b71ff0ef          	jal	ra,30008604 <dfs_file_open>
    30008a98:	02055063          	bgez	a0,30008ab8 <copyfile+0x80>
    30008a9c:	00040513          	mv	a0,s0
    30008aa0:	f59fb0ef          	jal	ra,300049f8 <rt_free>
    30008aa4:	00090593          	mv	a1,s2
    30008aa8:	4fffb517          	auipc	a0,0x4fffb
    30008aac:	8f050513          	addi	a0,a0,-1808 # 80003398 <__fsym___cmd_ls_name+0x38>
    30008ab0:	86cf90ef          	jal	ra,30001b1c <rt_kprintf>
    30008ab4:	fb9ff06f          	j	30008a6c <copyfile+0x34>
    30008ab8:	04100613          	li	a2,65
    30008abc:	00048593          	mv	a1,s1
    30008ac0:	50005517          	auipc	a0,0x50005
    30008ac4:	87050513          	addi	a0,a0,-1936 # 8000d330 <fd>
    30008ac8:	b3dff0ef          	jal	ra,30008604 <dfs_file_open>
    30008acc:	50005917          	auipc	s2,0x50005
    30008ad0:	86490913          	addi	s2,s2,-1948 # 8000d330 <fd>
    30008ad4:	02055263          	bgez	a0,30008af8 <copyfile+0xc0>
    30008ad8:	00040513          	mv	a0,s0
    30008adc:	f1dfb0ef          	jal	ra,300049f8 <rt_free>
    30008ae0:	00810513          	addi	a0,sp,8
    30008ae4:	c7dff0ef          	jal	ra,30008760 <dfs_file_close>
    30008ae8:	00048593          	mv	a1,s1
    30008aec:	4fffb517          	auipc	a0,0x4fffb
    30008af0:	8bc50513          	addi	a0,a0,-1860 # 800033a8 <__fsym___cmd_ls_name+0x48>
    30008af4:	fbdff06f          	j	30008ab0 <copyfile+0x78>
    30008af8:	00001637          	lui	a2,0x1
    30008afc:	00040593          	mv	a1,s0
    30008b00:	00810513          	addi	a0,sp,8
    30008b04:	cbdff0ef          	jal	ra,300087c0 <dfs_file_read>
    30008b08:	00050493          	mv	s1,a0
    30008b0c:	02a05463          	blez	a0,30008b34 <copyfile+0xfc>
    30008b10:	00050613          	mv	a2,a0
    30008b14:	00040593          	mv	a1,s0
    30008b18:	00090513          	mv	a0,s2
    30008b1c:	ef9ff0ef          	jal	ra,30008a14 <dfs_file_write>
    30008b20:	00050593          	mv	a1,a0
    30008b24:	fca48ae3          	beq	s1,a0,30008af8 <copyfile+0xc0>
    30008b28:	4fffb517          	auipc	a0,0x4fffb
    30008b2c:	89850513          	addi	a0,a0,-1896 # 800033c0 <__fsym___cmd_ls_name+0x60>
    30008b30:	fedf80ef          	jal	ra,30001b1c <rt_kprintf>
    30008b34:	00810513          	addi	a0,sp,8
    30008b38:	c29ff0ef          	jal	ra,30008760 <dfs_file_close>
    30008b3c:	50004517          	auipc	a0,0x50004
    30008b40:	7f450513          	addi	a0,a0,2036 # 8000d330 <fd>
    30008b44:	c1dff0ef          	jal	ra,30008760 <dfs_file_close>
    30008b48:	00040513          	mv	a0,s0
    30008b4c:	eadfb0ef          	jal	ra,300049f8 <rt_free>
    30008b50:	f1dff06f          	j	30008a6c <copyfile+0x34>

0000000030008b54 <dfs_file_lseek>:
    30008b54:	04050463          	beqz	a0,30008b9c <dfs_file_lseek+0x48>
    30008b58:	02053783          	ld	a5,32(a0)
    30008b5c:	ff010113          	addi	sp,sp,-16
    30008b60:	00813023          	sd	s0,0(sp)
    30008b64:	0307b703          	ld	a4,48(a5)
    30008b68:	00113423          	sd	ra,8(sp)
    30008b6c:	00050413          	mv	s0,a0
    30008b70:	fda00793          	li	a5,-38
    30008b74:	00070a63          	beqz	a4,30008b88 <dfs_file_lseek+0x34>
    30008b78:	000700e7          	jalr	a4
    30008b7c:	00050793          	mv	a5,a0
    30008b80:	00054463          	bltz	a0,30008b88 <dfs_file_lseek+0x34>
    30008b84:	02a43c23          	sd	a0,56(s0)
    30008b88:	00813083          	ld	ra,8(sp)
    30008b8c:	00013403          	ld	s0,0(sp)
    30008b90:	00078513          	mv	a0,a5
    30008b94:	01010113          	addi	sp,sp,16
    30008b98:	00008067          	ret
    30008b9c:	fea00793          	li	a5,-22
    30008ba0:	00078513          	mv	a0,a5
    30008ba4:	00008067          	ret

0000000030008ba8 <dfs_file_stat>:
    30008ba8:	fd010113          	addi	sp,sp,-48
    30008bac:	01213823          	sd	s2,16(sp)
    30008bb0:	00058913          	mv	s2,a1
    30008bb4:	00050593          	mv	a1,a0
    30008bb8:	00000513          	li	a0,0
    30008bbc:	00913c23          	sd	s1,24(sp)
    30008bc0:	02113423          	sd	ra,40(sp)
    30008bc4:	02813023          	sd	s0,32(sp)
    30008bc8:	01313423          	sd	s3,8(sp)
    30008bcc:	52d000ef          	jal	ra,300098f8 <dfs_normalize_path>
    30008bd0:	fff00493          	li	s1,-1
    30008bd4:	04050463          	beqz	a0,30008c1c <dfs_file_stat+0x74>
    30008bd8:	00050413          	mv	s0,a0
    30008bdc:	039010ef          	jal	ra,3000a414 <dfs_filesystem_lookup>
    30008be0:	00050493          	mv	s1,a0
    30008be4:	04051c63          	bnez	a0,30008c3c <dfs_file_stat+0x94>
    30008be8:	4fffb517          	auipc	a0,0x4fffb
    30008bec:	80050513          	addi	a0,a0,-2048 # 800033e8 <__fsym___cmd_ls_name+0x88>
    30008bf0:	f2df80ef          	jal	ra,30001b1c <rt_kprintf>
    30008bf4:	00040593          	mv	a1,s0
    30008bf8:	4fffb517          	auipc	a0,0x4fffb
    30008bfc:	80050513          	addi	a0,a0,-2048 # 800033f8 <__fsym___cmd_ls_name+0x98>
    30008c00:	f1df80ef          	jal	ra,30001b1c <rt_kprintf>
    30008c04:	4fff9517          	auipc	a0,0x4fff9
    30008c08:	23c50513          	addi	a0,a0,572 # 80001e40 <CSWTCH.17+0x60>
    30008c0c:	f11f80ef          	jal	ra,30001b1c <rt_kprintf>
    30008c10:	00040513          	mv	a0,s0
    30008c14:	de5fb0ef          	jal	ra,300049f8 <rt_free>
    30008c18:	ffe00493          	li	s1,-2
    30008c1c:	02813083          	ld	ra,40(sp)
    30008c20:	02013403          	ld	s0,32(sp)
    30008c24:	01013903          	ld	s2,16(sp)
    30008c28:	00813983          	ld	s3,8(sp)
    30008c2c:	00048513          	mv	a0,s1
    30008c30:	01813483          	ld	s1,24(sp)
    30008c34:	03010113          	addi	sp,sp,48
    30008c38:	00008067          	ret
    30008c3c:	00044703          	lbu	a4,0(s0)
    30008c40:	02f00793          	li	a5,47
    30008c44:	02f71a63          	bne	a4,a5,30008c78 <dfs_file_stat+0xd0>
    30008c48:	00144783          	lbu	a5,1(s0)
    30008c4c:	02079663          	bnez	a5,30008c78 <dfs_file_stat+0xd0>
    30008c50:	000047b7          	lui	a5,0x4
    30008c54:	1ff7879b          	addiw	a5,a5,511 # 41ff <__stack_size+0x39ff>
    30008c58:	00093023          	sd	zero,0(s2)
    30008c5c:	00f92823          	sw	a5,16(s2)
    30008c60:	02093823          	sd	zero,48(s2)
    30008c64:	04093c23          	sd	zero,88(s2)
    30008c68:	00040513          	mv	a0,s0
    30008c6c:	d8dfb0ef          	jal	ra,300049f8 <rt_free>
    30008c70:	00000493          	li	s1,0
    30008c74:	fa9ff06f          	j	30008c1c <dfs_file_stat+0x74>
    30008c78:	0084b503          	ld	a0,8(s1)
    30008c7c:	00040593          	mv	a1,s0
    30008c80:	41d000ef          	jal	ra,3000989c <dfs_subdir>
    30008c84:	fc0506e3          	beqz	a0,30008c50 <dfs_file_stat+0xa8>
    30008c88:	0104b783          	ld	a5,16(s1)
    30008c8c:	0407b983          	ld	s3,64(a5)
    30008c90:	02099c63          	bnez	s3,30008cc8 <dfs_file_stat+0x120>
    30008c94:	00040513          	mv	a0,s0
    30008c98:	d61fb0ef          	jal	ra,300049f8 <rt_free>
    30008c9c:	4fffa517          	auipc	a0,0x4fffa
    30008ca0:	74c50513          	addi	a0,a0,1868 # 800033e8 <__fsym___cmd_ls_name+0x88>
    30008ca4:	e79f80ef          	jal	ra,30001b1c <rt_kprintf>
    30008ca8:	4fffa517          	auipc	a0,0x4fffa
    30008cac:	78050513          	addi	a0,a0,1920 # 80003428 <__fsym___cmd_ls_name+0xc8>
    30008cb0:	e6df80ef          	jal	ra,30001b1c <rt_kprintf>
    30008cb4:	4fff9517          	auipc	a0,0x4fff9
    30008cb8:	18c50513          	addi	a0,a0,396 # 80001e40 <CSWTCH.17+0x60>
    30008cbc:	e61f80ef          	jal	ra,30001b1c <rt_kprintf>
    30008cc0:	fda00493          	li	s1,-38
    30008cc4:	f59ff06f          	j	30008c1c <dfs_file_stat+0x74>
    30008cc8:	0087a783          	lw	a5,8(a5)
    30008ccc:	0017f793          	andi	a5,a5,1
    30008cd0:	02078263          	beqz	a5,30008cf4 <dfs_file_stat+0x14c>
    30008cd4:	00090613          	mv	a2,s2
    30008cd8:	00040593          	mv	a1,s0
    30008cdc:	00048513          	mv	a0,s1
    30008ce0:	000980e7          	jalr	s3
    30008ce4:	00050493          	mv	s1,a0
    30008ce8:	00040513          	mv	a0,s0
    30008cec:	d0dfb0ef          	jal	ra,300049f8 <rt_free>
    30008cf0:	f2dff06f          	j	30008c1c <dfs_file_stat+0x74>
    30008cf4:	0084b503          	ld	a0,8(s1)
    30008cf8:	00040593          	mv	a1,s0
    30008cfc:	3a1000ef          	jal	ra,3000989c <dfs_subdir>
    30008d00:	00050593          	mv	a1,a0
    30008d04:	00090613          	mv	a2,s2
    30008d08:	fd5ff06f          	j	30008cdc <dfs_file_stat+0x134>

0000000030008d0c <ls>:
    30008d0c:	f2010113          	addi	sp,sp,-224
    30008d10:	0c813823          	sd	s0,208(sp)
    30008d14:	0c913423          	sd	s1,200(sp)
    30008d18:	0c113c23          	sd	ra,216(sp)
    30008d1c:	0d213023          	sd	s2,192(sp)
    30008d20:	0b313c23          	sd	s3,184(sp)
    30008d24:	0b413823          	sd	s4,176(sp)
    30008d28:	0b513423          	sd	s5,168(sp)
    30008d2c:	0b613023          	sd	s6,160(sp)
    30008d30:	09713c23          	sd	s7,152(sp)
    30008d34:	09813823          	sd	s8,144(sp)
    30008d38:	09913423          	sd	s9,136(sp)
    30008d3c:	00050493          	mv	s1,a0
    30008d40:	00050413          	mv	s0,a0
    30008d44:	00051c63          	bnez	a0,30008d5c <ls+0x50>
    30008d48:	4fffb517          	auipc	a0,0x4fffb
    30008d4c:	38050513          	addi	a0,a0,896 # 800040c8 <working_directory>
    30008d50:	f74f80ef          	jal	ra,300014c4 <rt_strdup>
    30008d54:	00050413          	mv	s0,a0
    30008d58:	10050e63          	beqz	a0,30008e74 <ls+0x168>
    30008d5c:	00010637          	lui	a2,0x10
    30008d60:	00040593          	mv	a1,s0
    30008d64:	50004517          	auipc	a0,0x50004
    30008d68:	5cc50513          	addi	a0,a0,1484 # 8000d330 <fd>
    30008d6c:	899ff0ef          	jal	ra,30008604 <dfs_file_open>
    30008d70:	12051c63          	bnez	a0,30008ea8 <ls+0x19c>
    30008d74:	00040593          	mv	a1,s0
    30008d78:	4fffa517          	auipc	a0,0x4fffa
    30008d7c:	6e050513          	addi	a0,a0,1760 # 80003458 <__fsym___cmd_ls_name+0xf8>
    30008d80:	d9df80ef          	jal	ra,30001b1c <rt_kprintf>
    30008d84:	50004a17          	auipc	s4,0x50004
    30008d88:	4a4a0a13          	addi	s4,s4,1188 # 8000d228 <dirent>
    30008d8c:	50004a97          	auipc	s5,0x50004
    30008d90:	5a4a8a93          	addi	s5,s5,1444 # 8000d330 <fd>
    30008d94:	50004997          	auipc	s3,0x50004
    30008d98:	49898993          	addi	s3,s3,1176 # 8000d22c <dirent+0x4>
    30008d9c:	4fffab17          	auipc	s6,0x4fffa
    30008da0:	6ecb0b13          	addi	s6,s6,1772 # 80003488 <__fsym___cmd_ls_name+0x128>
    30008da4:	4fffab97          	auipc	s7,0x4fffa
    30008da8:	6c4b8b93          	addi	s7,s7,1732 # 80003468 <__fsym___cmd_ls_name+0x108>
    30008dac:	0000fc37          	lui	s8,0xf
    30008db0:	00004cb7          	lui	s9,0x4
    30008db4:	10400613          	li	a2,260
    30008db8:	00000593          	li	a1,0
    30008dbc:	000a0513          	mv	a0,s4
    30008dc0:	de0f70ef          	jal	ra,300003a0 <memset>
    30008dc4:	10400613          	li	a2,260
    30008dc8:	000a0593          	mv	a1,s4
    30008dcc:	000a8513          	mv	a0,s5
    30008dd0:	af5ff0ef          	jal	ra,300088c4 <dfs_file_getdents>
    30008dd4:	08a05463          	blez	a0,30008e5c <ls+0x150>
    30008dd8:	08000613          	li	a2,128
    30008ddc:	00000593          	li	a1,0
    30008de0:	00010513          	mv	a0,sp
    30008de4:	dbcf70ef          	jal	ra,300003a0 <memset>
    30008de8:	00098593          	mv	a1,s3
    30008dec:	00040513          	mv	a0,s0
    30008df0:	309000ef          	jal	ra,300098f8 <dfs_normalize_path>
    30008df4:	00050913          	mv	s2,a0
    30008df8:	06050263          	beqz	a0,30008e5c <ls+0x150>
    30008dfc:	00010593          	mv	a1,sp
    30008e00:	da9ff0ef          	jal	ra,30008ba8 <dfs_file_stat>
    30008e04:	00098593          	mv	a1,s3
    30008e08:	04051663          	bnez	a0,30008e54 <ls+0x148>
    30008e0c:	000b8513          	mv	a0,s7
    30008e10:	d0df80ef          	jal	ra,30001b1c <rt_kprintf>
    30008e14:	01012783          	lw	a5,16(sp)
    30008e18:	0187f7b3          	and	a5,a5,s8
    30008e1c:	0007879b          	sext.w	a5,a5
    30008e20:	03979263          	bne	a5,s9,30008e44 <ls+0x138>
    30008e24:	4fffa597          	auipc	a1,0x4fffa
    30008e28:	64c58593          	addi	a1,a1,1612 # 80003470 <__fsym___cmd_ls_name+0x110>
    30008e2c:	4fffa517          	auipc	a0,0x4fffa
    30008e30:	64c50513          	addi	a0,a0,1612 # 80003478 <__fsym___cmd_ls_name+0x118>
    30008e34:	ce9f80ef          	jal	ra,30001b1c <rt_kprintf>
    30008e38:	00090513          	mv	a0,s2
    30008e3c:	bbdfb0ef          	jal	ra,300049f8 <rt_free>
    30008e40:	f75ff06f          	j	30008db4 <ls+0xa8>
    30008e44:	03013583          	ld	a1,48(sp)
    30008e48:	4fffa517          	auipc	a0,0x4fffa
    30008e4c:	63850513          	addi	a0,a0,1592 # 80003480 <__fsym___cmd_ls_name+0x120>
    30008e50:	fe5ff06f          	j	30008e34 <ls+0x128>
    30008e54:	000b0513          	mv	a0,s6
    30008e58:	fddff06f          	j	30008e34 <ls+0x128>
    30008e5c:	50004517          	auipc	a0,0x50004
    30008e60:	4d450513          	addi	a0,a0,1236 # 8000d330 <fd>
    30008e64:	8fdff0ef          	jal	ra,30008760 <dfs_file_close>
    30008e68:	00049663          	bnez	s1,30008e74 <ls+0x168>
    30008e6c:	00040513          	mv	a0,s0
    30008e70:	b89fb0ef          	jal	ra,300049f8 <rt_free>
    30008e74:	0d813083          	ld	ra,216(sp)
    30008e78:	0d013403          	ld	s0,208(sp)
    30008e7c:	0c813483          	ld	s1,200(sp)
    30008e80:	0c013903          	ld	s2,192(sp)
    30008e84:	0b813983          	ld	s3,184(sp)
    30008e88:	0b013a03          	ld	s4,176(sp)
    30008e8c:	0a813a83          	ld	s5,168(sp)
    30008e90:	0a013b03          	ld	s6,160(sp)
    30008e94:	09813b83          	ld	s7,152(sp)
    30008e98:	09013c03          	ld	s8,144(sp)
    30008e9c:	08813c83          	ld	s9,136(sp)
    30008ea0:	0e010113          	addi	sp,sp,224
    30008ea4:	00008067          	ret
    30008ea8:	4fffa517          	auipc	a0,0x4fffa
    30008eac:	5f050513          	addi	a0,a0,1520 # 80003498 <__fsym___cmd_ls_name+0x138>
    30008eb0:	c6df80ef          	jal	ra,30001b1c <rt_kprintf>
    30008eb4:	fb5ff06f          	j	30008e68 <ls+0x15c>

0000000030008eb8 <copydir>:
    30008eb8:	de010113          	addi	sp,sp,-544
    30008ebc:	21213023          	sd	s2,512(sp)
    30008ec0:	1f313c23          	sd	s3,504(sp)
    30008ec4:	00050913          	mv	s2,a0
    30008ec8:	00058993          	mv	s3,a1
    30008ecc:	00010637          	lui	a2,0x10
    30008ed0:	00050593          	mv	a1,a0
    30008ed4:	00010513          	mv	a0,sp
    30008ed8:	20113c23          	sd	ra,536(sp)
    30008edc:	20813823          	sd	s0,528(sp)
    30008ee0:	20913423          	sd	s1,520(sp)
    30008ee4:	1f413823          	sd	s4,496(sp)
    30008ee8:	1f513423          	sd	s5,488(sp)
    30008eec:	1f613023          	sd	s6,480(sp)
    30008ef0:	1d713c23          	sd	s7,472(sp)
    30008ef4:	1d813823          	sd	s8,464(sp)
    30008ef8:	f0cff0ef          	jal	ra,30008604 <dfs_file_open>
    30008efc:	08054a63          	bltz	a0,30008f90 <copydir+0xd8>
    30008f00:	4fffaa17          	auipc	s4,0x4fffa
    30008f04:	d08a0a13          	addi	s4,s4,-760 # 80002c08 <__fsym___cmd_help_name+0x28>
    30008f08:	4fffba97          	auipc	s5,0x4fffb
    30008f0c:	8f8a8a93          	addi	s5,s5,-1800 # 80003800 <__fsym_mkdir_name+0x90>
    30008f10:	0000fb37          	lui	s6,0xf
    30008f14:	00004bb7          	lui	s7,0x4
    30008f18:	4fffac17          	auipc	s8,0x4fffa
    30008f1c:	5b8c0c13          	addi	s8,s8,1464 # 800034d0 <__fsym___cmd_ls_name+0x170>
    30008f20:	10400613          	li	a2,260
    30008f24:	00000593          	li	a1,0
    30008f28:	0c810513          	addi	a0,sp,200
    30008f2c:	c74f70ef          	jal	ra,300003a0 <memset>
    30008f30:	10400613          	li	a2,260
    30008f34:	0c810593          	addi	a1,sp,200
    30008f38:	00010513          	mv	a0,sp
    30008f3c:	989ff0ef          	jal	ra,300088c4 <dfs_file_getdents>
    30008f40:	04a05263          	blez	a0,30008f84 <copydir+0xcc>
    30008f44:	000a0593          	mv	a1,s4
    30008f48:	0cc10513          	addi	a0,sp,204
    30008f4c:	c4cf70ef          	jal	ra,30000398 <strcmp>
    30008f50:	fc0508e3          	beqz	a0,30008f20 <copydir+0x68>
    30008f54:	000a8593          	mv	a1,s5
    30008f58:	0cc10513          	addi	a0,sp,204
    30008f5c:	c3cf70ef          	jal	ra,30000398 <strcmp>
    30008f60:	fc0500e3          	beqz	a0,30008f20 <copydir+0x68>
    30008f64:	0cc10593          	addi	a1,sp,204
    30008f68:	00090513          	mv	a0,s2
    30008f6c:	18d000ef          	jal	ra,300098f8 <dfs_normalize_path>
    30008f70:	00050413          	mv	s0,a0
    30008f74:	04051e63          	bnez	a0,30008fd0 <copydir+0x118>
    30008f78:	4fffa517          	auipc	a0,0x4fffa
    30008f7c:	54850513          	addi	a0,a0,1352 # 800034c0 <__fsym___cmd_ls_name+0x160>
    30008f80:	b9df80ef          	jal	ra,30001b1c <rt_kprintf>
    30008f84:	00010513          	mv	a0,sp
    30008f88:	fd8ff0ef          	jal	ra,30008760 <dfs_file_close>
    30008f8c:	0140006f          	j	30008fa0 <copydir+0xe8>
    30008f90:	00090593          	mv	a1,s2
    30008f94:	4fffa517          	auipc	a0,0x4fffa
    30008f98:	51c50513          	addi	a0,a0,1308 # 800034b0 <__fsym___cmd_ls_name+0x150>
    30008f9c:	b81f80ef          	jal	ra,30001b1c <rt_kprintf>
    30008fa0:	21813083          	ld	ra,536(sp)
    30008fa4:	21013403          	ld	s0,528(sp)
    30008fa8:	20813483          	ld	s1,520(sp)
    30008fac:	20013903          	ld	s2,512(sp)
    30008fb0:	1f813983          	ld	s3,504(sp)
    30008fb4:	1f013a03          	ld	s4,496(sp)
    30008fb8:	1e813a83          	ld	s5,488(sp)
    30008fbc:	1e013b03          	ld	s6,480(sp)
    30008fc0:	1d813b83          	ld	s7,472(sp)
    30008fc4:	1d013c03          	ld	s8,464(sp)
    30008fc8:	22010113          	addi	sp,sp,544
    30008fcc:	00008067          	ret
    30008fd0:	0cc10593          	addi	a1,sp,204
    30008fd4:	00098513          	mv	a0,s3
    30008fd8:	121000ef          	jal	ra,300098f8 <dfs_normalize_path>
    30008fdc:	00050493          	mv	s1,a0
    30008fe0:	00051e63          	bnez	a0,30008ffc <copydir+0x144>
    30008fe4:	4fffa517          	auipc	a0,0x4fffa
    30008fe8:	4dc50513          	addi	a0,a0,1244 # 800034c0 <__fsym___cmd_ls_name+0x160>
    30008fec:	b31f80ef          	jal	ra,30001b1c <rt_kprintf>
    30008ff0:	00040513          	mv	a0,s0
    30008ff4:	a05fb0ef          	jal	ra,300049f8 <rt_free>
    30008ff8:	f8dff06f          	j	30008f84 <copydir+0xcc>
    30008ffc:	00000593          	li	a1,0
    30009000:	08000613          	li	a2,128
    30009004:	04810513          	addi	a0,sp,72
    30009008:	b98f70ef          	jal	ra,300003a0 <memset>
    3000900c:	04810593          	addi	a1,sp,72
    30009010:	00040513          	mv	a0,s0
    30009014:	b95ff0ef          	jal	ra,30008ba8 <dfs_file_stat>
    30009018:	00050a63          	beqz	a0,3000902c <copydir+0x174>
    3000901c:	0cc10593          	addi	a1,sp,204
    30009020:	000c0513          	mv	a0,s8
    30009024:	af9f80ef          	jal	ra,30001b1c <rt_kprintf>
    30009028:	ef9ff06f          	j	30008f20 <copydir+0x68>
    3000902c:	05812783          	lw	a5,88(sp)
    30009030:	0167f7b3          	and	a5,a5,s6
    30009034:	0007879b          	sext.w	a5,a5
    30009038:	03779863          	bne	a5,s7,30009068 <copydir+0x1b0>
    3000903c:	00000593          	li	a1,0
    30009040:	00048513          	mv	a0,s1
    30009044:	3b9000ef          	jal	ra,30009bfc <mkdir>
    30009048:	00048593          	mv	a1,s1
    3000904c:	00040513          	mv	a0,s0
    30009050:	e69ff0ef          	jal	ra,30008eb8 <copydir>
    30009054:	00040513          	mv	a0,s0
    30009058:	9a1fb0ef          	jal	ra,300049f8 <rt_free>
    3000905c:	00048513          	mv	a0,s1
    30009060:	999fb0ef          	jal	ra,300049f8 <rt_free>
    30009064:	ebdff06f          	j	30008f20 <copydir+0x68>
    30009068:	00048593          	mv	a1,s1
    3000906c:	00040513          	mv	a0,s0
    30009070:	9c9ff0ef          	jal	ra,30008a38 <copyfile>
    30009074:	fe1ff06f          	j	30009054 <copydir+0x19c>

0000000030009078 <copy>:
    30009078:	f6010113          	addi	sp,sp,-160
    3000907c:	09213023          	sd	s2,128(sp)
    30009080:	00058913          	mv	s2,a1
    30009084:	00010593          	mv	a1,sp
    30009088:	08813823          	sd	s0,144(sp)
    3000908c:	08113c23          	sd	ra,152(sp)
    30009090:	08913423          	sd	s1,136(sp)
    30009094:	00050413          	mv	s0,a0
    30009098:	b11ff0ef          	jal	ra,30008ba8 <dfs_file_stat>
    3000909c:	02055663          	bgez	a0,300090c8 <copy+0x50>
    300090a0:	00040593          	mv	a1,s0
    300090a4:	4fffa517          	auipc	a0,0x4fffa
    300090a8:	44450513          	addi	a0,a0,1092 # 800034e8 <__fsym___cmd_ls_name+0x188>
    300090ac:	a71f80ef          	jal	ra,30001b1c <rt_kprintf>
    300090b0:	09813083          	ld	ra,152(sp)
    300090b4:	09013403          	ld	s0,144(sp)
    300090b8:	08813483          	ld	s1,136(sp)
    300090bc:	08013903          	ld	s2,128(sp)
    300090c0:	0a010113          	addi	sp,sp,160
    300090c4:	00008067          	ret
    300090c8:	01012783          	lw	a5,16(sp)
    300090cc:	0000f737          	lui	a4,0xf
    300090d0:	00100493          	li	s1,1
    300090d4:	00e7f7b3          	and	a5,a5,a4
    300090d8:	00004737          	lui	a4,0x4
    300090dc:	00e78463          	beq	a5,a4,300090e4 <copy+0x6c>
    300090e0:	00200493          	li	s1,2
    300090e4:	00010593          	mv	a1,sp
    300090e8:	00090513          	mv	a0,s2
    300090ec:	abdff0ef          	jal	ra,30008ba8 <dfs_file_stat>
    300090f0:	00054e63          	bltz	a0,3000910c <copy+0x94>
    300090f4:	01012783          	lw	a5,16(sp)
    300090f8:	0000f737          	lui	a4,0xf
    300090fc:	00e7f7b3          	and	a5,a5,a4
    30009100:	00004737          	lui	a4,0x4
    30009104:	06e79663          	bne	a5,a4,30009170 <copy+0xf8>
    30009108:	0044e493          	ori	s1,s1,4
    3000910c:	0094f793          	andi	a5,s1,9
    30009110:	00900693          	li	a3,9
    30009114:	00048713          	mv	a4,s1
    30009118:	4fffa517          	auipc	a0,0x4fffa
    3000911c:	3e850513          	addi	a0,a0,1000 # 80003500 <__fsym___cmd_ls_name+0x1a0>
    30009120:	04d78463          	beq	a5,a3,30009168 <copy+0xf0>
    30009124:	0044f793          	andi	a5,s1,4
    30009128:	0024f493          	andi	s1,s1,2
    3000912c:	0007879b          	sext.w	a5,a5
    30009130:	06048863          	beqz	s1,300091a0 <copy+0x128>
    30009134:	04078e63          	beqz	a5,30009190 <copy+0x118>
    30009138:	02f00593          	li	a1,47
    3000913c:	00040513          	mv	a0,s0
    30009140:	a70f70ef          	jal	ra,300003b0 <strrchr>
    30009144:	00040593          	mv	a1,s0
    30009148:	00050463          	beqz	a0,30009150 <copy+0xd8>
    3000914c:	00150593          	addi	a1,a0,1
    30009150:	00090513          	mv	a0,s2
    30009154:	7a4000ef          	jal	ra,300098f8 <dfs_normalize_path>
    30009158:	00050493          	mv	s1,a0
    3000915c:	00051e63          	bnez	a0,30009178 <copy+0x100>
    30009160:	4fffa517          	auipc	a0,0x4fffa
    30009164:	d8050513          	addi	a0,a0,-640 # 80002ee0 <__fsym___cmd_help_name+0x300>
    30009168:	9b5f80ef          	jal	ra,30001b1c <rt_kprintf>
    3000916c:	f45ff06f          	j	300090b0 <copy+0x38>
    30009170:	0084e493          	ori	s1,s1,8
    30009174:	f99ff06f          	j	3000910c <copy+0x94>
    30009178:	00050593          	mv	a1,a0
    3000917c:	00040513          	mv	a0,s0
    30009180:	8b9ff0ef          	jal	ra,30008a38 <copyfile>
    30009184:	00048513          	mv	a0,s1
    30009188:	871fb0ef          	jal	ra,300049f8 <rt_free>
    3000918c:	f25ff06f          	j	300090b0 <copy+0x38>
    30009190:	00090593          	mv	a1,s2
    30009194:	00040513          	mv	a0,s0
    30009198:	8a1ff0ef          	jal	ra,30008a38 <copyfile>
    3000919c:	f15ff06f          	j	300090b0 <copy+0x38>
    300091a0:	04078263          	beqz	a5,300091e4 <copy+0x16c>
    300091a4:	02f00593          	li	a1,47
    300091a8:	00040513          	mv	a0,s0
    300091ac:	a04f70ef          	jal	ra,300003b0 <strrchr>
    300091b0:	00040593          	mv	a1,s0
    300091b4:	00050463          	beqz	a0,300091bc <copy+0x144>
    300091b8:	00150593          	addi	a1,a0,1
    300091bc:	00090513          	mv	a0,s2
    300091c0:	738000ef          	jal	ra,300098f8 <dfs_normalize_path>
    300091c4:	00050493          	mv	s1,a0
    300091c8:	f8050ce3          	beqz	a0,30009160 <copy+0xe8>
    300091cc:	00000593          	li	a1,0
    300091d0:	22d000ef          	jal	ra,30009bfc <mkdir>
    300091d4:	00048593          	mv	a1,s1
    300091d8:	00040513          	mv	a0,s0
    300091dc:	cddff0ef          	jal	ra,30008eb8 <copydir>
    300091e0:	fa5ff06f          	j	30009184 <copy+0x10c>
    300091e4:	00c77793          	andi	a5,a4,12
    300091e8:	00079863          	bnez	a5,300091f8 <copy+0x180>
    300091ec:	00000593          	li	a1,0
    300091f0:	00090513          	mv	a0,s2
    300091f4:	209000ef          	jal	ra,30009bfc <mkdir>
    300091f8:	00090593          	mv	a1,s2
    300091fc:	00040513          	mv	a0,s0
    30009200:	cb9ff0ef          	jal	ra,30008eb8 <copydir>
    30009204:	eadff06f          	j	300090b0 <copy+0x38>

0000000030009208 <dfs_file_rename>:
    30009208:	fd010113          	addi	sp,sp,-48
    3000920c:	02813023          	sd	s0,32(sp)
    30009210:	00058413          	mv	s0,a1
    30009214:	00050593          	mv	a1,a0
    30009218:	00000513          	li	a0,0
    3000921c:	01213823          	sd	s2,16(sp)
    30009220:	02113423          	sd	ra,40(sp)
    30009224:	00913c23          	sd	s1,24(sp)
    30009228:	01313423          	sd	s3,8(sp)
    3000922c:	01413023          	sd	s4,0(sp)
    30009230:	6c8000ef          	jal	ra,300098f8 <dfs_normalize_path>
    30009234:	00050913          	mv	s2,a0
    30009238:	04051063          	bnez	a0,30009278 <dfs_file_rename+0x70>
    3000923c:	00000493          	li	s1,0
    30009240:	ffe00413          	li	s0,-2
    30009244:	00090513          	mv	a0,s2
    30009248:	fb0fb0ef          	jal	ra,300049f8 <rt_free>
    3000924c:	00048513          	mv	a0,s1
    30009250:	fa8fb0ef          	jal	ra,300049f8 <rt_free>
    30009254:	02813083          	ld	ra,40(sp)
    30009258:	00040513          	mv	a0,s0
    3000925c:	02013403          	ld	s0,32(sp)
    30009260:	01813483          	ld	s1,24(sp)
    30009264:	01013903          	ld	s2,16(sp)
    30009268:	00813983          	ld	s3,8(sp)
    3000926c:	00013a03          	ld	s4,0(sp)
    30009270:	03010113          	addi	sp,sp,48
    30009274:	00008067          	ret
    30009278:	00040593          	mv	a1,s0
    3000927c:	00000513          	li	a0,0
    30009280:	678000ef          	jal	ra,300098f8 <dfs_normalize_path>
    30009284:	00050493          	mv	s1,a0
    30009288:	fa050ae3          	beqz	a0,3000923c <dfs_file_rename+0x34>
    3000928c:	00090513          	mv	a0,s2
    30009290:	184010ef          	jal	ra,3000a414 <dfs_filesystem_lookup>
    30009294:	00050993          	mv	s3,a0
    30009298:	00048513          	mv	a0,s1
    3000929c:	178010ef          	jal	ra,3000a414 <dfs_filesystem_lookup>
    300092a0:	fee00413          	li	s0,-18
    300092a4:	faa990e3          	bne	s3,a0,30009244 <dfs_file_rename+0x3c>
    300092a8:	0109b783          	ld	a5,16(s3)
    300092ac:	fda00413          	li	s0,-38
    300092b0:	0487ba03          	ld	s4,72(a5)
    300092b4:	f80a08e3          	beqz	s4,30009244 <dfs_file_rename+0x3c>
    300092b8:	0087a783          	lw	a5,8(a5)
    300092bc:	0017f793          	andi	a5,a5,1
    300092c0:	00078c63          	beqz	a5,300092d8 <dfs_file_rename+0xd0>
    300092c4:	00048613          	mv	a2,s1
    300092c8:	00090593          	mv	a1,s2
    300092cc:	000a00e7          	jalr	s4
    300092d0:	00050413          	mv	s0,a0
    300092d4:	f71ff06f          	j	30009244 <dfs_file_rename+0x3c>
    300092d8:	0089b503          	ld	a0,8(s3)
    300092dc:	00090593          	mv	a1,s2
    300092e0:	5bc000ef          	jal	ra,3000989c <dfs_subdir>
    300092e4:	00050413          	mv	s0,a0
    300092e8:	0089b503          	ld	a0,8(s3)
    300092ec:	00048593          	mv	a1,s1
    300092f0:	5ac000ef          	jal	ra,3000989c <dfs_subdir>
    300092f4:	00050613          	mv	a2,a0
    300092f8:	00040593          	mv	a1,s0
    300092fc:	00098513          	mv	a0,s3
    30009300:	fcdff06f          	j	300092cc <dfs_file_rename+0xc4>

0000000030009304 <list_fd>:
    30009304:	fa010113          	addi	sp,sp,-96
    30009308:	04113c23          	sd	ra,88(sp)
    3000930c:	04913423          	sd	s1,72(sp)
    30009310:	05213023          	sd	s2,64(sp)
    30009314:	03313c23          	sd	s3,56(sp)
    30009318:	03413823          	sd	s4,48(sp)
    3000931c:	03513423          	sd	s5,40(sp)
    30009320:	03613023          	sd	s6,32(sp)
    30009324:	01713c23          	sd	s7,24(sp)
    30009328:	01813823          	sd	s8,16(sp)
    3000932c:	01913423          	sd	s9,8(sp)
    30009330:	04813823          	sd	s0,80(sp)
    30009334:	d70f90ef          	jal	ra,300028a4 <rt_enter_critical>
    30009338:	4fffa517          	auipc	a0,0x4fffa
    3000933c:	27850513          	addi	a0,a0,632 # 800035b0 <__fsym_ls_name+0x8>
    30009340:	fdcf80ef          	jal	ra,30001b1c <rt_kprintf>
    30009344:	4fffa517          	auipc	a0,0x4fffa
    30009348:	28c50513          	addi	a0,a0,652 # 800035d0 <__fsym_ls_name+0x28>
    3000934c:	fd0f80ef          	jal	ra,30001b1c <rt_kprintf>
    30009350:	00000493          	li	s1,0
    30009354:	50004917          	auipc	s2,0x50004
    30009358:	02490913          	addi	s2,s2,36 # 8000d378 <_fdtab>
    3000935c:	4fffa997          	auipc	s3,0x4fffa
    30009360:	29498993          	addi	s3,s3,660 # 800035f0 <__fsym_ls_name+0x48>
    30009364:	00200a13          	li	s4,2
    30009368:	4fffaa97          	auipc	s5,0x4fffa
    3000936c:	2c8a8a93          	addi	s5,s5,712 # 80003630 <__fsym_ls_name+0x88>
    30009370:	4fffab17          	auipc	s6,0x4fffa
    30009374:	2c8b0b13          	addi	s6,s6,712 # 80003638 <__fsym_ls_name+0x90>
    30009378:	4fff9b97          	auipc	s7,0x4fff9
    3000937c:	ac8b8b93          	addi	s7,s7,-1336 # 80001e40 <CSWTCH.17+0x60>
    30009380:	4fff9c17          	auipc	s8,0x4fff9
    30009384:	798c0c13          	addi	s8,s8,1944 # 80002b18 <__FUNCTION__.4547+0x48>
    30009388:	00100c93          	li	s9,1
    3000938c:	00092703          	lw	a4,0(s2)
    30009390:	0004879b          	sext.w	a5,s1
    30009394:	04e7c063          	blt	a5,a4,300093d4 <list_fd+0xd0>
    30009398:	d34f90ef          	jal	ra,300028cc <rt_exit_critical>
    3000939c:	05813083          	ld	ra,88(sp)
    300093a0:	05013403          	ld	s0,80(sp)
    300093a4:	04813483          	ld	s1,72(sp)
    300093a8:	04013903          	ld	s2,64(sp)
    300093ac:	03813983          	ld	s3,56(sp)
    300093b0:	03013a03          	ld	s4,48(sp)
    300093b4:	02813a83          	ld	s5,40(sp)
    300093b8:	02013b03          	ld	s6,32(sp)
    300093bc:	01813b83          	ld	s7,24(sp)
    300093c0:	01013c03          	ld	s8,16(sp)
    300093c4:	00813c83          	ld	s9,8(sp)
    300093c8:	00000513          	li	a0,0
    300093cc:	06010113          	addi	sp,sp,96
    300093d0:	00008067          	ret
    300093d4:	00893783          	ld	a5,8(s2)
    300093d8:	00349713          	slli	a4,s1,0x3
    300093dc:	00e787b3          	add	a5,a5,a4
    300093e0:	0007b403          	ld	s0,0(a5)
    300093e4:	08040c63          	beqz	s0,3000947c <list_fd+0x178>
    300093e8:	02043783          	ld	a5,32(s0)
    300093ec:	08078863          	beqz	a5,3000947c <list_fd+0x178>
    300093f0:	0034859b          	addiw	a1,s1,3
    300093f4:	00098513          	mv	a0,s3
    300093f8:	f24f80ef          	jal	ra,30001b1c <rt_kprintf>
    300093fc:	00245703          	lhu	a4,2(s0)
    30009400:	4fffa597          	auipc	a1,0x4fffa
    30009404:	1f858593          	addi	a1,a1,504 # 800035f8 <__fsym_ls_name+0x50>
    30009408:	0007079b          	sext.w	a5,a4
    3000940c:	03470e63          	beq	a4,s4,30009448 <list_fd+0x144>
    30009410:	4fffa597          	auipc	a1,0x4fffa
    30009414:	1f858593          	addi	a1,a1,504 # 80003608 <__fsym_ls_name+0x60>
    30009418:	02070863          	beqz	a4,30009448 <list_fd+0x144>
    3000941c:	4fffa597          	auipc	a1,0x4fffa
    30009420:	1f458593          	addi	a1,a1,500 # 80003610 <__fsym_ls_name+0x68>
    30009424:	03978263          	beq	a5,s9,30009448 <list_fd+0x144>
    30009428:	00300713          	li	a4,3
    3000942c:	4fffa597          	auipc	a1,0x4fffa
    30009430:	1ec58593          	addi	a1,a1,492 # 80003618 <__fsym_ls_name+0x70>
    30009434:	00e78a63          	beq	a5,a4,30009448 <list_fd+0x144>
    30009438:	00400713          	li	a4,4
    3000943c:	04e79463          	bne	a5,a4,30009484 <list_fd+0x180>
    30009440:	4fff9597          	auipc	a1,0x4fff9
    30009444:	b7858593          	addi	a1,a1,-1160 # 80001fb8 <CSWTCH.17+0x1d8>
    30009448:	4fffa517          	auipc	a0,0x4fffa
    3000944c:	1b850513          	addi	a0,a0,440 # 80003600 <__fsym_ls_name+0x58>
    30009450:	eccf80ef          	jal	ra,30001b1c <rt_kprintf>
    30009454:	01042583          	lw	a1,16(s0)
    30009458:	000a8513          	mv	a0,s5
    3000945c:	ec0f80ef          	jal	ra,30001b1c <rt_kprintf>
    30009460:	00045583          	lhu	a1,0(s0)
    30009464:	000b0513          	mv	a0,s6
    30009468:	eb4f80ef          	jal	ra,30001b1c <rt_kprintf>
    3000946c:	00843583          	ld	a1,8(s0)
    30009470:	02058463          	beqz	a1,30009498 <list_fd+0x194>
    30009474:	000c0513          	mv	a0,s8
    30009478:	ea4f80ef          	jal	ra,30001b1c <rt_kprintf>
    3000947c:	00148493          	addi	s1,s1,1
    30009480:	f0dff06f          	j	3000938c <list_fd+0x88>
    30009484:	4fffa597          	auipc	a1,0x4fffa
    30009488:	19c58593          	addi	a1,a1,412 # 80003620 <__fsym_ls_name+0x78>
    3000948c:	4fffa517          	auipc	a0,0x4fffa
    30009490:	19c50513          	addi	a0,a0,412 # 80003628 <__fsym_ls_name+0x80>
    30009494:	fbdff06f          	j	30009450 <list_fd+0x14c>
    30009498:	000b8513          	mv	a0,s7
    3000949c:	e80f80ef          	jal	ra,30001b1c <rt_kprintf>
    300094a0:	fddff06f          	j	3000947c <list_fd+0x178>

00000000300094a4 <dfs_init>:
    300094a4:	fe010113          	addi	sp,sp,-32
    300094a8:	00813823          	sd	s0,16(sp)
    300094ac:	95018413          	addi	s0,gp,-1712 # 80004318 <init_ok.4107>
    300094b0:	00042783          	lw	a5,0(s0)
    300094b4:	00113c23          	sd	ra,24(sp)
    300094b8:	00913423          	sd	s1,8(sp)
    300094bc:	02078463          	beqz	a5,300094e4 <dfs_init+0x40>
    300094c0:	4fffa517          	auipc	a0,0x4fffa
    300094c4:	18050513          	addi	a0,a0,384 # 80003640 <__fsym_ls_name+0x98>
    300094c8:	e54f80ef          	jal	ra,30001b1c <rt_kprintf>
    300094cc:	01813083          	ld	ra,24(sp)
    300094d0:	01013403          	ld	s0,16(sp)
    300094d4:	00813483          	ld	s1,8(sp)
    300094d8:	00000513          	li	a0,0
    300094dc:	02010113          	addi	sp,sp,32
    300094e0:	00008067          	ret
    300094e4:	01000613          	li	a2,16
    300094e8:	00000593          	li	a1,0
    300094ec:	50004517          	auipc	a0,0x50004
    300094f0:	e9c50513          	addi	a0,a0,-356 # 8000d388 <filesystem_operation_table>
    300094f4:	eadf60ef          	jal	ra,300003a0 <memset>
    300094f8:	04000613          	li	a2,64
    300094fc:	00000593          	li	a1,0
    30009500:	50004517          	auipc	a0,0x50004
    30009504:	e9850513          	addi	a0,a0,-360 # 8000d398 <filesystem_table>
    30009508:	e99f60ef          	jal	ra,300003a0 <memset>
    3000950c:	01000613          	li	a2,16
    30009510:	00000593          	li	a1,0
    30009514:	50004517          	auipc	a0,0x50004
    30009518:	e6450513          	addi	a0,a0,-412 # 8000d378 <_fdtab>
    3000951c:	e85f60ef          	jal	ra,300003a0 <memset>
    30009520:	00000613          	li	a2,0
    30009524:	4fffa597          	auipc	a1,0x4fffa
    30009528:	13458593          	addi	a1,a1,308 # 80003658 <__fsym_ls_name+0xb0>
    3000952c:	50004517          	auipc	a0,0x50004
    30009530:	eac50513          	addi	a0,a0,-340 # 8000d3d8 <fslock>
    30009534:	ba8f70ef          	jal	ra,300008dc <rt_mutex_init>
    30009538:	4fffb497          	auipc	s1,0x4fffb
    3000953c:	b9048493          	addi	s1,s1,-1136 # 800040c8 <working_directory>
    30009540:	10000613          	li	a2,256
    30009544:	00000593          	li	a1,0
    30009548:	00048513          	mv	a0,s1
    3000954c:	e55f60ef          	jal	ra,300003a0 <memset>
    30009550:	02f00793          	li	a5,47
    30009554:	00f48023          	sb	a5,0(s1)
    30009558:	084020ef          	jal	ra,3000b5dc <devfs_init>
    3000955c:	00000713          	li	a4,0
    30009560:	00000693          	li	a3,0
    30009564:	4fffa617          	auipc	a2,0x4fffa
    30009568:	0fc60613          	addi	a2,a2,252 # 80003660 <__fsym_ls_name+0xb8>
    3000956c:	4fffa597          	auipc	a1,0x4fffa
    30009570:	0fc58593          	addi	a1,a1,252 # 80003668 <__fsym_ls_name+0xc0>
    30009574:	00000513          	li	a0,0
    30009578:	7c5000ef          	jal	ra,3000a53c <dfs_mount>
    3000957c:	00100793          	li	a5,1
    30009580:	00f42023          	sw	a5,0(s0)
    30009584:	f49ff06f          	j	300094cc <dfs_init+0x28>

0000000030009588 <dfs_lock>:
    30009588:	fe010113          	addi	sp,sp,-32
    3000958c:	00813823          	sd	s0,16(sp)
    30009590:	00913423          	sd	s1,8(sp)
    30009594:	00113c23          	sd	ra,24(sp)
    30009598:	50004497          	auipc	s1,0x50004
    3000959c:	e4048493          	addi	s1,s1,-448 # 8000d3d8 <fslock>
    300095a0:	ff900413          	li	s0,-7
    300095a4:	fff00593          	li	a1,-1
    300095a8:	00048513          	mv	a0,s1
    300095ac:	bb0f70ef          	jal	ra,3000095c <rt_mutex_take>
    300095b0:	fe850ae3          	beq	a0,s0,300095a4 <dfs_lock+0x1c>
    300095b4:	02050663          	beqz	a0,300095e0 <dfs_lock+0x58>
    300095b8:	01013403          	ld	s0,16(sp)
    300095bc:	01813083          	ld	ra,24(sp)
    300095c0:	00813483          	ld	s1,8(sp)
    300095c4:	06b00613          	li	a2,107
    300095c8:	4fffa597          	auipc	a1,0x4fffa
    300095cc:	11058593          	addi	a1,a1,272 # 800036d8 <__FUNCTION__.4119>
    300095d0:	4fff7517          	auipc	a0,0x4fff7
    300095d4:	0e050513          	addi	a0,a0,224 # 800006b0 <_uart_ops+0x70>
    300095d8:	02010113          	addi	sp,sp,32
    300095dc:	ebcf806f          	j	30001c98 <rt_assert_handler>
    300095e0:	01813083          	ld	ra,24(sp)
    300095e4:	01013403          	ld	s0,16(sp)
    300095e8:	00813483          	ld	s1,8(sp)
    300095ec:	02010113          	addi	sp,sp,32
    300095f0:	00008067          	ret

00000000300095f4 <dfs_unlock>:
    300095f4:	50004517          	auipc	a0,0x50004
    300095f8:	de450513          	addi	a0,a0,-540 # 8000d3d8 <fslock>
    300095fc:	d84f706f          	j	30000b80 <rt_mutex_release>

0000000030009600 <fd_new>:
    30009600:	fd010113          	addi	sp,sp,-48
    30009604:	02813023          	sd	s0,32(sp)
    30009608:	02113423          	sd	ra,40(sp)
    3000960c:	50004417          	auipc	s0,0x50004
    30009610:	d6c40413          	addi	s0,s0,-660 # 8000d378 <_fdtab>
    30009614:	00913c23          	sd	s1,24(sp)
    30009618:	01213823          	sd	s2,16(sp)
    3000961c:	01313423          	sd	s3,8(sp)
    30009620:	f69ff0ef          	jal	ra,30009588 <dfs_lock>
    30009624:	00042683          	lw	a3,0(s0)
    30009628:	00843503          	ld	a0,8(s0)
    3000962c:	00000793          	li	a5,0
    30009630:	0006861b          	sext.w	a2,a3
    30009634:	0007891b          	sext.w	s2,a5
    30009638:	02c95063          	bge	s2,a2,30009658 <fd_new+0x58>
    3000963c:	00379713          	slli	a4,a5,0x3
    30009640:	00e50733          	add	a4,a0,a4
    30009644:	00073703          	ld	a4,0(a4) # 4000 <__stack_size+0x3800>
    30009648:	00070863          	beqz	a4,30009658 <fd_new+0x58>
    3000964c:	01072703          	lw	a4,16(a4)
    30009650:	00178793          	addi	a5,a5,1
    30009654:	fe0710e3          	bnez	a4,30009634 <fd_new+0x34>
    30009658:	05269063          	bne	a3,s2,30009698 <fd_new+0x98>
    3000965c:	01f00793          	li	a5,31
    30009660:	0327ec63          	bltu	a5,s2,30009698 <fd_new+0x98>
    30009664:	0049071b          	addiw	a4,s2,4
    30009668:	02000793          	li	a5,32
    3000966c:	00070493          	mv	s1,a4
    30009670:	00e7d463          	bge	a5,a4,30009678 <fd_new+0x78>
    30009674:	02000493          	li	s1,32
    30009678:	00349593          	slli	a1,s1,0x3
    3000967c:	d74fb0ef          	jal	ra,30004bf0 <rt_realloc>
    30009680:	04050c63          	beqz	a0,300096d8 <fd_new+0xd8>
    30009684:	00042783          	lw	a5,0(s0)
    30009688:	0007871b          	sext.w	a4,a5
    3000968c:	0a974063          	blt	a4,s1,3000972c <fd_new+0x12c>
    30009690:	00a43423          	sd	a0,8(s0)
    30009694:	00942023          	sw	s1,0(s0)
    30009698:	00042783          	lw	a5,0(s0)
    3000969c:	02f95e63          	bge	s2,a5,300096d8 <fd_new+0xd8>
    300096a0:	00843483          	ld	s1,8(s0)
    300096a4:	00391993          	slli	s3,s2,0x3
    300096a8:	013484b3          	add	s1,s1,s3
    300096ac:	0004b783          	ld	a5,0(s1)
    300096b0:	02079463          	bnez	a5,300096d8 <fd_new+0xd8>
    300096b4:	04800593          	li	a1,72
    300096b8:	00100513          	li	a0,1
    300096bc:	af8fb0ef          	jal	ra,300049b4 <rt_calloc>
    300096c0:	00843783          	ld	a5,8(s0)
    300096c4:	00a4b023          	sd	a0,0(s1)
    300096c8:	013787b3          	add	a5,a5,s3
    300096cc:	0007b783          	ld	a5,0(a5)
    300096d0:	00079463          	bnez	a5,300096d8 <fd_new+0xd8>
    300096d4:	00042903          	lw	s2,0(s0)
    300096d8:	00042783          	lw	a5,0(s0)
    300096dc:	07279263          	bne	a5,s2,30009740 <fd_new+0x140>
    300096e0:	4fffa517          	auipc	a0,0x4fffa
    300096e4:	d0850513          	addi	a0,a0,-760 # 800033e8 <__fsym___cmd_ls_name+0x88>
    300096e8:	c34f80ef          	jal	ra,30001b1c <rt_kprintf>
    300096ec:	4fffa517          	auipc	a0,0x4fffa
    300096f0:	f8450513          	addi	a0,a0,-124 # 80003670 <__fsym_ls_name+0xc8>
    300096f4:	c28f80ef          	jal	ra,30001b1c <rt_kprintf>
    300096f8:	4fff8517          	auipc	a0,0x4fff8
    300096fc:	74850513          	addi	a0,a0,1864 # 80001e40 <CSWTCH.17+0x60>
    30009700:	c1cf80ef          	jal	ra,30001b1c <rt_kprintf>
    30009704:	ffc00913          	li	s2,-4
    30009708:	eedff0ef          	jal	ra,300095f4 <dfs_unlock>
    3000970c:	02813083          	ld	ra,40(sp)
    30009710:	02013403          	ld	s0,32(sp)
    30009714:	01813483          	ld	s1,24(sp)
    30009718:	00813983          	ld	s3,8(sp)
    3000971c:	0039051b          	addiw	a0,s2,3
    30009720:	01013903          	ld	s2,16(sp)
    30009724:	03010113          	addi	sp,sp,48
    30009728:	00008067          	ret
    3000972c:	00379713          	slli	a4,a5,0x3
    30009730:	00e50733          	add	a4,a0,a4
    30009734:	00073023          	sd	zero,0(a4)
    30009738:	00178793          	addi	a5,a5,1
    3000973c:	f4dff06f          	j	30009688 <fd_new+0x88>
    30009740:	00843783          	ld	a5,8(s0)
    30009744:	00391713          	slli	a4,s2,0x3
    30009748:	00e787b3          	add	a5,a5,a4
    3000974c:	0007b783          	ld	a5,0(a5)
    30009750:	00100713          	li	a4,1
    30009754:	00e7a823          	sw	a4,16(a5)
    30009758:	dfd00713          	li	a4,-515
    3000975c:	00e79023          	sh	a4,0(a5)
    30009760:	fa9ff06f          	j	30009708 <fd_new+0x108>

0000000030009764 <fd_get>:
    30009764:	fe010113          	addi	sp,sp,-32
    30009768:	00913423          	sd	s1,8(sp)
    3000976c:	00113c23          	sd	ra,24(sp)
    30009770:	00813823          	sd	s0,16(sp)
    30009774:	01213023          	sd	s2,0(sp)
    30009778:	ffd5049b          	addiw	s1,a0,-3
    3000977c:	0404c263          	bltz	s1,300097c0 <fd_get+0x5c>
    30009780:	50004917          	auipc	s2,0x50004
    30009784:	bf890913          	addi	s2,s2,-1032 # 8000d378 <_fdtab>
    30009788:	00092783          	lw	a5,0(s2)
    3000978c:	00000413          	li	s0,0
    30009790:	04f4d463          	bge	s1,a5,300097d8 <fd_get+0x74>
    30009794:	df5ff0ef          	jal	ra,30009588 <dfs_lock>
    30009798:	00893503          	ld	a0,8(s2)
    3000979c:	00349493          	slli	s1,s1,0x3
    300097a0:	009504b3          	add	s1,a0,s1
    300097a4:	0004b403          	ld	s0,0(s1)
    300097a8:	00040a63          	beqz	s0,300097bc <fd_get+0x58>
    300097ac:	00045703          	lhu	a4,0(s0)
    300097b0:	000107b7          	lui	a5,0x10
    300097b4:	dfd78793          	addi	a5,a5,-515 # fdfd <__stack_size+0xf5fd>
    300097b8:	00f70863          	beq	a4,a5,300097c8 <fd_get+0x64>
    300097bc:	e39ff0ef          	jal	ra,300095f4 <dfs_unlock>
    300097c0:	00000413          	li	s0,0
    300097c4:	0140006f          	j	300097d8 <fd_get+0x74>
    300097c8:	01042783          	lw	a5,16(s0)
    300097cc:	0017879b          	addiw	a5,a5,1
    300097d0:	00f42823          	sw	a5,16(s0)
    300097d4:	e21ff0ef          	jal	ra,300095f4 <dfs_unlock>
    300097d8:	01813083          	ld	ra,24(sp)
    300097dc:	00040513          	mv	a0,s0
    300097e0:	01013403          	ld	s0,16(sp)
    300097e4:	00813483          	ld	s1,8(sp)
    300097e8:	00013903          	ld	s2,0(sp)
    300097ec:	02010113          	addi	sp,sp,32
    300097f0:	00008067          	ret

00000000300097f4 <fd_put>:
    300097f4:	fe010113          	addi	sp,sp,-32
    300097f8:	00813823          	sd	s0,16(sp)
    300097fc:	00113c23          	sd	ra,24(sp)
    30009800:	00913423          	sd	s1,8(sp)
    30009804:	01213023          	sd	s2,0(sp)
    30009808:	00050413          	mv	s0,a0
    3000980c:	00051e63          	bnez	a0,30009828 <fd_put+0x34>
    30009810:	0fd00613          	li	a2,253
    30009814:	00003597          	auipc	a1,0x3
    30009818:	44c58593          	addi	a1,a1,1100 # 3000cc60 <__FUNCTION__.4153>
    3000981c:	4fffa517          	auipc	a0,0x4fffa
    30009820:	e9450513          	addi	a0,a0,-364 # 800036b0 <__fsym_ls_name+0x108>
    30009824:	c74f80ef          	jal	ra,30001c98 <rt_assert_handler>
    30009828:	d61ff0ef          	jal	ra,30009588 <dfs_lock>
    3000982c:	01042783          	lw	a5,16(s0)
    30009830:	fff7871b          	addiw	a4,a5,-1
    30009834:	00e42823          	sw	a4,16(s0)
    30009838:	04071663          	bnez	a4,30009884 <fd_put+0x90>
    3000983c:	50004797          	auipc	a5,0x50004
    30009840:	b3c78793          	addi	a5,a5,-1220 # 8000d378 <_fdtab>
    30009844:	0007a603          	lw	a2,0(a5)
    30009848:	0087b583          	ld	a1,8(a5)
    3000984c:	00078493          	mv	s1,a5
    30009850:	0007079b          	sext.w	a5,a4
    30009854:	02c7d863          	bge	a5,a2,30009884 <fd_put+0x90>
    30009858:	00371913          	slli	s2,a4,0x3
    3000985c:	00890693          	addi	a3,s2,8
    30009860:	00d586b3          	add	a3,a1,a3
    30009864:	ff86b783          	ld	a5,-8(a3) # 3fffff8 <__stack_size+0x3fff7f8>
    30009868:	00170713          	addi	a4,a4,1
    3000986c:	fe8792e3          	bne	a5,s0,30009850 <fd_put+0x5c>
    30009870:	00040513          	mv	a0,s0
    30009874:	984fb0ef          	jal	ra,300049f8 <rt_free>
    30009878:	0084b783          	ld	a5,8(s1)
    3000987c:	012787b3          	add	a5,a5,s2
    30009880:	0007b023          	sd	zero,0(a5)
    30009884:	01013403          	ld	s0,16(sp)
    30009888:	01813083          	ld	ra,24(sp)
    3000988c:	00813483          	ld	s1,8(sp)
    30009890:	00013903          	ld	s2,0(sp)
    30009894:	02010113          	addi	sp,sp,32
    30009898:	d5dff06f          	j	300095f4 <dfs_unlock>

000000003000989c <dfs_subdir>:
    3000989c:	fe010113          	addi	sp,sp,-32
    300098a0:	00813823          	sd	s0,16(sp)
    300098a4:	00913423          	sd	s1,8(sp)
    300098a8:	00113c23          	sd	ra,24(sp)
    300098ac:	00058493          	mv	s1,a1
    300098b0:	a85f60ef          	jal	ra,30000334 <strlen>
    300098b4:	00050413          	mv	s0,a0
    300098b8:	00048513          	mv	a0,s1
    300098bc:	a79f60ef          	jal	ra,30000334 <strlen>
    300098c0:	02a40863          	beq	s0,a0,300098f0 <dfs_subdir+0x54>
    300098c4:	00848533          	add	a0,s1,s0
    300098c8:	00054703          	lbu	a4,0(a0)
    300098cc:	02f00793          	li	a5,47
    300098d0:	00f70663          	beq	a4,a5,300098dc <dfs_subdir+0x40>
    300098d4:	00a48463          	beq	s1,a0,300098dc <dfs_subdir+0x40>
    300098d8:	fff50513          	addi	a0,a0,-1
    300098dc:	01813083          	ld	ra,24(sp)
    300098e0:	01013403          	ld	s0,16(sp)
    300098e4:	00813483          	ld	s1,8(sp)
    300098e8:	02010113          	addi	sp,sp,32
    300098ec:	00008067          	ret
    300098f0:	00000513          	li	a0,0
    300098f4:	fe9ff06f          	j	300098dc <dfs_subdir+0x40>

00000000300098f8 <dfs_normalize_path>:
    300098f8:	fd010113          	addi	sp,sp,-48
    300098fc:	00913c23          	sd	s1,24(sp)
    30009900:	01213823          	sd	s2,16(sp)
    30009904:	02113423          	sd	ra,40(sp)
    30009908:	02813023          	sd	s0,32(sp)
    3000990c:	01313423          	sd	s3,8(sp)
    30009910:	00050913          	mv	s2,a0
    30009914:	00058493          	mv	s1,a1
    30009918:	00059e63          	bnez	a1,30009934 <dfs_normalize_path+0x3c>
    3000991c:	17c00613          	li	a2,380
    30009920:	4fffa597          	auipc	a1,0x4fffa
    30009924:	dc858593          	addi	a1,a1,-568 # 800036e8 <__FUNCTION__.4185>
    30009928:	4fffa517          	auipc	a0,0x4fffa
    3000992c:	d9850513          	addi	a0,a0,-616 # 800036c0 <__fsym_ls_name+0x118>
    30009930:	b68f80ef          	jal	ra,30001c98 <rt_assert_handler>
    30009934:	00091663          	bnez	s2,30009940 <dfs_normalize_path+0x48>
    30009938:	4fffa917          	auipc	s2,0x4fffa
    3000993c:	79090913          	addi	s2,s2,1936 # 800040c8 <working_directory>
    30009940:	0004c703          	lbu	a4,0(s1)
    30009944:	02f00793          	li	a5,47
    30009948:	0cf70c63          	beq	a4,a5,30009a20 <dfs_normalize_path+0x128>
    3000994c:	00090513          	mv	a0,s2
    30009950:	9e5f60ef          	jal	ra,30000334 <strlen>
    30009954:	00050413          	mv	s0,a0
    30009958:	00048513          	mv	a0,s1
    3000995c:	9d9f60ef          	jal	ra,30000334 <strlen>
    30009960:	00a40533          	add	a0,s0,a0
    30009964:	00250513          	addi	a0,a0,2
    30009968:	d5dfa0ef          	jal	ra,300046c4 <rt_malloc>
    3000996c:	00050413          	mv	s0,a0
    30009970:	02051463          	bnez	a0,30009998 <dfs_normalize_path+0xa0>
    30009974:	00000413          	li	s0,0
    30009978:	02813083          	ld	ra,40(sp)
    3000997c:	00040513          	mv	a0,s0
    30009980:	02013403          	ld	s0,32(sp)
    30009984:	01813483          	ld	s1,24(sp)
    30009988:	01013903          	ld	s2,16(sp)
    3000998c:	00813983          	ld	s3,8(sp)
    30009990:	03010113          	addi	sp,sp,48
    30009994:	00008067          	ret
    30009998:	00090513          	mv	a0,s2
    3000999c:	999f60ef          	jal	ra,30000334 <strlen>
    300099a0:	00050993          	mv	s3,a0
    300099a4:	00048513          	mv	a0,s1
    300099a8:	98df60ef          	jal	ra,30000334 <strlen>
    300099ac:	00a98533          	add	a0,s3,a0
    300099b0:	00250593          	addi	a1,a0,2
    300099b4:	00048713          	mv	a4,s1
    300099b8:	00090693          	mv	a3,s2
    300099bc:	4fff9617          	auipc	a2,0x4fff9
    300099c0:	25460613          	addi	a2,a2,596 # 80002c10 <__fsym___cmd_help_name+0x30>
    300099c4:	00040513          	mv	a0,s0
    300099c8:	860f80ef          	jal	ra,30001a28 <rt_snprintf>
    300099cc:	00040713          	mv	a4,s0
    300099d0:	00040793          	mv	a5,s0
    300099d4:	02e00513          	li	a0,46
    300099d8:	02f00613          	li	a2,47
    300099dc:	00074683          	lbu	a3,0(a4)
    300099e0:	00a69863          	bne	a3,a0,300099f0 <dfs_normalize_path+0xf8>
    300099e4:	00174683          	lbu	a3,1(a4)
    300099e8:	04069c63          	bnez	a3,30009a40 <dfs_normalize_path+0x148>
    300099ec:	00170713          	addi	a4,a4,1
    300099f0:	00074683          	lbu	a3,0(a4)
    300099f4:	00170713          	addi	a4,a4,1
    300099f8:	00078593          	mv	a1,a5
    300099fc:	0a068a63          	beqz	a3,30009ab0 <dfs_normalize_path+0x1b8>
    30009a00:	00178793          	addi	a5,a5,1
    30009a04:	08c69863          	bne	a3,a2,30009a94 <dfs_normalize_path+0x19c>
    30009a08:	00c58023          	sb	a2,0(a1)
    30009a0c:	00070693          	mv	a3,a4
    30009a10:	00074583          	lbu	a1,0(a4)
    30009a14:	00170713          	addi	a4,a4,1
    30009a18:	fec58ae3          	beq	a1,a2,30009a0c <dfs_normalize_path+0x114>
    30009a1c:	01c0006f          	j	30009a38 <dfs_normalize_path+0x140>
    30009a20:	00048513          	mv	a0,s1
    30009a24:	aa1f70ef          	jal	ra,300014c4 <rt_strdup>
    30009a28:	00050413          	mv	s0,a0
    30009a2c:	fa0510e3          	bnez	a0,300099cc <dfs_normalize_path+0xd4>
    30009a30:	f45ff06f          	j	30009974 <dfs_normalize_path+0x7c>
    30009a34:	00040793          	mv	a5,s0
    30009a38:	00068713          	mv	a4,a3
    30009a3c:	fa1ff06f          	j	300099dc <dfs_normalize_path+0xe4>
    30009a40:	00c69c63          	bne	a3,a2,30009a58 <dfs_normalize_path+0x160>
    30009a44:	00270693          	addi	a3,a4,2
    30009a48:	0006c703          	lbu	a4,0(a3)
    30009a4c:	fec716e3          	bne	a4,a2,30009a38 <dfs_normalize_path+0x140>
    30009a50:	00168693          	addi	a3,a3,1
    30009a54:	ff5ff06f          	j	30009a48 <dfs_normalize_path+0x150>
    30009a58:	f8a69ce3          	bne	a3,a0,300099f0 <dfs_normalize_path+0xf8>
    30009a5c:	00274683          	lbu	a3,2(a4)
    30009a60:	00069e63          	bnez	a3,30009a7c <dfs_normalize_path+0x184>
    30009a64:	00270693          	addi	a3,a4,2
    30009a68:	fff78793          	addi	a5,a5,-1
    30009a6c:	0287fa63          	bgeu	a5,s0,30009aa0 <dfs_normalize_path+0x1a8>
    30009a70:	00040513          	mv	a0,s0
    30009a74:	f85fa0ef          	jal	ra,300049f8 <rt_free>
    30009a78:	efdff06f          	j	30009974 <dfs_normalize_path+0x7c>
    30009a7c:	f6c69ae3          	bne	a3,a2,300099f0 <dfs_normalize_path+0xf8>
    30009a80:	00370693          	addi	a3,a4,3
    30009a84:	0006c703          	lbu	a4,0(a3)
    30009a88:	fec710e3          	bne	a4,a2,30009a68 <dfs_normalize_path+0x170>
    30009a8c:	00168693          	addi	a3,a3,1
    30009a90:	ff5ff06f          	j	30009a84 <dfs_normalize_path+0x18c>
    30009a94:	fed78fa3          	sb	a3,-1(a5)
    30009a98:	f59ff06f          	j	300099f0 <dfs_normalize_path+0xf8>
    30009a9c:	fff78793          	addi	a5,a5,-1
    30009aa0:	f8f40ae3          	beq	s0,a5,30009a34 <dfs_normalize_path+0x13c>
    30009aa4:	fff7c703          	lbu	a4,-1(a5)
    30009aa8:	fec71ae3          	bne	a4,a2,30009a9c <dfs_normalize_path+0x1a4>
    30009aac:	f8dff06f          	j	30009a38 <dfs_normalize_path+0x140>
    30009ab0:	00078023          	sb	zero,0(a5)
    30009ab4:	fff78713          	addi	a4,a5,-1
    30009ab8:	00e40a63          	beq	s0,a4,30009acc <dfs_normalize_path+0x1d4>
    30009abc:	fff7c683          	lbu	a3,-1(a5)
    30009ac0:	02f00713          	li	a4,47
    30009ac4:	00e69463          	bne	a3,a4,30009acc <dfs_normalize_path+0x1d4>
    30009ac8:	fe078fa3          	sb	zero,-1(a5)
    30009acc:	00044783          	lbu	a5,0(s0)
    30009ad0:	ea0794e3          	bnez	a5,30009978 <dfs_normalize_path+0x80>
    30009ad4:	02f00793          	li	a5,47
    30009ad8:	00f40023          	sb	a5,0(s0)
    30009adc:	000400a3          	sb	zero,1(s0)
    30009ae0:	e99ff06f          	j	30009978 <dfs_normalize_path+0x80>

0000000030009ae4 <fd_is_open>:
    30009ae4:	fc010113          	addi	sp,sp,-64
    30009ae8:	00050593          	mv	a1,a0
    30009aec:	00000513          	li	a0,0
    30009af0:	02113c23          	sd	ra,56(sp)
    30009af4:	02813823          	sd	s0,48(sp)
    30009af8:	02913423          	sd	s1,40(sp)
    30009afc:	03213023          	sd	s2,32(sp)
    30009b00:	01313c23          	sd	s3,24(sp)
    30009b04:	01413823          	sd	s4,16(sp)
    30009b08:	01513423          	sd	s5,8(sp)
    30009b0c:	01613023          	sd	s6,0(sp)
    30009b10:	de9ff0ef          	jal	ra,300098f8 <dfs_normalize_path>
    30009b14:	00050e63          	beqz	a0,30009b30 <fd_is_open+0x4c>
    30009b18:	00050413          	mv	s0,a0
    30009b1c:	0f9000ef          	jal	ra,3000a414 <dfs_filesystem_lookup>
    30009b20:	00050913          	mv	s2,a0
    30009b24:	00051a63          	bnez	a0,30009b38 <fd_is_open+0x54>
    30009b28:	00040513          	mv	a0,s0
    30009b2c:	ecdfa0ef          	jal	ra,300049f8 <rt_free>
    30009b30:	fff00493          	li	s1,-1
    30009b34:	0940006f          	j	30009bc8 <fd_is_open+0xe4>
    30009b38:	00853503          	ld	a0,8(a0)
    30009b3c:	02f00793          	li	a5,47
    30009b40:	00054703          	lbu	a4,0(a0)
    30009b44:	00f71863          	bne	a4,a5,30009b54 <fd_is_open+0x70>
    30009b48:	00154783          	lbu	a5,1(a0)
    30009b4c:	00040a13          	mv	s4,s0
    30009b50:	00078663          	beqz	a5,30009b5c <fd_is_open+0x78>
    30009b54:	fe0f60ef          	jal	ra,30000334 <strlen>
    30009b58:	00a40a33          	add	s4,s0,a0
    30009b5c:	a2dff0ef          	jal	ra,30009588 <dfs_lock>
    30009b60:	50004797          	auipc	a5,0x50004
    30009b64:	81878793          	addi	a5,a5,-2024 # 8000d378 <_fdtab>
    30009b68:	0007aa83          	lw	s5,0(a5)
    30009b6c:	0087bb03          	ld	s6,8(a5)
    30009b70:	00000993          	li	s3,0
    30009b74:	0009879b          	sext.w	a5,s3
    30009b78:	0157e663          	bltu	a5,s5,30009b84 <fd_is_open+0xa0>
    30009b7c:	a79ff0ef          	jal	ra,300095f4 <dfs_unlock>
    30009b80:	fa9ff06f          	j	30009b28 <fd_is_open+0x44>
    30009b84:	00399793          	slli	a5,s3,0x3
    30009b88:	00fb07b3          	add	a5,s6,a5
    30009b8c:	0007b783          	ld	a5,0(a5)
    30009b90:	06078263          	beqz	a5,30009bf4 <fd_is_open+0x110>
    30009b94:	0207b703          	ld	a4,32(a5)
    30009b98:	04070e63          	beqz	a4,30009bf4 <fd_is_open+0x110>
    30009b9c:	0087b503          	ld	a0,8(a5)
    30009ba0:	04050a63          	beqz	a0,30009bf4 <fd_is_open+0x110>
    30009ba4:	0187b783          	ld	a5,24(a5)
    30009ba8:	05279663          	bne	a5,s2,30009bf4 <fd_is_open+0x110>
    30009bac:	000a0593          	mv	a1,s4
    30009bb0:	fe8f60ef          	jal	ra,30000398 <strcmp>
    30009bb4:	00050493          	mv	s1,a0
    30009bb8:	02051e63          	bnez	a0,30009bf4 <fd_is_open+0x110>
    30009bbc:	00040513          	mv	a0,s0
    30009bc0:	e39fa0ef          	jal	ra,300049f8 <rt_free>
    30009bc4:	a31ff0ef          	jal	ra,300095f4 <dfs_unlock>
    30009bc8:	03813083          	ld	ra,56(sp)
    30009bcc:	03013403          	ld	s0,48(sp)
    30009bd0:	02013903          	ld	s2,32(sp)
    30009bd4:	01813983          	ld	s3,24(sp)
    30009bd8:	01013a03          	ld	s4,16(sp)
    30009bdc:	00813a83          	ld	s5,8(sp)
    30009be0:	00013b03          	ld	s6,0(sp)
    30009be4:	00048513          	mv	a0,s1
    30009be8:	02813483          	ld	s1,40(sp)
    30009bec:	04010113          	addi	sp,sp,64
    30009bf0:	00008067          	ret
    30009bf4:	00198993          	addi	s3,s3,1
    30009bf8:	f7dff06f          	j	30009b74 <fd_is_open+0x90>

0000000030009bfc <mkdir>:
    30009bfc:	fe010113          	addi	sp,sp,-32
    30009c00:	00913423          	sd	s1,8(sp)
    30009c04:	00113c23          	sd	ra,24(sp)
    30009c08:	00813823          	sd	s0,16(sp)
    30009c0c:	00050493          	mv	s1,a0
    30009c10:	9f1ff0ef          	jal	ra,30009600 <fd_new>
    30009c14:	fff00793          	li	a5,-1
    30009c18:	02f51463          	bne	a0,a5,30009c40 <mkdir+0x44>
    30009c1c:	00050413          	mv	s0,a0
    30009c20:	ff400513          	li	a0,-12
    30009c24:	cd0f70ef          	jal	ra,300010f4 <rt_set_errno>
    30009c28:	01813083          	ld	ra,24(sp)
    30009c2c:	00040513          	mv	a0,s0
    30009c30:	01013403          	ld	s0,16(sp)
    30009c34:	00813483          	ld	s1,8(sp)
    30009c38:	02010113          	addi	sp,sp,32
    30009c3c:	00008067          	ret
    30009c40:	b25ff0ef          	jal	ra,30009764 <fd_get>
    30009c44:	00010637          	lui	a2,0x10
    30009c48:	00048593          	mv	a1,s1
    30009c4c:	04060613          	addi	a2,a2,64 # 10040 <__stack_size+0xf840>
    30009c50:	00050413          	mv	s0,a0
    30009c54:	9b1fe0ef          	jal	ra,30008604 <dfs_file_open>
    30009c58:	00050493          	mv	s1,a0
    30009c5c:	00040513          	mv	a0,s0
    30009c60:	0204d063          	bgez	s1,30009c80 <mkdir+0x84>
    30009c64:	b91ff0ef          	jal	ra,300097f4 <fd_put>
    30009c68:	00040513          	mv	a0,s0
    30009c6c:	b89ff0ef          	jal	ra,300097f4 <fd_put>
    30009c70:	00048513          	mv	a0,s1
    30009c74:	c80f70ef          	jal	ra,300010f4 <rt_set_errno>
    30009c78:	fff00413          	li	s0,-1
    30009c7c:	fadff06f          	j	30009c28 <mkdir+0x2c>
    30009c80:	ae1fe0ef          	jal	ra,30008760 <dfs_file_close>
    30009c84:	00040513          	mv	a0,s0
    30009c88:	b6dff0ef          	jal	ra,300097f4 <fd_put>
    30009c8c:	00040513          	mv	a0,s0
    30009c90:	b65ff0ef          	jal	ra,300097f4 <fd_put>
    30009c94:	00000413          	li	s0,0
    30009c98:	f91ff06f          	j	30009c28 <mkdir+0x2c>

0000000030009c9c <open>:
    30009c9c:	fa010113          	addi	sp,sp,-96
    30009ca0:	01213823          	sd	s2,16(sp)
    30009ca4:	01313423          	sd	s3,8(sp)
    30009ca8:	02113423          	sd	ra,40(sp)
    30009cac:	02813023          	sd	s0,32(sp)
    30009cb0:	00913c23          	sd	s1,24(sp)
    30009cb4:	00050913          	mv	s2,a0
    30009cb8:	00058993          	mv	s3,a1
    30009cbc:	02c13823          	sd	a2,48(sp)
    30009cc0:	02d13c23          	sd	a3,56(sp)
    30009cc4:	04e13023          	sd	a4,64(sp)
    30009cc8:	04f13423          	sd	a5,72(sp)
    30009ccc:	05013823          	sd	a6,80(sp)
    30009cd0:	05113c23          	sd	a7,88(sp)
    30009cd4:	92dff0ef          	jal	ra,30009600 <fd_new>
    30009cd8:	02055863          	bgez	a0,30009d08 <open+0x6c>
    30009cdc:	ff400513          	li	a0,-12
    30009ce0:	c14f70ef          	jal	ra,300010f4 <rt_set_errno>
    30009ce4:	fff00413          	li	s0,-1
    30009ce8:	02813083          	ld	ra,40(sp)
    30009cec:	00040513          	mv	a0,s0
    30009cf0:	02013403          	ld	s0,32(sp)
    30009cf4:	01813483          	ld	s1,24(sp)
    30009cf8:	01013903          	ld	s2,16(sp)
    30009cfc:	00813983          	ld	s3,8(sp)
    30009d00:	06010113          	addi	sp,sp,96
    30009d04:	00008067          	ret
    30009d08:	00050413          	mv	s0,a0
    30009d0c:	a59ff0ef          	jal	ra,30009764 <fd_get>
    30009d10:	00090593          	mv	a1,s2
    30009d14:	00098613          	mv	a2,s3
    30009d18:	00050493          	mv	s1,a0
    30009d1c:	8e9fe0ef          	jal	ra,30008604 <dfs_file_open>
    30009d20:	00050913          	mv	s2,a0
    30009d24:	00048513          	mv	a0,s1
    30009d28:	00095c63          	bgez	s2,30009d40 <open+0xa4>
    30009d2c:	ac9ff0ef          	jal	ra,300097f4 <fd_put>
    30009d30:	00048513          	mv	a0,s1
    30009d34:	ac1ff0ef          	jal	ra,300097f4 <fd_put>
    30009d38:	00090513          	mv	a0,s2
    30009d3c:	fa5ff06f          	j	30009ce0 <open+0x44>
    30009d40:	ab5ff0ef          	jal	ra,300097f4 <fd_put>
    30009d44:	fa5ff06f          	j	30009ce8 <open+0x4c>

0000000030009d48 <close>:
    30009d48:	fe010113          	addi	sp,sp,-32
    30009d4c:	00113c23          	sd	ra,24(sp)
    30009d50:	00813823          	sd	s0,16(sp)
    30009d54:	00913423          	sd	s1,8(sp)
    30009d58:	a0dff0ef          	jal	ra,30009764 <fd_get>
    30009d5c:	02051263          	bnez	a0,30009d80 <close+0x38>
    30009d60:	ff700513          	li	a0,-9
    30009d64:	b90f70ef          	jal	ra,300010f4 <rt_set_errno>
    30009d68:	fff00513          	li	a0,-1
    30009d6c:	01813083          	ld	ra,24(sp)
    30009d70:	01013403          	ld	s0,16(sp)
    30009d74:	00813483          	ld	s1,8(sp)
    30009d78:	02010113          	addi	sp,sp,32
    30009d7c:	00008067          	ret
    30009d80:	00050413          	mv	s0,a0
    30009d84:	9ddfe0ef          	jal	ra,30008760 <dfs_file_close>
    30009d88:	00050493          	mv	s1,a0
    30009d8c:	00040513          	mv	a0,s0
    30009d90:	a65ff0ef          	jal	ra,300097f4 <fd_put>
    30009d94:	0004d663          	bgez	s1,30009da0 <close+0x58>
    30009d98:	00048513          	mv	a0,s1
    30009d9c:	fc9ff06f          	j	30009d64 <close+0x1c>
    30009da0:	00040513          	mv	a0,s0
    30009da4:	a51ff0ef          	jal	ra,300097f4 <fd_put>
    30009da8:	00000513          	li	a0,0
    30009dac:	fc1ff06f          	j	30009d6c <close+0x24>

0000000030009db0 <read>:
    30009db0:	fd010113          	addi	sp,sp,-48
    30009db4:	00b13423          	sd	a1,8(sp)
    30009db8:	00c13023          	sd	a2,0(sp)
    30009dbc:	02113423          	sd	ra,40(sp)
    30009dc0:	02813023          	sd	s0,32(sp)
    30009dc4:	00913c23          	sd	s1,24(sp)
    30009dc8:	99dff0ef          	jal	ra,30009764 <fd_get>
    30009dcc:	00013603          	ld	a2,0(sp)
    30009dd0:	00813583          	ld	a1,8(sp)
    30009dd4:	02051463          	bnez	a0,30009dfc <read+0x4c>
    30009dd8:	ff700513          	li	a0,-9
    30009ddc:	b18f70ef          	jal	ra,300010f4 <rt_set_errno>
    30009de0:	fff00413          	li	s0,-1
    30009de4:	02813083          	ld	ra,40(sp)
    30009de8:	00040513          	mv	a0,s0
    30009dec:	02013403          	ld	s0,32(sp)
    30009df0:	01813483          	ld	s1,24(sp)
    30009df4:	03010113          	addi	sp,sp,48
    30009df8:	00008067          	ret
    30009dfc:	00050493          	mv	s1,a0
    30009e00:	9c1fe0ef          	jal	ra,300087c0 <dfs_file_read>
    30009e04:	00050413          	mv	s0,a0
    30009e08:	00048513          	mv	a0,s1
    30009e0c:	00045863          	bgez	s0,30009e1c <read+0x6c>
    30009e10:	9e5ff0ef          	jal	ra,300097f4 <fd_put>
    30009e14:	00040513          	mv	a0,s0
    30009e18:	fc5ff06f          	j	30009ddc <read+0x2c>
    30009e1c:	9d9ff0ef          	jal	ra,300097f4 <fd_put>
    30009e20:	fc5ff06f          	j	30009de4 <read+0x34>

0000000030009e24 <write>:
    30009e24:	fd010113          	addi	sp,sp,-48
    30009e28:	00b13423          	sd	a1,8(sp)
    30009e2c:	00c13023          	sd	a2,0(sp)
    30009e30:	02113423          	sd	ra,40(sp)
    30009e34:	02813023          	sd	s0,32(sp)
    30009e38:	00913c23          	sd	s1,24(sp)
    30009e3c:	929ff0ef          	jal	ra,30009764 <fd_get>
    30009e40:	00013603          	ld	a2,0(sp)
    30009e44:	00813583          	ld	a1,8(sp)
    30009e48:	02051463          	bnez	a0,30009e70 <write+0x4c>
    30009e4c:	ff700513          	li	a0,-9
    30009e50:	aa4f70ef          	jal	ra,300010f4 <rt_set_errno>
    30009e54:	fff00413          	li	s0,-1
    30009e58:	02813083          	ld	ra,40(sp)
    30009e5c:	00040513          	mv	a0,s0
    30009e60:	02013403          	ld	s0,32(sp)
    30009e64:	01813483          	ld	s1,24(sp)
    30009e68:	03010113          	addi	sp,sp,48
    30009e6c:	00008067          	ret
    30009e70:	00050493          	mv	s1,a0
    30009e74:	ba1fe0ef          	jal	ra,30008a14 <dfs_file_write>
    30009e78:	00050413          	mv	s0,a0
    30009e7c:	00048513          	mv	a0,s1
    30009e80:	00045863          	bgez	s0,30009e90 <write+0x6c>
    30009e84:	971ff0ef          	jal	ra,300097f4 <fd_put>
    30009e88:	00040513          	mv	a0,s0
    30009e8c:	fc5ff06f          	j	30009e50 <write+0x2c>
    30009e90:	965ff0ef          	jal	ra,300097f4 <fd_put>
    30009e94:	fc5ff06f          	j	30009e58 <write+0x34>

0000000030009e98 <lseek>:
    30009e98:	fe010113          	addi	sp,sp,-32
    30009e9c:	00813823          	sd	s0,16(sp)
    30009ea0:	01213023          	sd	s2,0(sp)
    30009ea4:	00113c23          	sd	ra,24(sp)
    30009ea8:	00913423          	sd	s1,8(sp)
    30009eac:	00058413          	mv	s0,a1
    30009eb0:	00060913          	mv	s2,a2
    30009eb4:	8b1ff0ef          	jal	ra,30009764 <fd_get>
    30009eb8:	02051663          	bnez	a0,30009ee4 <lseek+0x4c>
    30009ebc:	ff700513          	li	a0,-9
    30009ec0:	a34f70ef          	jal	ra,300010f4 <rt_set_errno>
    30009ec4:	fff00413          	li	s0,-1
    30009ec8:	01813083          	ld	ra,24(sp)
    30009ecc:	00040513          	mv	a0,s0
    30009ed0:	01013403          	ld	s0,16(sp)
    30009ed4:	00813483          	ld	s1,8(sp)
    30009ed8:	00013903          	ld	s2,0(sp)
    30009edc:	02010113          	addi	sp,sp,32
    30009ee0:	00008067          	ret
    30009ee4:	00100793          	li	a5,1
    30009ee8:	00050493          	mv	s1,a0
    30009eec:	02f90c63          	beq	s2,a5,30009f24 <lseek+0x8c>
    30009ef0:	00200793          	li	a5,2
    30009ef4:	02f90e63          	beq	s2,a5,30009f30 <lseek+0x98>
    30009ef8:	04091063          	bnez	s2,30009f38 <lseek+0xa0>
    30009efc:	00048513          	mv	a0,s1
    30009f00:	02044c63          	bltz	s0,30009f38 <lseek+0xa0>
    30009f04:	00040593          	mv	a1,s0
    30009f08:	c4dfe0ef          	jal	ra,30008b54 <dfs_file_lseek>
    30009f0c:	00050913          	mv	s2,a0
    30009f10:	00048513          	mv	a0,s1
    30009f14:	02095863          	bgez	s2,30009f44 <lseek+0xac>
    30009f18:	8ddff0ef          	jal	ra,300097f4 <fd_put>
    30009f1c:	00090513          	mv	a0,s2
    30009f20:	fa1ff06f          	j	30009ec0 <lseek+0x28>
    30009f24:	03853783          	ld	a5,56(a0)
    30009f28:	00f40433          	add	s0,s0,a5
    30009f2c:	fd1ff06f          	j	30009efc <lseek+0x64>
    30009f30:	03053783          	ld	a5,48(a0)
    30009f34:	ff5ff06f          	j	30009f28 <lseek+0x90>
    30009f38:	8bdff0ef          	jal	ra,300097f4 <fd_put>
    30009f3c:	fea00513          	li	a0,-22
    30009f40:	f81ff06f          	j	30009ec0 <lseek+0x28>
    30009f44:	8b1ff0ef          	jal	ra,300097f4 <fd_put>
    30009f48:	f81ff06f          	j	30009ec8 <lseek+0x30>

0000000030009f4c <rename>:
    30009f4c:	ff010113          	addi	sp,sp,-16
    30009f50:	00113423          	sd	ra,8(sp)
    30009f54:	ab4ff0ef          	jal	ra,30009208 <dfs_file_rename>
    30009f58:	00055c63          	bgez	a0,30009f70 <rename+0x24>
    30009f5c:	998f70ef          	jal	ra,300010f4 <rt_set_errno>
    30009f60:	fff00513          	li	a0,-1
    30009f64:	00813083          	ld	ra,8(sp)
    30009f68:	01010113          	addi	sp,sp,16
    30009f6c:	00008067          	ret
    30009f70:	00000513          	li	a0,0
    30009f74:	ff1ff06f          	j	30009f64 <rename+0x18>

0000000030009f78 <unlink>:
    30009f78:	ff010113          	addi	sp,sp,-16
    30009f7c:	00113423          	sd	ra,8(sp)
    30009f80:	979fe0ef          	jal	ra,300088f8 <dfs_file_unlink>
    30009f84:	00055c63          	bgez	a0,30009f9c <unlink+0x24>
    30009f88:	96cf70ef          	jal	ra,300010f4 <rt_set_errno>
    30009f8c:	fff00513          	li	a0,-1
    30009f90:	00813083          	ld	ra,8(sp)
    30009f94:	01010113          	addi	sp,sp,16
    30009f98:	00008067          	ret
    30009f9c:	00000513          	li	a0,0
    30009fa0:	ff1ff06f          	j	30009f90 <unlink+0x18>

0000000030009fa4 <stat>:
    30009fa4:	ff010113          	addi	sp,sp,-16
    30009fa8:	00113423          	sd	ra,8(sp)
    30009fac:	bfdfe0ef          	jal	ra,30008ba8 <dfs_file_stat>
    30009fb0:	00050793          	mv	a5,a0
    30009fb4:	00055663          	bgez	a0,30009fc0 <stat+0x1c>
    30009fb8:	93cf70ef          	jal	ra,300010f4 <rt_set_errno>
    30009fbc:	fff00793          	li	a5,-1
    30009fc0:	00813083          	ld	ra,8(sp)
    30009fc4:	00078513          	mv	a0,a5
    30009fc8:	01010113          	addi	sp,sp,16
    30009fcc:	00008067          	ret

0000000030009fd0 <opendir>:
    30009fd0:	fe010113          	addi	sp,sp,-32
    30009fd4:	00813823          	sd	s0,16(sp)
    30009fd8:	00113c23          	sd	ra,24(sp)
    30009fdc:	00913423          	sd	s1,8(sp)
    30009fe0:	01213023          	sd	s2,0(sp)
    30009fe4:	00050413          	mv	s0,a0
    30009fe8:	e18ff0ef          	jal	ra,30009600 <fd_new>
    30009fec:	fff00793          	li	a5,-1
    30009ff0:	00f51a63          	bne	a0,a5,3000a004 <opendir+0x34>
    30009ff4:	ff400513          	li	a0,-12
    30009ff8:	8fcf70ef          	jal	ra,300010f4 <rt_set_errno>
    30009ffc:	00000413          	li	s0,0
    3000a000:	04c0006f          	j	3000a04c <opendir+0x7c>
    3000a004:	00050913          	mv	s2,a0
    3000a008:	f5cff0ef          	jal	ra,30009764 <fd_get>
    3000a00c:	00040593          	mv	a1,s0
    3000a010:	00010637          	lui	a2,0x10
    3000a014:	00050493          	mv	s1,a0
    3000a018:	decfe0ef          	jal	ra,30008604 <dfs_file_open>
    3000a01c:	00050413          	mv	s0,a0
    3000a020:	04054e63          	bltz	a0,3000a07c <opendir+0xac>
    3000a024:	20c00513          	li	a0,524
    3000a028:	e9cfa0ef          	jal	ra,300046c4 <rt_malloc>
    3000a02c:	00050413          	mv	s0,a0
    3000a030:	02051c63          	bnez	a0,3000a068 <opendir+0x98>
    3000a034:	00048513          	mv	a0,s1
    3000a038:	f28fe0ef          	jal	ra,30008760 <dfs_file_close>
    3000a03c:	00048513          	mv	a0,s1
    3000a040:	fb4ff0ef          	jal	ra,300097f4 <fd_put>
    3000a044:	00048513          	mv	a0,s1
    3000a048:	facff0ef          	jal	ra,300097f4 <fd_put>
    3000a04c:	01813083          	ld	ra,24(sp)
    3000a050:	00040513          	mv	a0,s0
    3000a054:	01013403          	ld	s0,16(sp)
    3000a058:	00813483          	ld	s1,8(sp)
    3000a05c:	00013903          	ld	s2,0(sp)
    3000a060:	02010113          	addi	sp,sp,32
    3000a064:	00008067          	ret
    3000a068:	20c00613          	li	a2,524
    3000a06c:	00000593          	li	a1,0
    3000a070:	b30f60ef          	jal	ra,300003a0 <memset>
    3000a074:	01242023          	sw	s2,0(s0)
    3000a078:	fcdff06f          	j	3000a044 <opendir+0x74>
    3000a07c:	00048513          	mv	a0,s1
    3000a080:	f74ff0ef          	jal	ra,300097f4 <fd_put>
    3000a084:	00048513          	mv	a0,s1
    3000a088:	f6cff0ef          	jal	ra,300097f4 <fd_put>
    3000a08c:	00040513          	mv	a0,s0
    3000a090:	f69ff06f          	j	30009ff8 <opendir+0x28>

000000003000a094 <readdir>:
    3000a094:	fd010113          	addi	sp,sp,-48
    3000a098:	00913c23          	sd	s1,24(sp)
    3000a09c:	00050493          	mv	s1,a0
    3000a0a0:	00052503          	lw	a0,0(a0)
    3000a0a4:	02813023          	sd	s0,32(sp)
    3000a0a8:	02113423          	sd	ra,40(sp)
    3000a0ac:	01213823          	sd	s2,16(sp)
    3000a0b0:	01313423          	sd	s3,8(sp)
    3000a0b4:	eb0ff0ef          	jal	ra,30009764 <fd_get>
    3000a0b8:	00050413          	mv	s0,a0
    3000a0bc:	02051663          	bnez	a0,3000a0e8 <readdir+0x54>
    3000a0c0:	ff700513          	li	a0,-9
    3000a0c4:	830f70ef          	jal	ra,300010f4 <rt_set_errno>
    3000a0c8:	02813083          	ld	ra,40(sp)
    3000a0cc:	00040513          	mv	a0,s0
    3000a0d0:	02013403          	ld	s0,32(sp)
    3000a0d4:	01813483          	ld	s1,24(sp)
    3000a0d8:	01013903          	ld	s2,16(sp)
    3000a0dc:	00813983          	ld	s3,8(sp)
    3000a0e0:	03010113          	addi	sp,sp,48
    3000a0e4:	00008067          	ret
    3000a0e8:	2044a703          	lw	a4,516(s1)
    3000a0ec:	00448993          	addi	s3,s1,4
    3000a0f0:	02071a63          	bnez	a4,3000a124 <readdir+0x90>
    3000a0f4:	1ff00613          	li	a2,511
    3000a0f8:	00098593          	mv	a1,s3
    3000a0fc:	00040513          	mv	a0,s0
    3000a100:	fc4fe0ef          	jal	ra,300088c4 <dfs_file_getdents>
    3000a104:	00050913          	mv	s2,a0
    3000a108:	04a04463          	bgtz	a0,3000a150 <readdir+0xbc>
    3000a10c:	00040513          	mv	a0,s0
    3000a110:	ee4ff0ef          	jal	ra,300097f4 <fd_put>
    3000a114:	00090513          	mv	a0,s2
    3000a118:	fddf60ef          	jal	ra,300010f4 <rt_set_errno>
    3000a11c:	00000413          	li	s0,0
    3000a120:	fa9ff06f          	j	3000a0c8 <readdir+0x34>
    3000a124:	2084a683          	lw	a3,520(s1)
    3000a128:	00d487b3          	add	a5,s1,a3
    3000a12c:	0067d783          	lhu	a5,6(a5)
    3000a130:	00d786bb          	addw	a3,a5,a3
    3000a134:	20d4a423          	sw	a3,520(s1)
    3000a138:	fae6dee3          	bge	a3,a4,3000a0f4 <readdir+0x60>
    3000a13c:	00040513          	mv	a0,s0
    3000a140:	eb4ff0ef          	jal	ra,300097f4 <fd_put>
    3000a144:	2084a403          	lw	s0,520(s1)
    3000a148:	00898433          	add	s0,s3,s0
    3000a14c:	f7dff06f          	j	3000a0c8 <readdir+0x34>
    3000a150:	20a4a223          	sw	a0,516(s1)
    3000a154:	2004a423          	sw	zero,520(s1)
    3000a158:	fe5ff06f          	j	3000a13c <readdir+0xa8>

000000003000a15c <rewinddir>:
    3000a15c:	fe010113          	addi	sp,sp,-32
    3000a160:	00813823          	sd	s0,16(sp)
    3000a164:	00050413          	mv	s0,a0
    3000a168:	00052503          	lw	a0,0(a0)
    3000a16c:	00113c23          	sd	ra,24(sp)
    3000a170:	00913423          	sd	s1,8(sp)
    3000a174:	df0ff0ef          	jal	ra,30009764 <fd_get>
    3000a178:	00051e63          	bnez	a0,3000a194 <rewinddir+0x38>
    3000a17c:	01013403          	ld	s0,16(sp)
    3000a180:	01813083          	ld	ra,24(sp)
    3000a184:	00813483          	ld	s1,8(sp)
    3000a188:	ff700513          	li	a0,-9
    3000a18c:	02010113          	addi	sp,sp,32
    3000a190:	f65f606f          	j	300010f4 <rt_set_errno>
    3000a194:	00000593          	li	a1,0
    3000a198:	00050493          	mv	s1,a0
    3000a19c:	9b9fe0ef          	jal	ra,30008b54 <dfs_file_lseek>
    3000a1a0:	00054663          	bltz	a0,3000a1ac <rewinddir+0x50>
    3000a1a4:	20042423          	sw	zero,520(s0)
    3000a1a8:	20042223          	sw	zero,516(s0)
    3000a1ac:	01013403          	ld	s0,16(sp)
    3000a1b0:	01813083          	ld	ra,24(sp)
    3000a1b4:	00048513          	mv	a0,s1
    3000a1b8:	00813483          	ld	s1,8(sp)
    3000a1bc:	02010113          	addi	sp,sp,32
    3000a1c0:	e34ff06f          	j	300097f4 <fd_put>

000000003000a1c4 <closedir>:
    3000a1c4:	fe010113          	addi	sp,sp,-32
    3000a1c8:	01213023          	sd	s2,0(sp)
    3000a1cc:	00050913          	mv	s2,a0
    3000a1d0:	00052503          	lw	a0,0(a0)
    3000a1d4:	00113c23          	sd	ra,24(sp)
    3000a1d8:	00813823          	sd	s0,16(sp)
    3000a1dc:	00913423          	sd	s1,8(sp)
    3000a1e0:	d84ff0ef          	jal	ra,30009764 <fd_get>
    3000a1e4:	02051463          	bnez	a0,3000a20c <closedir+0x48>
    3000a1e8:	ff700513          	li	a0,-9
    3000a1ec:	f09f60ef          	jal	ra,300010f4 <rt_set_errno>
    3000a1f0:	fff00513          	li	a0,-1
    3000a1f4:	01813083          	ld	ra,24(sp)
    3000a1f8:	01013403          	ld	s0,16(sp)
    3000a1fc:	00813483          	ld	s1,8(sp)
    3000a200:	00013903          	ld	s2,0(sp)
    3000a204:	02010113          	addi	sp,sp,32
    3000a208:	00008067          	ret
    3000a20c:	00050413          	mv	s0,a0
    3000a210:	d50fe0ef          	jal	ra,30008760 <dfs_file_close>
    3000a214:	00050493          	mv	s1,a0
    3000a218:	00040513          	mv	a0,s0
    3000a21c:	dd8ff0ef          	jal	ra,300097f4 <fd_put>
    3000a220:	00040513          	mv	a0,s0
    3000a224:	dd0ff0ef          	jal	ra,300097f4 <fd_put>
    3000a228:	00090513          	mv	a0,s2
    3000a22c:	fccfa0ef          	jal	ra,300049f8 <rt_free>
    3000a230:	00000513          	li	a0,0
    3000a234:	fc04d0e3          	bgez	s1,3000a1f4 <closedir+0x30>
    3000a238:	00048513          	mv	a0,s1
    3000a23c:	fb1ff06f          	j	3000a1ec <closedir+0x28>

000000003000a240 <chdir>:
    3000a240:	fe010113          	addi	sp,sp,-32
    3000a244:	00113c23          	sd	ra,24(sp)
    3000a248:	00813823          	sd	s0,16(sp)
    3000a24c:	02051463          	bnez	a0,3000a274 <chdir+0x34>
    3000a250:	b38ff0ef          	jal	ra,30009588 <dfs_lock>
    3000a254:	4fffa597          	auipc	a1,0x4fffa
    3000a258:	e7458593          	addi	a1,a1,-396 # 800040c8 <working_directory>
    3000a25c:	4fff9517          	auipc	a0,0x4fff9
    3000a260:	8bc50513          	addi	a0,a0,-1860 # 80002b18 <__FUNCTION__.4547+0x48>
    3000a264:	8b9f70ef          	jal	ra,30001b1c <rt_kprintf>
    3000a268:	b8cff0ef          	jal	ra,300095f4 <dfs_unlock>
    3000a26c:	00000513          	li	a0,0
    3000a270:	0240006f          	j	3000a294 <chdir+0x54>
    3000a274:	00a13423          	sd	a0,8(sp)
    3000a278:	8bcf60ef          	jal	ra,30000334 <strlen>
    3000a27c:	10000793          	li	a5,256
    3000a280:	00813583          	ld	a1,8(sp)
    3000a284:	02a7f063          	bgeu	a5,a0,3000a2a4 <chdir+0x64>
    3000a288:	fec00513          	li	a0,-20
    3000a28c:	e69f60ef          	jal	ra,300010f4 <rt_set_errno>
    3000a290:	fff00513          	li	a0,-1
    3000a294:	01813083          	ld	ra,24(sp)
    3000a298:	01013403          	ld	s0,16(sp)
    3000a29c:	02010113          	addi	sp,sp,32
    3000a2a0:	00008067          	ret
    3000a2a4:	00000513          	li	a0,0
    3000a2a8:	e50ff0ef          	jal	ra,300098f8 <dfs_normalize_path>
    3000a2ac:	00050413          	mv	s0,a0
    3000a2b0:	fc050ce3          	beqz	a0,3000a288 <chdir+0x48>
    3000a2b4:	ad4ff0ef          	jal	ra,30009588 <dfs_lock>
    3000a2b8:	00040513          	mv	a0,s0
    3000a2bc:	d15ff0ef          	jal	ra,30009fd0 <opendir>
    3000a2c0:	00051a63          	bnez	a0,3000a2d4 <chdir+0x94>
    3000a2c4:	00040513          	mv	a0,s0
    3000a2c8:	f30fa0ef          	jal	ra,300049f8 <rt_free>
    3000a2cc:	b28ff0ef          	jal	ra,300095f4 <dfs_unlock>
    3000a2d0:	fc1ff06f          	j	3000a290 <chdir+0x50>
    3000a2d4:	ef1ff0ef          	jal	ra,3000a1c4 <closedir>
    3000a2d8:	10000613          	li	a2,256
    3000a2dc:	00040593          	mv	a1,s0
    3000a2e0:	4fffa517          	auipc	a0,0x4fffa
    3000a2e4:	de850513          	addi	a0,a0,-536 # 800040c8 <working_directory>
    3000a2e8:	874f60ef          	jal	ra,3000035c <strncpy>
    3000a2ec:	00040513          	mv	a0,s0
    3000a2f0:	f08fa0ef          	jal	ra,300049f8 <rt_free>
    3000a2f4:	f75ff06f          	j	3000a268 <chdir+0x28>

000000003000a2f8 <getcwd>:
    3000a2f8:	fe010113          	addi	sp,sp,-32
    3000a2fc:	00113c23          	sd	ra,24(sp)
    3000a300:	00813823          	sd	s0,16(sp)
    3000a304:	00b13423          	sd	a1,8(sp)
    3000a308:	00050413          	mv	s0,a0
    3000a30c:	a7cff0ef          	jal	ra,30009588 <dfs_lock>
    3000a310:	00813603          	ld	a2,8(sp)
    3000a314:	4fffa597          	auipc	a1,0x4fffa
    3000a318:	db458593          	addi	a1,a1,-588 # 800040c8 <working_directory>
    3000a31c:	00040513          	mv	a0,s0
    3000a320:	83cf60ef          	jal	ra,3000035c <strncpy>
    3000a324:	ad0ff0ef          	jal	ra,300095f4 <dfs_unlock>
    3000a328:	01813083          	ld	ra,24(sp)
    3000a32c:	00040513          	mv	a0,s0
    3000a330:	01013403          	ld	s0,16(sp)
    3000a334:	02010113          	addi	sp,sp,32
    3000a338:	00008067          	ret

000000003000a33c <dfs_register>:
    3000a33c:	fc010113          	addi	sp,sp,-64
    3000a340:	02813823          	sd	s0,48(sp)
    3000a344:	02913423          	sd	s1,40(sp)
    3000a348:	03213023          	sd	s2,32(sp)
    3000a34c:	01313c23          	sd	s3,24(sp)
    3000a350:	02113c23          	sd	ra,56(sp)
    3000a354:	00050413          	mv	s0,a0
    3000a358:	50003917          	auipc	s2,0x50003
    3000a35c:	03090913          	addi	s2,s2,48 # 8000d388 <filesystem_operation_table>
    3000a360:	a28ff0ef          	jal	ra,30009588 <dfs_lock>
    3000a364:	00000493          	li	s1,0
    3000a368:	50003997          	auipc	s3,0x50003
    3000a36c:	03098993          	addi	s3,s3,48 # 8000d398 <filesystem_table>
    3000a370:	00093783          	ld	a5,0(s2)
    3000a374:	04079663          	bnez	a5,3000a3c0 <dfs_register+0x84>
    3000a378:	00049463          	bnez	s1,3000a380 <dfs_register+0x44>
    3000a37c:	00090493          	mv	s1,s2
    3000a380:	00890913          	addi	s2,s2,8
    3000a384:	ff3916e3          	bne	s2,s3,3000a370 <dfs_register+0x34>
    3000a388:	08049063          	bnez	s1,3000a408 <dfs_register+0xcc>
    3000a38c:	fe400513          	li	a0,-28
    3000a390:	d65f60ef          	jal	ra,300010f4 <rt_set_errno>
    3000a394:	4fff9517          	auipc	a0,0x4fff9
    3000a398:	05450513          	addi	a0,a0,84 # 800033e8 <__fsym___cmd_ls_name+0x88>
    3000a39c:	f80f70ef          	jal	ra,30001b1c <rt_kprintf>
    3000a3a0:	00043583          	ld	a1,0(s0)
    3000a3a4:	4fff9517          	auipc	a0,0x4fff9
    3000a3a8:	3ec50513          	addi	a0,a0,1004 # 80003790 <__fsym_mkdir_name+0x20>
    3000a3ac:	f70f70ef          	jal	ra,30001b1c <rt_kprintf>
    3000a3b0:	4fff8517          	auipc	a0,0x4fff8
    3000a3b4:	a9050513          	addi	a0,a0,-1392 # 80001e40 <CSWTCH.17+0x60>
    3000a3b8:	f64f70ef          	jal	ra,30001b1c <rt_kprintf>
    3000a3bc:	0200006f          	j	3000a3dc <dfs_register+0xa0>
    3000a3c0:	00043583          	ld	a1,0(s0)
    3000a3c4:	0007b503          	ld	a0,0(a5)
    3000a3c8:	fd1f50ef          	jal	ra,30000398 <strcmp>
    3000a3cc:	fa051ae3          	bnez	a0,3000a380 <dfs_register+0x44>
    3000a3d0:	fef00513          	li	a0,-17
    3000a3d4:	d21f60ef          	jal	ra,300010f4 <rt_set_errno>
    3000a3d8:	fa048ae3          	beqz	s1,3000a38c <dfs_register+0x50>
    3000a3dc:	fff00513          	li	a0,-1
    3000a3e0:	00a13423          	sd	a0,8(sp)
    3000a3e4:	a10ff0ef          	jal	ra,300095f4 <dfs_unlock>
    3000a3e8:	03813083          	ld	ra,56(sp)
    3000a3ec:	03013403          	ld	s0,48(sp)
    3000a3f0:	00813503          	ld	a0,8(sp)
    3000a3f4:	02813483          	ld	s1,40(sp)
    3000a3f8:	02013903          	ld	s2,32(sp)
    3000a3fc:	01813983          	ld	s3,24(sp)
    3000a400:	04010113          	addi	sp,sp,64
    3000a404:	00008067          	ret
    3000a408:	0084b023          	sd	s0,0(s1)
    3000a40c:	00000513          	li	a0,0
    3000a410:	fd1ff06f          	j	3000a3e0 <dfs_register+0xa4>

000000003000a414 <dfs_filesystem_lookup>:
    3000a414:	fa010113          	addi	sp,sp,-96
    3000a418:	05213023          	sd	s2,64(sp)
    3000a41c:	04113c23          	sd	ra,88(sp)
    3000a420:	04813823          	sd	s0,80(sp)
    3000a424:	04913423          	sd	s1,72(sp)
    3000a428:	03313c23          	sd	s3,56(sp)
    3000a42c:	03413823          	sd	s4,48(sp)
    3000a430:	03513423          	sd	s5,40(sp)
    3000a434:	03613023          	sd	s6,32(sp)
    3000a438:	01713c23          	sd	s7,24(sp)
    3000a43c:	01813823          	sd	s8,16(sp)
    3000a440:	01913423          	sd	s9,8(sp)
    3000a444:	01a13023          	sd	s10,0(sp)
    3000a448:	00050913          	mv	s2,a0
    3000a44c:	00051e63          	bnez	a0,3000a468 <dfs_filesystem_lookup+0x54>
    3000a450:	05600613          	li	a2,86
    3000a454:	4fff9597          	auipc	a1,0x4fff9
    3000a458:	47c58593          	addi	a1,a1,1148 # 800038d0 <__FUNCTION__.4112>
    3000a45c:	4fff9517          	auipc	a0,0x4fff9
    3000a460:	36c50513          	addi	a0,a0,876 # 800037c8 <__fsym_mkdir_name+0x58>
    3000a464:	835f70ef          	jal	ra,30001c98 <rt_assert_handler>
    3000a468:	fff00a93          	li	s5,-1
    3000a46c:	91cff0ef          	jal	ra,30009588 <dfs_lock>
    3000a470:	00000a13          	li	s4,0
    3000a474:	00000993          	li	s3,0
    3000a478:	50003497          	auipc	s1,0x50003
    3000a47c:	f2048493          	addi	s1,s1,-224 # 8000d398 <filesystem_table>
    3000a480:	020ada93          	srli	s5,s5,0x20
    3000a484:	00100b93          	li	s7,1
    3000a488:	02f00c13          	li	s8,47
    3000a48c:	50003b17          	auipc	s6,0x50003
    3000a490:	f4cb0b13          	addi	s6,s6,-180 # 8000d3d8 <fslock>
    3000a494:	0084bd03          	ld	s10,8(s1)
    3000a498:	040d0863          	beqz	s10,3000a4e8 <dfs_filesystem_lookup+0xd4>
    3000a49c:	0104b783          	ld	a5,16(s1)
    3000a4a0:	04078463          	beqz	a5,3000a4e8 <dfs_filesystem_lookup+0xd4>
    3000a4a4:	000d0513          	mv	a0,s10
    3000a4a8:	e8df50ef          	jal	ra,30000334 <strlen>
    3000a4ac:	00050c9b          	sext.w	s9,a0
    3000a4b0:	034cec63          	bltu	s9,s4,3000a4e8 <dfs_filesystem_lookup+0xd4>
    3000a4b4:	01557433          	and	s0,a0,s5
    3000a4b8:	00040613          	mv	a2,s0
    3000a4bc:	00090593          	mv	a1,s2
    3000a4c0:	000d0513          	mv	a0,s10
    3000a4c4:	ed9f50ef          	jal	ra,3000039c <strncmp>
    3000a4c8:	02051063          	bnez	a0,3000a4e8 <dfs_filesystem_lookup+0xd4>
    3000a4cc:	079bf263          	bgeu	s7,s9,3000a530 <dfs_filesystem_lookup+0x11c>
    3000a4d0:	00090513          	mv	a0,s2
    3000a4d4:	e61f50ef          	jal	ra,30000334 <strlen>
    3000a4d8:	04a47c63          	bgeu	s0,a0,3000a530 <dfs_filesystem_lookup+0x11c>
    3000a4dc:	00890433          	add	s0,s2,s0
    3000a4e0:	00044783          	lbu	a5,0(s0)
    3000a4e4:	05878663          	beq	a5,s8,3000a530 <dfs_filesystem_lookup+0x11c>
    3000a4e8:	02048493          	addi	s1,s1,32
    3000a4ec:	fb6494e3          	bne	s1,s6,3000a494 <dfs_filesystem_lookup+0x80>
    3000a4f0:	904ff0ef          	jal	ra,300095f4 <dfs_unlock>
    3000a4f4:	05813083          	ld	ra,88(sp)
    3000a4f8:	05013403          	ld	s0,80(sp)
    3000a4fc:	04813483          	ld	s1,72(sp)
    3000a500:	04013903          	ld	s2,64(sp)
    3000a504:	03013a03          	ld	s4,48(sp)
    3000a508:	02813a83          	ld	s5,40(sp)
    3000a50c:	02013b03          	ld	s6,32(sp)
    3000a510:	01813b83          	ld	s7,24(sp)
    3000a514:	01013c03          	ld	s8,16(sp)
    3000a518:	00813c83          	ld	s9,8(sp)
    3000a51c:	00013d03          	ld	s10,0(sp)
    3000a520:	00098513          	mv	a0,s3
    3000a524:	03813983          	ld	s3,56(sp)
    3000a528:	06010113          	addi	sp,sp,96
    3000a52c:	00008067          	ret
    3000a530:	000c8a13          	mv	s4,s9
    3000a534:	00048993          	mv	s3,s1
    3000a538:	fb1ff06f          	j	3000a4e8 <dfs_filesystem_lookup+0xd4>

000000003000a53c <dfs_mount>:
    3000a53c:	f5010113          	addi	sp,sp,-176
    3000a540:	07513c23          	sd	s5,120(sp)
    3000a544:	07613823          	sd	s6,112(sp)
    3000a548:	07713423          	sd	s7,104(sp)
    3000a54c:	07813023          	sd	s8,96(sp)
    3000a550:	0a113423          	sd	ra,168(sp)
    3000a554:	0a813023          	sd	s0,160(sp)
    3000a558:	08913c23          	sd	s1,152(sp)
    3000a55c:	09213823          	sd	s2,144(sp)
    3000a560:	09313423          	sd	s3,136(sp)
    3000a564:	09413023          	sd	s4,128(sp)
    3000a568:	05913c23          	sd	s9,88(sp)
    3000a56c:	00058b13          	mv	s6,a1
    3000a570:	00060a93          	mv	s5,a2
    3000a574:	00068b93          	mv	s7,a3
    3000a578:	00070c13          	mv	s8,a4
    3000a57c:	04050a63          	beqz	a0,3000a5d0 <dfs_mount+0x94>
    3000a580:	f68f70ef          	jal	ra,30001ce8 <rt_device_find>
    3000a584:	00050993          	mv	s3,a0
    3000a588:	04051663          	bnez	a0,3000a5d4 <dfs_mount+0x98>
    3000a58c:	fed00513          	li	a0,-19
    3000a590:	b65f60ef          	jal	ra,300010f4 <rt_set_errno>
    3000a594:	fff00793          	li	a5,-1
    3000a598:	0a813083          	ld	ra,168(sp)
    3000a59c:	0a013403          	ld	s0,160(sp)
    3000a5a0:	09813483          	ld	s1,152(sp)
    3000a5a4:	09013903          	ld	s2,144(sp)
    3000a5a8:	08813983          	ld	s3,136(sp)
    3000a5ac:	08013a03          	ld	s4,128(sp)
    3000a5b0:	07813a83          	ld	s5,120(sp)
    3000a5b4:	07013b03          	ld	s6,112(sp)
    3000a5b8:	06813b83          	ld	s7,104(sp)
    3000a5bc:	06013c03          	ld	s8,96(sp)
    3000a5c0:	05813c83          	ld	s9,88(sp)
    3000a5c4:	00078513          	mv	a0,a5
    3000a5c8:	0b010113          	addi	sp,sp,176
    3000a5cc:	00008067          	ret
    3000a5d0:	00050993          	mv	s3,a0
    3000a5d4:	50003497          	auipc	s1,0x50003
    3000a5d8:	db448493          	addi	s1,s1,-588 # 8000d388 <filesystem_operation_table>
    3000a5dc:	fadfe0ef          	jal	ra,30009588 <dfs_lock>
    3000a5e0:	0004b783          	ld	a5,0(s1)
    3000a5e4:	00048913          	mv	s2,s1
    3000a5e8:	50003417          	auipc	s0,0x50003
    3000a5ec:	db040413          	addi	s0,s0,-592 # 8000d398 <filesystem_table>
    3000a5f0:	00078a63          	beqz	a5,3000a604 <dfs_mount+0xc8>
    3000a5f4:	0007b503          	ld	a0,0(a5)
    3000a5f8:	000a8593          	mv	a1,s5
    3000a5fc:	d9df50ef          	jal	ra,30000398 <strcmp>
    3000a600:	02050a63          	beqz	a0,3000a634 <dfs_mount+0xf8>
    3000a604:	00893783          	ld	a5,8(s2)
    3000a608:	50003497          	auipc	s1,0x50003
    3000a60c:	d9048493          	addi	s1,s1,-624 # 8000d398 <filesystem_table>
    3000a610:	02078263          	beqz	a5,3000a634 <dfs_mount+0xf8>
    3000a614:	0007b503          	ld	a0,0(a5)
    3000a618:	000a8593          	mv	a1,s5
    3000a61c:	50003497          	auipc	s1,0x50003
    3000a620:	d7448493          	addi	s1,s1,-652 # 8000d390 <filesystem_operation_table+0x8>
    3000a624:	d75f50ef          	jal	ra,30000398 <strcmp>
    3000a628:	00050663          	beqz	a0,3000a634 <dfs_mount+0xf8>
    3000a62c:	50003497          	auipc	s1,0x50003
    3000a630:	d6c48493          	addi	s1,s1,-660 # 8000d398 <filesystem_table>
    3000a634:	fc1fe0ef          	jal	ra,300095f4 <dfs_unlock>
    3000a638:	f4848ae3          	beq	s1,s0,3000a58c <dfs_mount+0x50>
    3000a63c:	0004b783          	ld	a5,0(s1)
    3000a640:	00078663          	beqz	a5,3000a64c <dfs_mount+0x110>
    3000a644:	0187b783          	ld	a5,24(a5)
    3000a648:	00079663          	bnez	a5,3000a654 <dfs_mount+0x118>
    3000a64c:	fda00513          	li	a0,-38
    3000a650:	f41ff06f          	j	3000a590 <dfs_mount+0x54>
    3000a654:	000b0593          	mv	a1,s6
    3000a658:	00000513          	li	a0,0
    3000a65c:	a9cff0ef          	jal	ra,300098f8 <dfs_normalize_path>
    3000a660:	00050a13          	mv	s4,a0
    3000a664:	00051663          	bnez	a0,3000a670 <dfs_mount+0x134>
    3000a668:	fec00513          	li	a0,-20
    3000a66c:	f25ff06f          	j	3000a590 <dfs_mount+0x54>
    3000a670:	4fff7597          	auipc	a1,0x4fff7
    3000a674:	7e858593          	addi	a1,a1,2024 # 80001e58 <CSWTCH.17+0x78>
    3000a678:	d21f50ef          	jal	ra,30000398 <strcmp>
    3000a67c:	04050063          	beqz	a0,3000a6bc <dfs_mount+0x180>
    3000a680:	4fff9597          	auipc	a1,0x4fff9
    3000a684:	fe858593          	addi	a1,a1,-24 # 80003668 <__fsym_ls_name+0xc0>
    3000a688:	000a0513          	mv	a0,s4
    3000a68c:	d0df50ef          	jal	ra,30000398 <strcmp>
    3000a690:	02050663          	beqz	a0,3000a6bc <dfs_mount+0x180>
    3000a694:	00010637          	lui	a2,0x10
    3000a698:	000a0593          	mv	a1,s4
    3000a69c:	00810513          	addi	a0,sp,8
    3000a6a0:	f65fd0ef          	jal	ra,30008604 <dfs_file_open>
    3000a6a4:	00055863          	bgez	a0,3000a6b4 <dfs_mount+0x178>
    3000a6a8:	000a0513          	mv	a0,s4
    3000a6ac:	b4cfa0ef          	jal	ra,300049f8 <rt_free>
    3000a6b0:	fb9ff06f          	j	3000a668 <dfs_mount+0x12c>
    3000a6b4:	00810513          	addi	a0,sp,8
    3000a6b8:	8a8fe0ef          	jal	ra,30008760 <dfs_file_close>
    3000a6bc:	ecdfe0ef          	jal	ra,30009588 <dfs_lock>
    3000a6c0:	00000413          	li	s0,0
    3000a6c4:	50003917          	auipc	s2,0x50003
    3000a6c8:	cd490913          	addi	s2,s2,-812 # 8000d398 <filesystem_table>
    3000a6cc:	50003c97          	auipc	s9,0x50003
    3000a6d0:	d0cc8c93          	addi	s9,s9,-756 # 8000d3d8 <fslock>
    3000a6d4:	01093783          	ld	a5,16(s2)
    3000a6d8:	04079663          	bnez	a5,3000a724 <dfs_mount+0x1e8>
    3000a6dc:	00041463          	bnez	s0,3000a6e4 <dfs_mount+0x1a8>
    3000a6e0:	00090413          	mv	s0,s2
    3000a6e4:	02090913          	addi	s2,s2,32
    3000a6e8:	ff9916e3          	bne	s2,s9,3000a6d4 <dfs_mount+0x198>
    3000a6ec:	06041063          	bnez	s0,3000a74c <dfs_mount+0x210>
    3000a6f0:	fe400513          	li	a0,-28
    3000a6f4:	a01f60ef          	jal	ra,300010f4 <rt_set_errno>
    3000a6f8:	4fff9517          	auipc	a0,0x4fff9
    3000a6fc:	cf050513          	addi	a0,a0,-784 # 800033e8 <__fsym___cmd_ls_name+0x88>
    3000a700:	c1cf70ef          	jal	ra,30001b1c <rt_kprintf>
    3000a704:	000a8593          	mv	a1,s5
    3000a708:	4fff9517          	auipc	a0,0x4fff9
    3000a70c:	0c850513          	addi	a0,a0,200 # 800037d0 <__fsym_mkdir_name+0x60>
    3000a710:	c0cf70ef          	jal	ra,30001b1c <rt_kprintf>
    3000a714:	4fff7517          	auipc	a0,0x4fff7
    3000a718:	72c50513          	addi	a0,a0,1836 # 80001e40 <CSWTCH.17+0x60>
    3000a71c:	c00f70ef          	jal	ra,30001b1c <rt_kprintf>
    3000a720:	01c0006f          	j	3000a73c <dfs_mount+0x200>
    3000a724:	00893503          	ld	a0,8(s2)
    3000a728:	000b0593          	mv	a1,s6
    3000a72c:	c6df50ef          	jal	ra,30000398 <strcmp>
    3000a730:	fa051ae3          	bnez	a0,3000a6e4 <dfs_mount+0x1a8>
    3000a734:	fea00513          	li	a0,-22
    3000a738:	9bdf60ef          	jal	ra,300010f4 <rt_set_errno>
    3000a73c:	eb9fe0ef          	jal	ra,300095f4 <dfs_unlock>
    3000a740:	000a0513          	mv	a0,s4
    3000a744:	ab4fa0ef          	jal	ra,300049f8 <rt_free>
    3000a748:	e4dff06f          	j	3000a594 <dfs_mount+0x58>
    3000a74c:	0004b783          	ld	a5,0(s1)
    3000a750:	01443423          	sd	s4,8(s0)
    3000a754:	01343023          	sd	s3,0(s0)
    3000a758:	00f43823          	sd	a5,16(s0)
    3000a75c:	e99fe0ef          	jal	ra,300095f4 <dfs_unlock>
    3000a760:	02098663          	beqz	s3,3000a78c <dfs_mount+0x250>
    3000a764:	00043503          	ld	a0,0(s0)
    3000a768:	00300593          	li	a1,3
    3000a76c:	dfcf70ef          	jal	ra,30001d68 <rt_device_open>
    3000a770:	00050e63          	beqz	a0,3000a78c <dfs_mount+0x250>
    3000a774:	e15fe0ef          	jal	ra,30009588 <dfs_lock>
    3000a778:	02000613          	li	a2,32
    3000a77c:	00000593          	li	a1,0
    3000a780:	00040513          	mv	a0,s0
    3000a784:	c1df50ef          	jal	ra,300003a0 <memset>
    3000a788:	fb5ff06f          	j	3000a73c <dfs_mount+0x200>
    3000a78c:	0004b783          	ld	a5,0(s1)
    3000a790:	000c0613          	mv	a2,s8
    3000a794:	000b8593          	mv	a1,s7
    3000a798:	0187b783          	ld	a5,24(a5)
    3000a79c:	00040513          	mv	a0,s0
    3000a7a0:	000780e7          	jalr	a5
    3000a7a4:	00000793          	li	a5,0
    3000a7a8:	de0558e3          	bgez	a0,3000a598 <dfs_mount+0x5c>
    3000a7ac:	fc0984e3          	beqz	s3,3000a774 <dfs_mount+0x238>
    3000a7b0:	00043503          	ld	a0,0(s0)
    3000a7b4:	f0cf70ef          	jal	ra,30001ec0 <rt_device_close>
    3000a7b8:	fbdff06f          	j	3000a774 <dfs_mount+0x238>

000000003000a7bc <dfs_unmount>:
    3000a7bc:	fe010113          	addi	sp,sp,-32
    3000a7c0:	00050593          	mv	a1,a0
    3000a7c4:	00000513          	li	a0,0
    3000a7c8:	00113c23          	sd	ra,24(sp)
    3000a7cc:	00813823          	sd	s0,16(sp)
    3000a7d0:	00913423          	sd	s1,8(sp)
    3000a7d4:	01213023          	sd	s2,0(sp)
    3000a7d8:	920ff0ef          	jal	ra,300098f8 <dfs_normalize_path>
    3000a7dc:	02051463          	bnez	a0,3000a804 <dfs_unmount+0x48>
    3000a7e0:	fec00513          	li	a0,-20
    3000a7e4:	911f60ef          	jal	ra,300010f4 <rt_set_errno>
    3000a7e8:	fff00513          	li	a0,-1
    3000a7ec:	01813083          	ld	ra,24(sp)
    3000a7f0:	01013403          	ld	s0,16(sp)
    3000a7f4:	00813483          	ld	s1,8(sp)
    3000a7f8:	00013903          	ld	s2,0(sp)
    3000a7fc:	02010113          	addi	sp,sp,32
    3000a800:	00008067          	ret
    3000a804:	00050493          	mv	s1,a0
    3000a808:	50003417          	auipc	s0,0x50003
    3000a80c:	b9040413          	addi	s0,s0,-1136 # 8000d398 <filesystem_table>
    3000a810:	d79fe0ef          	jal	ra,30009588 <dfs_lock>
    3000a814:	00843503          	ld	a0,8(s0)
    3000a818:	00040913          	mv	s2,s0
    3000a81c:	00050863          	beqz	a0,3000a82c <dfs_unmount+0x70>
    3000a820:	00048593          	mv	a1,s1
    3000a824:	b75f50ef          	jal	ra,30000398 <strcmp>
    3000a828:	02050863          	beqz	a0,3000a858 <dfs_unmount+0x9c>
    3000a82c:	02893503          	ld	a0,40(s2)
    3000a830:	00050863          	beqz	a0,3000a840 <dfs_unmount+0x84>
    3000a834:	00048593          	mv	a1,s1
    3000a838:	b61f50ef          	jal	ra,30000398 <strcmp>
    3000a83c:	00050a63          	beqz	a0,3000a850 <dfs_unmount+0x94>
    3000a840:	db5fe0ef          	jal	ra,300095f4 <dfs_unlock>
    3000a844:	00048513          	mv	a0,s1
    3000a848:	9b0fa0ef          	jal	ra,300049f8 <rt_free>
    3000a84c:	f9dff06f          	j	3000a7e8 <dfs_unmount+0x2c>
    3000a850:	50003417          	auipc	s0,0x50003
    3000a854:	b6840413          	addi	s0,s0,-1176 # 8000d3b8 <filesystem_table+0x20>
    3000a858:	01043783          	ld	a5,16(s0)
    3000a85c:	0207b783          	ld	a5,32(a5)
    3000a860:	fe0780e3          	beqz	a5,3000a840 <dfs_unmount+0x84>
    3000a864:	00040513          	mv	a0,s0
    3000a868:	000780e7          	jalr	a5
    3000a86c:	fc054ae3          	bltz	a0,3000a840 <dfs_unmount+0x84>
    3000a870:	00043503          	ld	a0,0(s0)
    3000a874:	00050463          	beqz	a0,3000a87c <dfs_unmount+0xc0>
    3000a878:	e48f70ef          	jal	ra,30001ec0 <rt_device_close>
    3000a87c:	00843503          	ld	a0,8(s0)
    3000a880:	00050463          	beqz	a0,3000a888 <dfs_unmount+0xcc>
    3000a884:	974fa0ef          	jal	ra,300049f8 <rt_free>
    3000a888:	02000613          	li	a2,32
    3000a88c:	00000593          	li	a1,0
    3000a890:	00040513          	mv	a0,s0
    3000a894:	b0df50ef          	jal	ra,300003a0 <memset>
    3000a898:	d5dfe0ef          	jal	ra,300095f4 <dfs_unlock>
    3000a89c:	00048513          	mv	a0,s1
    3000a8a0:	958fa0ef          	jal	ra,300049f8 <rt_free>
    3000a8a4:	00000513          	li	a0,0
    3000a8a8:	f45ff06f          	j	3000a7ec <dfs_unmount+0x30>

000000003000a8ac <dfs_mkfs>:
    3000a8ac:	fd010113          	addi	sp,sp,-48
    3000a8b0:	02813023          	sd	s0,32(sp)
    3000a8b4:	02113423          	sd	ra,40(sp)
    3000a8b8:	00913c23          	sd	s1,24(sp)
    3000a8bc:	01213823          	sd	s2,16(sp)
    3000a8c0:	01313423          	sd	s3,8(sp)
    3000a8c4:	00058413          	mv	s0,a1
    3000a8c8:	04059a63          	bnez	a1,3000a91c <dfs_mkfs+0x70>
    3000a8cc:	fed00513          	li	a0,-19
    3000a8d0:	825f60ef          	jal	ra,300010f4 <rt_set_errno>
    3000a8d4:	4fff9517          	auipc	a0,0x4fff9
    3000a8d8:	b1450513          	addi	a0,a0,-1260 # 800033e8 <__fsym___cmd_ls_name+0x88>
    3000a8dc:	a40f70ef          	jal	ra,30001b1c <rt_kprintf>
    3000a8e0:	00040593          	mv	a1,s0
    3000a8e4:	4fff9517          	auipc	a0,0x4fff9
    3000a8e8:	f2450513          	addi	a0,a0,-220 # 80003808 <__fsym_mkdir_name+0x98>
    3000a8ec:	a30f70ef          	jal	ra,30001b1c <rt_kprintf>
    3000a8f0:	4fff7517          	auipc	a0,0x4fff7
    3000a8f4:	55050513          	addi	a0,a0,1360 # 80001e40 <CSWTCH.17+0x60>
    3000a8f8:	a24f70ef          	jal	ra,30001b1c <rt_kprintf>
    3000a8fc:	02813083          	ld	ra,40(sp)
    3000a900:	02013403          	ld	s0,32(sp)
    3000a904:	01813483          	ld	s1,24(sp)
    3000a908:	01013903          	ld	s2,16(sp)
    3000a90c:	00813983          	ld	s3,8(sp)
    3000a910:	fff00513          	li	a0,-1
    3000a914:	03010113          	addi	sp,sp,48
    3000a918:	00008067          	ret
    3000a91c:	00050913          	mv	s2,a0
    3000a920:	00058513          	mv	a0,a1
    3000a924:	bc4f70ef          	jal	ra,30001ce8 <rt_device_find>
    3000a928:	00050993          	mv	s3,a0
    3000a92c:	fa0500e3          	beqz	a0,3000a8cc <dfs_mkfs+0x20>
    3000a930:	c59fe0ef          	jal	ra,30009588 <dfs_lock>
    3000a934:	50003417          	auipc	s0,0x50003
    3000a938:	a5440413          	addi	s0,s0,-1452 # 8000d388 <filesystem_operation_table>
    3000a93c:	00043783          	ld	a5,0(s0)
    3000a940:	06078263          	beqz	a5,3000a9a4 <dfs_mkfs+0xf8>
    3000a944:	0007b503          	ld	a0,0(a5)
    3000a948:	00090593          	mv	a1,s2
    3000a94c:	a4df50ef          	jal	ra,30000398 <strcmp>
    3000a950:	00050493          	mv	s1,a0
    3000a954:	04051863          	bnez	a0,3000a9a4 <dfs_mkfs+0xf8>
    3000a958:	c9dfe0ef          	jal	ra,300095f4 <dfs_unlock>
    3000a95c:	00349493          	slli	s1,s1,0x3
    3000a960:	00940433          	add	s0,s0,s1
    3000a964:	00043783          	ld	a5,0(s0)
    3000a968:	0287b303          	ld	t1,40(a5)
    3000a96c:	06031e63          	bnez	t1,3000a9e8 <dfs_mkfs+0x13c>
    3000a970:	4fff9517          	auipc	a0,0x4fff9
    3000a974:	a7850513          	addi	a0,a0,-1416 # 800033e8 <__fsym___cmd_ls_name+0x88>
    3000a978:	9a4f70ef          	jal	ra,30001b1c <rt_kprintf>
    3000a97c:	00090593          	mv	a1,s2
    3000a980:	4fff9517          	auipc	a0,0x4fff9
    3000a984:	ec850513          	addi	a0,a0,-312 # 80003848 <__fsym_mkdir_name+0xd8>
    3000a988:	994f70ef          	jal	ra,30001b1c <rt_kprintf>
    3000a98c:	4fff7517          	auipc	a0,0x4fff7
    3000a990:	4b450513          	addi	a0,a0,1204 # 80001e40 <CSWTCH.17+0x60>
    3000a994:	988f70ef          	jal	ra,30001b1c <rt_kprintf>
    3000a998:	fda00513          	li	a0,-38
    3000a99c:	f58f60ef          	jal	ra,300010f4 <rt_set_errno>
    3000a9a0:	f5dff06f          	j	3000a8fc <dfs_mkfs+0x50>
    3000a9a4:	00843783          	ld	a5,8(s0)
    3000a9a8:	02078063          	beqz	a5,3000a9c8 <dfs_mkfs+0x11c>
    3000a9ac:	0007b503          	ld	a0,0(a5)
    3000a9b0:	00090593          	mv	a1,s2
    3000a9b4:	9e5f50ef          	jal	ra,30000398 <strcmp>
    3000a9b8:	00051863          	bnez	a0,3000a9c8 <dfs_mkfs+0x11c>
    3000a9bc:	c39fe0ef          	jal	ra,300095f4 <dfs_unlock>
    3000a9c0:	00100493          	li	s1,1
    3000a9c4:	f99ff06f          	j	3000a95c <dfs_mkfs+0xb0>
    3000a9c8:	c2dfe0ef          	jal	ra,300095f4 <dfs_unlock>
    3000a9cc:	4fff9517          	auipc	a0,0x4fff9
    3000a9d0:	a1c50513          	addi	a0,a0,-1508 # 800033e8 <__fsym___cmd_ls_name+0x88>
    3000a9d4:	948f70ef          	jal	ra,30001b1c <rt_kprintf>
    3000a9d8:	00090593          	mv	a1,s2
    3000a9dc:	4fff9517          	auipc	a0,0x4fff9
    3000a9e0:	e4c50513          	addi	a0,a0,-436 # 80003828 <__fsym_mkdir_name+0xb8>
    3000a9e4:	f09ff06f          	j	3000a8ec <dfs_mkfs+0x40>
    3000a9e8:	02013403          	ld	s0,32(sp)
    3000a9ec:	02813083          	ld	ra,40(sp)
    3000a9f0:	01813483          	ld	s1,24(sp)
    3000a9f4:	01013903          	ld	s2,16(sp)
    3000a9f8:	00098513          	mv	a0,s3
    3000a9fc:	00813983          	ld	s3,8(sp)
    3000aa00:	03010113          	addi	sp,sp,48
    3000aa04:	00030067          	jr	t1

000000003000aa08 <mkfs>:
    3000aa08:	ea5ff06f          	j	3000a8ac <dfs_mkfs>

000000003000aa0c <dfs_statfs>:
    3000aa0c:	fe010113          	addi	sp,sp,-32
    3000aa10:	00113c23          	sd	ra,24(sp)
    3000aa14:	00b13423          	sd	a1,8(sp)
    3000aa18:	9fdff0ef          	jal	ra,3000a414 <dfs_filesystem_lookup>
    3000aa1c:	02050063          	beqz	a0,3000aa3c <dfs_statfs+0x30>
    3000aa20:	01053783          	ld	a5,16(a0)
    3000aa24:	0307b303          	ld	t1,48(a5)
    3000aa28:	00030a63          	beqz	t1,3000aa3c <dfs_statfs+0x30>
    3000aa2c:	00813583          	ld	a1,8(sp)
    3000aa30:	01813083          	ld	ra,24(sp)
    3000aa34:	02010113          	addi	sp,sp,32
    3000aa38:	00030067          	jr	t1
    3000aa3c:	01813083          	ld	ra,24(sp)
    3000aa40:	fff00513          	li	a0,-1
    3000aa44:	02010113          	addi	sp,sp,32
    3000aa48:	00008067          	ret

000000003000aa4c <df>:
    3000aa4c:	fc010113          	addi	sp,sp,-64
    3000aa50:	4fff9797          	auipc	a5,0x4fff9
    3000aa54:	d2878793          	addi	a5,a5,-728 # 80003778 <__fsym_mkdir_name+0x8>
    3000aa58:	00f13c23          	sd	a5,24(sp)
    3000aa5c:	4fff9797          	auipc	a5,0x4fff9
    3000aa60:	d2478793          	addi	a5,a5,-732 # 80003780 <__fsym_mkdir_name+0x10>
    3000aa64:	02f13023          	sd	a5,32(sp)
    3000aa68:	00010593          	mv	a1,sp
    3000aa6c:	4fff9797          	auipc	a5,0x4fff9
    3000aa70:	d1c78793          	addi	a5,a5,-740 # 80003788 <__fsym_mkdir_name+0x18>
    3000aa74:	02113c23          	sd	ra,56(sp)
    3000aa78:	02813823          	sd	s0,48(sp)
    3000aa7c:	02f13423          	sd	a5,40(sp)
    3000aa80:	f8dff0ef          	jal	ra,3000aa0c <dfs_statfs>
    3000aa84:	02050463          	beqz	a0,3000aaac <df+0x60>
    3000aa88:	4fff9517          	auipc	a0,0x4fff9
    3000aa8c:	df850513          	addi	a0,a0,-520 # 80003880 <__fsym_mkdir_name+0x110>
    3000aa90:	88cf70ef          	jal	ra,30001b1c <rt_kprintf>
    3000aa94:	fff00413          	li	s0,-1
    3000aa98:	03813083          	ld	ra,56(sp)
    3000aa9c:	00040513          	mv	a0,s0
    3000aaa0:	03013403          	ld	s0,48(sp)
    3000aaa4:	04010113          	addi	sp,sp,64
    3000aaa8:	00008067          	ret
    3000aaac:	00013783          	ld	a5,0(sp)
    3000aab0:	01013703          	ld	a4,16(sp)
    3000aab4:	40000593          	li	a1,1024
    3000aab8:	00100637          	lui	a2,0x100
    3000aabc:	02e786b3          	mul	a3,a5,a4
    3000aac0:	00050413          	mv	s0,a0
    3000aac4:	02b6c5b3          	div	a1,a3,a1
    3000aac8:	06c6c263          	blt	a3,a2,3000ab2c <df+0xe0>
    3000aacc:	40a5d693          	srai	a3,a1,0xa
    3000aad0:	3ff00613          	li	a2,1023
    3000aad4:	02d64e63          	blt	a2,a3,3000ab10 <df+0xc4>
    3000aad8:	3ff5f593          	andi	a1,a1,1023
    3000aadc:	00a00613          	li	a2,10
    3000aae0:	02c58633          	mul	a2,a1,a2
    3000aae4:	00068593          	mv	a1,a3
    3000aae8:	00100693          	li	a3,1
    3000aaec:	00a65613          	srli	a2,a2,0xa
    3000aaf0:	03010513          	addi	a0,sp,48
    3000aaf4:	00369693          	slli	a3,a3,0x3
    3000aaf8:	00d506b3          	add	a3,a0,a3
    3000aafc:	fe86b683          	ld	a3,-24(a3)
    3000ab00:	4fff9517          	auipc	a0,0x4fff9
    3000ab04:	d9850513          	addi	a0,a0,-616 # 80003898 <__fsym_mkdir_name+0x128>
    3000ab08:	814f70ef          	jal	ra,30001b1c <rt_kprintf>
    3000ab0c:	f8dff06f          	j	3000aa98 <df+0x4c>
    3000ab10:	3ff6f613          	andi	a2,a3,1023
    3000ab14:	00a00693          	li	a3,10
    3000ab18:	02d60633          	mul	a2,a2,a3
    3000ab1c:	4145d593          	srai	a1,a1,0x14
    3000ab20:	00200693          	li	a3,2
    3000ab24:	00a65613          	srli	a2,a2,0xa
    3000ab28:	fc9ff06f          	j	3000aaf0 <df+0xa4>
    3000ab2c:	00000693          	li	a3,0
    3000ab30:	00000613          	li	a2,0
    3000ab34:	fbdff06f          	j	3000aaf0 <df+0xa4>

000000003000ab38 <dfs_romfs_mount>:
    3000ab38:	00060863          	beqz	a2,3000ab48 <dfs_romfs_mount+0x10>
    3000ab3c:	00c53c23          	sd	a2,24(a0)
    3000ab40:	00000513          	li	a0,0
    3000ab44:	00008067          	ret
    3000ab48:	ffb00513          	li	a0,-5
    3000ab4c:	00008067          	ret

000000003000ab50 <dfs_romfs_unmount>:
    3000ab50:	00000513          	li	a0,0
    3000ab54:	00008067          	ret

000000003000ab58 <dfs_romfs_ioctl>:
    3000ab58:	ffb00513          	li	a0,-5
    3000ab5c:	00008067          	ret

000000003000ab60 <check_dirent>:
    3000ab60:	00052703          	lw	a4,0(a0)
    3000ab64:	00100793          	li	a5,1
    3000ab68:	00e7ec63          	bltu	a5,a4,3000ab80 <check_dirent+0x20>
    3000ab6c:	01853503          	ld	a0,24(a0)
    3000ab70:	00150513          	addi	a0,a0,1
    3000ab74:	00153513          	seqz	a0,a0
    3000ab78:	40a00533          	neg	a0,a0
    3000ab7c:	00008067          	ret
    3000ab80:	fff00513          	li	a0,-1
    3000ab84:	00008067          	ret

000000003000ab88 <dfs_romfs_lseek>:
    3000ab88:	03053783          	ld	a5,48(a0)
    3000ab8c:	00b7e863          	bltu	a5,a1,3000ab9c <dfs_romfs_lseek+0x14>
    3000ab90:	02b53c23          	sd	a1,56(a0)
    3000ab94:	0005851b          	sext.w	a0,a1
    3000ab98:	00008067          	ret
    3000ab9c:	ffb00513          	li	a0,-5
    3000aba0:	00008067          	ret

000000003000aba4 <dfs_romfs_close>:
    3000aba4:	04053023          	sd	zero,64(a0)
    3000aba8:	00000513          	li	a0,0
    3000abac:	00008067          	ret

000000003000abb0 <dfs_romfs_read>:
    3000abb0:	fd010113          	addi	sp,sp,-48
    3000abb4:	01413023          	sd	s4,0(sp)
    3000abb8:	04053a03          	ld	s4,64(a0)
    3000abbc:	00913c23          	sd	s1,24(sp)
    3000abc0:	01213823          	sd	s2,16(sp)
    3000abc4:	01313423          	sd	s3,8(sp)
    3000abc8:	02113423          	sd	ra,40(sp)
    3000abcc:	02813023          	sd	s0,32(sp)
    3000abd0:	00050493          	mv	s1,a0
    3000abd4:	00058993          	mv	s3,a1
    3000abd8:	00060913          	mv	s2,a2
    3000abdc:	000a1e63          	bnez	s4,3000abf8 <dfs_romfs_read+0x48>
    3000abe0:	08900613          	li	a2,137
    3000abe4:	4fff9597          	auipc	a1,0x4fff9
    3000abe8:	d7c58593          	addi	a1,a1,-644 # 80003960 <__FUNCTION__.4153>
    3000abec:	4fff9517          	auipc	a0,0x4fff9
    3000abf0:	d3450513          	addi	a0,a0,-716 # 80003920 <__fsym_mkfs_name+0x8>
    3000abf4:	8a4f70ef          	jal	ra,30001c98 <rt_assert_handler>
    3000abf8:	000a0513          	mv	a0,s4
    3000abfc:	f65ff0ef          	jal	ra,3000ab60 <check_dirent>
    3000ac00:	ffb00413          	li	s0,-5
    3000ac04:	04051063          	bnez	a0,3000ac44 <dfs_romfs_read+0x94>
    3000ac08:	0384b783          	ld	a5,56(s1)
    3000ac0c:	0304b403          	ld	s0,48(s1)
    3000ac10:	40f40433          	sub	s0,s0,a5
    3000ac14:	00897463          	bgeu	s2,s0,3000ac1c <dfs_romfs_read+0x6c>
    3000ac18:	00090413          	mv	s0,s2
    3000ac1c:	00040c63          	beqz	s0,3000ac34 <dfs_romfs_read+0x84>
    3000ac20:	010a3583          	ld	a1,16(s4)
    3000ac24:	00040613          	mv	a2,s0
    3000ac28:	00098513          	mv	a0,s3
    3000ac2c:	00f585b3          	add	a1,a1,a5
    3000ac30:	f74f50ef          	jal	ra,300003a4 <memcpy>
    3000ac34:	0384b783          	ld	a5,56(s1)
    3000ac38:	008787b3          	add	a5,a5,s0
    3000ac3c:	02f4bc23          	sd	a5,56(s1)
    3000ac40:	0004041b          	sext.w	s0,s0
    3000ac44:	02813083          	ld	ra,40(sp)
    3000ac48:	00040513          	mv	a0,s0
    3000ac4c:	02013403          	ld	s0,32(sp)
    3000ac50:	01813483          	ld	s1,24(sp)
    3000ac54:	01013903          	ld	s2,16(sp)
    3000ac58:	00813983          	ld	s3,8(sp)
    3000ac5c:	00013a03          	ld	s4,0(sp)
    3000ac60:	03010113          	addi	sp,sp,48
    3000ac64:	00008067          	ret

000000003000ac68 <dfs_romfs_getdents>:
    3000ac68:	fa010113          	addi	sp,sp,-96
    3000ac6c:	05213023          	sd	s2,64(sp)
    3000ac70:	04053903          	ld	s2,64(a0)
    3000ac74:	04913423          	sd	s1,72(sp)
    3000ac78:	00050493          	mv	s1,a0
    3000ac7c:	00090513          	mv	a0,s2
    3000ac80:	04813823          	sd	s0,80(sp)
    3000ac84:	03313c23          	sd	s3,56(sp)
    3000ac88:	04113c23          	sd	ra,88(sp)
    3000ac8c:	03413823          	sd	s4,48(sp)
    3000ac90:	03513423          	sd	s5,40(sp)
    3000ac94:	03613023          	sd	s6,32(sp)
    3000ac98:	01713c23          	sd	s7,24(sp)
    3000ac9c:	00058413          	mv	s0,a1
    3000aca0:	00060993          	mv	s3,a2
    3000aca4:	ebdff0ef          	jal	ra,3000ab60 <check_dirent>
    3000aca8:	0e051e63          	bnez	a0,3000ada4 <dfs_romfs_getdents+0x13c>
    3000acac:	00092703          	lw	a4,0(s2)
    3000acb0:	00100793          	li	a5,1
    3000acb4:	00f70e63          	beq	a4,a5,3000acd0 <dfs_romfs_getdents+0x68>
    3000acb8:	0fd00613          	li	a2,253
    3000acbc:	4fff9597          	auipc	a1,0x4fff9
    3000acc0:	cb458593          	addi	a1,a1,-844 # 80003970 <__FUNCTION__.4186>
    3000acc4:	4fff9517          	auipc	a0,0x4fff9
    3000acc8:	c6c50513          	addi	a0,a0,-916 # 80003930 <__fsym_mkfs_name+0x18>
    3000accc:	fcdf60ef          	jal	ra,30001c98 <rt_assert_handler>
    3000acd0:	01093b03          	ld	s6,16(s2)
    3000acd4:	10300793          	li	a5,259
    3000acd8:	10400913          	li	s2,260
    3000acdc:	0329d93b          	divuw	s2,s3,s2
    3000ace0:	fea00513          	li	a0,-22
    3000ace4:	0337f663          	bgeu	a5,s3,3000ad10 <dfs_romfs_getdents+0xa8>
    3000ace8:	02091913          	slli	s2,s2,0x20
    3000acec:	00440413          	addi	s0,s0,4
    3000acf0:	00000993          	li	s3,0
    3000acf4:	02095913          	srli	s2,s2,0x20
    3000acf8:	00100a13          	li	s4,1
    3000acfc:	00200b93          	li	s7,2
    3000ad00:	10400a93          	li	s5,260
    3000ad04:	0529e063          	bltu	s3,s2,3000ad44 <dfs_romfs_getdents+0xdc>
    3000ad08:	10400513          	li	a0,260
    3000ad0c:	0335053b          	mulw	a0,a0,s3
    3000ad10:	05813083          	ld	ra,88(sp)
    3000ad14:	05013403          	ld	s0,80(sp)
    3000ad18:	04813483          	ld	s1,72(sp)
    3000ad1c:	04013903          	ld	s2,64(sp)
    3000ad20:	03813983          	ld	s3,56(sp)
    3000ad24:	03013a03          	ld	s4,48(sp)
    3000ad28:	02813a83          	ld	s5,40(sp)
    3000ad2c:	02013b03          	ld	s6,32(sp)
    3000ad30:	01813b83          	ld	s7,24(sp)
    3000ad34:	06010113          	addi	sp,sp,96
    3000ad38:	00008067          	ret
    3000ad3c:	ff440e23          	sb	s4,-4(s0)
    3000ad40:	0280006f          	j	3000ad68 <dfs_romfs_getdents+0x100>
    3000ad44:	0384b783          	ld	a5,56(s1)
    3000ad48:	0304b703          	ld	a4,48(s1)
    3000ad4c:	fae7fee3          	bgeu	a5,a4,3000ad08 <dfs_romfs_getdents+0xa0>
    3000ad50:	00579793          	slli	a5,a5,0x5
    3000ad54:	00fb07b3          	add	a5,s6,a5
    3000ad58:	0087b583          	ld	a1,8(a5)
    3000ad5c:	0007a783          	lw	a5,0(a5)
    3000ad60:	fd479ee3          	bne	a5,s4,3000ad3c <dfs_romfs_getdents+0xd4>
    3000ad64:	ff740e23          	sb	s7,-4(s0)
    3000ad68:	00058513          	mv	a0,a1
    3000ad6c:	00b13423          	sd	a1,8(sp)
    3000ad70:	eb4f60ef          	jal	ra,30001424 <rt_strlen>
    3000ad74:	00813583          	ld	a1,8(sp)
    3000ad78:	fea40ea3          	sb	a0,-3(s0)
    3000ad7c:	ff541f23          	sh	s5,-2(s0)
    3000ad80:	00040513          	mv	a0,s0
    3000ad84:	10000613          	li	a2,256
    3000ad88:	df4f60ef          	jal	ra,3000137c <rt_strncpy>
    3000ad8c:	0384b783          	ld	a5,56(s1)
    3000ad90:	00198993          	addi	s3,s3,1
    3000ad94:	10440413          	addi	s0,s0,260
    3000ad98:	00178793          	addi	a5,a5,1
    3000ad9c:	02f4bc23          	sd	a5,56(s1)
    3000ada0:	f65ff06f          	j	3000ad04 <dfs_romfs_getdents+0x9c>
    3000ada4:	ffb00513          	li	a0,-5
    3000ada8:	f69ff06f          	j	3000ad10 <dfs_romfs_getdents+0xa8>

000000003000adac <dfs_romfs_init>:
    3000adac:	ff010113          	addi	sp,sp,-16
    3000adb0:	4fff9517          	auipc	a0,0x4fff9
    3000adb4:	c2050513          	addi	a0,a0,-992 # 800039d0 <_romfs>
    3000adb8:	00113423          	sd	ra,8(sp)
    3000adbc:	d80ff0ef          	jal	ra,3000a33c <dfs_register>
    3000adc0:	00813083          	ld	ra,8(sp)
    3000adc4:	00000513          	li	a0,0
    3000adc8:	01010113          	addi	sp,sp,16
    3000adcc:	00008067          	ret

000000003000add0 <dfs_romfs_lookup>:
    3000add0:	fa010113          	addi	sp,sp,-96
    3000add4:	04813823          	sd	s0,80(sp)
    3000add8:	03313c23          	sd	s3,56(sp)
    3000addc:	03513423          	sd	s5,40(sp)
    3000ade0:	04113c23          	sd	ra,88(sp)
    3000ade4:	04913423          	sd	s1,72(sp)
    3000ade8:	05213023          	sd	s2,64(sp)
    3000adec:	03413823          	sd	s4,48(sp)
    3000adf0:	03613023          	sd	s6,32(sp)
    3000adf4:	01713c23          	sd	s7,24(sp)
    3000adf8:	01813823          	sd	s8,16(sp)
    3000adfc:	01913423          	sd	s9,8(sp)
    3000ae00:	00050993          	mv	s3,a0
    3000ae04:	00058413          	mv	s0,a1
    3000ae08:	00060a93          	mv	s5,a2
    3000ae0c:	d55ff0ef          	jal	ra,3000ab60 <check_dirent>
    3000ae10:	04050063          	beqz	a0,3000ae50 <dfs_romfs_lookup+0x80>
    3000ae14:	00000993          	li	s3,0
    3000ae18:	05813083          	ld	ra,88(sp)
    3000ae1c:	05013403          	ld	s0,80(sp)
    3000ae20:	04813483          	ld	s1,72(sp)
    3000ae24:	04013903          	ld	s2,64(sp)
    3000ae28:	03013a03          	ld	s4,48(sp)
    3000ae2c:	02813a83          	ld	s5,40(sp)
    3000ae30:	02013b03          	ld	s6,32(sp)
    3000ae34:	01813b83          	ld	s7,24(sp)
    3000ae38:	01013c03          	ld	s8,16(sp)
    3000ae3c:	00813c83          	ld	s9,8(sp)
    3000ae40:	00098513          	mv	a0,s3
    3000ae44:	03813983          	ld	s3,56(sp)
    3000ae48:	06010113          	addi	sp,sp,96
    3000ae4c:	00008067          	ret
    3000ae50:	00044703          	lbu	a4,0(s0)
    3000ae54:	02f00793          	li	a5,47
    3000ae58:	0189ba03          	ld	s4,24(s3)
    3000ae5c:	00f71a63          	bne	a4,a5,3000ae70 <dfs_romfs_lookup+0xa0>
    3000ae60:	00144783          	lbu	a5,1(s0)
    3000ae64:	00079663          	bnez	a5,3000ae70 <dfs_romfs_lookup+0xa0>
    3000ae68:	014ab023          	sd	s4,0(s5)
    3000ae6c:	fadff06f          	j	3000ae18 <dfs_romfs_lookup+0x48>
    3000ae70:	0109b483          	ld	s1,16(s3)
    3000ae74:	02f00793          	li	a5,47
    3000ae78:	00044703          	lbu	a4,0(s0)
    3000ae7c:	02f70263          	beq	a4,a5,3000aea0 <dfs_romfs_lookup+0xd0>
    3000ae80:	00040913          	mv	s2,s0
    3000ae84:	02f00713          	li	a4,47
    3000ae88:	00094783          	lbu	a5,0(s2)
    3000ae8c:	00e78463          	beq	a5,a4,3000ae94 <dfs_romfs_lookup+0xc4>
    3000ae90:	00079c63          	bnez	a5,3000aea8 <dfs_romfs_lookup+0xd8>
    3000ae94:	02f00c13          	li	s8,47
    3000ae98:	00100c93          	li	s9,1
    3000ae9c:	0900006f          	j	3000af2c <dfs_romfs_lookup+0x15c>
    3000aea0:	00140413          	addi	s0,s0,1
    3000aea4:	fd5ff06f          	j	3000ae78 <dfs_romfs_lookup+0xa8>
    3000aea8:	00190913          	addi	s2,s2,1
    3000aeac:	fddff06f          	j	3000ae88 <dfs_romfs_lookup+0xb8>
    3000aeb0:	00140413          	addi	s0,s0,1
    3000aeb4:	0500006f          	j	3000af04 <dfs_romfs_lookup+0x134>
    3000aeb8:	00190913          	addi	s2,s2,1
    3000aebc:	0540006f          	j	3000af10 <dfs_romfs_lookup+0x140>
    3000aec0:	001b0b13          	addi	s6,s6,1
    3000aec4:	02048493          	addi	s1,s1,32
    3000aec8:	f54b06e3          	beq	s6,s4,3000ae14 <dfs_romfs_lookup+0x44>
    3000aecc:	00048513          	mv	a0,s1
    3000aed0:	00048993          	mv	s3,s1
    3000aed4:	c8dff0ef          	jal	ra,3000ab60 <check_dirent>
    3000aed8:	f2051ee3          	bnez	a0,3000ae14 <dfs_romfs_lookup+0x44>
    3000aedc:	0084b503          	ld	a0,8(s1)
    3000aee0:	d44f60ef          	jal	ra,30001424 <rt_strlen>
    3000aee4:	fd751ee3          	bne	a0,s7,3000aec0 <dfs_romfs_lookup+0xf0>
    3000aee8:	0084b503          	ld	a0,8(s1)
    3000aeec:	000b8613          	mv	a2,s7
    3000aef0:	00040593          	mv	a1,s0
    3000aef4:	cccf60ef          	jal	ra,300013c0 <rt_strncmp>
    3000aef8:	fc0514e3          	bnez	a0,3000aec0 <dfs_romfs_lookup+0xf0>
    3000aefc:	0184ba03          	ld	s4,24(s1)
    3000af00:	00090413          	mv	s0,s2
    3000af04:	00044783          	lbu	a5,0(s0)
    3000af08:	fb8784e3          	beq	a5,s8,3000aeb0 <dfs_romfs_lookup+0xe0>
    3000af0c:	00040913          	mv	s2,s0
    3000af10:	00094703          	lbu	a4,0(s2)
    3000af14:	01870463          	beq	a4,s8,3000af1c <dfs_romfs_lookup+0x14c>
    3000af18:	fa0710e3          	bnez	a4,3000aeb8 <dfs_romfs_lookup+0xe8>
    3000af1c:	f40786e3          	beqz	a5,3000ae68 <dfs_romfs_lookup+0x98>
    3000af20:	0004a783          	lw	a5,0(s1)
    3000af24:	ef9798e3          	bne	a5,s9,3000ae14 <dfs_romfs_lookup+0x44>
    3000af28:	0104b483          	ld	s1,16(s1)
    3000af2c:	ee0484e3          	beqz	s1,3000ae14 <dfs_romfs_lookup+0x44>
    3000af30:	00000b13          	li	s6,0
    3000af34:	40890bb3          	sub	s7,s2,s0
    3000af38:	f91ff06f          	j	3000aec8 <dfs_romfs_lookup+0xf8>

000000003000af3c <dfs_romfs_open>:
    3000af3c:	04053783          	ld	a5,64(a0)
    3000af40:	fd010113          	addi	sp,sp,-48
    3000af44:	01213823          	sd	s2,16(sp)
    3000af48:	0187b903          	ld	s2,24(a5)
    3000af4c:	00913c23          	sd	s1,24(sp)
    3000af50:	00050493          	mv	s1,a0
    3000af54:	00090513          	mv	a0,s2
    3000af58:	02813023          	sd	s0,32(sp)
    3000af5c:	02113423          	sd	ra,40(sp)
    3000af60:	c01ff0ef          	jal	ra,3000ab60 <check_dirent>
    3000af64:	ffb00413          	li	s0,-5
    3000af68:	06051263          	bnez	a0,3000afcc <dfs_romfs_open+0x90>
    3000af6c:	0284a783          	lw	a5,40(s1)
    3000af70:	fea00413          	li	s0,-22
    3000af74:	6437f793          	andi	a5,a5,1603
    3000af78:	04079a63          	bnez	a5,3000afcc <dfs_romfs_open+0x90>
    3000af7c:	0084b583          	ld	a1,8(s1)
    3000af80:	00050413          	mv	s0,a0
    3000af84:	00810613          	addi	a2,sp,8
    3000af88:	00090513          	mv	a0,s2
    3000af8c:	e45ff0ef          	jal	ra,3000add0 <dfs_romfs_lookup>
    3000af90:	02050063          	beqz	a0,3000afb0 <dfs_romfs_open+0x74>
    3000af94:	0284a783          	lw	a5,40(s1)
    3000af98:	00052683          	lw	a3,0(a0)
    3000af9c:	00010737          	lui	a4,0x10
    3000afa0:	00e7f7b3          	and	a5,a5,a4
    3000afa4:	00100713          	li	a4,1
    3000afa8:	00e69863          	bne	a3,a4,3000afb8 <dfs_romfs_open+0x7c>
    3000afac:	00079863          	bnez	a5,3000afbc <dfs_romfs_open+0x80>
    3000afb0:	ffe00413          	li	s0,-2
    3000afb4:	0180006f          	j	3000afcc <dfs_romfs_open+0x90>
    3000afb8:	fe079ce3          	bnez	a5,3000afb0 <dfs_romfs_open+0x74>
    3000afbc:	00813783          	ld	a5,8(sp)
    3000afc0:	04a4b023          	sd	a0,64(s1)
    3000afc4:	0204bc23          	sd	zero,56(s1)
    3000afc8:	02f4b823          	sd	a5,48(s1)
    3000afcc:	02813083          	ld	ra,40(sp)
    3000afd0:	00040513          	mv	a0,s0
    3000afd4:	02013403          	ld	s0,32(sp)
    3000afd8:	01813483          	ld	s1,24(sp)
    3000afdc:	01013903          	ld	s2,16(sp)
    3000afe0:	03010113          	addi	sp,sp,48
    3000afe4:	00008067          	ret

000000003000afe8 <dfs_romfs_stat>:
    3000afe8:	01853503          	ld	a0,24(a0)
    3000afec:	fe010113          	addi	sp,sp,-32
    3000aff0:	00813823          	sd	s0,16(sp)
    3000aff4:	00060413          	mv	s0,a2
    3000aff8:	00810613          	addi	a2,sp,8
    3000affc:	00113c23          	sd	ra,24(sp)
    3000b000:	dd1ff0ef          	jal	ra,3000add0 <dfs_romfs_lookup>
    3000b004:	04050663          	beqz	a0,3000b050 <dfs_romfs_stat+0x68>
    3000b008:	000087b7          	lui	a5,0x8
    3000b00c:	00052703          	lw	a4,0(a0)
    3000b010:	1b67879b          	addiw	a5,a5,438 # 81b6 <__stack_size+0x79b6>
    3000b014:	00f42823          	sw	a5,16(s0)
    3000b018:	00043023          	sd	zero,0(s0)
    3000b01c:	00100793          	li	a5,1
    3000b020:	00f71863          	bne	a4,a5,3000b030 <dfs_romfs_stat+0x48>
    3000b024:	000047b7          	lui	a5,0x4
    3000b028:	1ff7879b          	addiw	a5,a5,511 # 41ff <__stack_size+0x39ff>
    3000b02c:	00f42823          	sw	a5,16(s0)
    3000b030:	01853783          	ld	a5,24(a0)
    3000b034:	04043c23          	sd	zero,88(s0)
    3000b038:	00000513          	li	a0,0
    3000b03c:	02f43823          	sd	a5,48(s0)
    3000b040:	01813083          	ld	ra,24(sp)
    3000b044:	01013403          	ld	s0,16(sp)
    3000b048:	02010113          	addi	sp,sp,32
    3000b04c:	00008067          	ret
    3000b050:	ffe00513          	li	a0,-2
    3000b054:	fedff06f          	j	3000b040 <dfs_romfs_stat+0x58>

000000003000b058 <dfs_device_fs_mount>:
    3000b058:	00000513          	li	a0,0
    3000b05c:	00008067          	ret

000000003000b060 <dfs_device_fs_poll>:
    3000b060:	00000513          	li	a0,0
    3000b064:	00008067          	ret

000000003000b068 <dfs_device_fs_ioctl>:
    3000b068:	fe010113          	addi	sp,sp,-32
    3000b06c:	00813823          	sd	s0,16(sp)
    3000b070:	00913423          	sd	s1,8(sp)
    3000b074:	01213023          	sd	s2,0(sp)
    3000b078:	00113c23          	sd	ra,24(sp)
    3000b07c:	00050413          	mv	s0,a0
    3000b080:	00058493          	mv	s1,a1
    3000b084:	00060913          	mv	s2,a2
    3000b088:	00051e63          	bnez	a0,3000b0a4 <dfs_device_fs_ioctl+0x3c>
    3000b08c:	02500613          	li	a2,37
    3000b090:	4fff9597          	auipc	a1,0x4fff9
    3000b094:	9d058593          	addi	a1,a1,-1584 # 80003a60 <__FUNCTION__.4110>
    3000b098:	4fff9517          	auipc	a0,0x4fff9
    3000b09c:	98850513          	addi	a0,a0,-1656 # 80003a20 <_romfs+0x50>
    3000b0a0:	bf9f60ef          	jal	ra,30001c98 <rt_assert_handler>
    3000b0a4:	04043403          	ld	s0,64(s0)
    3000b0a8:	00041e63          	bnez	s0,3000b0c4 <dfs_device_fs_ioctl+0x5c>
    3000b0ac:	02900613          	li	a2,41
    3000b0b0:	4fff9597          	auipc	a1,0x4fff9
    3000b0b4:	9b058593          	addi	a1,a1,-1616 # 80003a60 <__FUNCTION__.4110>
    3000b0b8:	4fff9517          	auipc	a0,0x4fff9
    3000b0bc:	97850513          	addi	a0,a0,-1672 # 80003a30 <_romfs+0x60>
    3000b0c0:	bd9f60ef          	jal	ra,30001c98 <rt_assert_handler>
    3000b0c4:	00090613          	mv	a2,s2
    3000b0c8:	00048593          	mv	a1,s1
    3000b0cc:	00040513          	mv	a0,s0
    3000b0d0:	844f70ef          	jal	ra,30002114 <rt_device_control>
    3000b0d4:	01813083          	ld	ra,24(sp)
    3000b0d8:	01013403          	ld	s0,16(sp)
    3000b0dc:	00813483          	ld	s1,8(sp)
    3000b0e0:	00013903          	ld	s2,0(sp)
    3000b0e4:	0005051b          	sext.w	a0,a0
    3000b0e8:	02010113          	addi	sp,sp,32
    3000b0ec:	00008067          	ret

000000003000b0f0 <dfs_device_fs_read>:
    3000b0f0:	fd010113          	addi	sp,sp,-48
    3000b0f4:	02813023          	sd	s0,32(sp)
    3000b0f8:	00913c23          	sd	s1,24(sp)
    3000b0fc:	01213823          	sd	s2,16(sp)
    3000b100:	02113423          	sd	ra,40(sp)
    3000b104:	01313423          	sd	s3,8(sp)
    3000b108:	00050413          	mv	s0,a0
    3000b10c:	00058493          	mv	s1,a1
    3000b110:	00060913          	mv	s2,a2
    3000b114:	00051e63          	bnez	a0,3000b130 <dfs_device_fs_read+0x40>
    3000b118:	03800613          	li	a2,56
    3000b11c:	4fff9597          	auipc	a1,0x4fff9
    3000b120:	95c58593          	addi	a1,a1,-1700 # 80003a78 <__FUNCTION__.4118>
    3000b124:	4fff9517          	auipc	a0,0x4fff9
    3000b128:	8fc50513          	addi	a0,a0,-1796 # 80003a20 <_romfs+0x50>
    3000b12c:	b6df60ef          	jal	ra,30001c98 <rt_assert_handler>
    3000b130:	04043983          	ld	s3,64(s0)
    3000b134:	00099e63          	bnez	s3,3000b150 <dfs_device_fs_read+0x60>
    3000b138:	03c00613          	li	a2,60
    3000b13c:	4fff9597          	auipc	a1,0x4fff9
    3000b140:	93c58593          	addi	a1,a1,-1732 # 80003a78 <__FUNCTION__.4118>
    3000b144:	4fff9517          	auipc	a0,0x4fff9
    3000b148:	8ec50513          	addi	a0,a0,-1812 # 80003a30 <_romfs+0x60>
    3000b14c:	b4df60ef          	jal	ra,30001c98 <rt_assert_handler>
    3000b150:	03843583          	ld	a1,56(s0)
    3000b154:	00090693          	mv	a3,s2
    3000b158:	00048613          	mv	a2,s1
    3000b15c:	00098513          	mv	a0,s3
    3000b160:	e0df60ef          	jal	ra,30001f6c <rt_device_read>
    3000b164:	03843783          	ld	a5,56(s0)
    3000b168:	0005051b          	sext.w	a0,a0
    3000b16c:	02813083          	ld	ra,40(sp)
    3000b170:	00a787b3          	add	a5,a5,a0
    3000b174:	02f43c23          	sd	a5,56(s0)
    3000b178:	02013403          	ld	s0,32(sp)
    3000b17c:	01813483          	ld	s1,24(sp)
    3000b180:	01013903          	ld	s2,16(sp)
    3000b184:	00813983          	ld	s3,8(sp)
    3000b188:	03010113          	addi	sp,sp,48
    3000b18c:	00008067          	ret

000000003000b190 <dfs_device_fs_write>:
    3000b190:	fd010113          	addi	sp,sp,-48
    3000b194:	02813023          	sd	s0,32(sp)
    3000b198:	00913c23          	sd	s1,24(sp)
    3000b19c:	01213823          	sd	s2,16(sp)
    3000b1a0:	02113423          	sd	ra,40(sp)
    3000b1a4:	01313423          	sd	s3,8(sp)
    3000b1a8:	00050413          	mv	s0,a0
    3000b1ac:	00058493          	mv	s1,a1
    3000b1b0:	00060913          	mv	s2,a2
    3000b1b4:	00051e63          	bnez	a0,3000b1d0 <dfs_device_fs_write+0x40>
    3000b1b8:	04a00613          	li	a2,74
    3000b1bc:	4fff9597          	auipc	a1,0x4fff9
    3000b1c0:	8d458593          	addi	a1,a1,-1836 # 80003a90 <__FUNCTION__.4126>
    3000b1c4:	4fff9517          	auipc	a0,0x4fff9
    3000b1c8:	85c50513          	addi	a0,a0,-1956 # 80003a20 <_romfs+0x50>
    3000b1cc:	acdf60ef          	jal	ra,30001c98 <rt_assert_handler>
    3000b1d0:	04043983          	ld	s3,64(s0)
    3000b1d4:	00099e63          	bnez	s3,3000b1f0 <dfs_device_fs_write+0x60>
    3000b1d8:	04e00613          	li	a2,78
    3000b1dc:	4fff9597          	auipc	a1,0x4fff9
    3000b1e0:	8b458593          	addi	a1,a1,-1868 # 80003a90 <__FUNCTION__.4126>
    3000b1e4:	4fff9517          	auipc	a0,0x4fff9
    3000b1e8:	84c50513          	addi	a0,a0,-1972 # 80003a30 <_romfs+0x60>
    3000b1ec:	aadf60ef          	jal	ra,30001c98 <rt_assert_handler>
    3000b1f0:	03843583          	ld	a1,56(s0)
    3000b1f4:	00090693          	mv	a3,s2
    3000b1f8:	00048613          	mv	a2,s1
    3000b1fc:	00098513          	mv	a0,s3
    3000b200:	e41f60ef          	jal	ra,30002040 <rt_device_write>
    3000b204:	03843783          	ld	a5,56(s0)
    3000b208:	0005051b          	sext.w	a0,a0
    3000b20c:	02813083          	ld	ra,40(sp)
    3000b210:	00a787b3          	add	a5,a5,a0
    3000b214:	02f43c23          	sd	a5,56(s0)
    3000b218:	02013403          	ld	s0,32(sp)
    3000b21c:	01813483          	ld	s1,24(sp)
    3000b220:	01013903          	ld	s2,16(sp)
    3000b224:	00813983          	ld	s3,8(sp)
    3000b228:	03010113          	addi	sp,sp,48
    3000b22c:	00008067          	ret

000000003000b230 <dfs_device_fs_getdents>:
    3000b230:	fc010113          	addi	sp,sp,-64
    3000b234:	03213023          	sd	s2,32(sp)
    3000b238:	04053903          	ld	s2,64(a0)
    3000b23c:	02813823          	sd	s0,48(sp)
    3000b240:	02913423          	sd	s1,40(sp)
    3000b244:	02113c23          	sd	ra,56(sp)
    3000b248:	01313c23          	sd	s3,24(sp)
    3000b24c:	01413823          	sd	s4,16(sp)
    3000b250:	01513423          	sd	s5,8(sp)
    3000b254:	01613023          	sd	s6,0(sp)
    3000b258:	00058413          	mv	s0,a1
    3000b25c:	00060493          	mv	s1,a2
    3000b260:	00091e63          	bnez	s2,3000b27c <dfs_device_fs_getdents+0x4c>
    3000b264:	10b00613          	li	a2,267
    3000b268:	4fff9597          	auipc	a1,0x4fff9
    3000b26c:	87058593          	addi	a1,a1,-1936 # 80003ad8 <__FUNCTION__.4166>
    3000b270:	4fff8517          	auipc	a0,0x4fff8
    3000b274:	7d850513          	addi	a0,a0,2008 # 80003a48 <_romfs+0x78>
    3000b278:	a21f60ef          	jal	ra,30001c98 <rt_assert_handler>
    3000b27c:	10400993          	li	s3,260
    3000b280:	10300793          	li	a5,259
    3000b284:	0334d9bb          	divuw	s3,s1,s3
    3000b288:	fea00513          	li	a0,-22
    3000b28c:	0297fe63          	bgeu	a5,s1,3000b2c8 <dfs_device_fs_getdents+0x98>
    3000b290:	00440413          	addi	s0,s0,4
    3000b294:	00000493          	li	s1,0
    3000b298:	00100a13          	li	s4,1
    3000b29c:	01400a93          	li	s5,20
    3000b2a0:	10400b13          	li	s6,260
    3000b2a4:	00895783          	lhu	a5,8(s2)
    3000b2a8:	009787bb          	addw	a5,a5,s1
    3000b2ac:	01348863          	beq	s1,s3,3000b2bc <dfs_device_fs_getdents+0x8c>
    3000b2b0:	00a95683          	lhu	a3,10(s2)
    3000b2b4:	0007871b          	sext.w	a4,a5
    3000b2b8:	02d76c63          	bltu	a4,a3,3000b2f0 <dfs_device_fs_getdents+0xc0>
    3000b2bc:	10400513          	li	a0,260
    3000b2c0:	0295053b          	mulw	a0,a0,s1
    3000b2c4:	00f91423          	sh	a5,8(s2)
    3000b2c8:	03813083          	ld	ra,56(sp)
    3000b2cc:	03013403          	ld	s0,48(sp)
    3000b2d0:	02813483          	ld	s1,40(sp)
    3000b2d4:	02013903          	ld	s2,32(sp)
    3000b2d8:	01813983          	ld	s3,24(sp)
    3000b2dc:	01013a03          	ld	s4,16(sp)
    3000b2e0:	00813a83          	ld	s5,8(sp)
    3000b2e4:	00013b03          	ld	s6,0(sp)
    3000b2e8:	04010113          	addi	sp,sp,64
    3000b2ec:	00008067          	ret
    3000b2f0:	00093703          	ld	a4,0(s2)
    3000b2f4:	02079793          	slli	a5,a5,0x20
    3000b2f8:	0207d793          	srli	a5,a5,0x20
    3000b2fc:	00379793          	slli	a5,a5,0x3
    3000b300:	00f707b3          	add	a5,a4,a5
    3000b304:	0007b583          	ld	a1,0(a5)
    3000b308:	00040513          	mv	a0,s0
    3000b30c:	ff440e23          	sb	s4,-4(s0)
    3000b310:	ff540ea3          	sb	s5,-3(s0)
    3000b314:	ff641f23          	sh	s6,-2(s0)
    3000b318:	01400613          	li	a2,20
    3000b31c:	860f60ef          	jal	ra,3000137c <rt_strncpy>
    3000b320:	0014849b          	addiw	s1,s1,1
    3000b324:	10440413          	addi	s0,s0,260
    3000b328:	f7dff06f          	j	3000b2a4 <dfs_device_fs_getdents+0x74>

000000003000b32c <dfs_device_fs_close>:
    3000b32c:	fe010113          	addi	sp,sp,-32
    3000b330:	00813823          	sd	s0,16(sp)
    3000b334:	00113c23          	sd	ra,24(sp)
    3000b338:	00913423          	sd	s1,8(sp)
    3000b33c:	00050413          	mv	s0,a0
    3000b340:	00051e63          	bnez	a0,3000b35c <dfs_device_fs_close+0x30>
    3000b344:	05c00613          	li	a2,92
    3000b348:	4fff8597          	auipc	a1,0x4fff8
    3000b34c:	76058593          	addi	a1,a1,1888 # 80003aa8 <__FUNCTION__.4132>
    3000b350:	4fff8517          	auipc	a0,0x4fff8
    3000b354:	6d050513          	addi	a0,a0,1744 # 80003a20 <_romfs+0x50>
    3000b358:	941f60ef          	jal	ra,30001c98 <rt_assert_handler>
    3000b35c:	00245703          	lhu	a4,2(s0)
    3000b360:	00200793          	li	a5,2
    3000b364:	04043483          	ld	s1,64(s0)
    3000b368:	04f71263          	bne	a4,a5,3000b3ac <dfs_device_fs_close+0x80>
    3000b36c:	00049e63          	bnez	s1,3000b388 <dfs_device_fs_close+0x5c>
    3000b370:	06300613          	li	a2,99
    3000b374:	4fff8597          	auipc	a1,0x4fff8
    3000b378:	73458593          	addi	a1,a1,1844 # 80003aa8 <__FUNCTION__.4132>
    3000b37c:	4fff8517          	auipc	a0,0x4fff8
    3000b380:	6cc50513          	addi	a0,a0,1740 # 80003a48 <_romfs+0x78>
    3000b384:	915f60ef          	jal	ra,30001c98 <rt_assert_handler>
    3000b388:	00048513          	mv	a0,s1
    3000b38c:	e6cf90ef          	jal	ra,300049f8 <rt_free>
    3000b390:	00000793          	li	a5,0
    3000b394:	01813083          	ld	ra,24(sp)
    3000b398:	01013403          	ld	s0,16(sp)
    3000b39c:	00813483          	ld	s1,8(sp)
    3000b3a0:	00078513          	mv	a0,a5
    3000b3a4:	02010113          	addi	sp,sp,32
    3000b3a8:	00008067          	ret
    3000b3ac:	00049e63          	bnez	s1,3000b3c8 <dfs_device_fs_close+0x9c>
    3000b3b0:	06c00613          	li	a2,108
    3000b3b4:	4fff8597          	auipc	a1,0x4fff8
    3000b3b8:	6f458593          	addi	a1,a1,1780 # 80003aa8 <__FUNCTION__.4132>
    3000b3bc:	4fff8517          	auipc	a0,0x4fff8
    3000b3c0:	67450513          	addi	a0,a0,1652 # 80003a30 <_romfs+0x60>
    3000b3c4:	8d5f60ef          	jal	ra,30001c98 <rt_assert_handler>
    3000b3c8:	00048513          	mv	a0,s1
    3000b3cc:	af5f60ef          	jal	ra,30001ec0 <rt_device_close>
    3000b3d0:	ffb00793          	li	a5,-5
    3000b3d4:	fc0510e3          	bnez	a0,3000b394 <dfs_device_fs_close+0x68>
    3000b3d8:	04043023          	sd	zero,64(s0)
    3000b3dc:	fb5ff06f          	j	3000b390 <dfs_device_fs_close+0x64>

000000003000b3e0 <dfs_device_fs_stat>:
    3000b3e0:	0005c703          	lbu	a4,0(a1)
    3000b3e4:	ff010113          	addi	sp,sp,-16
    3000b3e8:	00813023          	sd	s0,0(sp)
    3000b3ec:	00113423          	sd	ra,8(sp)
    3000b3f0:	02f00793          	li	a5,47
    3000b3f4:	00060413          	mv	s0,a2
    3000b3f8:	02f71c63          	bne	a4,a5,3000b430 <dfs_device_fs_stat+0x50>
    3000b3fc:	0015c783          	lbu	a5,1(a1)
    3000b400:	02079863          	bnez	a5,3000b430 <dfs_device_fs_stat+0x50>
    3000b404:	000047b7          	lui	a5,0x4
    3000b408:	00063023          	sd	zero,0(a2) # 100000 <__stack_size+0xff800>
    3000b40c:	1ff7879b          	addiw	a5,a5,511 # 41ff <__stack_size+0x39ff>
    3000b410:	00f42823          	sw	a5,16(s0)
    3000b414:	02043823          	sd	zero,48(s0)
    3000b418:	04043c23          	sd	zero,88(s0)
    3000b41c:	00000513          	li	a0,0
    3000b420:	00813083          	ld	ra,8(sp)
    3000b424:	00013403          	ld	s0,0(sp)
    3000b428:	01010113          	addi	sp,sp,16
    3000b42c:	00008067          	ret
    3000b430:	00158513          	addi	a0,a1,1
    3000b434:	8b5f60ef          	jal	ra,30001ce8 <rt_device_find>
    3000b438:	00050793          	mv	a5,a0
    3000b43c:	ffe00513          	li	a0,-2
    3000b440:	fe0780e3          	beqz	a5,3000b420 <dfs_device_fs_stat+0x40>
    3000b444:	0287a783          	lw	a5,40(a5)
    3000b448:	00043023          	sd	zero,0(s0)
    3000b44c:	00079863          	bnez	a5,3000b45c <dfs_device_fs_stat+0x7c>
    3000b450:	000027b7          	lui	a5,0x2
    3000b454:	1b67879b          	addiw	a5,a5,438 # 21b6 <__stack_size+0x19b6>
    3000b458:	fb9ff06f          	j	3000b410 <dfs_device_fs_stat+0x30>
    3000b45c:	00100713          	li	a4,1
    3000b460:	00e79663          	bne	a5,a4,3000b46c <dfs_device_fs_stat+0x8c>
    3000b464:	000067b7          	lui	a5,0x6
    3000b468:	fedff06f          	j	3000b454 <dfs_device_fs_stat+0x74>
    3000b46c:	00f00713          	li	a4,15
    3000b470:	00e79663          	bne	a5,a4,3000b47c <dfs_device_fs_stat+0x9c>
    3000b474:	000017b7          	lui	a5,0x1
    3000b478:	fddff06f          	j	3000b454 <dfs_device_fs_stat+0x74>
    3000b47c:	000087b7          	lui	a5,0x8
    3000b480:	fd5ff06f          	j	3000b454 <dfs_device_fs_stat+0x74>

000000003000b484 <dfs_device_fs_open>:
    3000b484:	fd010113          	addi	sp,sp,-48
    3000b488:	02813023          	sd	s0,32(sp)
    3000b48c:	00050413          	mv	s0,a0
    3000b490:	00853503          	ld	a0,8(a0)
    3000b494:	02113423          	sd	ra,40(sp)
    3000b498:	00913c23          	sd	s1,24(sp)
    3000b49c:	01213823          	sd	s2,16(sp)
    3000b4a0:	01313423          	sd	s3,8(sp)
    3000b4a4:	01413023          	sd	s4,0(sp)
    3000b4a8:	00054703          	lbu	a4,0(a0)
    3000b4ac:	02f00793          	li	a5,47
    3000b4b0:	0ef71463          	bne	a4,a5,3000b598 <dfs_device_fs_open+0x114>
    3000b4b4:	00154783          	lbu	a5,1(a0)
    3000b4b8:	0e079063          	bnez	a5,3000b598 <dfs_device_fs_open+0x114>
    3000b4bc:	02842783          	lw	a5,40(s0)
    3000b4c0:	02f79713          	slli	a4,a5,0x2f
    3000b4c4:	0c075a63          	bgez	a4,3000b598 <dfs_device_fs_open+0x114>
    3000b4c8:	bdcf70ef          	jal	ra,300028a4 <rt_enter_critical>
    3000b4cc:	00900513          	li	a0,9
    3000b4d0:	fb4f80ef          	jal	ra,30003c84 <rt_object_get_information>
    3000b4d4:	00050913          	mv	s2,a0
    3000b4d8:	00051e63          	bnez	a0,3000b4f4 <dfs_device_fs_open+0x70>
    3000b4dc:	08e00613          	li	a2,142
    3000b4e0:	4fff8597          	auipc	a1,0x4fff8
    3000b4e4:	5e058593          	addi	a1,a1,1504 # 80003ac0 <__FUNCTION__.4144>
    3000b4e8:	4fff6517          	auipc	a0,0x4fff6
    3000b4ec:	bb850513          	addi	a0,a0,-1096 # 800010a0 <__FUNCTION__.2718+0x18>
    3000b4f0:	fa8f60ef          	jal	ra,30001c98 <rt_assert_handler>
    3000b4f4:	00893783          	ld	a5,8(s2)
    3000b4f8:	00000993          	li	s3,0
    3000b4fc:	00890a13          	addi	s4,s2,8
    3000b500:	05479863          	bne	a5,s4,3000b550 <dfs_device_fs_open+0xcc>
    3000b504:	02099513          	slli	a0,s3,0x20
    3000b508:	02055513          	srli	a0,a0,0x20
    3000b50c:	00250513          	addi	a0,a0,2
    3000b510:	00351513          	slli	a0,a0,0x3
    3000b514:	9b0f90ef          	jal	ra,300046c4 <rt_malloc>
    3000b518:	00050493          	mv	s1,a0
    3000b51c:	04051063          	bnez	a0,3000b55c <dfs_device_fs_open+0xd8>
    3000b520:	bacf70ef          	jal	ra,300028cc <rt_exit_critical>
    3000b524:	04943023          	sd	s1,64(s0)
    3000b528:	00000793          	li	a5,0
    3000b52c:	02813083          	ld	ra,40(sp)
    3000b530:	02013403          	ld	s0,32(sp)
    3000b534:	01813483          	ld	s1,24(sp)
    3000b538:	01013903          	ld	s2,16(sp)
    3000b53c:	00813983          	ld	s3,8(sp)
    3000b540:	00013a03          	ld	s4,0(sp)
    3000b544:	00078513          	mv	a0,a5
    3000b548:	03010113          	addi	sp,sp,48
    3000b54c:	00008067          	ret
    3000b550:	0007b783          	ld	a5,0(a5) # 8000 <__stack_size+0x7800>
    3000b554:	0019899b          	addiw	s3,s3,1
    3000b558:	fa9ff06f          	j	3000b500 <dfs_device_fs_open+0x7c>
    3000b55c:	00893703          	ld	a4,8(s2)
    3000b560:	01050613          	addi	a2,a0,16
    3000b564:	00c53023          	sd	a2,0(a0)
    3000b568:	00051423          	sh	zero,8(a0)
    3000b56c:	01351523          	sh	s3,10(a0)
    3000b570:	00000693          	li	a3,0
    3000b574:	faea06e3          	beq	s4,a4,3000b520 <dfs_device_fs_open+0x9c>
    3000b578:	02069793          	slli	a5,a3,0x20
    3000b57c:	01d7d793          	srli	a5,a5,0x1d
    3000b580:	fe870593          	addi	a1,a4,-24 # ffe8 <__stack_size+0xf7e8>
    3000b584:	00f607b3          	add	a5,a2,a5
    3000b588:	00073703          	ld	a4,0(a4)
    3000b58c:	00b7b023          	sd	a1,0(a5)
    3000b590:	0016869b          	addiw	a3,a3,1
    3000b594:	fe1ff06f          	j	3000b574 <dfs_device_fs_open+0xf0>
    3000b598:	00150513          	addi	a0,a0,1
    3000b59c:	f4cf60ef          	jal	ra,30001ce8 <rt_device_find>
    3000b5a0:	00050493          	mv	s1,a0
    3000b5a4:	fed00793          	li	a5,-19
    3000b5a8:	f80502e3          	beqz	a0,3000b52c <dfs_device_fs_open+0xa8>
    3000b5ac:	00300593          	li	a1,3
    3000b5b0:	fb8f60ef          	jal	ra,30001d68 <rt_device_open>
    3000b5b4:	00050663          	beqz	a0,3000b5c0 <dfs_device_fs_open+0x13c>
    3000b5b8:	ffa00793          	li	a5,-6
    3000b5bc:	00f51a63          	bne	a0,a5,3000b5d0 <dfs_device_fs_open+0x14c>
    3000b5c0:	00400793          	li	a5,4
    3000b5c4:	04943023          	sd	s1,64(s0)
    3000b5c8:	00f41123          	sh	a5,2(s0)
    3000b5cc:	f5dff06f          	j	3000b528 <dfs_device_fs_open+0xa4>
    3000b5d0:	04043023          	sd	zero,64(s0)
    3000b5d4:	ffb00793          	li	a5,-5
    3000b5d8:	f55ff06f          	j	3000b52c <dfs_device_fs_open+0xa8>

000000003000b5dc <devfs_init>:
    3000b5dc:	ff010113          	addi	sp,sp,-16
    3000b5e0:	4fff8517          	auipc	a0,0x4fff8
    3000b5e4:	55850513          	addi	a0,a0,1368 # 80003b38 <_device_fs>
    3000b5e8:	00113423          	sd	ra,8(sp)
    3000b5ec:	d51fe0ef          	jal	ra,3000a33c <dfs_register>
    3000b5f0:	00813083          	ld	ra,8(sp)
    3000b5f4:	00000513          	li	a0,0
    3000b5f8:	01010113          	addi	sp,sp,16
    3000b5fc:	00008067          	ret

000000003000b600 <rt_data_queue_init>:
    3000b600:	fd010113          	addi	sp,sp,-48
    3000b604:	02813023          	sd	s0,32(sp)
    3000b608:	00913c23          	sd	s1,24(sp)
    3000b60c:	01213823          	sd	s2,16(sp)
    3000b610:	01313423          	sd	s3,8(sp)
    3000b614:	02113423          	sd	ra,40(sp)
    3000b618:	00050413          	mv	s0,a0
    3000b61c:	00058493          	mv	s1,a1
    3000b620:	00060913          	mv	s2,a2
    3000b624:	00068993          	mv	s3,a3
    3000b628:	00051e63          	bnez	a0,3000b644 <rt_data_queue_init+0x44>
    3000b62c:	01e00613          	li	a2,30
    3000b630:	4fff8597          	auipc	a1,0x4fff8
    3000b634:	5a058593          	addi	a1,a1,1440 # 80003bd0 <__FUNCTION__.3029>
    3000b638:	4fff8517          	auipc	a0,0x4fff8
    3000b63c:	55050513          	addi	a0,a0,1360 # 80003b88 <_device_fs+0x50>
    3000b640:	e58f60ef          	jal	ra,30001c98 <rt_assert_handler>
    3000b644:	00049e63          	bnez	s1,3000b660 <rt_data_queue_init+0x60>
    3000b648:	01f00613          	li	a2,31
    3000b64c:	4fff8597          	auipc	a1,0x4fff8
    3000b650:	58458593          	addi	a1,a1,1412 # 80003bd0 <__FUNCTION__.3029>
    3000b654:	4fff8517          	auipc	a0,0x4fff8
    3000b658:	54c50513          	addi	a0,a0,1356 # 80003ba0 <_device_fs+0x68>
    3000b65c:	e3cf60ef          	jal	ra,30001c98 <rt_assert_handler>
    3000b660:	bead17b7          	lui	a5,0xbead1
    3000b664:	e0e7879b          	addiw	a5,a5,-498 # ffffffffbead0e0e <__stack_start__+0xffffffff3dad0e0e>
    3000b668:	00f42023          	sw	a5,0(s0)
    3000b66c:	000087b7          	lui	a5,0x8
    3000b670:	00f42423          	sw	a5,8(s0)
    3000b674:	01840793          	addi	a5,s0,24
    3000b678:	02f43023          	sd	a5,32(s0)
    3000b67c:	00f43c23          	sd	a5,24(s0)
    3000b680:	02840793          	addi	a5,s0,40
    3000b684:	02f43823          	sd	a5,48(s0)
    3000b688:	02f43423          	sd	a5,40(s0)
    3000b68c:	03343c23          	sd	s3,56(s0)
    3000b690:	00941223          	sh	s1,4(s0)
    3000b694:	01241323          	sh	s2,6(s0)
    3000b698:	00449513          	slli	a0,s1,0x4
    3000b69c:	828f90ef          	jal	ra,300046c4 <rt_malloc>
    3000b6a0:	00050793          	mv	a5,a0
    3000b6a4:	00a43823          	sd	a0,16(s0)
    3000b6a8:	00000513          	li	a0,0
    3000b6ac:	00079463          	bnez	a5,3000b6b4 <rt_data_queue_init+0xb4>
    3000b6b0:	ffb00513          	li	a0,-5
    3000b6b4:	02813083          	ld	ra,40(sp)
    3000b6b8:	02013403          	ld	s0,32(sp)
    3000b6bc:	01813483          	ld	s1,24(sp)
    3000b6c0:	01013903          	ld	s2,16(sp)
    3000b6c4:	00813983          	ld	s3,8(sp)
    3000b6c8:	03010113          	addi	sp,sp,48
    3000b6cc:	00008067          	ret

000000003000b6d0 <rt_data_queue_push>:
    3000b6d0:	f8010113          	addi	sp,sp,-128
    3000b6d4:	06813823          	sd	s0,112(sp)
    3000b6d8:	05413823          	sd	s4,80(sp)
    3000b6dc:	05513423          	sd	s5,72(sp)
    3000b6e0:	06113c23          	sd	ra,120(sp)
    3000b6e4:	06913423          	sd	s1,104(sp)
    3000b6e8:	07213023          	sd	s2,96(sp)
    3000b6ec:	05313c23          	sd	s3,88(sp)
    3000b6f0:	05613023          	sd	s6,64(sp)
    3000b6f4:	03713c23          	sd	s7,56(sp)
    3000b6f8:	03813823          	sd	s8,48(sp)
    3000b6fc:	03913423          	sd	s9,40(sp)
    3000b700:	03a13023          	sd	s10,32(sp)
    3000b704:	01b13c23          	sd	s11,24(sp)
    3000b708:	00d12623          	sw	a3,12(sp)
    3000b70c:	00050413          	mv	s0,a0
    3000b710:	00058a93          	mv	s5,a1
    3000b714:	00060a13          	mv	s4,a2
    3000b718:	00051e63          	bnez	a0,3000b734 <rt_data_queue_push+0x64>
    3000b71c:	04200613          	li	a2,66
    3000b720:	4fff8597          	auipc	a1,0x4fff8
    3000b724:	4c858593          	addi	a1,a1,1224 # 80003be8 <__FUNCTION__.3039>
    3000b728:	4fff8517          	auipc	a0,0x4fff8
    3000b72c:	46050513          	addi	a0,a0,1120 # 80003b88 <_device_fs+0x50>
    3000b730:	d68f60ef          	jal	ra,30001c98 <rt_assert_handler>
    3000b734:	00042703          	lw	a4,0(s0)
    3000b738:	bead17b7          	lui	a5,0xbead1
    3000b73c:	e0e78793          	addi	a5,a5,-498 # ffffffffbead0e0e <__stack_start__+0xffffffff3dad0e0e>
    3000b740:	00f70e63          	beq	a4,a5,3000b75c <rt_data_queue_push+0x8c>
    3000b744:	04300613          	li	a2,67
    3000b748:	4fff8597          	auipc	a1,0x4fff8
    3000b74c:	4a058593          	addi	a1,a1,1184 # 80003be8 <__FUNCTION__.3039>
    3000b750:	4fff8517          	auipc	a0,0x4fff8
    3000b754:	46050513          	addi	a0,a0,1120 # 80003bb0 <_device_fs+0x78>
    3000b758:	d40f60ef          	jal	ra,30001c98 <rt_assert_handler>
    3000b75c:	d44f70ef          	jal	ra,30002ca0 <rt_thread_self>
    3000b760:	00050913          	mv	s2,a0
    3000b764:	d7df90ef          	jal	ra,300054e0 <rt_hw_interrupt_disable>
    3000b768:	00050493          	mv	s1,a0
    3000b76c:	4fff8b17          	auipc	s6,0x4fff8
    3000b770:	47cb0b13          	addi	s6,s6,1148 # 80003be8 <__FUNCTION__.3039>
    3000b774:	4fff5c97          	auipc	s9,0x4fff5
    3000b778:	fe4c8c93          	addi	s9,s9,-28 # 80000758 <_uart_ops+0x118>
    3000b77c:	4fff5d17          	auipc	s10,0x4fff5
    3000b780:	f34d0d13          	addi	s10,s10,-204 # 800006b0 <_uart_ops+0x70>
    3000b784:	02890b93          	addi	s7,s2,40
    3000b788:	01840d93          	addi	s11,s0,24
    3000b78c:	08890c13          	addi	s8,s2,136
    3000b790:	00842783          	lw	a5,8(s0)
    3000b794:	1207c263          	bltz	a5,3000b8b8 <rt_data_queue_push+0x1e8>
    3000b798:	00843783          	ld	a5,8(s0)
    3000b79c:	00008737          	lui	a4,0x8
    3000b7a0:	fff70713          	addi	a4,a4,-1 # 7fff <__stack_size+0x77ff>
    3000b7a4:	0107d793          	srli	a5,a5,0x10
    3000b7a8:	00e7f7b3          	and	a5,a5,a4
    3000b7ac:	01043683          	ld	a3,16(s0)
    3000b7b0:	03079793          	slli	a5,a5,0x30
    3000b7b4:	0307d793          	srli	a5,a5,0x30
    3000b7b8:	00479613          	slli	a2,a5,0x4
    3000b7bc:	00c686b3          	add	a3,a3,a2
    3000b7c0:	0017879b          	addiw	a5,a5,1
    3000b7c4:	0156b023          	sd	s5,0(a3)
    3000b7c8:	0146b423          	sd	s4,8(a3)
    3000b7cc:	00e7f7b3          	and	a5,a5,a4
    3000b7d0:	00842683          	lw	a3,8(s0)
    3000b7d4:	03079793          	slli	a5,a5,0x30
    3000b7d8:	0307d793          	srli	a5,a5,0x30
    3000b7dc:	80010637          	lui	a2,0x80010
    3000b7e0:	00e7f733          	and	a4,a5,a4
    3000b7e4:	fff60613          	addi	a2,a2,-1 # ffffffff8000ffff <__stack_start__+0xfffffffeff00ffff>
    3000b7e8:	00c6f6b3          	and	a3,a3,a2
    3000b7ec:	0107171b          	slliw	a4,a4,0x10
    3000b7f0:	00e6e733          	or	a4,a3,a4
    3000b7f4:	00445683          	lhu	a3,4(s0)
    3000b7f8:	00e42423          	sw	a4,8(s0)
    3000b7fc:	00f69663          	bne	a3,a5,3000b808 <rt_data_queue_push+0x138>
    3000b800:	00c77733          	and	a4,a4,a2
    3000b804:	00e42423          	sw	a4,8(s0)
    3000b808:	00842783          	lw	a5,8(s0)
    3000b80c:	ffff8737          	lui	a4,0xffff8
    3000b810:	fff70713          	addi	a4,a4,-1 # ffffffffffff7fff <__stack_start__+0xffffffff7eff7fff>
    3000b814:	00e7f7b3          	and	a5,a5,a4
    3000b818:	00f42423          	sw	a5,8(s0)
    3000b81c:	00843703          	ld	a4,8(s0)
    3000b820:	00008637          	lui	a2,0x8
    3000b824:	fff60613          	addi	a2,a2,-1 # 7fff <__stack_size+0x77ff>
    3000b828:	01075693          	srli	a3,a4,0x10
    3000b82c:	00c6f6b3          	and	a3,a3,a2
    3000b830:	00c77733          	and	a4,a4,a2
    3000b834:	03069693          	slli	a3,a3,0x30
    3000b838:	03071713          	slli	a4,a4,0x30
    3000b83c:	0306d693          	srli	a3,a3,0x30
    3000b840:	03075713          	srli	a4,a4,0x30
    3000b844:	00e69863          	bne	a3,a4,3000b854 <rt_data_queue_push+0x184>
    3000b848:	80000737          	lui	a4,0x80000
    3000b84c:	00e7e7b3          	or	a5,a5,a4
    3000b850:	00f42423          	sw	a5,8(s0)
    3000b854:	02843503          	ld	a0,40(s0)
    3000b858:	02840793          	addi	a5,s0,40
    3000b85c:	00000993          	li	s3,0
    3000b860:	0ef50863          	beq	a0,a5,3000b950 <rt_data_queue_push+0x280>
    3000b864:	fd850513          	addi	a0,a0,-40
    3000b868:	8adf70ef          	jal	ra,30003114 <rt_thread_resume>
    3000b86c:	00048513          	mv	a0,s1
    3000b870:	c79f90ef          	jal	ra,300054e8 <rt_hw_interrupt_enable>
    3000b874:	ecdf60ef          	jal	ra,30002740 <rt_schedule>
    3000b878:	07813083          	ld	ra,120(sp)
    3000b87c:	07013403          	ld	s0,112(sp)
    3000b880:	06813483          	ld	s1,104(sp)
    3000b884:	06013903          	ld	s2,96(sp)
    3000b888:	05013a03          	ld	s4,80(sp)
    3000b88c:	04813a83          	ld	s5,72(sp)
    3000b890:	04013b03          	ld	s6,64(sp)
    3000b894:	03813b83          	ld	s7,56(sp)
    3000b898:	03013c03          	ld	s8,48(sp)
    3000b89c:	02813c83          	ld	s9,40(sp)
    3000b8a0:	02013d03          	ld	s10,32(sp)
    3000b8a4:	01813d83          	ld	s11,24(sp)
    3000b8a8:	00098513          	mv	a0,s3
    3000b8ac:	05813983          	ld	s3,88(sp)
    3000b8b0:	08010113          	addi	sp,sp,128
    3000b8b4:	00008067          	ret
    3000b8b8:	00c12783          	lw	a5,12(sp)
    3000b8bc:	0a078c63          	beqz	a5,3000b974 <rt_data_queue_push+0x2a4>
    3000b8c0:	c21f90ef          	jal	ra,300054e0 <rt_hw_interrupt_disable>
    3000b8c4:	00050993          	mv	s3,a0
    3000b8c8:	dd0f50ef          	jal	ra,30000e98 <rt_interrupt_get_nest>
    3000b8cc:	02050063          	beqz	a0,3000b8ec <rt_data_queue_push+0x21c>
    3000b8d0:	000b0593          	mv	a1,s6
    3000b8d4:	000c8513          	mv	a0,s9
    3000b8d8:	a44f60ef          	jal	ra,30001b1c <rt_kprintf>
    3000b8dc:	05400613          	li	a2,84
    3000b8e0:	000b0593          	mv	a1,s6
    3000b8e4:	000d0513          	mv	a0,s10
    3000b8e8:	bb0f60ef          	jal	ra,30001c98 <rt_assert_handler>
    3000b8ec:	00098513          	mv	a0,s3
    3000b8f0:	bf9f90ef          	jal	ra,300054e8 <rt_hw_interrupt_enable>
    3000b8f4:	00090513          	mv	a0,s2
    3000b8f8:	06093023          	sd	zero,96(s2)
    3000b8fc:	e38f70ef          	jal	ra,30002f34 <rt_thread_suspend>
    3000b900:	02043783          	ld	a5,32(s0)
    3000b904:	0177b023          	sd	s7,0(a5)
    3000b908:	02f93823          	sd	a5,48(s2)
    3000b90c:	00c12783          	lw	a5,12(sp)
    3000b910:	03743023          	sd	s7,32(s0)
    3000b914:	03b93423          	sd	s11,40(s2)
    3000b918:	00f05e63          	blez	a5,3000b934 <rt_data_queue_push+0x264>
    3000b91c:	00c10613          	addi	a2,sp,12
    3000b920:	00000593          	li	a1,0
    3000b924:	000c0513          	mv	a0,s8
    3000b928:	e95f70ef          	jal	ra,300037bc <rt_timer_control>
    3000b92c:	000c0513          	mv	a0,s8
    3000b930:	c49f70ef          	jal	ra,30003578 <rt_timer_start>
    3000b934:	00048513          	mv	a0,s1
    3000b938:	bb1f90ef          	jal	ra,300054e8 <rt_hw_interrupt_enable>
    3000b93c:	e05f60ef          	jal	ra,30002740 <rt_schedule>
    3000b940:	06093983          	ld	s3,96(s2)
    3000b944:	b9df90ef          	jal	ra,300054e0 <rt_hw_interrupt_disable>
    3000b948:	00050493          	mv	s1,a0
    3000b94c:	e40982e3          	beqz	s3,3000b790 <rt_data_queue_push+0xc0>
    3000b950:	00048513          	mv	a0,s1
    3000b954:	b95f90ef          	jal	ra,300054e8 <rt_hw_interrupt_enable>
    3000b958:	f20990e3          	bnez	s3,3000b878 <rt_data_queue_push+0x1a8>
    3000b95c:	03843783          	ld	a5,56(s0)
    3000b960:	f0078ce3          	beqz	a5,3000b878 <rt_data_queue_push+0x1a8>
    3000b964:	00200593          	li	a1,2
    3000b968:	00040513          	mv	a0,s0
    3000b96c:	000780e7          	jalr	a5
    3000b970:	f09ff06f          	j	3000b878 <rt_data_queue_push+0x1a8>
    3000b974:	ffe00993          	li	s3,-2
    3000b978:	fd9ff06f          	j	3000b950 <rt_data_queue_push+0x280>

000000003000b97c <rt_data_queue_reset>:
    3000b97c:	fd010113          	addi	sp,sp,-48
    3000b980:	02813023          	sd	s0,32(sp)
    3000b984:	02113423          	sd	ra,40(sp)
    3000b988:	00913c23          	sd	s1,24(sp)
    3000b98c:	01213823          	sd	s2,16(sp)
    3000b990:	01313423          	sd	s3,8(sp)
    3000b994:	00050413          	mv	s0,a0
    3000b998:	00051e63          	bnez	a0,3000b9b4 <rt_data_queue_reset+0x38>
    3000b99c:	12900613          	li	a2,297
    3000b9a0:	4fff8597          	auipc	a1,0x4fff8
    3000b9a4:	26058593          	addi	a1,a1,608 # 80003c00 <__FUNCTION__.3072>
    3000b9a8:	4fff8517          	auipc	a0,0x4fff8
    3000b9ac:	1e050513          	addi	a0,a0,480 # 80003b88 <_device_fs+0x50>
    3000b9b0:	ae8f60ef          	jal	ra,30001c98 <rt_assert_handler>
    3000b9b4:	00042703          	lw	a4,0(s0)
    3000b9b8:	bead17b7          	lui	a5,0xbead1
    3000b9bc:	e0e78793          	addi	a5,a5,-498 # ffffffffbead0e0e <__stack_start__+0xffffffff3dad0e0e>
    3000b9c0:	00f70e63          	beq	a4,a5,3000b9dc <rt_data_queue_reset+0x60>
    3000b9c4:	12a00613          	li	a2,298
    3000b9c8:	4fff8597          	auipc	a1,0x4fff8
    3000b9cc:	23858593          	addi	a1,a1,568 # 80003c00 <__FUNCTION__.3072>
    3000b9d0:	4fff8517          	auipc	a0,0x4fff8
    3000b9d4:	1e050513          	addi	a0,a0,480 # 80003bb0 <_device_fs+0x78>
    3000b9d8:	ac0f60ef          	jal	ra,30001c98 <rt_assert_handler>
    3000b9dc:	b05f90ef          	jal	ra,300054e0 <rt_hw_interrupt_disable>
    3000b9e0:	000087b7          	lui	a5,0x8
    3000b9e4:	00f42423          	sw	a5,8(s0)
    3000b9e8:	b01f90ef          	jal	ra,300054e8 <rt_hw_interrupt_enable>
    3000b9ec:	02840913          	addi	s2,s0,40
    3000b9f0:	eb5f60ef          	jal	ra,300028a4 <rt_enter_critical>
    3000b9f4:	fff00993          	li	s3,-1
    3000b9f8:	02843783          	ld	a5,40(s0)
    3000b9fc:	03279a63          	bne	a5,s2,3000ba30 <rt_data_queue_reset+0xb4>
    3000ba00:	01840913          	addi	s2,s0,24
    3000ba04:	fff00993          	li	s3,-1
    3000ba08:	01843783          	ld	a5,24(s0)
    3000ba0c:	05279463          	bne	a5,s2,3000ba54 <rt_data_queue_reset+0xd8>
    3000ba10:	ebdf60ef          	jal	ra,300028cc <rt_exit_critical>
    3000ba14:	02013403          	ld	s0,32(sp)
    3000ba18:	02813083          	ld	ra,40(sp)
    3000ba1c:	01813483          	ld	s1,24(sp)
    3000ba20:	01013903          	ld	s2,16(sp)
    3000ba24:	00813983          	ld	s3,8(sp)
    3000ba28:	03010113          	addi	sp,sp,48
    3000ba2c:	d15f606f          	j	30002740 <rt_schedule>
    3000ba30:	ab1f90ef          	jal	ra,300054e0 <rt_hw_interrupt_disable>
    3000ba34:	00050493          	mv	s1,a0
    3000ba38:	02843503          	ld	a0,40(s0)
    3000ba3c:	03353c23          	sd	s3,56(a0)
    3000ba40:	fd850513          	addi	a0,a0,-40
    3000ba44:	ed0f70ef          	jal	ra,30003114 <rt_thread_resume>
    3000ba48:	00048513          	mv	a0,s1
    3000ba4c:	a9df90ef          	jal	ra,300054e8 <rt_hw_interrupt_enable>
    3000ba50:	fa9ff06f          	j	3000b9f8 <rt_data_queue_reset+0x7c>
    3000ba54:	a8df90ef          	jal	ra,300054e0 <rt_hw_interrupt_disable>
    3000ba58:	00050493          	mv	s1,a0
    3000ba5c:	01843503          	ld	a0,24(s0)
    3000ba60:	03353c23          	sd	s3,56(a0)
    3000ba64:	fd850513          	addi	a0,a0,-40
    3000ba68:	eacf70ef          	jal	ra,30003114 <rt_thread_resume>
    3000ba6c:	00048513          	mv	a0,s1
    3000ba70:	a79f90ef          	jal	ra,300054e8 <rt_hw_interrupt_enable>
    3000ba74:	f95ff06f          	j	3000ba08 <rt_data_queue_reset+0x8c>

000000003000ba78 <rt_data_queue_deinit>:
    3000ba78:	ff010113          	addi	sp,sp,-16
    3000ba7c:	00813023          	sd	s0,0(sp)
    3000ba80:	00113423          	sd	ra,8(sp)
    3000ba84:	00050413          	mv	s0,a0
    3000ba88:	00051e63          	bnez	a0,3000baa4 <rt_data_queue_deinit+0x2c>
    3000ba8c:	17100613          	li	a2,369
    3000ba90:	4fff8597          	auipc	a1,0x4fff8
    3000ba94:	18858593          	addi	a1,a1,392 # 80003c18 <__FUNCTION__.3083>
    3000ba98:	4fff8517          	auipc	a0,0x4fff8
    3000ba9c:	0f050513          	addi	a0,a0,240 # 80003b88 <_device_fs+0x50>
    3000baa0:	9f8f60ef          	jal	ra,30001c98 <rt_assert_handler>
    3000baa4:	00042703          	lw	a4,0(s0)
    3000baa8:	bead17b7          	lui	a5,0xbead1
    3000baac:	e0e78793          	addi	a5,a5,-498 # ffffffffbead0e0e <__stack_start__+0xffffffff3dad0e0e>
    3000bab0:	00f70e63          	beq	a4,a5,3000bacc <rt_data_queue_deinit+0x54>
    3000bab4:	17200613          	li	a2,370
    3000bab8:	4fff8597          	auipc	a1,0x4fff8
    3000babc:	16058593          	addi	a1,a1,352 # 80003c18 <__FUNCTION__.3083>
    3000bac0:	4fff8517          	auipc	a0,0x4fff8
    3000bac4:	0f050513          	addi	a0,a0,240 # 80003bb0 <_device_fs+0x78>
    3000bac8:	9d0f60ef          	jal	ra,30001c98 <rt_assert_handler>
    3000bacc:	00040513          	mv	a0,s0
    3000bad0:	eadff0ef          	jal	ra,3000b97c <rt_data_queue_reset>
    3000bad4:	a0df90ef          	jal	ra,300054e0 <rt_hw_interrupt_disable>
    3000bad8:	00042023          	sw	zero,0(s0)
    3000badc:	a0df90ef          	jal	ra,300054e8 <rt_hw_interrupt_enable>
    3000bae0:	01043503          	ld	a0,16(s0)
    3000bae4:	f15f80ef          	jal	ra,300049f8 <rt_free>
    3000bae8:	00813083          	ld	ra,8(sp)
    3000baec:	00013403          	ld	s0,0(sp)
    3000baf0:	00000513          	li	a0,0
    3000baf4:	01010113          	addi	sp,sp,16
    3000baf8:	00008067          	ret

000000003000bafc <rt_completion_init>:
    3000bafc:	ff010113          	addi	sp,sp,-16
    3000bb00:	00813023          	sd	s0,0(sp)
    3000bb04:	00113423          	sd	ra,8(sp)
    3000bb08:	00050413          	mv	s0,a0
    3000bb0c:	00051e63          	bnez	a0,3000bb28 <rt_completion_init+0x2c>
    3000bb10:	01500613          	li	a2,21
    3000bb14:	4fff8597          	auipc	a1,0x4fff8
    3000bb18:	16458593          	addi	a1,a1,356 # 80003c78 <__FUNCTION__.3023>
    3000bb1c:	4fff8517          	auipc	a0,0x4fff8
    3000bb20:	11450513          	addi	a0,a0,276 # 80003c30 <__FUNCTION__.3083+0x18>
    3000bb24:	974f60ef          	jal	ra,30001c98 <rt_assert_handler>
    3000bb28:	9b9f90ef          	jal	ra,300054e0 <rt_hw_interrupt_disable>
    3000bb2c:	00840793          	addi	a5,s0,8
    3000bb30:	00042023          	sw	zero,0(s0)
    3000bb34:	00f43823          	sd	a5,16(s0)
    3000bb38:	00f43423          	sd	a5,8(s0)
    3000bb3c:	00013403          	ld	s0,0(sp)
    3000bb40:	00813083          	ld	ra,8(sp)
    3000bb44:	01010113          	addi	sp,sp,16
    3000bb48:	9a1f906f          	j	300054e8 <rt_hw_interrupt_enable>

000000003000bb4c <rt_completion_wait>:
    3000bb4c:	fc010113          	addi	sp,sp,-64
    3000bb50:	02813823          	sd	s0,48(sp)
    3000bb54:	02113c23          	sd	ra,56(sp)
    3000bb58:	02913423          	sd	s1,40(sp)
    3000bb5c:	03213023          	sd	s2,32(sp)
    3000bb60:	01313c23          	sd	s3,24(sp)
    3000bb64:	01413823          	sd	s4,16(sp)
    3000bb68:	00b12623          	sw	a1,12(sp)
    3000bb6c:	00050413          	mv	s0,a0
    3000bb70:	00051e63          	bnez	a0,3000bb8c <rt_completion_wait+0x40>
    3000bb74:	02400613          	li	a2,36
    3000bb78:	4fff8597          	auipc	a1,0x4fff8
    3000bb7c:	11858593          	addi	a1,a1,280 # 80003c90 <__FUNCTION__.3031>
    3000bb80:	4fff8517          	auipc	a0,0x4fff8
    3000bb84:	0b050513          	addi	a0,a0,176 # 80003c30 <__FUNCTION__.3083+0x18>
    3000bb88:	910f60ef          	jal	ra,30001c98 <rt_assert_handler>
    3000bb8c:	914f70ef          	jal	ra,30002ca0 <rt_thread_self>
    3000bb90:	00050493          	mv	s1,a0
    3000bb94:	94df90ef          	jal	ra,300054e0 <rt_hw_interrupt_disable>
    3000bb98:	00042703          	lw	a4,0(s0)
    3000bb9c:	00100793          	li	a5,1
    3000bba0:	00050913          	mv	s2,a0
    3000bba4:	10f70463          	beq	a4,a5,3000bcac <rt_completion_wait+0x160>
    3000bba8:	00843783          	ld	a5,8(s0)
    3000bbac:	00840a13          	addi	s4,s0,8
    3000bbb0:	00fa0e63          	beq	s4,a5,3000bbcc <rt_completion_wait+0x80>
    3000bbb4:	02d00613          	li	a2,45
    3000bbb8:	4fff8597          	auipc	a1,0x4fff8
    3000bbbc:	0d858593          	addi	a1,a1,216 # 80003c90 <__FUNCTION__.3031>
    3000bbc0:	4fff8517          	auipc	a0,0x4fff8
    3000bbc4:	08850513          	addi	a0,a0,136 # 80003c48 <__FUNCTION__.3083+0x30>
    3000bbc8:	8d0f60ef          	jal	ra,30001c98 <rt_assert_handler>
    3000bbcc:	00c12783          	lw	a5,12(sp)
    3000bbd0:	ffe00993          	li	s3,-2
    3000bbd4:	0a078663          	beqz	a5,3000bc80 <rt_completion_wait+0x134>
    3000bbd8:	0604b023          	sd	zero,96(s1)
    3000bbdc:	00048513          	mv	a0,s1
    3000bbe0:	b54f70ef          	jal	ra,30002f34 <rt_thread_suspend>
    3000bbe4:	01043703          	ld	a4,16(s0)
    3000bbe8:	02848793          	addi	a5,s1,40
    3000bbec:	00f73023          	sd	a5,0(a4) # ffffffff80000000 <__stack_start__+0xfffffffeff000000>
    3000bbf0:	02e4b823          	sd	a4,48(s1)
    3000bbf4:	00f43823          	sd	a5,16(s0)
    3000bbf8:	0344b423          	sd	s4,40(s1)
    3000bbfc:	8e5f90ef          	jal	ra,300054e0 <rt_hw_interrupt_disable>
    3000bc00:	00050993          	mv	s3,a0
    3000bc04:	a94f50ef          	jal	ra,30000e98 <rt_interrupt_get_nest>
    3000bc08:	02050863          	beqz	a0,3000bc38 <rt_completion_wait+0xec>
    3000bc0c:	4fff8597          	auipc	a1,0x4fff8
    3000bc10:	08458593          	addi	a1,a1,132 # 80003c90 <__FUNCTION__.3031>
    3000bc14:	4fff5517          	auipc	a0,0x4fff5
    3000bc18:	b4450513          	addi	a0,a0,-1212 # 80000758 <_uart_ops+0x118>
    3000bc1c:	f01f50ef          	jal	ra,30001b1c <rt_kprintf>
    3000bc20:	04000613          	li	a2,64
    3000bc24:	4fff8597          	auipc	a1,0x4fff8
    3000bc28:	06c58593          	addi	a1,a1,108 # 80003c90 <__FUNCTION__.3031>
    3000bc2c:	4fff5517          	auipc	a0,0x4fff5
    3000bc30:	a8450513          	addi	a0,a0,-1404 # 800006b0 <_uart_ops+0x70>
    3000bc34:	864f60ef          	jal	ra,30001c98 <rt_assert_handler>
    3000bc38:	00098513          	mv	a0,s3
    3000bc3c:	8adf90ef          	jal	ra,300054e8 <rt_hw_interrupt_enable>
    3000bc40:	00c12783          	lw	a5,12(sp)
    3000bc44:	02f05063          	blez	a5,3000bc64 <rt_completion_wait+0x118>
    3000bc48:	08848993          	addi	s3,s1,136
    3000bc4c:	00c10613          	addi	a2,sp,12
    3000bc50:	00000593          	li	a1,0
    3000bc54:	00098513          	mv	a0,s3
    3000bc58:	b65f70ef          	jal	ra,300037bc <rt_timer_control>
    3000bc5c:	00098513          	mv	a0,s3
    3000bc60:	919f70ef          	jal	ra,30003578 <rt_timer_start>
    3000bc64:	00090513          	mv	a0,s2
    3000bc68:	881f90ef          	jal	ra,300054e8 <rt_hw_interrupt_enable>
    3000bc6c:	ad5f60ef          	jal	ra,30002740 <rt_schedule>
    3000bc70:	0604b983          	ld	s3,96(s1)
    3000bc74:	86df90ef          	jal	ra,300054e0 <rt_hw_interrupt_disable>
    3000bc78:	00050913          	mv	s2,a0
    3000bc7c:	00042023          	sw	zero,0(s0)
    3000bc80:	00090513          	mv	a0,s2
    3000bc84:	865f90ef          	jal	ra,300054e8 <rt_hw_interrupt_enable>
    3000bc88:	03813083          	ld	ra,56(sp)
    3000bc8c:	03013403          	ld	s0,48(sp)
    3000bc90:	02813483          	ld	s1,40(sp)
    3000bc94:	02013903          	ld	s2,32(sp)
    3000bc98:	01013a03          	ld	s4,16(sp)
    3000bc9c:	00098513          	mv	a0,s3
    3000bca0:	01813983          	ld	s3,24(sp)
    3000bca4:	04010113          	addi	sp,sp,64
    3000bca8:	00008067          	ret
    3000bcac:	00000993          	li	s3,0
    3000bcb0:	fcdff06f          	j	3000bc7c <rt_completion_wait+0x130>

000000003000bcb4 <rt_pin_mode>:
    3000bcb4:	50001797          	auipc	a5,0x50001
    3000bcb8:	76c78793          	addi	a5,a5,1900 # 8000d420 <_hw_pin>
    3000bcbc:	0807b703          	ld	a4,128(a5)
    3000bcc0:	fe010113          	addi	sp,sp,-32
    3000bcc4:	00813823          	sd	s0,16(sp)
    3000bcc8:	00913423          	sd	s1,8(sp)
    3000bccc:	01213023          	sd	s2,0(sp)
    3000bcd0:	00113c23          	sd	ra,24(sp)
    3000bcd4:	00050493          	mv	s1,a0
    3000bcd8:	00058913          	mv	s2,a1
    3000bcdc:	00078413          	mv	s0,a5
    3000bce0:	00071e63          	bnez	a4,3000bcfc <rt_pin_mode+0x48>
    3000bce4:	08a00613          	li	a2,138
    3000bce8:	4fff8597          	auipc	a1,0x4fff8
    3000bcec:	fe858593          	addi	a1,a1,-24 # 80003cd0 <__FUNCTION__.3713>
    3000bcf0:	4fff8517          	auipc	a0,0x4fff8
    3000bcf4:	fb850513          	addi	a0,a0,-72 # 80003ca8 <__FUNCTION__.3031+0x18>
    3000bcf8:	fa1f50ef          	jal	ra,30001c98 <rt_assert_handler>
    3000bcfc:	08043783          	ld	a5,128(s0)
    3000bd00:	01013403          	ld	s0,16(sp)
    3000bd04:	01813083          	ld	ra,24(sp)
    3000bd08:	0007b303          	ld	t1,0(a5)
    3000bd0c:	00090613          	mv	a2,s2
    3000bd10:	00048593          	mv	a1,s1
    3000bd14:	00013903          	ld	s2,0(sp)
    3000bd18:	00813483          	ld	s1,8(sp)
    3000bd1c:	50001517          	auipc	a0,0x50001
    3000bd20:	70450513          	addi	a0,a0,1796 # 8000d420 <_hw_pin>
    3000bd24:	02010113          	addi	sp,sp,32
    3000bd28:	00030067          	jr	t1

000000003000bd2c <rt_pin_write>:
    3000bd2c:	50001797          	auipc	a5,0x50001
    3000bd30:	6f478793          	addi	a5,a5,1780 # 8000d420 <_hw_pin>
    3000bd34:	0807b703          	ld	a4,128(a5)
    3000bd38:	fe010113          	addi	sp,sp,-32
    3000bd3c:	00813823          	sd	s0,16(sp)
    3000bd40:	00913423          	sd	s1,8(sp)
    3000bd44:	01213023          	sd	s2,0(sp)
    3000bd48:	00113c23          	sd	ra,24(sp)
    3000bd4c:	00050493          	mv	s1,a0
    3000bd50:	00058913          	mv	s2,a1
    3000bd54:	00078413          	mv	s0,a5
    3000bd58:	00071e63          	bnez	a4,3000bd74 <rt_pin_write+0x48>
    3000bd5c:	09100613          	li	a2,145
    3000bd60:	4fff8597          	auipc	a1,0x4fff8
    3000bd64:	f8058593          	addi	a1,a1,-128 # 80003ce0 <__FUNCTION__.3721>
    3000bd68:	4fff8517          	auipc	a0,0x4fff8
    3000bd6c:	f4050513          	addi	a0,a0,-192 # 80003ca8 <__FUNCTION__.3031+0x18>
    3000bd70:	f29f50ef          	jal	ra,30001c98 <rt_assert_handler>
    3000bd74:	08043783          	ld	a5,128(s0)
    3000bd78:	01013403          	ld	s0,16(sp)
    3000bd7c:	01813083          	ld	ra,24(sp)
    3000bd80:	0087b303          	ld	t1,8(a5)
    3000bd84:	00090613          	mv	a2,s2
    3000bd88:	00048593          	mv	a1,s1
    3000bd8c:	00013903          	ld	s2,0(sp)
    3000bd90:	00813483          	ld	s1,8(sp)
    3000bd94:	50001517          	auipc	a0,0x50001
    3000bd98:	68c50513          	addi	a0,a0,1676 # 8000d420 <_hw_pin>
    3000bd9c:	02010113          	addi	sp,sp,32
    3000bda0:	00030067          	jr	t1

000000003000bda4 <rt_pin_read>:
    3000bda4:	50001797          	auipc	a5,0x50001
    3000bda8:	67c78793          	addi	a5,a5,1660 # 8000d420 <_hw_pin>
    3000bdac:	0807b703          	ld	a4,128(a5)
    3000bdb0:	fe010113          	addi	sp,sp,-32
    3000bdb4:	00813823          	sd	s0,16(sp)
    3000bdb8:	00913423          	sd	s1,8(sp)
    3000bdbc:	00113c23          	sd	ra,24(sp)
    3000bdc0:	00050493          	mv	s1,a0
    3000bdc4:	00078413          	mv	s0,a5
    3000bdc8:	00071e63          	bnez	a4,3000bde4 <rt_pin_read+0x40>
    3000bdcc:	09800613          	li	a2,152
    3000bdd0:	4fff8597          	auipc	a1,0x4fff8
    3000bdd4:	f2058593          	addi	a1,a1,-224 # 80003cf0 <__FUNCTION__.3728>
    3000bdd8:	4fff8517          	auipc	a0,0x4fff8
    3000bddc:	ed050513          	addi	a0,a0,-304 # 80003ca8 <__FUNCTION__.3031+0x18>
    3000bde0:	eb9f50ef          	jal	ra,30001c98 <rt_assert_handler>
    3000bde4:	08043783          	ld	a5,128(s0)
    3000bde8:	01013403          	ld	s0,16(sp)
    3000bdec:	01813083          	ld	ra,24(sp)
    3000bdf0:	0107b303          	ld	t1,16(a5)
    3000bdf4:	00048593          	mv	a1,s1
    3000bdf8:	00813483          	ld	s1,8(sp)
    3000bdfc:	50001517          	auipc	a0,0x50001
    3000be00:	62450513          	addi	a0,a0,1572 # 8000d420 <_hw_pin>
    3000be04:	02010113          	addi	sp,sp,32
    3000be08:	00030067          	jr	t1

000000003000be0c <rt_pin_get>:
    3000be0c:	50001797          	auipc	a5,0x50001
    3000be10:	61478793          	addi	a5,a5,1556 # 8000d420 <_hw_pin>
    3000be14:	0807b703          	ld	a4,128(a5)
    3000be18:	fe010113          	addi	sp,sp,-32
    3000be1c:	00813823          	sd	s0,16(sp)
    3000be20:	00913423          	sd	s1,8(sp)
    3000be24:	00113c23          	sd	ra,24(sp)
    3000be28:	00050413          	mv	s0,a0
    3000be2c:	00078493          	mv	s1,a5
    3000be30:	00071e63          	bnez	a4,3000be4c <rt_pin_get+0x40>
    3000be34:	09f00613          	li	a2,159
    3000be38:	4fff8597          	auipc	a1,0x4fff8
    3000be3c:	ec858593          	addi	a1,a1,-312 # 80003d00 <__FUNCTION__.3735>
    3000be40:	4fff8517          	auipc	a0,0x4fff8
    3000be44:	e6850513          	addi	a0,a0,-408 # 80003ca8 <__FUNCTION__.3031+0x18>
    3000be48:	e51f50ef          	jal	ra,30001c98 <rt_assert_handler>
    3000be4c:	00044703          	lbu	a4,0(s0)
    3000be50:	05000793          	li	a5,80
    3000be54:	00f70e63          	beq	a4,a5,3000be70 <rt_pin_get+0x64>
    3000be58:	0a000613          	li	a2,160
    3000be5c:	4fff8597          	auipc	a1,0x4fff8
    3000be60:	ea458593          	addi	a1,a1,-348 # 80003d00 <__FUNCTION__.3735>
    3000be64:	4fff8517          	auipc	a0,0x4fff8
    3000be68:	e5c50513          	addi	a0,a0,-420 # 80003cc0 <__FUNCTION__.3031+0x30>
    3000be6c:	e2df50ef          	jal	ra,30001c98 <rt_assert_handler>
    3000be70:	0804b783          	ld	a5,128(s1)
    3000be74:	0307b303          	ld	t1,48(a5)
    3000be78:	00030e63          	beqz	t1,3000be94 <rt_pin_get+0x88>
    3000be7c:	00040513          	mv	a0,s0
    3000be80:	01013403          	ld	s0,16(sp)
    3000be84:	01813083          	ld	ra,24(sp)
    3000be88:	00813483          	ld	s1,8(sp)
    3000be8c:	02010113          	addi	sp,sp,32
    3000be90:	00030067          	jr	t1
    3000be94:	01813083          	ld	ra,24(sp)
    3000be98:	01013403          	ld	s0,16(sp)
    3000be9c:	00813483          	ld	s1,8(sp)
    3000bea0:	ffa00513          	li	a0,-6
    3000bea4:	02010113          	addi	sp,sp,32
    3000bea8:	00008067          	ret

000000003000beac <_serial_fifo_calc_recved_len>:
    3000beac:	fe010113          	addi	sp,sp,-32
    3000beb0:	00913423          	sd	s1,8(sp)
    3000beb4:	09053483          	ld	s1,144(a0)
    3000beb8:	00813823          	sd	s0,16(sp)
    3000bebc:	00113c23          	sd	ra,24(sp)
    3000bec0:	00050413          	mv	s0,a0
    3000bec4:	00049e63          	bnez	s1,3000bee0 <_serial_fifo_calc_recved_len+0x34>
    3000bec8:	17100613          	li	a2,369
    3000becc:	4fff8597          	auipc	a1,0x4fff8
    3000bed0:	ffc58593          	addi	a1,a1,-4 # 80003ec8 <__FUNCTION__.3072>
    3000bed4:	4fff8517          	auipc	a0,0x4fff8
    3000bed8:	ee450513          	addi	a0,a0,-284 # 80003db8 <__fsym_pinMode_name+0x8>
    3000bedc:	dbdf50ef          	jal	ra,30001c98 <rt_assert_handler>
    3000bee0:	0084d503          	lhu	a0,8(s1)
    3000bee4:	00a4d703          	lhu	a4,10(s1)
    3000bee8:	02e51a63          	bne	a0,a4,3000bf1c <_serial_fifo_calc_recved_len+0x70>
    3000beec:	00c4a783          	lw	a5,12(s1)
    3000bef0:	00000513          	li	a0,0
    3000bef4:	00078a63          	beqz	a5,3000bf08 <_serial_fifo_calc_recved_len+0x5c>
    3000bef8:	08843503          	ld	a0,136(s0)
    3000befc:	02a55513          	srli	a0,a0,0x2a
    3000bf00:	03051513          	slli	a0,a0,0x30
    3000bf04:	03055513          	srli	a0,a0,0x30
    3000bf08:	01813083          	ld	ra,24(sp)
    3000bf0c:	01013403          	ld	s0,16(sp)
    3000bf10:	00813483          	ld	s1,8(sp)
    3000bf14:	02010113          	addi	sp,sp,32
    3000bf18:	00008067          	ret
    3000bf1c:	00a77663          	bgeu	a4,a0,3000bf28 <_serial_fifo_calc_recved_len+0x7c>
    3000bf20:	40e5053b          	subw	a0,a0,a4
    3000bf24:	fe5ff06f          	j	3000bf08 <_serial_fifo_calc_recved_len+0x5c>
    3000bf28:	08843783          	ld	a5,136(s0)
    3000bf2c:	40a7053b          	subw	a0,a4,a0
    3000bf30:	02a7d793          	srli	a5,a5,0x2a
    3000bf34:	0107979b          	slliw	a5,a5,0x10
    3000bf38:	0107d79b          	srliw	a5,a5,0x10
    3000bf3c:	40a7853b          	subw	a0,a5,a0
    3000bf40:	fc9ff06f          	j	3000bf08 <_serial_fifo_calc_recved_len+0x5c>

000000003000bf44 <rt_serial_init>:
    3000bf44:	ff010113          	addi	sp,sp,-16
    3000bf48:	00813023          	sd	s0,0(sp)
    3000bf4c:	00113423          	sd	ra,8(sp)
    3000bf50:	00050413          	mv	s0,a0
    3000bf54:	00051e63          	bnez	a0,3000bf70 <rt_serial_init+0x2c>
    3000bf58:	24000613          	li	a2,576
    3000bf5c:	4fff8597          	auipc	a1,0x4fff8
    3000bf60:	fbc58593          	addi	a1,a1,-68 # 80003f18 <__FUNCTION__.3113>
    3000bf64:	4fff5517          	auipc	a0,0x4fff5
    3000bf68:	bcc50513          	addi	a0,a0,-1076 # 80000b30 <small_digits.2783+0x18>
    3000bf6c:	d2df50ef          	jal	ra,30001c98 <rt_assert_handler>
    3000bf70:	08043783          	ld	a5,128(s0)
    3000bf74:	08043823          	sd	zero,144(s0)
    3000bf78:	08043c23          	sd	zero,152(s0)
    3000bf7c:	0007b303          	ld	t1,0(a5)
    3000bf80:	00030e63          	beqz	t1,3000bf9c <rt_serial_init+0x58>
    3000bf84:	08840593          	addi	a1,s0,136
    3000bf88:	00040513          	mv	a0,s0
    3000bf8c:	00013403          	ld	s0,0(sp)
    3000bf90:	00813083          	ld	ra,8(sp)
    3000bf94:	01010113          	addi	sp,sp,16
    3000bf98:	00030067          	jr	t1
    3000bf9c:	00813083          	ld	ra,8(sp)
    3000bfa0:	00013403          	ld	s0,0(sp)
    3000bfa4:	00000513          	li	a0,0
    3000bfa8:	01010113          	addi	sp,sp,16
    3000bfac:	00008067          	ret

000000003000bfb0 <rt_serial_open>:
    3000bfb0:	fd010113          	addi	sp,sp,-48
    3000bfb4:	02813023          	sd	s0,32(sp)
    3000bfb8:	00913c23          	sd	s1,24(sp)
    3000bfbc:	02113423          	sd	ra,40(sp)
    3000bfc0:	01213823          	sd	s2,16(sp)
    3000bfc4:	01313423          	sd	s3,8(sp)
    3000bfc8:	01413023          	sd	s4,0(sp)
    3000bfcc:	00050413          	mv	s0,a0
    3000bfd0:	00058493          	mv	s1,a1
    3000bfd4:	00051e63          	bnez	a0,3000bff0 <rt_serial_open+0x40>
    3000bfd8:	25300613          	li	a2,595
    3000bfdc:	4fff8597          	auipc	a1,0x4fff8
    3000bfe0:	f4c58593          	addi	a1,a1,-180 # 80003f28 <__FUNCTION__.3120>
    3000bfe4:	4fff5517          	auipc	a0,0x4fff5
    3000bfe8:	b4c50513          	addi	a0,a0,-1204 # 80000b30 <small_digits.2783+0x18>
    3000bfec:	cadf50ef          	jal	ra,30001c98 <rt_assert_handler>
    3000bff0:	2004f713          	andi	a4,s1,512
    3000bff4:	00070a63          	beqz	a4,3000c008 <rt_serial_open+0x58>
    3000bff8:	02c45783          	lhu	a5,44(s0)
    3000bffc:	ff800513          	li	a0,-8
    3000c000:	2007f793          	andi	a5,a5,512
    3000c004:	16078e63          	beqz	a5,3000c180 <rt_serial_open+0x1d0>
    3000c008:	000017b7          	lui	a5,0x1
    3000c00c:	80078793          	addi	a5,a5,-2048 # 800 <__stack_size>
    3000c010:	00f4f9b3          	and	s3,s1,a5
    3000c014:	00098a63          	beqz	s3,3000c028 <rt_serial_open+0x78>
    3000c018:	02c45683          	lhu	a3,44(s0)
    3000c01c:	ff800513          	li	a0,-8
    3000c020:	00d7f7b3          	and	a5,a5,a3
    3000c024:	14078e63          	beqz	a5,3000c180 <rt_serial_open+0x1d0>
    3000c028:	1004f793          	andi	a5,s1,256
    3000c02c:	00078a63          	beqz	a5,3000c040 <rt_serial_open+0x90>
    3000c030:	02c45683          	lhu	a3,44(s0)
    3000c034:	ff800513          	li	a0,-8
    3000c038:	1006f693          	andi	a3,a3,256
    3000c03c:	14068263          	beqz	a3,3000c180 <rt_serial_open+0x1d0>
    3000c040:	4004fa13          	andi	s4,s1,1024
    3000c044:	000a0a63          	beqz	s4,3000c058 <rt_serial_open+0xa8>
    3000c048:	02c45683          	lhu	a3,44(s0)
    3000c04c:	ff800513          	li	a0,-8
    3000c050:	4006f693          	andi	a3,a3,1024
    3000c054:	12068663          	beqz	a3,3000c180 <rt_serial_open+0x1d0>
    3000c058:	0404f693          	andi	a3,s1,64
    3000c05c:	04000913          	li	s2,64
    3000c060:	00069a63          	bnez	a3,3000c074 <rt_serial_open+0xc4>
    3000c064:	02e45903          	lhu	s2,46(s0)
    3000c068:	04097913          	andi	s2,s2,64
    3000c06c:	00090463          	beqz	s2,3000c074 <rt_serial_open+0xc4>
    3000c070:	04000913          	li	s2,64
    3000c074:	09043683          	ld	a3,144(s0)
    3000c078:	0ff4f493          	zext.b	s1,s1
    3000c07c:	02941723          	sh	s1,46(s0)
    3000c080:	1e069a63          	bnez	a3,3000c274 <rt_serial_open+0x2c4>
    3000c084:	10078e63          	beqz	a5,3000c1a0 <rt_serial_open+0x1f0>
    3000c088:	08843503          	ld	a0,136(s0)
    3000c08c:	02a55513          	srli	a0,a0,0x2a
    3000c090:	03051513          	slli	a0,a0,0x30
    3000c094:	03055513          	srli	a0,a0,0x30
    3000c098:	01050513          	addi	a0,a0,16
    3000c09c:	e28f80ef          	jal	ra,300046c4 <rt_malloc>
    3000c0a0:	00050493          	mv	s1,a0
    3000c0a4:	00051e63          	bnez	a0,3000c0c0 <rt_serial_open+0x110>
    3000c0a8:	27200613          	li	a2,626
    3000c0ac:	4fff8597          	auipc	a1,0x4fff8
    3000c0b0:	e7c58593          	addi	a1,a1,-388 # 80003f28 <__FUNCTION__.3120>
    3000c0b4:	4fff8517          	auipc	a0,0x4fff8
    3000c0b8:	d0450513          	addi	a0,a0,-764 # 80003db8 <__fsym_pinMode_name+0x8>
    3000c0bc:	bddf50ef          	jal	ra,30001c98 <rt_assert_handler>
    3000c0c0:	08843603          	ld	a2,136(s0)
    3000c0c4:	01048513          	addi	a0,s1,16
    3000c0c8:	00000593          	li	a1,0
    3000c0cc:	02a65613          	srli	a2,a2,0x2a
    3000c0d0:	03061613          	slli	a2,a2,0x30
    3000c0d4:	03065613          	srli	a2,a2,0x30
    3000c0d8:	00a4b023          	sd	a0,0(s1)
    3000c0dc:	854f50ef          	jal	ra,30001130 <rt_memset>
    3000c0e0:	0004b423          	sd	zero,8(s1)
    3000c0e4:	02e45783          	lhu	a5,46(s0)
    3000c0e8:	08943823          	sd	s1,144(s0)
    3000c0ec:	10000613          	li	a2,256
    3000c0f0:	1007e793          	ori	a5,a5,256
    3000c0f4:	02f41723          	sh	a5,46(s0)
    3000c0f8:	08043783          	ld	a5,128(s0)
    3000c0fc:	01000593          	li	a1,16
    3000c100:	00040513          	mv	a0,s0
    3000c104:	0087b783          	ld	a5,8(a5)
    3000c108:	000780e7          	jalr	a5
    3000c10c:	09843783          	ld	a5,152(s0)
    3000c110:	1e079663          	bnez	a5,3000c2fc <rt_serial_open+0x34c>
    3000c114:	160a0e63          	beqz	s4,3000c290 <rt_serial_open+0x2e0>
    3000c118:	01800513          	li	a0,24
    3000c11c:	da8f80ef          	jal	ra,300046c4 <rt_malloc>
    3000c120:	00050493          	mv	s1,a0
    3000c124:	00051e63          	bnez	a0,3000c140 <rt_serial_open+0x190>
    3000c128:	2b100613          	li	a2,689
    3000c12c:	4fff8597          	auipc	a1,0x4fff8
    3000c130:	dfc58593          	addi	a1,a1,-516 # 80003f28 <__FUNCTION__.3120>
    3000c134:	4fff8517          	auipc	a0,0x4fff8
    3000c138:	cb450513          	addi	a0,a0,-844 # 80003de8 <__fsym_pinMode_name+0x38>
    3000c13c:	b5df50ef          	jal	ra,30001c98 <rt_assert_handler>
    3000c140:	00048513          	mv	a0,s1
    3000c144:	9b9ff0ef          	jal	ra,3000bafc <rt_completion_init>
    3000c148:	02e45783          	lhu	a5,46(s0)
    3000c14c:	08943c23          	sd	s1,152(s0)
    3000c150:	40000613          	li	a2,1024
    3000c154:	4007e793          	ori	a5,a5,1024
    3000c158:	02f41723          	sh	a5,46(s0)
    3000c15c:	08043783          	ld	a5,128(s0)
    3000c160:	01000593          	li	a1,16
    3000c164:	0087b783          	ld	a5,8(a5)
    3000c168:	00040513          	mv	a0,s0
    3000c16c:	000780e7          	jalr	a5
    3000c170:	02e45783          	lhu	a5,46(s0)
    3000c174:	00000513          	li	a0,0
    3000c178:	00f96933          	or	s2,s2,a5
    3000c17c:	03241723          	sh	s2,46(s0)
    3000c180:	02813083          	ld	ra,40(sp)
    3000c184:	02013403          	ld	s0,32(sp)
    3000c188:	01813483          	ld	s1,24(sp)
    3000c18c:	01013903          	ld	s2,16(sp)
    3000c190:	00813983          	ld	s3,8(sp)
    3000c194:	00013a03          	ld	s4,0(sp)
    3000c198:	03010113          	addi	sp,sp,48
    3000c19c:	00008067          	ret
    3000c1a0:	f60706e3          	beqz	a4,3000c10c <rt_serial_open+0x15c>
    3000c1a4:	08c42703          	lw	a4,140(s0)
    3000c1a8:	040007b7          	lui	a5,0x4000
    3000c1ac:	c0078793          	addi	a5,a5,-1024 # 3fffc00 <__stack_size+0x3fff400>
    3000c1b0:	00e7f7b3          	and	a5,a5,a4
    3000c1b4:	04079263          	bnez	a5,3000c1f8 <rt_serial_open+0x248>
    3000c1b8:	00400513          	li	a0,4
    3000c1bc:	d08f80ef          	jal	ra,300046c4 <rt_malloc>
    3000c1c0:	00050493          	mv	s1,a0
    3000c1c4:	00051e63          	bnez	a0,3000c1e0 <rt_serial_open+0x230>
    3000c1c8:	28500613          	li	a2,645
    3000c1cc:	4fff8597          	auipc	a1,0x4fff8
    3000c1d0:	d5c58593          	addi	a1,a1,-676 # 80003f28 <__FUNCTION__.3120>
    3000c1d4:	4fff8517          	auipc	a0,0x4fff8
    3000c1d8:	bfc50513          	addi	a0,a0,-1028 # 80003dd0 <__fsym_pinMode_name+0x20>
    3000c1dc:	abdf50ef          	jal	ra,30001c98 <rt_assert_handler>
    3000c1e0:	0004a023          	sw	zero,0(s1)
    3000c1e4:	08943823          	sd	s1,144(s0)
    3000c1e8:	02e45783          	lhu	a5,46(s0)
    3000c1ec:	2007e793          	ori	a5,a5,512
    3000c1f0:	02f41723          	sh	a5,46(s0)
    3000c1f4:	f19ff06f          	j	3000c10c <rt_serial_open+0x15c>
    3000c1f8:	08843503          	ld	a0,136(s0)
    3000c1fc:	02a55513          	srli	a0,a0,0x2a
    3000c200:	03051513          	slli	a0,a0,0x30
    3000c204:	03055513          	srli	a0,a0,0x30
    3000c208:	01050513          	addi	a0,a0,16
    3000c20c:	cb8f80ef          	jal	ra,300046c4 <rt_malloc>
    3000c210:	00050493          	mv	s1,a0
    3000c214:	00051e63          	bnez	a0,3000c230 <rt_serial_open+0x280>
    3000c218:	28e00613          	li	a2,654
    3000c21c:	4fff8597          	auipc	a1,0x4fff8
    3000c220:	d0c58593          	addi	a1,a1,-756 # 80003f28 <__FUNCTION__.3120>
    3000c224:	4fff8517          	auipc	a0,0x4fff8
    3000c228:	b9450513          	addi	a0,a0,-1132 # 80003db8 <__fsym_pinMode_name+0x8>
    3000c22c:	a6df50ef          	jal	ra,30001c98 <rt_assert_handler>
    3000c230:	08843603          	ld	a2,136(s0)
    3000c234:	01048513          	addi	a0,s1,16
    3000c238:	00a4b023          	sd	a0,0(s1)
    3000c23c:	02a65613          	srli	a2,a2,0x2a
    3000c240:	03061613          	slli	a2,a2,0x30
    3000c244:	03065613          	srli	a2,a2,0x30
    3000c248:	00000593          	li	a1,0
    3000c24c:	ee5f40ef          	jal	ra,30001130 <rt_memset>
    3000c250:	0004b423          	sd	zero,8(s1)
    3000c254:	08043783          	ld	a5,128(s0)
    3000c258:	08943823          	sd	s1,144(s0)
    3000c25c:	20000613          	li	a2,512
    3000c260:	0087b783          	ld	a5,8(a5)
    3000c264:	00300593          	li	a1,3
    3000c268:	00040513          	mv	a0,s0
    3000c26c:	000780e7          	jalr	a5
    3000c270:	f79ff06f          	j	3000c1e8 <rt_serial_open+0x238>
    3000c274:	00078863          	beqz	a5,3000c284 <rt_serial_open+0x2d4>
    3000c278:	1004e493          	ori	s1,s1,256
    3000c27c:	02941723          	sh	s1,46(s0)
    3000c280:	e8dff06f          	j	3000c10c <rt_serial_open+0x15c>
    3000c284:	e80704e3          	beqz	a4,3000c10c <rt_serial_open+0x15c>
    3000c288:	2004e493          	ori	s1,s1,512
    3000c28c:	ff1ff06f          	j	3000c27c <rt_serial_open+0x2cc>
    3000c290:	ee0980e3          	beqz	s3,3000c170 <rt_serial_open+0x1c0>
    3000c294:	04800513          	li	a0,72
    3000c298:	c2cf80ef          	jal	ra,300046c4 <rt_malloc>
    3000c29c:	00050493          	mv	s1,a0
    3000c2a0:	00051e63          	bnez	a0,3000c2bc <rt_serial_open+0x30c>
    3000c2a4:	2c000613          	li	a2,704
    3000c2a8:	4fff8597          	auipc	a1,0x4fff8
    3000c2ac:	c8058593          	addi	a1,a1,-896 # 80003f28 <__FUNCTION__.3120>
    3000c2b0:	4fff8517          	auipc	a0,0x4fff8
    3000c2b4:	b5050513          	addi	a0,a0,-1200 # 80003e00 <__fsym_pinMode_name+0x50>
    3000c2b8:	9e1f50ef          	jal	ra,30001c98 <rt_assert_handler>
    3000c2bc:	00400613          	li	a2,4
    3000c2c0:	00800593          	li	a1,8
    3000c2c4:	0004a023          	sw	zero,0(s1)
    3000c2c8:	00000693          	li	a3,0
    3000c2cc:	00848513          	addi	a0,s1,8
    3000c2d0:	b30ff0ef          	jal	ra,3000b600 <rt_data_queue_init>
    3000c2d4:	02e45783          	lhu	a5,46(s0)
    3000c2d8:	00001637          	lui	a2,0x1
    3000c2dc:	80060613          	addi	a2,a2,-2048 # 800 <__stack_size>
    3000c2e0:	00c7e7b3          	or	a5,a5,a2
    3000c2e4:	02f41723          	sh	a5,46(s0)
    3000c2e8:	08043783          	ld	a5,128(s0)
    3000c2ec:	08943c23          	sd	s1,152(s0)
    3000c2f0:	00300593          	li	a1,3
    3000c2f4:	0087b783          	ld	a5,8(a5)
    3000c2f8:	e71ff06f          	j	3000c168 <rt_serial_open+0x1b8>
    3000c2fc:	02e45783          	lhu	a5,46(s0)
    3000c300:	000a0863          	beqz	s4,3000c310 <rt_serial_open+0x360>
    3000c304:	4007e793          	ori	a5,a5,1024
    3000c308:	02f41723          	sh	a5,46(s0)
    3000c30c:	e65ff06f          	j	3000c170 <rt_serial_open+0x1c0>
    3000c310:	e60980e3          	beqz	s3,3000c170 <rt_serial_open+0x1c0>
    3000c314:	00001737          	lui	a4,0x1
    3000c318:	80070713          	addi	a4,a4,-2048 # 800 <__stack_size>
    3000c31c:	00e7e7b3          	or	a5,a5,a4
    3000c320:	fe9ff06f          	j	3000c308 <rt_serial_open+0x358>

000000003000c324 <rt_serial_control>:
    3000c324:	fe010113          	addi	sp,sp,-32
    3000c328:	00813823          	sd	s0,16(sp)
    3000c32c:	00913423          	sd	s1,8(sp)
    3000c330:	01213023          	sd	s2,0(sp)
    3000c334:	00113c23          	sd	ra,24(sp)
    3000c338:	00050413          	mv	s0,a0
    3000c33c:	00058913          	mv	s2,a1
    3000c340:	00060493          	mv	s1,a2
    3000c344:	00051e63          	bnez	a0,3000c360 <rt_serial_control+0x3c>
    3000c348:	3dc00613          	li	a2,988
    3000c34c:	4fff8597          	auipc	a1,0x4fff8
    3000c350:	c1c58593          	addi	a1,a1,-996 # 80003f68 <__FUNCTION__.3159>
    3000c354:	4fff4517          	auipc	a0,0x4fff4
    3000c358:	7dc50513          	addi	a0,a0,2012 # 80000b30 <small_digits.2783+0x18>
    3000c35c:	93df50ef          	jal	ra,30001c98 <rt_assert_handler>
    3000c360:	00200793          	li	a5,2
    3000c364:	02f90063          	beq	s2,a5,3000c384 <rt_serial_control+0x60>
    3000c368:	00300793          	li	a5,3
    3000c36c:	04f90063          	beq	s2,a5,3000c3ac <rt_serial_control+0x88>
    3000c370:	00100793          	li	a5,1
    3000c374:	08f91c63          	bne	s2,a5,3000c40c <rt_serial_control+0xe8>
    3000c378:	02c45783          	lhu	a5,44(s0)
    3000c37c:	fdf7f793          	andi	a5,a5,-33
    3000c380:	00c0006f          	j	3000c38c <rt_serial_control+0x68>
    3000c384:	02c45783          	lhu	a5,44(s0)
    3000c388:	0207e793          	ori	a5,a5,32
    3000c38c:	02f41623          	sh	a5,44(s0)
    3000c390:	00000513          	li	a0,0
    3000c394:	01813083          	ld	ra,24(sp)
    3000c398:	01013403          	ld	s0,16(sp)
    3000c39c:	00813483          	ld	s1,8(sp)
    3000c3a0:	00013903          	ld	s2,0(sp)
    3000c3a4:	02010113          	addi	sp,sp,32
    3000c3a8:	00008067          	ret
    3000c3ac:	fe0482e3          	beqz	s1,3000c390 <rt_serial_control+0x6c>
    3000c3b0:	0044a703          	lw	a4,4(s1)
    3000c3b4:	08843783          	ld	a5,136(s0)
    3000c3b8:	03044683          	lbu	a3,48(s0)
    3000c3bc:	00a7571b          	srliw	a4,a4,0xa
    3000c3c0:	02a7d793          	srli	a5,a5,0x2a
    3000c3c4:	03071713          	slli	a4,a4,0x30
    3000c3c8:	03079793          	slli	a5,a5,0x30
    3000c3cc:	03075713          	srli	a4,a4,0x30
    3000c3d0:	0307d793          	srli	a5,a5,0x30
    3000c3d4:	00f70663          	beq	a4,a5,3000c3e0 <rt_serial_control+0xbc>
    3000c3d8:	00700513          	li	a0,7
    3000c3dc:	fa069ce3          	bnez	a3,3000c394 <rt_serial_control+0x70>
    3000c3e0:	0004a783          	lw	a5,0(s1)
    3000c3e4:	08f42423          	sw	a5,136(s0)
    3000c3e8:	0044a783          	lw	a5,4(s1)
    3000c3ec:	08f42623          	sw	a5,140(s0)
    3000c3f0:	fa0680e3          	beqz	a3,3000c390 <rt_serial_control+0x6c>
    3000c3f4:	08043783          	ld	a5,128(s0)
    3000c3f8:	00048593          	mv	a1,s1
    3000c3fc:	00040513          	mv	a0,s0
    3000c400:	0007b783          	ld	a5,0(a5)
    3000c404:	000780e7          	jalr	a5
    3000c408:	f89ff06f          	j	3000c390 <rt_serial_control+0x6c>
    3000c40c:	08043783          	ld	a5,128(s0)
    3000c410:	00040513          	mv	a0,s0
    3000c414:	01013403          	ld	s0,16(sp)
    3000c418:	01813083          	ld	ra,24(sp)
    3000c41c:	0087b303          	ld	t1,8(a5)
    3000c420:	00048613          	mv	a2,s1
    3000c424:	00090593          	mv	a1,s2
    3000c428:	00813483          	ld	s1,8(sp)
    3000c42c:	00013903          	ld	s2,0(sp)
    3000c430:	02010113          	addi	sp,sp,32
    3000c434:	00030067          	jr	t1

000000003000c438 <rt_serial_write>:
    3000c438:	fc010113          	addi	sp,sp,-64
    3000c43c:	02813823          	sd	s0,48(sp)
    3000c440:	02913423          	sd	s1,40(sp)
    3000c444:	01313c23          	sd	s3,24(sp)
    3000c448:	02113c23          	sd	ra,56(sp)
    3000c44c:	03213023          	sd	s2,32(sp)
    3000c450:	01413823          	sd	s4,16(sp)
    3000c454:	01513423          	sd	s5,8(sp)
    3000c458:	01613023          	sd	s6,0(sp)
    3000c45c:	00050413          	mv	s0,a0
    3000c460:	00060493          	mv	s1,a2
    3000c464:	00068993          	mv	s3,a3
    3000c468:	00051e63          	bnez	a0,3000c484 <rt_serial_write+0x4c>
    3000c46c:	36100613          	li	a2,865
    3000c470:	4fff8597          	auipc	a1,0x4fff8
    3000c474:	ae858593          	addi	a1,a1,-1304 # 80003f58 <__FUNCTION__.3151>
    3000c478:	4fff4517          	auipc	a0,0x4fff4
    3000c47c:	6b850513          	addi	a0,a0,1720 # 80000b30 <small_digits.2783+0x18>
    3000c480:	819f50ef          	jal	ra,30001c98 <rt_assert_handler>
    3000c484:	04098263          	beqz	s3,3000c4c8 <rt_serial_write+0x90>
    3000c488:	02e45783          	lhu	a5,46(s0)
    3000c48c:	0009899b          	sext.w	s3,s3
    3000c490:	00098913          	mv	s2,s3
    3000c494:	4007f713          	andi	a4,a5,1024
    3000c498:	0a070e63          	beqz	a4,3000c554 <rt_serial_write+0x11c>
    3000c49c:	09843a03          	ld	s4,152(s0)
    3000c4a0:	000a1e63          	bnez	s4,3000c4bc <rt_serial_write+0x84>
    3000c4a4:	14100613          	li	a2,321
    3000c4a8:	4fff8597          	auipc	a1,0x4fff8
    3000c4ac:	a1058593          	addi	a1,a1,-1520 # 80003eb8 <__FUNCTION__.3060>
    3000c4b0:	4fff8517          	auipc	a0,0x4fff8
    3000c4b4:	96850513          	addi	a0,a0,-1688 # 80003e18 <__fsym_pinMode_name+0x68>
    3000c4b8:	fe0f50ef          	jal	ra,30001c98 <rt_assert_handler>
    3000c4bc:	00a00b13          	li	s6,10
    3000c4c0:	fff00a93          	li	s5,-1
    3000c4c4:	02091863          	bnez	s2,3000c4f4 <rt_serial_write+0xbc>
    3000c4c8:	03813083          	ld	ra,56(sp)
    3000c4cc:	03013403          	ld	s0,48(sp)
    3000c4d0:	02813483          	ld	s1,40(sp)
    3000c4d4:	02013903          	ld	s2,32(sp)
    3000c4d8:	01013a03          	ld	s4,16(sp)
    3000c4dc:	00813a83          	ld	s5,8(sp)
    3000c4e0:	00013b03          	ld	s6,0(sp)
    3000c4e4:	00098513          	mv	a0,s3
    3000c4e8:	01813983          	ld	s3,24(sp)
    3000c4ec:	04010113          	addi	sp,sp,64
    3000c4f0:	00008067          	ret
    3000c4f4:	0004c783          	lbu	a5,0(s1)
    3000c4f8:	03679c63          	bne	a5,s6,3000c530 <rt_serial_write+0xf8>
    3000c4fc:	02e45783          	lhu	a5,46(s0)
    3000c500:	0407f793          	andi	a5,a5,64
    3000c504:	02078663          	beqz	a5,3000c530 <rt_serial_write+0xf8>
    3000c508:	08043783          	ld	a5,128(s0)
    3000c50c:	00d00593          	li	a1,13
    3000c510:	00040513          	mv	a0,s0
    3000c514:	0107b783          	ld	a5,16(a5)
    3000c518:	000780e7          	jalr	a5
    3000c51c:	01551a63          	bne	a0,s5,3000c530 <rt_serial_write+0xf8>
    3000c520:	fff00593          	li	a1,-1
    3000c524:	000a0513          	mv	a0,s4
    3000c528:	e24ff0ef          	jal	ra,3000bb4c <rt_completion_wait>
    3000c52c:	f99ff06f          	j	3000c4c4 <rt_serial_write+0x8c>
    3000c530:	08043783          	ld	a5,128(s0)
    3000c534:	0004c583          	lbu	a1,0(s1)
    3000c538:	00040513          	mv	a0,s0
    3000c53c:	0107b783          	ld	a5,16(a5)
    3000c540:	000780e7          	jalr	a5
    3000c544:	fd550ee3          	beq	a0,s5,3000c520 <rt_serial_write+0xe8>
    3000c548:	00148493          	addi	s1,s1,1
    3000c54c:	fff9091b          	addiw	s2,s2,-1
    3000c550:	f75ff06f          	j	3000c4c4 <rt_serial_write+0x8c>
    3000c554:	03479713          	slli	a4,a5,0x34
    3000c558:	00a00a13          	li	s4,10
    3000c55c:	0a075a63          	bgez	a4,3000c610 <rt_serial_write+0x1d8>
    3000c560:	09843983          	ld	s3,152(s0)
    3000c564:	fff00693          	li	a3,-1
    3000c568:	00090613          	mv	a2,s2
    3000c56c:	00048593          	mv	a1,s1
    3000c570:	00898513          	addi	a0,s3,8
    3000c574:	95cff0ef          	jal	ra,3000b6d0 <rt_data_queue_push>
    3000c578:	04051463          	bnez	a0,3000c5c0 <rt_serial_write+0x188>
    3000c57c:	f65f80ef          	jal	ra,300054e0 <rt_hw_interrupt_disable>
    3000c580:	0009a703          	lw	a4,0(s3)
    3000c584:	00100793          	li	a5,1
    3000c588:	02f70863          	beq	a4,a5,3000c5b8 <rt_serial_write+0x180>
    3000c58c:	00f9a023          	sw	a5,0(s3)
    3000c590:	f59f80ef          	jal	ra,300054e8 <rt_hw_interrupt_enable>
    3000c594:	08043783          	ld	a5,128(s0)
    3000c598:	00200693          	li	a3,2
    3000c59c:	00090613          	mv	a2,s2
    3000c5a0:	0207b783          	ld	a5,32(a5)
    3000c5a4:	00048593          	mv	a1,s1
    3000c5a8:	00040513          	mv	a0,s0
    3000c5ac:	000780e7          	jalr	a5
    3000c5b0:	00090993          	mv	s3,s2
    3000c5b4:	f15ff06f          	j	3000c4c8 <rt_serial_write+0x90>
    3000c5b8:	f31f80ef          	jal	ra,300054e8 <rt_hw_interrupt_enable>
    3000c5bc:	ff5ff06f          	j	3000c5b0 <rt_serial_write+0x178>
    3000c5c0:	b35f40ef          	jal	ra,300010f4 <rt_set_errno>
    3000c5c4:	00000913          	li	s2,0
    3000c5c8:	fe9ff06f          	j	3000c5b0 <rt_serial_write+0x178>
    3000c5cc:	0004c783          	lbu	a5,0(s1)
    3000c5d0:	03479263          	bne	a5,s4,3000c5f4 <rt_serial_write+0x1bc>
    3000c5d4:	02e45783          	lhu	a5,46(s0)
    3000c5d8:	0407f793          	andi	a5,a5,64
    3000c5dc:	00078c63          	beqz	a5,3000c5f4 <rt_serial_write+0x1bc>
    3000c5e0:	08043783          	ld	a5,128(s0)
    3000c5e4:	00d00593          	li	a1,13
    3000c5e8:	00040513          	mv	a0,s0
    3000c5ec:	0107b783          	ld	a5,16(a5)
    3000c5f0:	000780e7          	jalr	a5
    3000c5f4:	08043783          	ld	a5,128(s0)
    3000c5f8:	0004c583          	lbu	a1,0(s1)
    3000c5fc:	00040513          	mv	a0,s0
    3000c600:	0107b783          	ld	a5,16(a5)
    3000c604:	00148493          	addi	s1,s1,1
    3000c608:	fff9091b          	addiw	s2,s2,-1
    3000c60c:	000780e7          	jalr	a5
    3000c610:	fa091ee3          	bnez	s2,3000c5cc <rt_serial_write+0x194>
    3000c614:	eb5ff06f          	j	3000c4c8 <rt_serial_write+0x90>

000000003000c618 <rt_serial_read>:
    3000c618:	fc010113          	addi	sp,sp,-64
    3000c61c:	02813823          	sd	s0,48(sp)
    3000c620:	02913423          	sd	s1,40(sp)
    3000c624:	03213023          	sd	s2,32(sp)
    3000c628:	02113c23          	sd	ra,56(sp)
    3000c62c:	01313c23          	sd	s3,24(sp)
    3000c630:	01413823          	sd	s4,16(sp)
    3000c634:	01513423          	sd	s5,8(sp)
    3000c638:	01613023          	sd	s6,0(sp)
    3000c63c:	00050413          	mv	s0,a0
    3000c640:	00060913          	mv	s2,a2
    3000c644:	00068493          	mv	s1,a3
    3000c648:	00051e63          	bnez	a0,3000c664 <rt_serial_read+0x4c>
    3000c64c:	34700613          	li	a2,839
    3000c650:	4fff8597          	auipc	a1,0x4fff8
    3000c654:	8f858593          	addi	a1,a1,-1800 # 80003f48 <__FUNCTION__.3143>
    3000c658:	4fff4517          	auipc	a0,0x4fff4
    3000c65c:	4d850513          	addi	a0,a0,1240 # 80000b30 <small_digits.2783+0x18>
    3000c660:	e38f50ef          	jal	ra,30001c98 <rt_assert_handler>
    3000c664:	06048463          	beqz	s1,3000c6cc <rt_serial_read+0xb4>
    3000c668:	02e45783          	lhu	a5,46(s0)
    3000c66c:	0004849b          	sext.w	s1,s1
    3000c670:	1007f713          	andi	a4,a5,256
    3000c674:	0c070e63          	beqz	a4,3000c750 <rt_serial_read+0x138>
    3000c678:	09043983          	ld	s3,144(s0)
    3000c67c:	00099e63          	bnez	s3,3000c698 <rt_serial_read+0x80>
    3000c680:	11100613          	li	a2,273
    3000c684:	4fff8597          	auipc	a1,0x4fff8
    3000c688:	82458593          	addi	a1,a1,-2012 # 80003ea8 <__FUNCTION__.3047>
    3000c68c:	4fff7517          	auipc	a0,0x4fff7
    3000c690:	72c50513          	addi	a0,a0,1836 # 80003db8 <__fsym_pinMode_name+0x8>
    3000c694:	e04f50ef          	jal	ra,30001c98 <rt_assert_handler>
    3000c698:	00048a13          	mv	s4,s1
    3000c69c:	00100a93          	li	s5,1
    3000c6a0:	020a0463          	beqz	s4,3000c6c8 <rt_serial_read+0xb0>
    3000c6a4:	e3df80ef          	jal	ra,300054e0 <rt_hw_interrupt_disable>
    3000c6a8:	00a9d783          	lhu	a5,10(s3)
    3000c6ac:	0089d703          	lhu	a4,8(s3)
    3000c6b0:	00c9a683          	lw	a3,12(s3)
    3000c6b4:	00050613          	mv	a2,a0
    3000c6b8:	04f71063          	bne	a4,a5,3000c6f8 <rt_serial_read+0xe0>
    3000c6bc:	0006871b          	sext.w	a4,a3
    3000c6c0:	02071c63          	bnez	a4,3000c6f8 <rt_serial_read+0xe0>
    3000c6c4:	e25f80ef          	jal	ra,300054e8 <rt_hw_interrupt_enable>
    3000c6c8:	414484bb          	subw	s1,s1,s4
    3000c6cc:	03813083          	ld	ra,56(sp)
    3000c6d0:	03013403          	ld	s0,48(sp)
    3000c6d4:	02013903          	ld	s2,32(sp)
    3000c6d8:	01813983          	ld	s3,24(sp)
    3000c6dc:	01013a03          	ld	s4,16(sp)
    3000c6e0:	00813a83          	ld	s5,8(sp)
    3000c6e4:	00013b03          	ld	s6,0(sp)
    3000c6e8:	00048513          	mv	a0,s1
    3000c6ec:	02813483          	ld	s1,40(sp)
    3000c6f0:	04010113          	addi	sp,sp,64
    3000c6f4:	00008067          	ret
    3000c6f8:	0009b703          	ld	a4,0(s3)
    3000c6fc:	00f70733          	add	a4,a4,a5
    3000c700:	00074b03          	lbu	s6,0(a4)
    3000c704:	08843703          	ld	a4,136(s0)
    3000c708:	0017879b          	addiw	a5,a5,1
    3000c70c:	03079793          	slli	a5,a5,0x30
    3000c710:	02a75713          	srli	a4,a4,0x2a
    3000c714:	0307d793          	srli	a5,a5,0x30
    3000c718:	03071713          	slli	a4,a4,0x30
    3000c71c:	00f99523          	sh	a5,10(s3)
    3000c720:	03075713          	srli	a4,a4,0x30
    3000c724:	00e7e463          	bltu	a5,a4,3000c72c <rt_serial_read+0x114>
    3000c728:	00099523          	sh	zero,10(s3)
    3000c72c:	0006869b          	sext.w	a3,a3
    3000c730:	01569463          	bne	a3,s5,3000c738 <rt_serial_read+0x120>
    3000c734:	0009a623          	sw	zero,12(s3)
    3000c738:	00060513          	mv	a0,a2
    3000c73c:	dadf80ef          	jal	ra,300054e8 <rt_hw_interrupt_enable>
    3000c740:	00190913          	addi	s2,s2,1
    3000c744:	ff690fa3          	sb	s6,-1(s2)
    3000c748:	fffa0a1b          	addiw	s4,s4,-1
    3000c74c:	f55ff06f          	j	3000c6a0 <rt_serial_read+0x88>
    3000c750:	2007f793          	andi	a5,a5,512
    3000c754:	00048993          	mv	s3,s1
    3000c758:	04079463          	bnez	a5,3000c7a0 <rt_serial_read+0x188>
    3000c75c:	fff00a13          	li	s4,-1
    3000c760:	00a00a93          	li	s5,10
    3000c764:	02098a63          	beqz	s3,3000c798 <rt_serial_read+0x180>
    3000c768:	08043783          	ld	a5,128(s0)
    3000c76c:	00040513          	mv	a0,s0
    3000c770:	0187b783          	ld	a5,24(a5)
    3000c774:	000780e7          	jalr	a5
    3000c778:	03450063          	beq	a0,s4,3000c798 <rt_serial_read+0x180>
    3000c77c:	00a90023          	sb	a0,0(s2)
    3000c780:	02e45783          	lhu	a5,46(s0)
    3000c784:	00190913          	addi	s2,s2,1
    3000c788:	fff9899b          	addiw	s3,s3,-1
    3000c78c:	0407f793          	andi	a5,a5,64
    3000c790:	fc078ae3          	beqz	a5,3000c764 <rt_serial_read+0x14c>
    3000c794:	fd5518e3          	bne	a0,s5,3000c764 <rt_serial_read+0x14c>
    3000c798:	413484bb          	subw	s1,s1,s3
    3000c79c:	f31ff06f          	j	3000c6cc <rt_serial_read+0xb4>
    3000c7a0:	00091e63          	bnez	s2,3000c7bc <rt_serial_read+0x1a4>
    3000c7a4:	1df00613          	li	a2,479
    3000c7a8:	4fff7597          	auipc	a1,0x4fff7
    3000c7ac:	76058593          	addi	a1,a1,1888 # 80003f08 <__FUNCTION__.3094>
    3000c7b0:	4fff7517          	auipc	a0,0x4fff7
    3000c7b4:	67850513          	addi	a0,a0,1656 # 80003e28 <__fsym_pinMode_name+0x78>
    3000c7b8:	ce0f50ef          	jal	ra,30001c98 <rt_assert_handler>
    3000c7bc:	d25f80ef          	jal	ra,300054e0 <rt_hw_interrupt_disable>
    3000c7c0:	08c42703          	lw	a4,140(s0)
    3000c7c4:	040007b7          	lui	a5,0x4000
    3000c7c8:	c0078793          	addi	a5,a5,-1024 # 3fffc00 <__stack_size+0x3fff400>
    3000c7cc:	00e7f7b3          	and	a5,a5,a4
    3000c7d0:	09043a83          	ld	s5,144(s0)
    3000c7d4:	00050a13          	mv	s4,a0
    3000c7d8:	08079a63          	bnez	a5,3000c86c <rt_serial_read+0x254>
    3000c7dc:	000a9e63          	bnez	s5,3000c7f8 <rt_serial_read+0x1e0>
    3000c7e0:	1e900613          	li	a2,489
    3000c7e4:	4fff7597          	auipc	a1,0x4fff7
    3000c7e8:	72458593          	addi	a1,a1,1828 # 80003f08 <__FUNCTION__.3094>
    3000c7ec:	4fff7517          	auipc	a0,0x4fff7
    3000c7f0:	5e450513          	addi	a0,a0,1508 # 80003dd0 <__fsym_pinMode_name+0x20>
    3000c7f4:	ca4f50ef          	jal	ra,30001c98 <rt_assert_handler>
    3000c7f8:	000aa703          	lw	a4,0(s5)
    3000c7fc:	00100793          	li	a5,1
    3000c800:	ff900993          	li	s3,-7
    3000c804:	04f70663          	beq	a4,a5,3000c850 <rt_serial_read+0x238>
    3000c808:	00faa023          	sw	a5,0(s5)
    3000c80c:	08043783          	ld	a5,128(s0)
    3000c810:	0207b783          	ld	a5,32(a5)
    3000c814:	00079e63          	bnez	a5,3000c830 <rt_serial_read+0x218>
    3000c818:	1ee00613          	li	a2,494
    3000c81c:	4fff7597          	auipc	a1,0x4fff7
    3000c820:	6ec58593          	addi	a1,a1,1772 # 80003f08 <__FUNCTION__.3094>
    3000c824:	4fff7517          	auipc	a0,0x4fff7
    3000c828:	63450513          	addi	a0,a0,1588 # 80003e58 <__fsym_pinMode_name+0xa8>
    3000c82c:	c6cf50ef          	jal	ra,30001c98 <rt_assert_handler>
    3000c830:	08043783          	ld	a5,128(s0)
    3000c834:	00100693          	li	a3,1
    3000c838:	00048613          	mv	a2,s1
    3000c83c:	0207b783          	ld	a5,32(a5)
    3000c840:	00090593          	mv	a1,s2
    3000c844:	00040513          	mv	a0,s0
    3000c848:	000780e7          	jalr	a5
    3000c84c:	00000993          	li	s3,0
    3000c850:	000a0513          	mv	a0,s4
    3000c854:	c95f80ef          	jal	ra,300054e8 <rt_hw_interrupt_enable>
    3000c858:	e6098ae3          	beqz	s3,3000c6cc <rt_serial_read+0xb4>
    3000c85c:	00098513          	mv	a0,s3
    3000c860:	895f40ef          	jal	ra,300010f4 <rt_set_errno>
    3000c864:	00000493          	li	s1,0
    3000c868:	e65ff06f          	j	3000c6cc <rt_serial_read+0xb4>
    3000c86c:	00040513          	mv	a0,s0
    3000c870:	e3cff0ef          	jal	ra,3000beac <_serial_fifo_calc_recved_len>
    3000c874:	00050993          	mv	s3,a0
    3000c878:	000a9e63          	bnez	s5,3000c894 <rt_serial_read+0x27c>
    3000c87c:	1fe00613          	li	a2,510
    3000c880:	4fff7597          	auipc	a1,0x4fff7
    3000c884:	68858593          	addi	a1,a1,1672 # 80003f08 <__FUNCTION__.3094>
    3000c888:	4fff7517          	auipc	a0,0x4fff7
    3000c88c:	53050513          	addi	a0,a0,1328 # 80003db8 <__fsym_pinMode_name+0x8>
    3000c890:	c08f50ef          	jal	ra,30001c98 <rt_assert_handler>
    3000c894:	0009879b          	sext.w	a5,s3
    3000c898:	00f4d463          	bge	s1,a5,3000c8a0 <rt_serial_read+0x288>
    3000c89c:	00048993          	mv	s3,s1
    3000c8a0:	08843783          	ld	a5,136(s0)
    3000c8a4:	00aad603          	lhu	a2,10(s5)
    3000c8a8:	000ab583          	ld	a1,0(s5)
    3000c8ac:	02a7d793          	srli	a5,a5,0x2a
    3000c8b0:	03079793          	slli	a5,a5,0x30
    3000c8b4:	0307d793          	srli	a5,a5,0x30
    3000c8b8:	01360733          	add	a4,a2,s3
    3000c8bc:	00c585b3          	add	a1,a1,a2
    3000c8c0:	0af77263          	bgeu	a4,a5,3000c964 <rt_serial_read+0x34c>
    3000c8c4:	00098613          	mv	a2,s3
    3000c8c8:	00090513          	mv	a0,s2
    3000c8cc:	929f40ef          	jal	ra,300011f4 <rt_memcpy>
    3000c8d0:	09043483          	ld	s1,144(s0)
    3000c8d4:	00049e63          	bnez	s1,3000c8f0 <rt_serial_read+0x2d8>
    3000c8d8:	19c00613          	li	a2,412
    3000c8dc:	4fff7597          	auipc	a1,0x4fff7
    3000c8e0:	60c58593          	addi	a1,a1,1548 # 80003ee8 <__FUNCTION__.3081>
    3000c8e4:	4fff7517          	auipc	a0,0x4fff7
    3000c8e8:	4d450513          	addi	a0,a0,1236 # 80003db8 <__fsym_pinMode_name+0x8>
    3000c8ec:	bacf50ef          	jal	ra,30001c98 <rt_assert_handler>
    3000c8f0:	00040513          	mv	a0,s0
    3000c8f4:	db8ff0ef          	jal	ra,3000beac <_serial_fifo_calc_recved_len>
    3000c8f8:	01357e63          	bgeu	a0,s3,3000c914 <rt_serial_read+0x2fc>
    3000c8fc:	19d00613          	li	a2,413
    3000c900:	4fff7597          	auipc	a1,0x4fff7
    3000c904:	5e858593          	addi	a1,a1,1512 # 80003ee8 <__FUNCTION__.3081>
    3000c908:	4fff7517          	auipc	a0,0x4fff7
    3000c90c:	57850513          	addi	a0,a0,1400 # 80003e80 <__fsym_pinMode_name+0xd0>
    3000c910:	b88f50ef          	jal	ra,30001c98 <rt_assert_handler>
    3000c914:	00c4a783          	lw	a5,12(s1)
    3000c918:	00078663          	beqz	a5,3000c924 <rt_serial_read+0x30c>
    3000c91c:	00098463          	beqz	s3,3000c924 <rt_serial_read+0x30c>
    3000c920:	0004a623          	sw	zero,12(s1)
    3000c924:	00a4d783          	lhu	a5,10(s1)
    3000c928:	08843703          	ld	a4,136(s0)
    3000c92c:	013787bb          	addw	a5,a5,s3
    3000c930:	03079793          	slli	a5,a5,0x30
    3000c934:	02a75713          	srli	a4,a4,0x2a
    3000c938:	0307d793          	srli	a5,a5,0x30
    3000c93c:	03071713          	slli	a4,a4,0x30
    3000c940:	00f49523          	sh	a5,10(s1)
    3000c944:	03075713          	srli	a4,a4,0x30
    3000c948:	00e7e663          	bltu	a5,a4,3000c954 <rt_serial_read+0x33c>
    3000c94c:	02e7f7bb          	remuw	a5,a5,a4
    3000c950:	00f49523          	sh	a5,10(s1)
    3000c954:	000a0513          	mv	a0,s4
    3000c958:	b91f80ef          	jal	ra,300054e8 <rt_hw_interrupt_enable>
    3000c95c:	0009849b          	sext.w	s1,s3
    3000c960:	d6dff06f          	j	3000c6cc <rt_serial_read+0xb4>
    3000c964:	40c7863b          	subw	a2,a5,a2
    3000c968:	00090513          	mv	a0,s2
    3000c96c:	889f40ef          	jal	ra,300011f4 <rt_memcpy>
    3000c970:	08843783          	ld	a5,136(s0)
    3000c974:	00aad503          	lhu	a0,10(s5)
    3000c978:	000ab583          	ld	a1,0(s5)
    3000c97c:	02a7d793          	srli	a5,a5,0x2a
    3000c980:	03079793          	slli	a5,a5,0x30
    3000c984:	0307d793          	srli	a5,a5,0x30
    3000c988:	40f50633          	sub	a2,a0,a5
    3000c98c:	40a78533          	sub	a0,a5,a0
    3000c990:	01360633          	add	a2,a2,s3
    3000c994:	00a90533          	add	a0,s2,a0
    3000c998:	f35ff06f          	j	3000c8cc <rt_serial_read+0x2b4>

000000003000c99c <rt_serial_close>:
    3000c99c:	fe010113          	addi	sp,sp,-32
    3000c9a0:	00813823          	sd	s0,16(sp)
    3000c9a4:	00113c23          	sd	ra,24(sp)
    3000c9a8:	00913423          	sd	s1,8(sp)
    3000c9ac:	00050413          	mv	s0,a0
    3000c9b0:	00051e63          	bnez	a0,3000c9cc <rt_serial_close+0x30>
    3000c9b4:	2e400613          	li	a2,740
    3000c9b8:	4fff7597          	auipc	a1,0x4fff7
    3000c9bc:	58058593          	addi	a1,a1,1408 # 80003f38 <__FUNCTION__.3130>
    3000c9c0:	4fff4517          	auipc	a0,0x4fff4
    3000c9c4:	17050513          	addi	a0,a0,368 # 80000b30 <small_digits.2783+0x18>
    3000c9c8:	ad0f50ef          	jal	ra,30001c98 <rt_assert_handler>
    3000c9cc:	03044703          	lbu	a4,48(s0)
    3000c9d0:	00100793          	li	a5,1
    3000c9d4:	0ce7e663          	bltu	a5,a4,3000caa0 <rt_serial_close+0x104>
    3000c9d8:	02e45783          	lhu	a5,46(s0)
    3000c9dc:	08043703          	ld	a4,128(s0)
    3000c9e0:	1007f693          	andi	a3,a5,256
    3000c9e4:	00873703          	ld	a4,8(a4)
    3000c9e8:	0c068863          	beqz	a3,3000cab8 <rt_serial_close+0x11c>
    3000c9ec:	10000613          	li	a2,256
    3000c9f0:	01100593          	li	a1,17
    3000c9f4:	00040513          	mv	a0,s0
    3000c9f8:	000700e7          	jalr	a4
    3000c9fc:	02e45783          	lhu	a5,46(s0)
    3000ca00:	09043483          	ld	s1,144(s0)
    3000ca04:	2f300613          	li	a2,755
    3000ca08:	eff7f793          	andi	a5,a5,-257
    3000ca0c:	02f41723          	sh	a5,46(s0)
    3000ca10:	10048663          	beqz	s1,3000cb1c <rt_serial_close+0x180>
    3000ca14:	00048513          	mv	a0,s1
    3000ca18:	fe1f70ef          	jal	ra,300049f8 <rt_free>
    3000ca1c:	08043823          	sd	zero,144(s0)
    3000ca20:	02e45783          	lhu	a5,46(s0)
    3000ca24:	08043703          	ld	a4,128(s0)
    3000ca28:	4007f693          	andi	a3,a5,1024
    3000ca2c:	00873703          	ld	a4,8(a4)
    3000ca30:	10068063          	beqz	a3,3000cb30 <rt_serial_close+0x194>
    3000ca34:	40000613          	li	a2,1024
    3000ca38:	01100593          	li	a1,17
    3000ca3c:	00040513          	mv	a0,s0
    3000ca40:	000700e7          	jalr	a4
    3000ca44:	02e45783          	lhu	a5,46(s0)
    3000ca48:	09843483          	ld	s1,152(s0)
    3000ca4c:	bff7f793          	andi	a5,a5,-1025
    3000ca50:	02f41723          	sh	a5,46(s0)
    3000ca54:	00049e63          	bnez	s1,3000ca70 <rt_serial_close+0xd4>
    3000ca58:	31f00613          	li	a2,799
    3000ca5c:	4fff7597          	auipc	a1,0x4fff7
    3000ca60:	4dc58593          	addi	a1,a1,1244 # 80003f38 <__FUNCTION__.3130>
    3000ca64:	4fff7517          	auipc	a0,0x4fff7
    3000ca68:	38450513          	addi	a0,a0,900 # 80003de8 <__fsym_pinMode_name+0x38>
    3000ca6c:	a2cf50ef          	jal	ra,30001c98 <rt_assert_handler>
    3000ca70:	00048513          	mv	a0,s1
    3000ca74:	f85f70ef          	jal	ra,300049f8 <rt_free>
    3000ca78:	08043c23          	sd	zero,152(s0)
    3000ca7c:	08043783          	ld	a5,128(s0)
    3000ca80:	00000613          	li	a2,0
    3000ca84:	00400593          	li	a1,4
    3000ca88:	0087b783          	ld	a5,8(a5)
    3000ca8c:	00040513          	mv	a0,s0
    3000ca90:	000780e7          	jalr	a5
    3000ca94:	02c45783          	lhu	a5,44(s0)
    3000ca98:	fef7f793          	andi	a5,a5,-17
    3000ca9c:	02f41623          	sh	a5,44(s0)
    3000caa0:	01813083          	ld	ra,24(sp)
    3000caa4:	01013403          	ld	s0,16(sp)
    3000caa8:	00813483          	ld	s1,8(sp)
    3000caac:	00000513          	li	a0,0
    3000cab0:	02010113          	addi	sp,sp,32
    3000cab4:	00008067          	ret
    3000cab8:	2007f793          	andi	a5,a5,512
    3000cabc:	f60782e3          	beqz	a5,3000ca20 <rt_serial_close+0x84>
    3000cac0:	20000613          	li	a2,512
    3000cac4:	01100593          	li	a1,17
    3000cac8:	00040513          	mv	a0,s0
    3000cacc:	000700e7          	jalr	a4
    3000cad0:	02e45783          	lhu	a5,46(s0)
    3000cad4:	08c42703          	lw	a4,140(s0)
    3000cad8:	09043483          	ld	s1,144(s0)
    3000cadc:	dff7f793          	andi	a5,a5,-513
    3000cae0:	02f41723          	sh	a5,46(s0)
    3000cae4:	040007b7          	lui	a5,0x4000
    3000cae8:	c0078793          	addi	a5,a5,-1024 # 3fffc00 <__stack_size+0x3fff400>
    3000caec:	00e7f7b3          	and	a5,a5,a4
    3000caf0:	02079263          	bnez	a5,3000cb14 <rt_serial_close+0x178>
    3000caf4:	f20490e3          	bnez	s1,3000ca14 <rt_serial_close+0x78>
    3000caf8:	30500613          	li	a2,773
    3000cafc:	4fff7597          	auipc	a1,0x4fff7
    3000cb00:	43c58593          	addi	a1,a1,1084 # 80003f38 <__FUNCTION__.3130>
    3000cb04:	4fff7517          	auipc	a0,0x4fff7
    3000cb08:	2cc50513          	addi	a0,a0,716 # 80003dd0 <__fsym_pinMode_name+0x20>
    3000cb0c:	98cf50ef          	jal	ra,30001c98 <rt_assert_handler>
    3000cb10:	f05ff06f          	j	3000ca14 <rt_serial_close+0x78>
    3000cb14:	f00490e3          	bnez	s1,3000ca14 <rt_serial_close+0x78>
    3000cb18:	30e00613          	li	a2,782
    3000cb1c:	4fff7597          	auipc	a1,0x4fff7
    3000cb20:	41c58593          	addi	a1,a1,1052 # 80003f38 <__FUNCTION__.3130>
    3000cb24:	4fff7517          	auipc	a0,0x4fff7
    3000cb28:	29450513          	addi	a0,a0,660 # 80003db8 <__fsym_pinMode_name+0x8>
    3000cb2c:	fe1ff06f          	j	3000cb0c <rt_serial_close+0x170>
    3000cb30:	00001637          	lui	a2,0x1
    3000cb34:	80060613          	addi	a2,a2,-2048 # 800 <__stack_size>
    3000cb38:	00c7f7b3          	and	a5,a5,a2
    3000cb3c:	f40780e3          	beqz	a5,3000ca7c <rt_serial_close+0xe0>
    3000cb40:	01100593          	li	a1,17
    3000cb44:	00040513          	mv	a0,s0
    3000cb48:	000700e7          	jalr	a4
    3000cb4c:	02e45783          	lhu	a5,46(s0)
    3000cb50:	fffff737          	lui	a4,0xfffff
    3000cb54:	7ff70713          	addi	a4,a4,2047 # fffffffffffff7ff <__stack_start__+0xffffffff7efff7ff>
    3000cb58:	09843483          	ld	s1,152(s0)
    3000cb5c:	00e7f7b3          	and	a5,a5,a4
    3000cb60:	02f41723          	sh	a5,46(s0)
    3000cb64:	00049e63          	bnez	s1,3000cb80 <rt_serial_close+0x1e4>
    3000cb68:	33000613          	li	a2,816
    3000cb6c:	4fff7597          	auipc	a1,0x4fff7
    3000cb70:	3cc58593          	addi	a1,a1,972 # 80003f38 <__FUNCTION__.3130>
    3000cb74:	4fff7517          	auipc	a0,0x4fff7
    3000cb78:	28c50513          	addi	a0,a0,652 # 80003e00 <__fsym_pinMode_name+0x50>
    3000cb7c:	91cf50ef          	jal	ra,30001c98 <rt_assert_handler>
    3000cb80:	00848513          	addi	a0,s1,8
    3000cb84:	ef5fe0ef          	jal	ra,3000ba78 <rt_data_queue_deinit>
    3000cb88:	ee9ff06f          	j	3000ca70 <rt_serial_close+0xd4>

000000003000cb8c <rt_hw_serial_register>:
    3000cb8c:	fd010113          	addi	sp,sp,-48
    3000cb90:	02813023          	sd	s0,32(sp)
    3000cb94:	00913c23          	sd	s1,24(sp)
    3000cb98:	01213823          	sd	s2,16(sp)
    3000cb9c:	01313423          	sd	s3,8(sp)
    3000cba0:	02113423          	sd	ra,40(sp)
    3000cba4:	00050413          	mv	s0,a0
    3000cba8:	00058493          	mv	s1,a1
    3000cbac:	00060913          	mv	s2,a2
    3000cbb0:	00068993          	mv	s3,a3
    3000cbb4:	00051e63          	bnez	a0,3000cbd0 <rt_hw_serial_register+0x44>
    3000cbb8:	49b00613          	li	a2,1179
    3000cbbc:	4fff7597          	auipc	a1,0x4fff7
    3000cbc0:	3c458593          	addi	a1,a1,964 # 80003f80 <__FUNCTION__.3174>
    3000cbc4:	4fff4517          	auipc	a0,0x4fff4
    3000cbc8:	a2c50513          	addi	a0,a0,-1492 # 800005f0 <__fsym___cmd_reboot_name+0x10>
    3000cbcc:	8ccf50ef          	jal	ra,30001c98 <rt_assert_handler>
    3000cbd0:	fffff797          	auipc	a5,0xfffff
    3000cbd4:	37478793          	addi	a5,a5,884 # 3000bf44 <rt_serial_init>
    3000cbd8:	04f43423          	sd	a5,72(s0)
    3000cbdc:	fffff797          	auipc	a5,0xfffff
    3000cbe0:	3d478793          	addi	a5,a5,980 # 3000bfb0 <rt_serial_open>
    3000cbe4:	04f43823          	sd	a5,80(s0)
    3000cbe8:	00000797          	auipc	a5,0x0
    3000cbec:	db478793          	addi	a5,a5,-588 # 3000c99c <rt_serial_close>
    3000cbf0:	04f43c23          	sd	a5,88(s0)
    3000cbf4:	00000797          	auipc	a5,0x0
    3000cbf8:	a2478793          	addi	a5,a5,-1500 # 3000c618 <rt_serial_read>
    3000cbfc:	06f43023          	sd	a5,96(s0)
    3000cc00:	00000797          	auipc	a5,0x0
    3000cc04:	83878793          	addi	a5,a5,-1992 # 3000c438 <rt_serial_write>
    3000cc08:	06f43423          	sd	a5,104(s0)
    3000cc0c:	fffff797          	auipc	a5,0xfffff
    3000cc10:	71878793          	addi	a5,a5,1816 # 3000c324 <rt_serial_control>
    3000cc14:	07343c23          	sd	s3,120(s0)
    3000cc18:	02042423          	sw	zero,40(s0)
    3000cc1c:	02043c23          	sd	zero,56(s0)
    3000cc20:	04043023          	sd	zero,64(s0)
    3000cc24:	06f43823          	sd	a5,112(s0)
    3000cc28:	00040513          	mv	a0,s0
    3000cc2c:	02013403          	ld	s0,32(sp)
    3000cc30:	02813083          	ld	ra,40(sp)
    3000cc34:	00813983          	ld	s3,8(sp)
    3000cc38:	03091613          	slli	a2,s2,0x30
    3000cc3c:	00048593          	mv	a1,s1
    3000cc40:	01013903          	ld	s2,16(sp)
    3000cc44:	01813483          	ld	s1,24(sp)
    3000cc48:	03065613          	srli	a2,a2,0x30
    3000cc4c:	03010113          	addi	sp,sp,48
    3000cc50:	8a0f506f          	j	30001cf0 <rt_device_register>
