
rtthread.elf:     file format elf64-littleriscv


Disassembly of section .init:

0000000030000000 <_start>:
    30000000:	50005197          	auipc	gp,0x50005
    30000004:	9f818193          	addi	gp,gp,-1544 # 800049f8 <__global_pointer$>
    30000008:	51000117          	auipc	sp,0x51000
    3000000c:	ff810113          	addi	sp,sp,-8 # 81000000 <__stack_start__>
    30000010:	0000d517          	auipc	a0,0xd
    30000014:	d6050513          	addi	a0,a0,-672 # 3000cd70 <_data_lma>
    30000018:	50000597          	auipc	a1,0x50000
    3000001c:	fe858593          	addi	a1,a1,-24 # 80000000 <__fsym___cmd_reboot>
    30000020:	82018613          	addi	a2,gp,-2016 # 80004218 <random_nr.2>
    30000024:	00c5fc63          	bgeu	a1,a2,3000003c <_start+0x3c>
    30000028:	00052283          	lw	t0,0(a0)
    3000002c:	0055a023          	sw	t0,0(a1)
    30000030:	00450513          	addi	a0,a0,4
    30000034:	00458593          	addi	a1,a1,4
    30000038:	fec5e8e3          	bltu	a1,a2,30000028 <_start+0x28>
    3000003c:	82018513          	addi	a0,gp,-2016 # 80004218 <random_nr.2>
    30000040:	5000d597          	auipc	a1,0x5000d
    30000044:	4b058593          	addi	a1,a1,1200 # 8000d4f0 <__bss_end>
    30000048:	00b57863          	bgeu	a0,a1,30000058 <_start+0x58>
    3000004c:	00052023          	sw	zero,0(a0)
    30000050:	00450513          	addi	a0,a0,4
    30000054:	feb56ce3          	bltu	a0,a1,3000004c <_start+0x4c>
    30000058:	00000097          	auipc	ra,0x0
    3000005c:	ff010113          	addi	sp,sp,-16
    30000060:	00113423          	sd	ra,8(sp)
    30000064:	00000513          	li	a0,0
    30000068:	00000593          	li	a1,0
    3000006c:	30405073          	csrwi	mie,0
    30000070:	34405073          	csrwi	mip,0
    30000074:	00005297          	auipc	t0,0x5
    30000078:	fb428293          	addi	t0,t0,-76 # 30005028 <trap_entry>
    3000007c:	30529073          	csrw	mtvec,t0
    30000080:	0ad040ef          	jal	ra,3000492c <entry>
    30000084:	0000006f          	j	30000084 <_start+0x84>

Disassembly of section .text:

0000000030000088 <main>:
    30000088:	ff010113          	addi	sp,sp,-16
    3000008c:	50000517          	auipc	a0,0x50000
    30000090:	5dc50513          	addi	a0,a0,1500 # 80000668 <__fsym___cmd_reboot_name+0x10>
    30000094:	00113423          	sd	ra,8(sp)
    30000098:	41d020ef          	jal	ra,30002cb4 <rt_kprintf>
    3000009c:	00813083          	ld	ra,8(sp)
    300000a0:	00000513          	li	a0,0
    300000a4:	01010113          	addi	sp,sp,16
    300000a8:	00008067          	ret

00000000300000ac <drv_uart_putc>:
    300000ac:	00058513          	mv	a0,a1
    300000b0:	10000737          	lui	a4,0x10000
    300000b4:	00574783          	lbu	a5,5(a4) # 10000005 <__stack_size+0xffff805>
    300000b8:	0207f793          	andi	a5,a5,32
    300000bc:	fe078ce3          	beqz	a5,300000b4 <drv_uart_putc+0x8>
    300000c0:	00a70023          	sb	a0,0(a4)
    300000c4:	00008067          	ret

00000000300000c8 <drv_uart_getc>:
    300000c8:	10000737          	lui	a4,0x10000
    300000cc:	00574783          	lbu	a5,5(a4) # 10000005 <__stack_size+0xffff805>
    300000d0:	fff00513          	li	a0,-1
    300000d4:	0017f793          	andi	a5,a5,1
    300000d8:	00078463          	beqz	a5,300000e0 <drv_uart_getc+0x18>
    300000dc:	00074503          	lbu	a0,0(a4)
    300000e0:	00008067          	ret

00000000300000e4 <rt_uart_configure>:
    300000e4:	fe010113          	addi	sp,sp,-32
    300000e8:	00813823          	sd	s0,16(sp)
    300000ec:	00913423          	sd	s1,8(sp)
    300000f0:	00113c23          	sd	ra,24(sp)
    300000f4:	00050413          	mv	s0,a0
    300000f8:	00058493          	mv	s1,a1
    300000fc:	00051e63          	bnez	a0,30000118 <rt_uart_configure+0x34>
    30000100:	03a00613          	li	a2,58
    30000104:	50000597          	auipc	a1,0x50000
    30000108:	4d458593          	addi	a1,a1,1236 # 800005d8 <__FUNCTION__.0>
    3000010c:	50000517          	auipc	a0,0x50000
    30000110:	49c50513          	addi	a0,a0,1180 # 800005a8 <__rt_init_end>
    30000114:	525020ef          	jal	ra,30002e38 <rt_assert_handler>
    30000118:	0004a783          	lw	a5,0(s1)
    3000011c:	01813083          	ld	ra,24(sp)
    30000120:	00000513          	li	a0,0
    30000124:	08f42423          	sw	a5,136(s0)
    30000128:	0044a783          	lw	a5,4(s1)
    3000012c:	00813483          	ld	s1,8(sp)
    30000130:	08f42623          	sw	a5,140(s0)
    30000134:	01013403          	ld	s0,16(sp)
    30000138:	02010113          	addi	sp,sp,32
    3000013c:	00008067          	ret

0000000030000140 <uart_control>:
    30000140:	07853783          	ld	a5,120(a0)
    30000144:	02079a63          	bnez	a5,30000178 <uart_control+0x38>
    30000148:	ff010113          	addi	sp,sp,-16
    3000014c:	50000517          	auipc	a0,0x50000
    30000150:	47450513          	addi	a0,a0,1140 # 800005c0 <__rt_init_end+0x18>
    30000154:	04700613          	li	a2,71
    30000158:	50000597          	auipc	a1,0x50000
    3000015c:	49858593          	addi	a1,a1,1176 # 800005f0 <__FUNCTION__.1>
    30000160:	00113423          	sd	ra,8(sp)
    30000164:	4d5020ef          	jal	ra,30002e38 <rt_assert_handler>
    30000168:	00813083          	ld	ra,8(sp)
    3000016c:	00000513          	li	a0,0
    30000170:	01010113          	addi	sp,sp,16
    30000174:	00008067          	ret
    30000178:	00000513          	li	a0,0
    3000017c:	00008067          	ret

0000000030000180 <virt_uart_init>:
    30000180:	100007b7          	lui	a5,0x10000
    30000184:	000780a3          	sb	zero,1(a5) # 10000001 <__stack_size+0xffff801>
    30000188:	0037c703          	lbu	a4,3(a5)
    3000018c:	08076713          	ori	a4,a4,128
    30000190:	00e781a3          	sb	a4,3(a5)
    30000194:	00100713          	li	a4,1
    30000198:	00e78023          	sb	a4,0(a5)
    3000019c:	000780a3          	sb	zero,1(a5)
    300001a0:	00300713          	li	a4,3
    300001a4:	00e781a3          	sb	a4,3(a5)
    300001a8:	0017c703          	lbu	a4,1(a5)
    300001ac:	00176713          	ori	a4,a4,1
    300001b0:	00e780a3          	sb	a4,1(a5)
    300001b4:	00008067          	ret

00000000300001b8 <rt_hw_uart_init>:
    300001b8:	ff010113          	addi	sp,sp,-16
    300001bc:	00113423          	sd	ra,8(sp)
    300001c0:	97018513          	addi	a0,gp,-1680 # 80004368 <serial1>
    300001c4:	50000797          	auipc	a5,0x50000
    300001c8:	43c78793          	addi	a5,a5,1084 # 80000600 <_uart_ops>
    300001cc:	08f53023          	sd	a5,128(a0)
    300001d0:	50004797          	auipc	a5,0x50004
    300001d4:	0307b783          	ld	a5,48(a5) # 80004200 <soft_timer_status+0x8>
    300001d8:	a1018693          	addi	a3,gp,-1520 # 80004408 <uart1>
    300001dc:	08f53423          	sd	a5,136(a0)
    300001e0:	100007b7          	lui	a5,0x10000
    300001e4:	00f6b023          	sd	a5,0(a3)
    300001e8:	00a00793          	li	a5,10
    300001ec:	00f6a423          	sw	a5,8(a3)
    300001f0:	f91ff0ef          	jal	ra,30000180 <virt_uart_init>
    300001f4:	a1018693          	addi	a3,gp,-1520 # 80004408 <uart1>
    300001f8:	04300613          	li	a2,67
    300001fc:	50000597          	auipc	a1,0x50000
    30000200:	3d458593          	addi	a1,a1,980 # 800005d0 <__rt_init_end+0x28>
    30000204:	97018513          	addi	a0,gp,-1680 # 80004368 <serial1>
    30000208:	2240c0ef          	jal	ra,3000c42c <rt_hw_serial_register>
    3000020c:	00813083          	ld	ra,8(sp)
    30000210:	00000513          	li	a0,0
    30000214:	01010113          	addi	sp,sp,16
    30000218:	00008067          	ret

000000003000021c <plic_claim>:
    3000021c:	f1402773          	csrr	a4,mhartid
    30000220:	0c2007b7          	lui	a5,0xc200
    30000224:	00c7171b          	slliw	a4,a4,0xc
    30000228:	00e787b3          	add	a5,a5,a4
    3000022c:	0047a503          	lw	a0,4(a5) # c200004 <__stack_size+0xc1ff804>
    30000230:	00008067          	ret

0000000030000234 <plic_complete>:
    30000234:	f1402773          	csrr	a4,mhartid
    30000238:	0c2007b7          	lui	a5,0xc200
    3000023c:	00c7171b          	slliw	a4,a4,0xc
    30000240:	00e787b3          	add	a5,a5,a4
    30000244:	00a7a223          	sw	a0,4(a5) # c200004 <__stack_size+0xc1ff804>
    30000248:	00008067          	ret

000000003000024c <rt_hw_cpu_reset>:
    3000024c:	00000513          	li	a0,0
    30000250:	00000593          	li	a1,0
    30000254:	00000613          	li	a2,0
    30000258:	00000693          	li	a3,0
    3000025c:	00000713          	li	a4,0
    30000260:	00000813          	li	a6,0
    30000264:	00800893          	li	a7,8
    30000268:	00000073          	ecall
    3000026c:	0000006f          	j	3000026c <rt_hw_cpu_reset+0x20>

0000000030000270 <rt_hw_board_init>:
    30000270:	ff010113          	addi	sp,sp,-16
    30000274:	00113423          	sd	ra,8(sp)
    30000278:	00813023          	sd	s0,0(sp)
    3000027c:	7d5040ef          	jal	ra,30005250 <rt_hw_interrupt_init>
    30000280:	f39ff0ef          	jal	ra,300001b8 <rt_hw_uart_init>
    30000284:	5640d617          	auipc	a2,0x5640d
    30000288:	26c60613          	addi	a2,a2,620 # 8640d4f0 <__stack_start__+0x540d4f0>
    3000028c:	5000d417          	auipc	s0,0x5000d
    30000290:	26440413          	addi	s0,s0,612 # 8000d4f0 <__bss_end>
    30000294:	00060593          	mv	a1,a2
    30000298:	00040513          	mv	a0,s0
    3000029c:	304010ef          	jal	ra,300015a0 <rt_system_heap_init>
    300002a0:	50000517          	auipc	a0,0x50000
    300002a4:	33050513          	addi	a0,a0,816 # 800005d0 <__rt_init_end+0x28>
    300002a8:	19d020ef          	jal	ra,30002c44 <rt_console_set_device>
    300002ac:	499040ef          	jal	ra,30004f44 <rt_hw_tick_init>
    300002b0:	00040593          	mv	a1,s0
    300002b4:	5640d617          	auipc	a2,0x5640d
    300002b8:	23c60613          	addi	a2,a2,572 # 8640d4f0 <__stack_start__+0x540d4f0>
    300002bc:	50000517          	auipc	a0,0x50000
    300002c0:	36c50513          	addi	a0,a0,876 # 80000628 <_uart_ops+0x28>
    300002c4:	1f1020ef          	jal	ra,30002cb4 <rt_kprintf>
    300002c8:	00013403          	ld	s0,0(sp)
    300002cc:	00813083          	ld	ra,8(sp)
    300002d0:	01010113          	addi	sp,sp,16
    300002d4:	5040406f          	j	300047d8 <rt_components_board_init>

00000000300002d8 <strlen>:
    300002d8:	2ec0206f          	j	300025c4 <rt_strlen>

00000000300002dc <strcpy>:
    300002dc:	00050793          	mv	a5,a0
    300002e0:	0005c703          	lbu	a4,0(a1)
    300002e4:	00071663          	bnez	a4,300002f0 <strcpy+0x14>
    300002e8:	00078023          	sb	zero,0(a5)
    300002ec:	00008067          	ret
    300002f0:	00e78023          	sb	a4,0(a5)
    300002f4:	00158593          	addi	a1,a1,1
    300002f8:	00178793          	addi	a5,a5,1
    300002fc:	fe5ff06f          	j	300002e0 <strcpy+0x4>

0000000030000300 <strncpy>:
    30000300:	21c0206f          	j	3000251c <rt_strncpy>

0000000030000304 <strcat>:
    30000304:	fe010113          	addi	sp,sp,-32
    30000308:	00113c23          	sd	ra,24(sp)
    3000030c:	00813823          	sd	s0,16(sp)
    30000310:	00b13423          	sd	a1,8(sp)
    30000314:	00050413          	mv	s0,a0
    30000318:	2ac020ef          	jal	ra,300025c4 <rt_strlen>
    3000031c:	00813583          	ld	a1,8(sp)
    30000320:	00a40533          	add	a0,s0,a0
    30000324:	fb9ff0ef          	jal	ra,300002dc <strcpy>
    30000328:	01813083          	ld	ra,24(sp)
    3000032c:	00040513          	mv	a0,s0
    30000330:	01013403          	ld	s0,16(sp)
    30000334:	02010113          	addi	sp,sp,32
    30000338:	00008067          	ret

000000003000033c <strcmp>:
    3000033c:	2640206f          	j	300025a0 <rt_strcmp>

0000000030000340 <strncmp>:
    30000340:	2200206f          	j	30002560 <rt_strncmp>

0000000030000344 <memset>:
    30000344:	7bd0106f          	j	30002300 <rt_memset>

0000000030000348 <memcpy>:
    30000348:	0640206f          	j	300023ac <rt_memcpy>

000000003000034c <memcmp>:
    3000034c:	19c0206f          	j	300024e8 <rt_memcmp>

0000000030000350 <strstr>:
    30000350:	2900206f          	j	300025e0 <rt_strstr>

0000000030000354 <strrchr>:
    30000354:	00050c63          	beqz	a0,3000036c <strrchr+0x18>
    30000358:	00050793          	mv	a5,a0
    3000035c:	0ff5f593          	zext.b	a1,a1
    30000360:	00000513          	li	a0,0
    30000364:	0007c703          	lbu	a4,0(a5)
    30000368:	00071463          	bnez	a4,30000370 <strrchr+0x1c>
    3000036c:	00008067          	ret
    30000370:	00e59463          	bne	a1,a4,30000378 <strrchr+0x24>
    30000374:	00078513          	mv	a0,a5
    30000378:	00178793          	addi	a5,a5,1
    3000037c:	fe9ff06f          	j	30000364 <strrchr+0x10>

0000000030000380 <atoi>:
    30000380:	00050793          	mv	a5,a0
    30000384:	02000713          	li	a4,32
    30000388:	0007c683          	lbu	a3,0(a5)
    3000038c:	02e68063          	beq	a3,a4,300003ac <atoi+0x2c>
    30000390:	00000513          	li	a0,0
    30000394:	00900613          	li	a2,9
    30000398:	0007c683          	lbu	a3,0(a5)
    3000039c:	fd06871b          	addiw	a4,a3,-48
    300003a0:	0ff77713          	zext.b	a4,a4
    300003a4:	00e67863          	bgeu	a2,a4,300003b4 <atoi+0x34>
    300003a8:	00008067          	ret
    300003ac:	00178793          	addi	a5,a5,1
    300003b0:	fd9ff06f          	j	30000388 <atoi+0x8>
    300003b4:	0025171b          	slliw	a4,a0,0x2
    300003b8:	00a7053b          	addw	a0,a4,a0
    300003bc:	0015151b          	slliw	a0,a0,0x1
    300003c0:	00d5053b          	addw	a0,a0,a3
    300003c4:	fd05051b          	addiw	a0,a0,-48
    300003c8:	00178793          	addi	a5,a5,1
    300003cc:	fcdff06f          	j	30000398 <atoi+0x18>

00000000300003d0 <_rt_timer_remove>:
    300003d0:	02853683          	ld	a3,40(a0)
    300003d4:	03053703          	ld	a4,48(a0)
    300003d8:	02850793          	addi	a5,a0,40
    300003dc:	00e6b423          	sd	a4,8(a3)
    300003e0:	00d73023          	sd	a3,0(a4)
    300003e4:	02f53823          	sd	a5,48(a0)
    300003e8:	02f53423          	sd	a5,40(a0)
    300003ec:	00008067          	ret

00000000300003f0 <rt_timer_init>:
    300003f0:	fc010113          	addi	sp,sp,-64
    300003f4:	02813823          	sd	s0,48(sp)
    300003f8:	02913423          	sd	s1,40(sp)
    300003fc:	03213023          	sd	s2,32(sp)
    30000400:	01313c23          	sd	s3,24(sp)
    30000404:	01413823          	sd	s4,16(sp)
    30000408:	01513423          	sd	s5,8(sp)
    3000040c:	02113c23          	sd	ra,56(sp)
    30000410:	00050413          	mv	s0,a0
    30000414:	00058a93          	mv	s5,a1
    30000418:	00060a13          	mv	s4,a2
    3000041c:	00068993          	mv	s3,a3
    30000420:	00070913          	mv	s2,a4
    30000424:	00078493          	mv	s1,a5
    30000428:	00051e63          	bnez	a0,30000444 <rt_timer_init+0x54>
    3000042c:	0c900613          	li	a2,201
    30000430:	50000597          	auipc	a1,0x50000
    30000434:	35858593          	addi	a1,a1,856 # 80000788 <__FUNCTION__.6>
    30000438:	50000517          	auipc	a0,0x50000
    3000043c:	24050513          	addi	a0,a0,576 # 80000678 <__fsym___cmd_reboot_name+0x20>
    30000440:	1f9020ef          	jal	ra,30002e38 <rt_assert_handler>
    30000444:	000a8613          	mv	a2,s5
    30000448:	00040513          	mv	a0,s0
    3000044c:	00a00593          	li	a1,10
    30000450:	6e1030ef          	jal	ra,30004330 <rt_object_init>
    30000454:	02840793          	addi	a5,s0,40
    30000458:	ffe4f493          	andi	s1,s1,-2
    3000045c:	00940aa3          	sb	s1,21(s0)
    30000460:	03443c23          	sd	s4,56(s0)
    30000464:	05343023          	sd	s3,64(s0)
    30000468:	05242423          	sw	s2,72(s0)
    3000046c:	03813083          	ld	ra,56(sp)
    30000470:	04042623          	sw	zero,76(s0)
    30000474:	02f43823          	sd	a5,48(s0)
    30000478:	02f43423          	sd	a5,40(s0)
    3000047c:	03013403          	ld	s0,48(sp)
    30000480:	02813483          	ld	s1,40(sp)
    30000484:	02013903          	ld	s2,32(sp)
    30000488:	01813983          	ld	s3,24(sp)
    3000048c:	01013a03          	ld	s4,16(sp)
    30000490:	00813a83          	ld	s5,8(sp)
    30000494:	04010113          	addi	sp,sp,64
    30000498:	00008067          	ret

000000003000049c <rt_timer_detach>:
    3000049c:	fe010113          	addi	sp,sp,-32
    300004a0:	00813823          	sd	s0,16(sp)
    300004a4:	00113c23          	sd	ra,24(sp)
    300004a8:	00913423          	sd	s1,8(sp)
    300004ac:	00050413          	mv	s0,a0
    300004b0:	00051e63          	bnez	a0,300004cc <rt_timer_detach+0x30>
    300004b4:	0de00613          	li	a2,222
    300004b8:	50000597          	auipc	a1,0x50000
    300004bc:	2c058593          	addi	a1,a1,704 # 80000778 <__FUNCTION__.5>
    300004c0:	50000517          	auipc	a0,0x50000
    300004c4:	1b850513          	addi	a0,a0,440 # 80000678 <__fsym___cmd_reboot_name+0x20>
    300004c8:	171020ef          	jal	ra,30002e38 <rt_assert_handler>
    300004cc:	00040513          	mv	a0,s0
    300004d0:	1d0040ef          	jal	ra,300046a0 <rt_object_get_type>
    300004d4:	00a00793          	li	a5,10
    300004d8:	00f50e63          	beq	a0,a5,300004f4 <rt_timer_detach+0x58>
    300004dc:	0df00613          	li	a2,223
    300004e0:	50000597          	auipc	a1,0x50000
    300004e4:	29858593          	addi	a1,a1,664 # 80000778 <__FUNCTION__.5>
    300004e8:	50000517          	auipc	a0,0x50000
    300004ec:	1a850513          	addi	a0,a0,424 # 80000690 <__fsym___cmd_reboot_name+0x38>
    300004f0:	149020ef          	jal	ra,30002e38 <rt_assert_handler>
    300004f4:	00040513          	mv	a0,s0
    300004f8:	164040ef          	jal	ra,3000465c <rt_object_is_systemobject>
    300004fc:	00051e63          	bnez	a0,30000518 <rt_timer_detach+0x7c>
    30000500:	0e000613          	li	a2,224
    30000504:	50000597          	auipc	a1,0x50000
    30000508:	27458593          	addi	a1,a1,628 # 80000778 <__FUNCTION__.5>
    3000050c:	50000517          	auipc	a0,0x50000
    30000510:	1c450513          	addi	a0,a0,452 # 800006d0 <__fsym___cmd_reboot_name+0x78>
    30000514:	125020ef          	jal	ra,30002e38 <rt_assert_handler>
    30000518:	08d040ef          	jal	ra,30004da4 <rt_hw_interrupt_disable>
    3000051c:	00050493          	mv	s1,a0
    30000520:	00040513          	mv	a0,s0
    30000524:	eadff0ef          	jal	ra,300003d0 <_rt_timer_remove>
    30000528:	01544783          	lbu	a5,21(s0)
    3000052c:	00048513          	mv	a0,s1
    30000530:	ffe7f793          	andi	a5,a5,-2
    30000534:	00f40aa3          	sb	a5,21(s0)
    30000538:	075040ef          	jal	ra,30004dac <rt_hw_interrupt_enable>
    3000053c:	00040513          	mv	a0,s0
    30000540:	701030ef          	jal	ra,30004440 <rt_object_detach>
    30000544:	01813083          	ld	ra,24(sp)
    30000548:	01013403          	ld	s0,16(sp)
    3000054c:	00813483          	ld	s1,8(sp)
    30000550:	00000513          	li	a0,0
    30000554:	02010113          	addi	sp,sp,32
    30000558:	00008067          	ret

000000003000055c <rt_timer_start>:
    3000055c:	fe010113          	addi	sp,sp,-32
    30000560:	00813823          	sd	s0,16(sp)
    30000564:	00113c23          	sd	ra,24(sp)
    30000568:	00913423          	sd	s1,8(sp)
    3000056c:	00050413          	mv	s0,a0
    30000570:	00051e63          	bnez	a0,3000058c <rt_timer_start+0x30>
    30000574:	14500613          	li	a2,325
    30000578:	50000597          	auipc	a1,0x50000
    3000057c:	1f058593          	addi	a1,a1,496 # 80000768 <__FUNCTION__.3>
    30000580:	50000517          	auipc	a0,0x50000
    30000584:	0f850513          	addi	a0,a0,248 # 80000678 <__fsym___cmd_reboot_name+0x20>
    30000588:	0b1020ef          	jal	ra,30002e38 <rt_assert_handler>
    3000058c:	00040513          	mv	a0,s0
    30000590:	110040ef          	jal	ra,300046a0 <rt_object_get_type>
    30000594:	00a00793          	li	a5,10
    30000598:	00f50e63          	beq	a0,a5,300005b4 <rt_timer_start+0x58>
    3000059c:	14600613          	li	a2,326
    300005a0:	50000597          	auipc	a1,0x50000
    300005a4:	1c858593          	addi	a1,a1,456 # 80000768 <__FUNCTION__.3>
    300005a8:	50000517          	auipc	a0,0x50000
    300005ac:	0e850513          	addi	a0,a0,232 # 80000690 <__fsym___cmd_reboot_name+0x38>
    300005b0:	089020ef          	jal	ra,30002e38 <rt_assert_handler>
    300005b4:	7f0040ef          	jal	ra,30004da4 <rt_hw_interrupt_disable>
    300005b8:	00050493          	mv	s1,a0
    300005bc:	00040513          	mv	a0,s0
    300005c0:	e11ff0ef          	jal	ra,300003d0 <_rt_timer_remove>
    300005c4:	01544783          	lbu	a5,21(s0)
    300005c8:	ffe7f793          	andi	a5,a5,-2
    300005cc:	00f40aa3          	sb	a5,21(s0)
    300005d0:	8c81b783          	ld	a5,-1848(gp) # 800042c0 <rt_object_take_hook>
    300005d4:	00078663          	beqz	a5,300005e0 <rt_timer_start+0x84>
    300005d8:	00040513          	mv	a0,s0
    300005dc:	000780e7          	jalr	a5
    300005e0:	04842703          	lw	a4,72(s0)
    300005e4:	800007b7          	lui	a5,0x80000
    300005e8:	ffe7c793          	xori	a5,a5,-2
    300005ec:	00e7fe63          	bgeu	a5,a4,30000608 <rt_timer_start+0xac>
    300005f0:	15500613          	li	a2,341
    300005f4:	50000597          	auipc	a1,0x50000
    300005f8:	17458593          	addi	a1,a1,372 # 80000768 <__FUNCTION__.3>
    300005fc:	50000517          	auipc	a0,0x50000
    30000600:	10450513          	addi	a0,a0,260 # 80000700 <__fsym___cmd_reboot_name+0xa8>
    30000604:	035020ef          	jal	ra,30002e38 <rt_assert_handler>
    30000608:	130030ef          	jal	ra,30003738 <rt_tick_get>
    3000060c:	04842783          	lw	a5,72(s0)
    30000610:	01544703          	lbu	a4,21(s0)
    30000614:	00f5053b          	addw	a0,a0,a5
    30000618:	04a42623          	sw	a0,76(s0)
    3000061c:	00477693          	andi	a3,a4,4
    30000620:	a2018793          	addi	a5,gp,-1504 # 80004418 <rt_soft_timer_list>
    30000624:	00069463          	bnez	a3,3000062c <rt_timer_start+0xd0>
    30000628:	a3018793          	addi	a5,gp,-1488 # 80004428 <rt_timer_list>
    3000062c:	0087b803          	ld	a6,8(a5) # ffffffff80000008 <__stack_start__+0xfffffffeff000008>
    30000630:	800005b7          	lui	a1,0x80000
    30000634:	ffe5c593          	xori	a1,a1,-2
    30000638:	00078613          	mv	a2,a5
    3000063c:	0007b783          	ld	a5,0(a5)
    30000640:	00c80a63          	beq	a6,a2,30000654 <rt_timer_start+0xf8>
    30000644:	0247a683          	lw	a3,36(a5)
    30000648:	fed508e3          	beq	a0,a3,30000638 <rt_timer_start+0xdc>
    3000064c:	40a686bb          	subw	a3,a3,a0
    30000650:	fed5e4e3          	bltu	a1,a3,30000638 <rt_timer_start+0xdc>
    30000654:	82018593          	addi	a1,gp,-2016 # 80004218 <random_nr.2>
    30000658:	0005a683          	lw	a3,0(a1) # ffffffff80000000 <__stack_start__+0xfffffffeff000000>
    3000065c:	00176713          	ori	a4,a4,1
    30000660:	00048513          	mv	a0,s1
    30000664:	0016869b          	addiw	a3,a3,1
    30000668:	00d5a023          	sw	a3,0(a1)
    3000066c:	02840693          	addi	a3,s0,40
    30000670:	00d7b423          	sd	a3,8(a5)
    30000674:	02f43423          	sd	a5,40(s0)
    30000678:	00d63023          	sd	a3,0(a2)
    3000067c:	02c43823          	sd	a2,48(s0)
    30000680:	00e40aa3          	sb	a4,21(s0)
    30000684:	728040ef          	jal	ra,30004dac <rt_hw_interrupt_enable>
    30000688:	01544783          	lbu	a5,21(s0)
    3000068c:	0047f793          	andi	a5,a5,4
    30000690:	02078863          	beqz	a5,300006c0 <rt_timer_start+0x164>
    30000694:	50004717          	auipc	a4,0x50004
    30000698:	b6474703          	lbu	a4,-1180(a4) # 800041f8 <soft_timer_status>
    3000069c:	00100793          	li	a5,1
    300006a0:	02f71063          	bne	a4,a5,300006c0 <rt_timer_start+0x164>
    300006a4:	a4018513          	addi	a0,gp,-1472 # 80004438 <timer_thread>
    300006a8:	06854783          	lbu	a5,104(a0)
    300006ac:	00200713          	li	a4,2
    300006b0:	0077f793          	andi	a5,a5,7
    300006b4:	00e79663          	bne	a5,a4,300006c0 <rt_timer_start+0x164>
    300006b8:	165030ef          	jal	ra,3000401c <rt_thread_resume>
    300006bc:	464040ef          	jal	ra,30004b20 <rt_schedule>
    300006c0:	01813083          	ld	ra,24(sp)
    300006c4:	01013403          	ld	s0,16(sp)
    300006c8:	00813483          	ld	s1,8(sp)
    300006cc:	00000513          	li	a0,0
    300006d0:	02010113          	addi	sp,sp,32
    300006d4:	00008067          	ret

00000000300006d8 <rt_timer_stop>:
    300006d8:	fe010113          	addi	sp,sp,-32
    300006dc:	00813823          	sd	s0,16(sp)
    300006e0:	00113c23          	sd	ra,24(sp)
    300006e4:	00913423          	sd	s1,8(sp)
    300006e8:	00050413          	mv	s0,a0
    300006ec:	00051e63          	bnez	a0,30000708 <rt_timer_stop+0x30>
    300006f0:	1bb00613          	li	a2,443
    300006f4:	50000597          	auipc	a1,0x50000
    300006f8:	06458593          	addi	a1,a1,100 # 80000758 <__FUNCTION__.1>
    300006fc:	50000517          	auipc	a0,0x50000
    30000700:	f7c50513          	addi	a0,a0,-132 # 80000678 <__fsym___cmd_reboot_name+0x20>
    30000704:	734020ef          	jal	ra,30002e38 <rt_assert_handler>
    30000708:	00040513          	mv	a0,s0
    3000070c:	795030ef          	jal	ra,300046a0 <rt_object_get_type>
    30000710:	00a00793          	li	a5,10
    30000714:	00f50e63          	beq	a0,a5,30000730 <rt_timer_stop+0x58>
    30000718:	1bc00613          	li	a2,444
    3000071c:	50000597          	auipc	a1,0x50000
    30000720:	03c58593          	addi	a1,a1,60 # 80000758 <__FUNCTION__.1>
    30000724:	50000517          	auipc	a0,0x50000
    30000728:	f6c50513          	addi	a0,a0,-148 # 80000690 <__fsym___cmd_reboot_name+0x38>
    3000072c:	70c020ef          	jal	ra,30002e38 <rt_assert_handler>
    30000730:	01544783          	lbu	a5,21(s0)
    30000734:	fff00513          	li	a0,-1
    30000738:	0017f793          	andi	a5,a5,1
    3000073c:	02078e63          	beqz	a5,30000778 <rt_timer_stop+0xa0>
    30000740:	8c01b783          	ld	a5,-1856(gp) # 800042b8 <rt_object_put_hook>
    30000744:	00078663          	beqz	a5,30000750 <rt_timer_stop+0x78>
    30000748:	00040513          	mv	a0,s0
    3000074c:	000780e7          	jalr	a5
    30000750:	654040ef          	jal	ra,30004da4 <rt_hw_interrupt_disable>
    30000754:	00050493          	mv	s1,a0
    30000758:	00040513          	mv	a0,s0
    3000075c:	c75ff0ef          	jal	ra,300003d0 <_rt_timer_remove>
    30000760:	01544783          	lbu	a5,21(s0)
    30000764:	00048513          	mv	a0,s1
    30000768:	ffe7f793          	andi	a5,a5,-2
    3000076c:	00f40aa3          	sb	a5,21(s0)
    30000770:	63c040ef          	jal	ra,30004dac <rt_hw_interrupt_enable>
    30000774:	00000513          	li	a0,0
    30000778:	01813083          	ld	ra,24(sp)
    3000077c:	01013403          	ld	s0,16(sp)
    30000780:	00813483          	ld	s1,8(sp)
    30000784:	02010113          	addi	sp,sp,32
    30000788:	00008067          	ret

000000003000078c <rt_timer_control>:
    3000078c:	fe010113          	addi	sp,sp,-32
    30000790:	00813823          	sd	s0,16(sp)
    30000794:	00913423          	sd	s1,8(sp)
    30000798:	01213023          	sd	s2,0(sp)
    3000079c:	00113c23          	sd	ra,24(sp)
    300007a0:	00050413          	mv	s0,a0
    300007a4:	00058493          	mv	s1,a1
    300007a8:	00060913          	mv	s2,a2
    300007ac:	00051e63          	bnez	a0,300007c8 <rt_timer_control+0x3c>
    300007b0:	1df00613          	li	a2,479
    300007b4:	50000597          	auipc	a1,0x50000
    300007b8:	f8c58593          	addi	a1,a1,-116 # 80000740 <__FUNCTION__.0>
    300007bc:	50000517          	auipc	a0,0x50000
    300007c0:	ebc50513          	addi	a0,a0,-324 # 80000678 <__fsym___cmd_reboot_name+0x20>
    300007c4:	674020ef          	jal	ra,30002e38 <rt_assert_handler>
    300007c8:	00040513          	mv	a0,s0
    300007cc:	6d5030ef          	jal	ra,300046a0 <rt_object_get_type>
    300007d0:	00a00793          	li	a5,10
    300007d4:	00f50e63          	beq	a0,a5,300007f0 <rt_timer_control+0x64>
    300007d8:	1e000613          	li	a2,480
    300007dc:	50000597          	auipc	a1,0x50000
    300007e0:	f6458593          	addi	a1,a1,-156 # 80000740 <__FUNCTION__.0>
    300007e4:	50000517          	auipc	a0,0x50000
    300007e8:	eac50513          	addi	a0,a0,-340 # 80000690 <__fsym___cmd_reboot_name+0x38>
    300007ec:	64c020ef          	jal	ra,30002e38 <rt_assert_handler>
    300007f0:	5b4040ef          	jal	ra,30004da4 <rt_hw_interrupt_disable>
    300007f4:	00400793          	li	a5,4
    300007f8:	0297ea63          	bltu	a5,s1,3000082c <rt_timer_control+0xa0>
    300007fc:	50000717          	auipc	a4,0x50000
    30000800:	f2870713          	addi	a4,a4,-216 # 80000724 <__fsym___cmd_reboot_name+0xcc>
    30000804:	00249493          	slli	s1,s1,0x2
    30000808:	00e484b3          	add	s1,s1,a4
    3000080c:	0004a783          	lw	a5,0(s1)
    30000810:	00e787b3          	add	a5,a5,a4
    30000814:	00078067          	jr	a5
    30000818:	04842783          	lw	a5,72(s0)
    3000081c:	00f92023          	sw	a5,0(s2)
    30000820:	00c0006f          	j	3000082c <rt_timer_control+0xa0>
    30000824:	00092783          	lw	a5,0(s2)
    30000828:	04f42423          	sw	a5,72(s0)
    3000082c:	580040ef          	jal	ra,30004dac <rt_hw_interrupt_enable>
    30000830:	01813083          	ld	ra,24(sp)
    30000834:	01013403          	ld	s0,16(sp)
    30000838:	00813483          	ld	s1,8(sp)
    3000083c:	00013903          	ld	s2,0(sp)
    30000840:	00000513          	li	a0,0
    30000844:	02010113          	addi	sp,sp,32
    30000848:	00008067          	ret
    3000084c:	01544783          	lbu	a5,21(s0)
    30000850:	ffd7f793          	andi	a5,a5,-3
    30000854:	00f40aa3          	sb	a5,21(s0)
    30000858:	fd5ff06f          	j	3000082c <rt_timer_control+0xa0>
    3000085c:	01544783          	lbu	a5,21(s0)
    30000860:	0027e793          	ori	a5,a5,2
    30000864:	ff1ff06f          	j	30000854 <rt_timer_control+0xc8>
    30000868:	01544783          	lbu	a5,21(s0)
    3000086c:	0017f793          	andi	a5,a5,1
    30000870:	00078663          	beqz	a5,3000087c <rt_timer_control+0xf0>
    30000874:	00100793          	li	a5,1
    30000878:	fa5ff06f          	j	3000081c <rt_timer_control+0x90>
    3000087c:	00092023          	sw	zero,0(s2)
    30000880:	fadff06f          	j	3000082c <rt_timer_control+0xa0>

0000000030000884 <rt_timer_check>:
    30000884:	f9010113          	addi	sp,sp,-112
    30000888:	05213823          	sd	s2,80(sp)
    3000088c:	00010913          	mv	s2,sp
    30000890:	06113423          	sd	ra,104(sp)
    30000894:	04913c23          	sd	s1,88(sp)
    30000898:	05413023          	sd	s4,64(sp)
    3000089c:	03513c23          	sd	s5,56(sp)
    300008a0:	03613823          	sd	s6,48(sp)
    300008a4:	03713423          	sd	s7,40(sp)
    300008a8:	03813023          	sd	s8,32(sp)
    300008ac:	01913c23          	sd	s9,24(sp)
    300008b0:	06813023          	sd	s0,96(sp)
    300008b4:	05313423          	sd	s3,72(sp)
    300008b8:	01213423          	sd	s2,8(sp)
    300008bc:	01213023          	sd	s2,0(sp)
    300008c0:	679020ef          	jal	ra,30003738 <rt_tick_get>
    300008c4:	0005049b          	sext.w	s1,a0
    300008c8:	80000ab7          	lui	s5,0x80000
    300008cc:	4d8040ef          	jal	ra,30004da4 <rt_hw_interrupt_disable>
    300008d0:	00050a13          	mv	s4,a0
    300008d4:	a3018b13          	addi	s6,gp,-1488 # 80004428 <rt_timer_list>
    300008d8:	ffeaca93          	xori	s5,s5,-2
    300008dc:	82818b93          	addi	s7,gp,-2008 # 80004220 <rt_timer_enter_hook>
    300008e0:	83018c13          	addi	s8,gp,-2000 # 80004228 <rt_timer_exit_hook>
    300008e4:	00300c93          	li	s9,3
    300008e8:	000b3403          	ld	s0,0(s6)
    300008ec:	05641063          	bne	s0,s6,3000092c <rt_timer_check+0xa8>
    300008f0:	000a0513          	mv	a0,s4
    300008f4:	4b8040ef          	jal	ra,30004dac <rt_hw_interrupt_enable>
    300008f8:	06813083          	ld	ra,104(sp)
    300008fc:	06013403          	ld	s0,96(sp)
    30000900:	05813483          	ld	s1,88(sp)
    30000904:	05013903          	ld	s2,80(sp)
    30000908:	04813983          	ld	s3,72(sp)
    3000090c:	04013a03          	ld	s4,64(sp)
    30000910:	03813a83          	ld	s5,56(sp)
    30000914:	03013b03          	ld	s6,48(sp)
    30000918:	02813b83          	ld	s7,40(sp)
    3000091c:	02013c03          	ld	s8,32(sp)
    30000920:	01813c83          	ld	s9,24(sp)
    30000924:	07010113          	addi	sp,sp,112
    30000928:	00008067          	ret
    3000092c:	02442783          	lw	a5,36(s0)
    30000930:	fd840993          	addi	s3,s0,-40
    30000934:	40f487bb          	subw	a5,s1,a5
    30000938:	fafaece3          	bltu	s5,a5,300008f0 <rt_timer_check+0x6c>
    3000093c:	000bb783          	ld	a5,0(s7)
    30000940:	00078663          	beqz	a5,3000094c <rt_timer_check+0xc8>
    30000944:	00098513          	mv	a0,s3
    30000948:	000780e7          	jalr	a5
    3000094c:	00098513          	mv	a0,s3
    30000950:	a81ff0ef          	jal	ra,300003d0 <_rt_timer_remove>
    30000954:	fed44783          	lbu	a5,-19(s0)
    30000958:	0027f713          	andi	a4,a5,2
    3000095c:	00071663          	bnez	a4,30000968 <rt_timer_check+0xe4>
    30000960:	ffe7f793          	andi	a5,a5,-2
    30000964:	fef406a3          	sb	a5,-19(s0)
    30000968:	00013783          	ld	a5,0(sp)
    3000096c:	01843503          	ld	a0,24(s0)
    30000970:	0087b423          	sd	s0,8(a5)
    30000974:	00f43023          	sd	a5,0(s0)
    30000978:	01043783          	ld	a5,16(s0)
    3000097c:	00813023          	sd	s0,0(sp)
    30000980:	01243423          	sd	s2,8(s0)
    30000984:	000780e7          	jalr	a5
    30000988:	5b1020ef          	jal	ra,30003738 <rt_tick_get>
    3000098c:	000c3783          	ld	a5,0(s8)
    30000990:	0005049b          	sext.w	s1,a0
    30000994:	00078663          	beqz	a5,300009a0 <rt_timer_check+0x11c>
    30000998:	00098513          	mv	a0,s3
    3000099c:	000780e7          	jalr	a5
    300009a0:	00013783          	ld	a5,0(sp)
    300009a4:	f52782e3          	beq	a5,s2,300008e8 <rt_timer_check+0x64>
    300009a8:	00043703          	ld	a4,0(s0)
    300009ac:	00843783          	ld	a5,8(s0)
    300009b0:	00f73423          	sd	a5,8(a4)
    300009b4:	00e7b023          	sd	a4,0(a5)
    300009b8:	fed44783          	lbu	a5,-19(s0)
    300009bc:	00843423          	sd	s0,8(s0)
    300009c0:	00843023          	sd	s0,0(s0)
    300009c4:	0037f713          	andi	a4,a5,3
    300009c8:	f39710e3          	bne	a4,s9,300008e8 <rt_timer_check+0x64>
    300009cc:	ffe7f793          	andi	a5,a5,-2
    300009d0:	fef406a3          	sb	a5,-19(s0)
    300009d4:	00098513          	mv	a0,s3
    300009d8:	b85ff0ef          	jal	ra,3000055c <rt_timer_start>
    300009dc:	f0dff06f          	j	300008e8 <rt_timer_check+0x64>

00000000300009e0 <rt_soft_timer_check>:
    300009e0:	f9010113          	addi	sp,sp,-112
    300009e4:	05213823          	sd	s2,80(sp)
    300009e8:	00010913          	mv	s2,sp
    300009ec:	04913c23          	sd	s1,88(sp)
    300009f0:	05413023          	sd	s4,64(sp)
    300009f4:	03513c23          	sd	s5,56(sp)
    300009f8:	03613823          	sd	s6,48(sp)
    300009fc:	03713423          	sd	s7,40(sp)
    30000a00:	03813023          	sd	s8,32(sp)
    30000a04:	01913c23          	sd	s9,24(sp)
    30000a08:	01a13823          	sd	s10,16(sp)
    30000a0c:	06113423          	sd	ra,104(sp)
    30000a10:	06813023          	sd	s0,96(sp)
    30000a14:	05313423          	sd	s3,72(sp)
    30000a18:	01213423          	sd	s2,8(sp)
    30000a1c:	01213023          	sd	s2,0(sp)
    30000a20:	80000a37          	lui	s4,0x80000
    30000a24:	380040ef          	jal	ra,30004da4 <rt_hw_interrupt_disable>
    30000a28:	00050493          	mv	s1,a0
    30000a2c:	a2018a93          	addi	s5,gp,-1504 # 80004418 <rt_soft_timer_list>
    30000a30:	ffea4a13          	xori	s4,s4,-2
    30000a34:	82818b13          	addi	s6,gp,-2008 # 80004220 <rt_timer_enter_hook>
    30000a38:	83018b93          	addi	s7,gp,-2000 # 80004228 <rt_timer_exit_hook>
    30000a3c:	50003c17          	auipc	s8,0x50003
    30000a40:	7bcc0c13          	addi	s8,s8,1980 # 800041f8 <soft_timer_status>
    30000a44:	00100c93          	li	s9,1
    30000a48:	00300d13          	li	s10,3
    30000a4c:	000ab403          	ld	s0,0(s5) # ffffffff80000000 <__stack_start__+0xfffffffeff000000>
    30000a50:	01540c63          	beq	s0,s5,30000a68 <rt_soft_timer_check+0x88>
    30000a54:	4e5020ef          	jal	ra,30003738 <rt_tick_get>
    30000a58:	02442783          	lw	a5,36(s0)
    30000a5c:	fd840993          	addi	s3,s0,-40
    30000a60:	40f5053b          	subw	a0,a0,a5
    30000a64:	04aa7263          	bgeu	s4,a0,30000aa8 <rt_soft_timer_check+0xc8>
    30000a68:	00048513          	mv	a0,s1
    30000a6c:	340040ef          	jal	ra,30004dac <rt_hw_interrupt_enable>
    30000a70:	06813083          	ld	ra,104(sp)
    30000a74:	06013403          	ld	s0,96(sp)
    30000a78:	05813483          	ld	s1,88(sp)
    30000a7c:	05013903          	ld	s2,80(sp)
    30000a80:	04813983          	ld	s3,72(sp)
    30000a84:	04013a03          	ld	s4,64(sp)
    30000a88:	03813a83          	ld	s5,56(sp)
    30000a8c:	03013b03          	ld	s6,48(sp)
    30000a90:	02813b83          	ld	s7,40(sp)
    30000a94:	02013c03          	ld	s8,32(sp)
    30000a98:	01813c83          	ld	s9,24(sp)
    30000a9c:	01013d03          	ld	s10,16(sp)
    30000aa0:	07010113          	addi	sp,sp,112
    30000aa4:	00008067          	ret
    30000aa8:	000b3783          	ld	a5,0(s6)
    30000aac:	00078663          	beqz	a5,30000ab8 <rt_soft_timer_check+0xd8>
    30000ab0:	00098513          	mv	a0,s3
    30000ab4:	000780e7          	jalr	a5
    30000ab8:	00098513          	mv	a0,s3
    30000abc:	915ff0ef          	jal	ra,300003d0 <_rt_timer_remove>
    30000ac0:	fed44783          	lbu	a5,-19(s0)
    30000ac4:	0027f713          	andi	a4,a5,2
    30000ac8:	00071663          	bnez	a4,30000ad4 <rt_soft_timer_check+0xf4>
    30000acc:	ffe7f793          	andi	a5,a5,-2
    30000ad0:	fef406a3          	sb	a5,-19(s0)
    30000ad4:	00013783          	ld	a5,0(sp)
    30000ad8:	00048513          	mv	a0,s1
    30000adc:	0087b423          	sd	s0,8(a5)
    30000ae0:	00f43023          	sd	a5,0(s0)
    30000ae4:	01243423          	sd	s2,8(s0)
    30000ae8:	50003797          	auipc	a5,0x50003
    30000aec:	70078823          	sb	zero,1808(a5) # 800041f8 <soft_timer_status>
    30000af0:	00813023          	sd	s0,0(sp)
    30000af4:	2b8040ef          	jal	ra,30004dac <rt_hw_interrupt_enable>
    30000af8:	01043783          	ld	a5,16(s0)
    30000afc:	01843503          	ld	a0,24(s0)
    30000b00:	000780e7          	jalr	a5
    30000b04:	000bb783          	ld	a5,0(s7)
    30000b08:	00078663          	beqz	a5,30000b14 <rt_soft_timer_check+0x134>
    30000b0c:	00098513          	mv	a0,s3
    30000b10:	000780e7          	jalr	a5
    30000b14:	290040ef          	jal	ra,30004da4 <rt_hw_interrupt_disable>
    30000b18:	00013783          	ld	a5,0(sp)
    30000b1c:	019c0023          	sb	s9,0(s8)
    30000b20:	00050493          	mv	s1,a0
    30000b24:	f32784e3          	beq	a5,s2,30000a4c <rt_soft_timer_check+0x6c>
    30000b28:	00043703          	ld	a4,0(s0)
    30000b2c:	00843783          	ld	a5,8(s0)
    30000b30:	00f73423          	sd	a5,8(a4)
    30000b34:	00e7b023          	sd	a4,0(a5)
    30000b38:	fed44783          	lbu	a5,-19(s0)
    30000b3c:	00843423          	sd	s0,8(s0)
    30000b40:	00843023          	sd	s0,0(s0)
    30000b44:	0037f713          	andi	a4,a5,3
    30000b48:	f1a712e3          	bne	a4,s10,30000a4c <rt_soft_timer_check+0x6c>
    30000b4c:	ffe7f793          	andi	a5,a5,-2
    30000b50:	fef406a3          	sb	a5,-19(s0)
    30000b54:	00098513          	mv	a0,s3
    30000b58:	a05ff0ef          	jal	ra,3000055c <rt_timer_start>
    30000b5c:	ef1ff06f          	j	30000a4c <rt_soft_timer_check+0x6c>

0000000030000b60 <rt_thread_timer_entry>:
    30000b60:	fd010113          	addi	sp,sp,-48
    30000b64:	00913c23          	sd	s1,24(sp)
    30000b68:	800004b7          	lui	s1,0x80000
    30000b6c:	01213823          	sd	s2,16(sp)
    30000b70:	01313423          	sd	s3,8(sp)
    30000b74:	02113423          	sd	ra,40(sp)
    30000b78:	02813023          	sd	s0,32(sp)
    30000b7c:	a2018913          	addi	s2,gp,-1504 # 80004418 <rt_soft_timer_list>
    30000b80:	fff00993          	li	s3,-1
    30000b84:	ffe4c493          	xori	s1,s1,-2
    30000b88:	21c040ef          	jal	ra,30004da4 <rt_hw_interrupt_disable>
    30000b8c:	00093783          	ld	a5,0(s2)
    30000b90:	fff00413          	li	s0,-1
    30000b94:	01278463          	beq	a5,s2,30000b9c <rt_thread_timer_entry+0x3c>
    30000b98:	0247a403          	lw	s0,36(a5)
    30000b9c:	210040ef          	jal	ra,30004dac <rt_hw_interrupt_enable>
    30000ba0:	01341c63          	bne	s0,s3,30000bb8 <rt_thread_timer_entry+0x58>
    30000ba4:	004030ef          	jal	ra,30003ba8 <rt_thread_self>
    30000ba8:	294030ef          	jal	ra,30003e3c <rt_thread_suspend>
    30000bac:	775030ef          	jal	ra,30004b20 <rt_schedule>
    30000bb0:	e31ff0ef          	jal	ra,300009e0 <rt_soft_timer_check>
    30000bb4:	fd5ff06f          	j	30000b88 <rt_thread_timer_entry+0x28>
    30000bb8:	381020ef          	jal	ra,30003738 <rt_tick_get>
    30000bbc:	40a4053b          	subw	a0,s0,a0
    30000bc0:	fea4e8e3          	bltu	s1,a0,30000bb0 <rt_thread_timer_entry+0x50>
    30000bc4:	438030ef          	jal	ra,30003ffc <rt_thread_delay>
    30000bc8:	fe9ff06f          	j	30000bb0 <rt_thread_timer_entry+0x50>

0000000030000bcc <rt_system_timer_init>:
    30000bcc:	a3018793          	addi	a5,gp,-1488 # 80004428 <rt_timer_list>
    30000bd0:	00f7b423          	sd	a5,8(a5)
    30000bd4:	00f7b023          	sd	a5,0(a5)
    30000bd8:	00008067          	ret

0000000030000bdc <rt_system_timer_thread_init>:
    30000bdc:	ff010113          	addi	sp,sp,-16
    30000be0:	00813023          	sd	s0,0(sp)
    30000be4:	00113423          	sd	ra,8(sp)
    30000be8:	a2018793          	addi	a5,gp,-1504 # 80004418 <rt_soft_timer_list>
    30000bec:	a4018413          	addi	s0,gp,-1472 # 80004438 <timer_thread>
    30000bf0:	00f7b423          	sd	a5,8(a5)
    30000bf4:	00f7b023          	sd	a5,0(a5)
    30000bf8:	00040513          	mv	a0,s0
    30000bfc:	00a00893          	li	a7,10
    30000c00:	00400813          	li	a6,4
    30000c04:	000047b7          	lui	a5,0x4
    30000c08:	50004717          	auipc	a4,0x50004
    30000c0c:	91870713          	addi	a4,a4,-1768 # 80004520 <timer_thread_stack>
    30000c10:	00000693          	li	a3,0
    30000c14:	00000617          	auipc	a2,0x0
    30000c18:	f4c60613          	addi	a2,a2,-180 # 30000b60 <rt_thread_timer_entry>
    30000c1c:	50000597          	auipc	a1,0x50000
    30000c20:	b1c58593          	addi	a1,a1,-1252 # 80000738 <__fsym___cmd_reboot_name+0xe0>
    30000c24:	6ad020ef          	jal	ra,30003ad0 <rt_thread_init>
    30000c28:	00040513          	mv	a0,s0
    30000c2c:	00013403          	ld	s0,0(sp)
    30000c30:	00813083          	ld	ra,8(sp)
    30000c34:	01010113          	addi	sp,sp,16
    30000c38:	4b80306f          	j	300040f0 <rt_thread_startup>

0000000030000c3c <rt_device_find>:
    30000c3c:	00900593          	li	a1,9
    30000c40:	2a50306f          	j	300046e4 <rt_object_find>

0000000030000c44 <rt_device_register>:
    30000c44:	02051463          	bnez	a0,30000c6c <rt_device_register+0x28>
    30000c48:	fff00513          	li	a0,-1
    30000c4c:	00008067          	ret
    30000c50:	fff00513          	li	a0,-1
    30000c54:	01813083          	ld	ra,24(sp)
    30000c58:	01013403          	ld	s0,16(sp)
    30000c5c:	00813483          	ld	s1,8(sp)
    30000c60:	00013903          	ld	s2,0(sp)
    30000c64:	02010113          	addi	sp,sp,32
    30000c68:	00008067          	ret
    30000c6c:	fe010113          	addi	sp,sp,-32
    30000c70:	00813823          	sd	s0,16(sp)
    30000c74:	00050413          	mv	s0,a0
    30000c78:	00058513          	mv	a0,a1
    30000c7c:	00913423          	sd	s1,8(sp)
    30000c80:	01213023          	sd	s2,0(sp)
    30000c84:	00113c23          	sd	ra,24(sp)
    30000c88:	00058493          	mv	s1,a1
    30000c8c:	00060913          	mv	s2,a2
    30000c90:	fadff0ef          	jal	ra,30000c3c <rt_device_find>
    30000c94:	fa051ee3          	bnez	a0,30000c50 <rt_device_register+0xc>
    30000c98:	00040513          	mv	a0,s0
    30000c9c:	00048613          	mv	a2,s1
    30000ca0:	00900593          	li	a1,9
    30000ca4:	68c030ef          	jal	ra,30004330 <rt_object_init>
    30000ca8:	00000513          	li	a0,0
    30000cac:	03241623          	sh	s2,44(s0)
    30000cb0:	02040823          	sb	zero,48(s0)
    30000cb4:	02041723          	sh	zero,46(s0)
    30000cb8:	f9dff06f          	j	30000c54 <rt_device_register+0x10>

0000000030000cbc <rt_device_open>:
    30000cbc:	fe010113          	addi	sp,sp,-32
    30000cc0:	00813823          	sd	s0,16(sp)
    30000cc4:	01213023          	sd	s2,0(sp)
    30000cc8:	00113c23          	sd	ra,24(sp)
    30000ccc:	00913423          	sd	s1,8(sp)
    30000cd0:	00050413          	mv	s0,a0
    30000cd4:	00058913          	mv	s2,a1
    30000cd8:	00051e63          	bnez	a0,30000cf4 <rt_device_open+0x38>
    30000cdc:	0c900613          	li	a2,201
    30000ce0:	50000597          	auipc	a1,0x50000
    30000ce4:	be858593          	addi	a1,a1,-1048 # 800008c8 <__FUNCTION__.6>
    30000ce8:	50000517          	auipc	a0,0x50000
    30000cec:	ab050513          	addi	a0,a0,-1360 # 80000798 <__FUNCTION__.6+0x10>
    30000cf0:	148020ef          	jal	ra,30002e38 <rt_assert_handler>
    30000cf4:	00040513          	mv	a0,s0
    30000cf8:	1a9030ef          	jal	ra,300046a0 <rt_object_get_type>
    30000cfc:	00900793          	li	a5,9
    30000d00:	00f50e63          	beq	a0,a5,30000d1c <rt_device_open+0x60>
    30000d04:	0ca00613          	li	a2,202
    30000d08:	50000597          	auipc	a1,0x50000
    30000d0c:	bc058593          	addi	a1,a1,-1088 # 800008c8 <__FUNCTION__.6>
    30000d10:	50000517          	auipc	a0,0x50000
    30000d14:	a9850513          	addi	a0,a0,-1384 # 800007a8 <__FUNCTION__.6+0x20>
    30000d18:	120020ef          	jal	ra,30002e38 <rt_assert_handler>
    30000d1c:	02c45783          	lhu	a5,44(s0)
    30000d20:	0107f793          	andi	a5,a5,16
    30000d24:	04079c63          	bnez	a5,30000d7c <rt_device_open+0xc0>
    30000d28:	04843783          	ld	a5,72(s0)
    30000d2c:	04078263          	beqz	a5,30000d70 <rt_device_open+0xb4>
    30000d30:	00040513          	mv	a0,s0
    30000d34:	000780e7          	jalr	a5 # 4000 <__stack_size+0x3800>
    30000d38:	00050493          	mv	s1,a0
    30000d3c:	02050a63          	beqz	a0,30000d70 <rt_device_open+0xb4>
    30000d40:	00050613          	mv	a2,a0
    30000d44:	00040593          	mv	a1,s0
    30000d48:	50000517          	auipc	a0,0x50000
    30000d4c:	ac850513          	addi	a0,a0,-1336 # 80000810 <__FUNCTION__.6+0x88>
    30000d50:	765010ef          	jal	ra,30002cb4 <rt_kprintf>
    30000d54:	01813083          	ld	ra,24(sp)
    30000d58:	01013403          	ld	s0,16(sp)
    30000d5c:	00013903          	ld	s2,0(sp)
    30000d60:	00048513          	mv	a0,s1
    30000d64:	00813483          	ld	s1,8(sp)
    30000d68:	02010113          	addi	sp,sp,32
    30000d6c:	00008067          	ret
    30000d70:	02c45783          	lhu	a5,44(s0)
    30000d74:	0107e793          	ori	a5,a5,16
    30000d78:	02f41623          	sh	a5,44(s0)
    30000d7c:	02c45783          	lhu	a5,44(s0)
    30000d80:	0087f793          	andi	a5,a5,8
    30000d84:	00078a63          	beqz	a5,30000d98 <rt_device_open+0xdc>
    30000d88:	02e45783          	lhu	a5,46(s0)
    30000d8c:	ff900493          	li	s1,-7
    30000d90:	0087f793          	andi	a5,a5,8
    30000d94:	fc0790e3          	bnez	a5,30000d54 <rt_device_open+0x98>
    30000d98:	05043783          	ld	a5,80(s0)
    30000d9c:	04078a63          	beqz	a5,30000df0 <rt_device_open+0x134>
    30000da0:	00090593          	mv	a1,s2
    30000da4:	00040513          	mv	a0,s0
    30000da8:	000780e7          	jalr	a5
    30000dac:	00050493          	mv	s1,a0
    30000db0:	04051c63          	bnez	a0,30000e08 <rt_device_open+0x14c>
    30000db4:	02e45783          	lhu	a5,46(s0)
    30000db8:	0087e793          	ori	a5,a5,8
    30000dbc:	02f41723          	sh	a5,46(s0)
    30000dc0:	03044783          	lbu	a5,48(s0)
    30000dc4:	0017879b          	addiw	a5,a5,1
    30000dc8:	0ff7f793          	zext.b	a5,a5
    30000dcc:	02f40823          	sb	a5,48(s0)
    30000dd0:	f80792e3          	bnez	a5,30000d54 <rt_device_open+0x98>
    30000dd4:	0f800613          	li	a2,248
    30000dd8:	50000597          	auipc	a1,0x50000
    30000ddc:	af058593          	addi	a1,a1,-1296 # 800008c8 <__FUNCTION__.6>
    30000de0:	50000517          	auipc	a0,0x50000
    30000de4:	a6850513          	addi	a0,a0,-1432 # 80000848 <__FUNCTION__.6+0xc0>
    30000de8:	050020ef          	jal	ra,30002e38 <rt_assert_handler>
    30000dec:	f69ff06f          	j	30000d54 <rt_device_open+0x98>
    30000df0:	000017b7          	lui	a5,0x1
    30000df4:	f0f78793          	addi	a5,a5,-241 # f0f <__stack_size+0x70f>
    30000df8:	00f97933          	and	s2,s2,a5
    30000dfc:	03241723          	sh	s2,46(s0)
    30000e00:	00000493          	li	s1,0
    30000e04:	fb1ff06f          	j	30000db4 <rt_device_open+0xf8>
    30000e08:	ffa00793          	li	a5,-6
    30000e0c:	f4f514e3          	bne	a0,a5,30000d54 <rt_device_open+0x98>
    30000e10:	fa5ff06f          	j	30000db4 <rt_device_open+0xf8>

0000000030000e14 <rt_device_close>:
    30000e14:	ff010113          	addi	sp,sp,-16
    30000e18:	00813023          	sd	s0,0(sp)
    30000e1c:	00113423          	sd	ra,8(sp)
    30000e20:	00050413          	mv	s0,a0
    30000e24:	00051e63          	bnez	a0,30000e40 <rt_device_close+0x2c>
    30000e28:	10a00613          	li	a2,266
    30000e2c:	50000597          	auipc	a1,0x50000
    30000e30:	a8c58593          	addi	a1,a1,-1396 # 800008b8 <__FUNCTION__.5>
    30000e34:	50000517          	auipc	a0,0x50000
    30000e38:	96450513          	addi	a0,a0,-1692 # 80000798 <__FUNCTION__.6+0x10>
    30000e3c:	7fd010ef          	jal	ra,30002e38 <rt_assert_handler>
    30000e40:	00040513          	mv	a0,s0
    30000e44:	05d030ef          	jal	ra,300046a0 <rt_object_get_type>
    30000e48:	00900793          	li	a5,9
    30000e4c:	00f50e63          	beq	a0,a5,30000e68 <rt_device_close+0x54>
    30000e50:	10b00613          	li	a2,267
    30000e54:	50000597          	auipc	a1,0x50000
    30000e58:	a6458593          	addi	a1,a1,-1436 # 800008b8 <__FUNCTION__.5>
    30000e5c:	50000517          	auipc	a0,0x50000
    30000e60:	94c50513          	addi	a0,a0,-1716 # 800007a8 <__FUNCTION__.6+0x20>
    30000e64:	7d5010ef          	jal	ra,30002e38 <rt_assert_handler>
    30000e68:	03044783          	lbu	a5,48(s0)
    30000e6c:	fff00513          	li	a0,-1
    30000e70:	04078063          	beqz	a5,30000eb0 <rt_device_close+0x9c>
    30000e74:	fff7879b          	addiw	a5,a5,-1
    30000e78:	0ff7f793          	zext.b	a5,a5
    30000e7c:	02f40823          	sb	a5,48(s0)
    30000e80:	00000513          	li	a0,0
    30000e84:	02079663          	bnez	a5,30000eb0 <rt_device_close+0x9c>
    30000e88:	05843783          	ld	a5,88(s0)
    30000e8c:	00079863          	bnez	a5,30000e9c <rt_device_close+0x88>
    30000e90:	00000513          	li	a0,0
    30000e94:	02041723          	sh	zero,46(s0)
    30000e98:	0180006f          	j	30000eb0 <rt_device_close+0x9c>
    30000e9c:	00040513          	mv	a0,s0
    30000ea0:	000780e7          	jalr	a5
    30000ea4:	fe0506e3          	beqz	a0,30000e90 <rt_device_close+0x7c>
    30000ea8:	ffa00793          	li	a5,-6
    30000eac:	fef504e3          	beq	a0,a5,30000e94 <rt_device_close+0x80>
    30000eb0:	00813083          	ld	ra,8(sp)
    30000eb4:	00013403          	ld	s0,0(sp)
    30000eb8:	01010113          	addi	sp,sp,16
    30000ebc:	00008067          	ret

0000000030000ec0 <rt_device_read>:
    30000ec0:	fd010113          	addi	sp,sp,-48
    30000ec4:	02813023          	sd	s0,32(sp)
    30000ec8:	00913c23          	sd	s1,24(sp)
    30000ecc:	01213823          	sd	s2,16(sp)
    30000ed0:	01313423          	sd	s3,8(sp)
    30000ed4:	02113423          	sd	ra,40(sp)
    30000ed8:	00050413          	mv	s0,a0
    30000edc:	00058493          	mv	s1,a1
    30000ee0:	00060913          	mv	s2,a2
    30000ee4:	00068993          	mv	s3,a3
    30000ee8:	00051e63          	bnez	a0,30000f04 <rt_device_read+0x44>
    30000eec:	13400613          	li	a2,308
    30000ef0:	50000597          	auipc	a1,0x50000
    30000ef4:	9b858593          	addi	a1,a1,-1608 # 800008a8 <__FUNCTION__.4>
    30000ef8:	50000517          	auipc	a0,0x50000
    30000efc:	8a050513          	addi	a0,a0,-1888 # 80000798 <__FUNCTION__.6+0x10>
    30000f00:	739010ef          	jal	ra,30002e38 <rt_assert_handler>
    30000f04:	00040513          	mv	a0,s0
    30000f08:	798030ef          	jal	ra,300046a0 <rt_object_get_type>
    30000f0c:	00900793          	li	a5,9
    30000f10:	00f50e63          	beq	a0,a5,30000f2c <rt_device_read+0x6c>
    30000f14:	13500613          	li	a2,309
    30000f18:	50000597          	auipc	a1,0x50000
    30000f1c:	99058593          	addi	a1,a1,-1648 # 800008a8 <__FUNCTION__.4>
    30000f20:	50000517          	auipc	a0,0x50000
    30000f24:	88850513          	addi	a0,a0,-1912 # 800007a8 <__FUNCTION__.6+0x20>
    30000f28:	711010ef          	jal	ra,30002e38 <rt_assert_handler>
    30000f2c:	03044783          	lbu	a5,48(s0)
    30000f30:	fff00513          	li	a0,-1
    30000f34:	02078e63          	beqz	a5,30000f70 <rt_device_read+0xb0>
    30000f38:	06043783          	ld	a5,96(s0)
    30000f3c:	02078863          	beqz	a5,30000f6c <rt_device_read+0xac>
    30000f40:	00040513          	mv	a0,s0
    30000f44:	02013403          	ld	s0,32(sp)
    30000f48:	02813083          	ld	ra,40(sp)
    30000f4c:	00098693          	mv	a3,s3
    30000f50:	00090613          	mv	a2,s2
    30000f54:	00813983          	ld	s3,8(sp)
    30000f58:	01013903          	ld	s2,16(sp)
    30000f5c:	00048593          	mv	a1,s1
    30000f60:	01813483          	ld	s1,24(sp)
    30000f64:	03010113          	addi	sp,sp,48
    30000f68:	00078067          	jr	a5
    30000f6c:	ffa00513          	li	a0,-6
    30000f70:	354010ef          	jal	ra,300022c4 <rt_set_errno>
    30000f74:	02813083          	ld	ra,40(sp)
    30000f78:	02013403          	ld	s0,32(sp)
    30000f7c:	01813483          	ld	s1,24(sp)
    30000f80:	01013903          	ld	s2,16(sp)
    30000f84:	00813983          	ld	s3,8(sp)
    30000f88:	00000513          	li	a0,0
    30000f8c:	03010113          	addi	sp,sp,48
    30000f90:	00008067          	ret

0000000030000f94 <rt_device_write>:
    30000f94:	fd010113          	addi	sp,sp,-48
    30000f98:	02813023          	sd	s0,32(sp)
    30000f9c:	00913c23          	sd	s1,24(sp)
    30000fa0:	01213823          	sd	s2,16(sp)
    30000fa4:	01313423          	sd	s3,8(sp)
    30000fa8:	02113423          	sd	ra,40(sp)
    30000fac:	00050413          	mv	s0,a0
    30000fb0:	00058493          	mv	s1,a1
    30000fb4:	00060913          	mv	s2,a2
    30000fb8:	00068993          	mv	s3,a3
    30000fbc:	00051e63          	bnez	a0,30000fd8 <rt_device_write+0x44>
    30000fc0:	15b00613          	li	a2,347
    30000fc4:	50000597          	auipc	a1,0x50000
    30000fc8:	8d458593          	addi	a1,a1,-1836 # 80000898 <__FUNCTION__.3>
    30000fcc:	4ffff517          	auipc	a0,0x4ffff
    30000fd0:	7cc50513          	addi	a0,a0,1996 # 80000798 <__FUNCTION__.6+0x10>
    30000fd4:	665010ef          	jal	ra,30002e38 <rt_assert_handler>
    30000fd8:	00040513          	mv	a0,s0
    30000fdc:	6c4030ef          	jal	ra,300046a0 <rt_object_get_type>
    30000fe0:	00900793          	li	a5,9
    30000fe4:	00f50e63          	beq	a0,a5,30001000 <rt_device_write+0x6c>
    30000fe8:	15c00613          	li	a2,348
    30000fec:	50000597          	auipc	a1,0x50000
    30000ff0:	8ac58593          	addi	a1,a1,-1876 # 80000898 <__FUNCTION__.3>
    30000ff4:	4ffff517          	auipc	a0,0x4ffff
    30000ff8:	7b450513          	addi	a0,a0,1972 # 800007a8 <__FUNCTION__.6+0x20>
    30000ffc:	63d010ef          	jal	ra,30002e38 <rt_assert_handler>
    30001000:	03044783          	lbu	a5,48(s0)
    30001004:	fff00513          	li	a0,-1
    30001008:	02078e63          	beqz	a5,30001044 <rt_device_write+0xb0>
    3000100c:	06843783          	ld	a5,104(s0)
    30001010:	02078863          	beqz	a5,30001040 <rt_device_write+0xac>
    30001014:	00040513          	mv	a0,s0
    30001018:	02013403          	ld	s0,32(sp)
    3000101c:	02813083          	ld	ra,40(sp)
    30001020:	00098693          	mv	a3,s3
    30001024:	00090613          	mv	a2,s2
    30001028:	00813983          	ld	s3,8(sp)
    3000102c:	01013903          	ld	s2,16(sp)
    30001030:	00048593          	mv	a1,s1
    30001034:	01813483          	ld	s1,24(sp)
    30001038:	03010113          	addi	sp,sp,48
    3000103c:	00078067          	jr	a5
    30001040:	ffa00513          	li	a0,-6
    30001044:	280010ef          	jal	ra,300022c4 <rt_set_errno>
    30001048:	02813083          	ld	ra,40(sp)
    3000104c:	02013403          	ld	s0,32(sp)
    30001050:	01813483          	ld	s1,24(sp)
    30001054:	01013903          	ld	s2,16(sp)
    30001058:	00813983          	ld	s3,8(sp)
    3000105c:	00000513          	li	a0,0
    30001060:	03010113          	addi	sp,sp,48
    30001064:	00008067          	ret

0000000030001068 <rt_device_control>:
    30001068:	fe010113          	addi	sp,sp,-32
    3000106c:	00813823          	sd	s0,16(sp)
    30001070:	00913423          	sd	s1,8(sp)
    30001074:	01213023          	sd	s2,0(sp)
    30001078:	00113c23          	sd	ra,24(sp)
    3000107c:	00050413          	mv	s0,a0
    30001080:	00058493          	mv	s1,a1
    30001084:	00060913          	mv	s2,a2
    30001088:	00051e63          	bnez	a0,300010a4 <rt_device_control+0x3c>
    3000108c:	17c00613          	li	a2,380
    30001090:	4ffff597          	auipc	a1,0x4ffff
    30001094:	7f058593          	addi	a1,a1,2032 # 80000880 <__FUNCTION__.2>
    30001098:	4ffff517          	auipc	a0,0x4ffff
    3000109c:	70050513          	addi	a0,a0,1792 # 80000798 <__FUNCTION__.6+0x10>
    300010a0:	599010ef          	jal	ra,30002e38 <rt_assert_handler>
    300010a4:	00040513          	mv	a0,s0
    300010a8:	5f8030ef          	jal	ra,300046a0 <rt_object_get_type>
    300010ac:	00900793          	li	a5,9
    300010b0:	00f50e63          	beq	a0,a5,300010cc <rt_device_control+0x64>
    300010b4:	17d00613          	li	a2,381
    300010b8:	4ffff597          	auipc	a1,0x4ffff
    300010bc:	7c858593          	addi	a1,a1,1992 # 80000880 <__FUNCTION__.2>
    300010c0:	4ffff517          	auipc	a0,0x4ffff
    300010c4:	6e850513          	addi	a0,a0,1768 # 800007a8 <__FUNCTION__.6+0x20>
    300010c8:	571010ef          	jal	ra,30002e38 <rt_assert_handler>
    300010cc:	07043783          	ld	a5,112(s0)
    300010d0:	02078463          	beqz	a5,300010f8 <rt_device_control+0x90>
    300010d4:	00040513          	mv	a0,s0
    300010d8:	01013403          	ld	s0,16(sp)
    300010dc:	01813083          	ld	ra,24(sp)
    300010e0:	00090613          	mv	a2,s2
    300010e4:	00048593          	mv	a1,s1
    300010e8:	00013903          	ld	s2,0(sp)
    300010ec:	00813483          	ld	s1,8(sp)
    300010f0:	02010113          	addi	sp,sp,32
    300010f4:	00078067          	jr	a5
    300010f8:	01813083          	ld	ra,24(sp)
    300010fc:	01013403          	ld	s0,16(sp)
    30001100:	00813483          	ld	s1,8(sp)
    30001104:	00013903          	ld	s2,0(sp)
    30001108:	ffa00513          	li	a0,-6
    3000110c:	02010113          	addi	sp,sp,32
    30001110:	00008067          	ret

0000000030001114 <rt_device_set_rx_indicate>:
    30001114:	fe010113          	addi	sp,sp,-32
    30001118:	00813823          	sd	s0,16(sp)
    3000111c:	00913423          	sd	s1,8(sp)
    30001120:	00113c23          	sd	ra,24(sp)
    30001124:	00050413          	mv	s0,a0
    30001128:	00058493          	mv	s1,a1
    3000112c:	00051e63          	bnez	a0,30001148 <rt_device_set_rx_indicate+0x34>
    30001130:	19600613          	li	a2,406
    30001134:	4ffff597          	auipc	a1,0x4ffff
    30001138:	72c58593          	addi	a1,a1,1836 # 80000860 <__FUNCTION__.1>
    3000113c:	4ffff517          	auipc	a0,0x4ffff
    30001140:	65c50513          	addi	a0,a0,1628 # 80000798 <__FUNCTION__.6+0x10>
    30001144:	4f5010ef          	jal	ra,30002e38 <rt_assert_handler>
    30001148:	00040513          	mv	a0,s0
    3000114c:	554030ef          	jal	ra,300046a0 <rt_object_get_type>
    30001150:	00900793          	li	a5,9
    30001154:	00f50e63          	beq	a0,a5,30001170 <rt_device_set_rx_indicate+0x5c>
    30001158:	19700613          	li	a2,407
    3000115c:	4ffff597          	auipc	a1,0x4ffff
    30001160:	70458593          	addi	a1,a1,1796 # 80000860 <__FUNCTION__.1>
    30001164:	4ffff517          	auipc	a0,0x4ffff
    30001168:	64450513          	addi	a0,a0,1604 # 800007a8 <__FUNCTION__.6+0x20>
    3000116c:	4cd010ef          	jal	ra,30002e38 <rt_assert_handler>
    30001170:	02943c23          	sd	s1,56(s0)
    30001174:	01813083          	ld	ra,24(sp)
    30001178:	01013403          	ld	s0,16(sp)
    3000117c:	00813483          	ld	s1,8(sp)
    30001180:	00000513          	li	a0,0
    30001184:	02010113          	addi	sp,sp,32
    30001188:	00008067          	ret

000000003000118c <rt_mem_setname>:
    3000118c:	00000713          	li	a4,0
    30001190:	00800613          	li	a2,8
    30001194:	00e586b3          	add	a3,a1,a4
    30001198:	0006c683          	lbu	a3,0(a3)
    3000119c:	0007079b          	sext.w	a5,a4
    300011a0:	00069c63          	bnez	a3,300011b8 <rt_mem_setname+0x2c>
    300011a4:	00800713          	li	a4,8
    300011a8:	02000613          	li	a2,32
    300011ac:	0007869b          	sext.w	a3,a5
    300011b0:	00e69e63          	bne	a3,a4,300011cc <rt_mem_setname+0x40>
    300011b4:	00008067          	ret
    300011b8:	00e507b3          	add	a5,a0,a4
    300011bc:	00d78c23          	sb	a3,24(a5)
    300011c0:	00170713          	addi	a4,a4,1
    300011c4:	fcc718e3          	bne	a4,a2,30001194 <rt_mem_setname+0x8>
    300011c8:	00008067          	ret
    300011cc:	00f506b3          	add	a3,a0,a5
    300011d0:	00c68c23          	sb	a2,24(a3)
    300011d4:	00178793          	addi	a5,a5,1
    300011d8:	fd5ff06f          	j	300011ac <rt_mem_setname+0x20>

00000000300011dc <list_mem>:
    300011dc:	ff010113          	addi	sp,sp,-16
    300011e0:	8581b583          	ld	a1,-1960(gp) # 80004250 <mem_size_aligned>
    300011e4:	4ffff517          	auipc	a0,0x4ffff
    300011e8:	6f450513          	addi	a0,a0,1780 # 800008d8 <__FUNCTION__.6+0x10>
    300011ec:	00113423          	sd	ra,8(sp)
    300011f0:	2c5010ef          	jal	ra,30002cb4 <rt_kprintf>
    300011f4:	8701b583          	ld	a1,-1936(gp) # 80004268 <used_mem>
    300011f8:	4ffff517          	auipc	a0,0x4ffff
    300011fc:	6f850513          	addi	a0,a0,1784 # 800008f0 <__FUNCTION__.6+0x28>
    30001200:	2b5010ef          	jal	ra,30002cb4 <rt_kprintf>
    30001204:	00813083          	ld	ra,8(sp)
    30001208:	8501b583          	ld	a1,-1968(gp) # 80004248 <max_mem>
    3000120c:	4ffff517          	auipc	a0,0x4ffff
    30001210:	6fc50513          	addi	a0,a0,1788 # 80000908 <__FUNCTION__.6+0x40>
    30001214:	01010113          	addi	sp,sp,16
    30001218:	29d0106f          	j	30002cb4 <rt_kprintf>

000000003000121c <memtrace>:
    3000121c:	fa010113          	addi	sp,sp,-96
    30001220:	04113c23          	sd	ra,88(sp)
    30001224:	04813823          	sd	s0,80(sp)
    30001228:	04913423          	sd	s1,72(sp)
    3000122c:	05213023          	sd	s2,64(sp)
    30001230:	03313c23          	sd	s3,56(sp)
    30001234:	03413823          	sd	s4,48(sp)
    30001238:	03513423          	sd	s5,40(sp)
    3000123c:	03613023          	sd	s6,32(sp)
    30001240:	01713c23          	sd	s7,24(sp)
    30001244:	01813823          	sd	s8,16(sp)
    30001248:	01913423          	sd	s9,8(sp)
    3000124c:	01a13023          	sd	s10,0(sp)
    30001250:	f8dff0ef          	jal	ra,300011dc <list_mem>
    30001254:	4ffff517          	auipc	a0,0x4ffff
    30001258:	6d450513          	addi	a0,a0,1748 # 80000928 <__FUNCTION__.6+0x60>
    3000125c:	259010ef          	jal	ra,30002cb4 <rt_kprintf>
    30001260:	84018493          	addi	s1,gp,-1984 # 80004238 <heap_ptr>
    30001264:	0004b583          	ld	a1,0(s1) # ffffffff80000000 <__stack_start__+0xfffffffeff000000>
    30001268:	4ffff517          	auipc	a0,0x4ffff
    3000126c:	6d850513          	addi	a0,a0,1752 # 80000940 <__FUNCTION__.6+0x78>
    30001270:	83818993          	addi	s3,gp,-1992 # 80004230 <heap_end>
    30001274:	241010ef          	jal	ra,30002cb4 <rt_kprintf>
    30001278:	8481b583          	ld	a1,-1976(gp) # 80004240 <lfree>
    3000127c:	4ffff517          	auipc	a0,0x4ffff
    30001280:	6dc50513          	addi	a0,a0,1756 # 80000958 <__FUNCTION__.6+0x90>
    30001284:	231010ef          	jal	ra,30002cb4 <rt_kprintf>
    30001288:	0009b583          	ld	a1,0(s3)
    3000128c:	4ffff517          	auipc	a0,0x4ffff
    30001290:	6e450513          	addi	a0,a0,1764 # 80000970 <__FUNCTION__.6+0xa8>
    30001294:	00002937          	lui	s2,0x2
    30001298:	21d010ef          	jal	ra,30002cb4 <rt_kprintf>
    3000129c:	4ffff517          	auipc	a0,0x4ffff
    300012a0:	6ec50513          	addi	a0,a0,1772 # 80000988 <__FUNCTION__.6+0xc0>
    300012a4:	211010ef          	jal	ra,30002cb4 <rt_kprintf>
    300012a8:	0004b403          	ld	s0,0(s1)
    300012ac:	4ffffa17          	auipc	s4,0x4ffff
    300012b0:	6fca0a13          	addi	s4,s4,1788 # 800009a8 <__FUNCTION__.6+0xe0>
    300012b4:	3ff00a93          	li	s5,1023
    300012b8:	00100b37          	lui	s6,0x100
    300012bc:	4ffffb97          	auipc	s7,0x4ffff
    300012c0:	70cb8b93          	addi	s7,s7,1804 # 800009c8 <__FUNCTION__.6+0x100>
    300012c4:	4ffffc17          	auipc	s8,0x4ffff
    300012c8:	6fcc0c13          	addi	s8,s8,1788 # 800009c0 <__FUNCTION__.6+0xf8>
    300012cc:	4ffffc97          	auipc	s9,0x4ffff
    300012d0:	6ecc8c93          	addi	s9,s9,1772 # 800009b8 <__FUNCTION__.6+0xf0>
    300012d4:	ea090913          	addi	s2,s2,-352 # 1ea0 <__stack_size+0x16a0>
    300012d8:	0009b783          	ld	a5,0(s3)
    300012dc:	04879063          	bne	a5,s0,3000131c <memtrace+0x100>
    300012e0:	05813083          	ld	ra,88(sp)
    300012e4:	05013403          	ld	s0,80(sp)
    300012e8:	04813483          	ld	s1,72(sp)
    300012ec:	04013903          	ld	s2,64(sp)
    300012f0:	03813983          	ld	s3,56(sp)
    300012f4:	03013a03          	ld	s4,48(sp)
    300012f8:	02813a83          	ld	s5,40(sp)
    300012fc:	02013b03          	ld	s6,32(sp)
    30001300:	01813b83          	ld	s7,24(sp)
    30001304:	01013c03          	ld	s8,16(sp)
    30001308:	00813c83          	ld	s9,8(sp)
    3000130c:	00013d03          	ld	s10,0(sp)
    30001310:	00000513          	li	a0,0
    30001314:	06010113          	addi	sp,sp,96
    30001318:	00008067          	ret
    3000131c:	00040593          	mv	a1,s0
    30001320:	000a0513          	mv	a0,s4
    30001324:	0004bd03          	ld	s10,0(s1)
    30001328:	18d010ef          	jal	ra,30002cb4 <rt_kprintf>
    3000132c:	00843783          	ld	a5,8(s0)
    30001330:	41a40d33          	sub	s10,s0,s10
    30001334:	000c8513          	mv	a0,s9
    30001338:	fe07879b          	addiw	a5,a5,-32
    3000133c:	41a785bb          	subw	a1,a5,s10
    30001340:	00bad863          	bge	s5,a1,30001350 <memtrace+0x134>
    30001344:	0565dc63          	bge	a1,s6,3000139c <memtrace+0x180>
    30001348:	40a5d59b          	sraiw	a1,a1,0xa
    3000134c:	000c0513          	mv	a0,s8
    30001350:	165010ef          	jal	ra,30002cb4 <rt_kprintf>
    30001354:	01b44703          	lbu	a4,27(s0)
    30001358:	01a44683          	lbu	a3,26(s0)
    3000135c:	01944603          	lbu	a2,25(s0)
    30001360:	01844583          	lbu	a1,24(s0)
    30001364:	4ffff517          	auipc	a0,0x4ffff
    30001368:	66c50513          	addi	a0,a0,1644 # 800009d0 <__FUNCTION__.6+0x108>
    3000136c:	149010ef          	jal	ra,30002cb4 <rt_kprintf>
    30001370:	00045783          	lhu	a5,0(s0)
    30001374:	4ffff517          	auipc	a0,0x4ffff
    30001378:	66c50513          	addi	a0,a0,1644 # 800009e0 <__FUNCTION__.6+0x118>
    3000137c:	01279663          	bne	a5,s2,30001388 <memtrace+0x16c>
    30001380:	50000517          	auipc	a0,0x50000
    30001384:	2b050513          	addi	a0,a0,688 # 80001630 <__FUNCTION__.6+0x40>
    30001388:	12d010ef          	jal	ra,30002cb4 <rt_kprintf>
    3000138c:	00843783          	ld	a5,8(s0)
    30001390:	0004b403          	ld	s0,0(s1)
    30001394:	00f40433          	add	s0,s0,a5
    30001398:	f41ff06f          	j	300012d8 <memtrace+0xbc>
    3000139c:	4145d59b          	sraiw	a1,a1,0x14
    300013a0:	000b8513          	mv	a0,s7
    300013a4:	fadff06f          	j	30001350 <memtrace+0x134>

00000000300013a8 <plug_holes>:
    300013a8:	fe010113          	addi	sp,sp,-32
    300013ac:	01213023          	sd	s2,0(sp)
    300013b0:	84018913          	addi	s2,gp,-1984 # 80004238 <heap_ptr>
    300013b4:	00093783          	ld	a5,0(s2)
    300013b8:	00813823          	sd	s0,16(sp)
    300013bc:	00113c23          	sd	ra,24(sp)
    300013c0:	00913423          	sd	s1,8(sp)
    300013c4:	00050413          	mv	s0,a0
    300013c8:	00f57e63          	bgeu	a0,a5,300013e4 <plug_holes+0x3c>
    300013cc:	0a100613          	li	a2,161
    300013d0:	50000597          	auipc	a1,0x50000
    300013d4:	94858593          	addi	a1,a1,-1720 # 80000d18 <__FUNCTION__.1>
    300013d8:	4ffff517          	auipc	a0,0x4ffff
    300013dc:	61050513          	addi	a0,a0,1552 # 800009e8 <__FUNCTION__.6+0x120>
    300013e0:	259010ef          	jal	ra,30002e38 <rt_assert_handler>
    300013e4:	83818493          	addi	s1,gp,-1992 # 80004230 <heap_end>
    300013e8:	0004b783          	ld	a5,0(s1)
    300013ec:	00f46e63          	bltu	s0,a5,30001408 <plug_holes+0x60>
    300013f0:	0a200613          	li	a2,162
    300013f4:	50000597          	auipc	a1,0x50000
    300013f8:	92458593          	addi	a1,a1,-1756 # 80000d18 <__FUNCTION__.1>
    300013fc:	4ffff517          	auipc	a0,0x4ffff
    30001400:	60c50513          	addi	a0,a0,1548 # 80000a08 <__FUNCTION__.6+0x140>
    30001404:	235010ef          	jal	ra,30002e38 <rt_assert_handler>
    30001408:	00245783          	lhu	a5,2(s0)
    3000140c:	00078e63          	beqz	a5,30001428 <plug_holes+0x80>
    30001410:	0a300613          	li	a2,163
    30001414:	50000597          	auipc	a1,0x50000
    30001418:	90458593          	addi	a1,a1,-1788 # 80000d18 <__FUNCTION__.1>
    3000141c:	4ffff517          	auipc	a0,0x4ffff
    30001420:	61c50513          	addi	a0,a0,1564 # 80000a38 <__FUNCTION__.6+0x170>
    30001424:	215010ef          	jal	ra,30002e38 <rt_assert_handler>
    30001428:	00093703          	ld	a4,0(s2)
    3000142c:	00843783          	ld	a5,8(s0)
    30001430:	00f707b3          	add	a5,a4,a5
    30001434:	02f40e63          	beq	s0,a5,30001470 <plug_holes+0xc8>
    30001438:	0027d683          	lhu	a3,2(a5)
    3000143c:	02069a63          	bnez	a3,30001470 <plug_holes+0xc8>
    30001440:	0004b683          	ld	a3,0(s1)
    30001444:	02f68663          	beq	a3,a5,30001470 <plug_holes+0xc8>
    30001448:	84818693          	addi	a3,gp,-1976 # 80004240 <lfree>
    3000144c:	0006b603          	ld	a2,0(a3)
    30001450:	00f61463          	bne	a2,a5,30001458 <plug_holes+0xb0>
    30001454:	0086b023          	sd	s0,0(a3)
    30001458:	0087b683          	ld	a3,8(a5)
    3000145c:	00d43423          	sd	a3,8(s0)
    30001460:	0087b783          	ld	a5,8(a5)
    30001464:	40e406b3          	sub	a3,s0,a4
    30001468:	00f707b3          	add	a5,a4,a5
    3000146c:	00d7b823          	sd	a3,16(a5)
    30001470:	01043683          	ld	a3,16(s0)
    30001474:	00d707b3          	add	a5,a4,a3
    30001478:	02f40863          	beq	s0,a5,300014a8 <plug_holes+0x100>
    3000147c:	0027d603          	lhu	a2,2(a5)
    30001480:	02061463          	bnez	a2,300014a8 <plug_holes+0x100>
    30001484:	84818613          	addi	a2,gp,-1976 # 80004240 <lfree>
    30001488:	00063583          	ld	a1,0(a2)
    3000148c:	00859463          	bne	a1,s0,30001494 <plug_holes+0xec>
    30001490:	00f63023          	sd	a5,0(a2)
    30001494:	00843603          	ld	a2,8(s0)
    30001498:	00c7b423          	sd	a2,8(a5)
    3000149c:	00843783          	ld	a5,8(s0)
    300014a0:	00f70733          	add	a4,a4,a5
    300014a4:	00d73823          	sd	a3,16(a4)
    300014a8:	01813083          	ld	ra,24(sp)
    300014ac:	01013403          	ld	s0,16(sp)
    300014b0:	00813483          	ld	s1,8(sp)
    300014b4:	00013903          	ld	s2,0(sp)
    300014b8:	02010113          	addi	sp,sp,32
    300014bc:	00008067          	ret

00000000300014c0 <memcheck>:
    300014c0:	fe010113          	addi	sp,sp,-32
    300014c4:	00813823          	sd	s0,16(sp)
    300014c8:	00913423          	sd	s1,8(sp)
    300014cc:	00113c23          	sd	ra,24(sp)
    300014d0:	01213023          	sd	s2,0(sp)
    300014d4:	0d1030ef          	jal	ra,30004da4 <rt_hw_interrupt_disable>
    300014d8:	8401b783          	ld	a5,-1984(gp) # 80004238 <heap_ptr>
    300014dc:	00002737          	lui	a4,0x2
    300014e0:	00050493          	mv	s1,a0
    300014e4:	8381b683          	ld	a3,-1992(gp) # 80004230 <heap_end>
    300014e8:	8581a603          	lw	a2,-1960(gp) # 80004250 <mem_size_aligned>
    300014ec:	00078413          	mv	s0,a5
    300014f0:	ea070713          	addi	a4,a4,-352 # 1ea0 <__stack_size+0x16a0>
    300014f4:	00100593          	li	a1,1
    300014f8:	02869463          	bne	a3,s0,30001520 <memcheck+0x60>
    300014fc:	00048513          	mv	a0,s1
    30001500:	0ad030ef          	jal	ra,30004dac <rt_hw_interrupt_enable>
    30001504:	01813083          	ld	ra,24(sp)
    30001508:	01013403          	ld	s0,16(sp)
    3000150c:	00813483          	ld	s1,8(sp)
    30001510:	00013903          	ld	s2,0(sp)
    30001514:	00000513          	li	a0,0
    30001518:	02010113          	addi	sp,sp,32
    3000151c:	00008067          	ret
    30001520:	40f4093b          	subw	s2,s0,a5
    30001524:	02094263          	bltz	s2,30001548 <memcheck+0x88>
    30001528:	03264063          	blt	a2,s2,30001548 <memcheck+0x88>
    3000152c:	00045503          	lhu	a0,0(s0)
    30001530:	00e51c63          	bne	a0,a4,30001548 <memcheck+0x88>
    30001534:	00245503          	lhu	a0,2(s0)
    30001538:	00a5e863          	bltu	a1,a0,30001548 <memcheck+0x88>
    3000153c:	00843403          	ld	s0,8(s0)
    30001540:	00878433          	add	s0,a5,s0
    30001544:	fb5ff06f          	j	300014f8 <memcheck+0x38>
    30001548:	4ffff517          	auipc	a0,0x4ffff
    3000154c:	50050513          	addi	a0,a0,1280 # 80000a48 <__FUNCTION__.6+0x180>
    30001550:	764010ef          	jal	ra,30002cb4 <rt_kprintf>
    30001554:	00040593          	mv	a1,s0
    30001558:	4ffff517          	auipc	a0,0x4ffff
    3000155c:	50850513          	addi	a0,a0,1288 # 80000a60 <__FUNCTION__.6+0x198>
    30001560:	754010ef          	jal	ra,30002cb4 <rt_kprintf>
    30001564:	00045583          	lhu	a1,0(s0)
    30001568:	4ffff517          	auipc	a0,0x4ffff
    3000156c:	51050513          	addi	a0,a0,1296 # 80000a78 <__FUNCTION__.6+0x1b0>
    30001570:	744010ef          	jal	ra,30002cb4 <rt_kprintf>
    30001574:	00245583          	lhu	a1,2(s0)
    30001578:	4ffff517          	auipc	a0,0x4ffff
    3000157c:	51850513          	addi	a0,a0,1304 # 80000a90 <__FUNCTION__.6+0x1c8>
    30001580:	734010ef          	jal	ra,30002cb4 <rt_kprintf>
    30001584:	00843583          	ld	a1,8(s0)
    30001588:	4ffff517          	auipc	a0,0x4ffff
    3000158c:	51850513          	addi	a0,a0,1304 # 80000aa0 <__FUNCTION__.6+0x1d8>
    30001590:	fe058593          	addi	a1,a1,-32
    30001594:	412585b3          	sub	a1,a1,s2
    30001598:	71c010ef          	jal	ra,30002cb4 <rt_kprintf>
    3000159c:	f61ff06f          	j	300014fc <memcheck+0x3c>

00000000300015a0 <rt_system_heap_init>:
    300015a0:	fd010113          	addi	sp,sp,-48
    300015a4:	02813023          	sd	s0,32(sp)
    300015a8:	00913c23          	sd	s1,24(sp)
    300015ac:	01213823          	sd	s2,16(sp)
    300015b0:	01313423          	sd	s3,8(sp)
    300015b4:	01413023          	sd	s4,0(sp)
    300015b8:	02113423          	sd	ra,40(sp)
    300015bc:	00750413          	addi	s0,a0,7
    300015c0:	00050913          	mv	s2,a0
    300015c4:	00058993          	mv	s3,a1
    300015c8:	ff85f493          	andi	s1,a1,-8
    300015cc:	7d8030ef          	jal	ra,30004da4 <rt_hw_interrupt_disable>
    300015d0:	ff847413          	andi	s0,s0,-8
    300015d4:	00050a13          	mv	s4,a0
    300015d8:	7a0030ef          	jal	ra,30004d78 <rt_interrupt_get_nest>
    300015dc:	02050863          	beqz	a0,3000160c <rt_system_heap_init+0x6c>
    300015e0:	4ffff597          	auipc	a1,0x4ffff
    300015e4:	76858593          	addi	a1,a1,1896 # 80000d48 <__FUNCTION__.4>
    300015e8:	4ffff517          	auipc	a0,0x4ffff
    300015ec:	4c850513          	addi	a0,a0,1224 # 80000ab0 <__FUNCTION__.6+0x1e8>
    300015f0:	6c4010ef          	jal	ra,30002cb4 <rt_kprintf>
    300015f4:	0d200613          	li	a2,210
    300015f8:	4ffff597          	auipc	a1,0x4ffff
    300015fc:	75058593          	addi	a1,a1,1872 # 80000d48 <__FUNCTION__.4>
    30001600:	4ffff517          	auipc	a0,0x4ffff
    30001604:	4d850513          	addi	a0,a0,1240 # 80000ad8 <__FUNCTION__.6+0x210>
    30001608:	031010ef          	jal	ra,30002e38 <rt_assert_handler>
    3000160c:	000a0513          	mv	a0,s4
    30001610:	79c030ef          	jal	ra,30004dac <rt_hw_interrupt_enable>
    30001614:	04000793          	li	a5,64
    30001618:	0a97fc63          	bgeu	a5,s1,300016d0 <rt_system_heap_init+0x130>
    3000161c:	fc048793          	addi	a5,s1,-64
    30001620:	0a87e863          	bltu	a5,s0,300016d0 <rt_system_heap_init+0x130>
    30001624:	408484b3          	sub	s1,s1,s0
    30001628:	fc048793          	addi	a5,s1,-64
    3000162c:	84f1bc23          	sd	a5,-1960(gp) # 80004250 <mem_size_aligned>
    30001630:	000027b7          	lui	a5,0x2
    30001634:	fe048493          	addi	s1,s1,-32
    30001638:	ea078793          	addi	a5,a5,-352 # 1ea0 <__stack_size+0x16a0>
    3000163c:	84018913          	addi	s2,gp,-1984 # 80004238 <heap_ptr>
    30001640:	00943423          	sd	s1,8(s0)
    30001644:	00f42023          	sw	a5,0(s0)
    30001648:	00040513          	mv	a0,s0
    3000164c:	00043823          	sd	zero,16(s0)
    30001650:	4ffff597          	auipc	a1,0x4ffff
    30001654:	49058593          	addi	a1,a1,1168 # 80000ae0 <__FUNCTION__.6+0x218>
    30001658:	00893023          	sd	s0,0(s2)
    3000165c:	b31ff0ef          	jal	ra,3000118c <rt_mem_setname>
    30001660:	00843783          	ld	a5,8(s0)
    30001664:	4ffff597          	auipc	a1,0x4ffff
    30001668:	47c58593          	addi	a1,a1,1148 # 80000ae0 <__FUNCTION__.6+0x218>
    3000166c:	00f40533          	add	a0,s0,a5
    30001670:	82a1bc23          	sd	a0,-1992(gp) # 80004230 <heap_end>
    30001674:	000127b7          	lui	a5,0x12
    30001678:	ea078793          	addi	a5,a5,-352 # 11ea0 <__stack_size+0x116a0>
    3000167c:	00f52023          	sw	a5,0(a0)
    30001680:	00953423          	sd	s1,8(a0)
    30001684:	00953823          	sd	s1,16(a0)
    30001688:	b05ff0ef          	jal	ra,3000118c <rt_mem_setname>
    3000168c:	00100693          	li	a3,1
    30001690:	00100613          	li	a2,1
    30001694:	4ffff597          	auipc	a1,0x4ffff
    30001698:	45458593          	addi	a1,a1,1108 # 80000ae8 <__FUNCTION__.6+0x220>
    3000169c:	50007517          	auipc	a0,0x50007
    300016a0:	e8450513          	addi	a0,a0,-380 # 80008520 <heap_sem>
    300016a4:	0b1010ef          	jal	ra,30002f54 <rt_sem_init>
    300016a8:	00093783          	ld	a5,0(s2)
    300016ac:	02813083          	ld	ra,40(sp)
    300016b0:	02013403          	ld	s0,32(sp)
    300016b4:	84f1b423          	sd	a5,-1976(gp) # 80004240 <lfree>
    300016b8:	01813483          	ld	s1,24(sp)
    300016bc:	01013903          	ld	s2,16(sp)
    300016c0:	00813983          	ld	s3,8(sp)
    300016c4:	00013a03          	ld	s4,0(sp)
    300016c8:	03010113          	addi	sp,sp,48
    300016cc:	00008067          	ret
    300016d0:	02013403          	ld	s0,32(sp)
    300016d4:	02813083          	ld	ra,40(sp)
    300016d8:	01813483          	ld	s1,24(sp)
    300016dc:	00013a03          	ld	s4,0(sp)
    300016e0:	00098613          	mv	a2,s3
    300016e4:	00090593          	mv	a1,s2
    300016e8:	00813983          	ld	s3,8(sp)
    300016ec:	01013903          	ld	s2,16(sp)
    300016f0:	4ffff517          	auipc	a0,0x4ffff
    300016f4:	40050513          	addi	a0,a0,1024 # 80000af0 <__FUNCTION__.6+0x228>
    300016f8:	03010113          	addi	sp,sp,48
    300016fc:	5b80106f          	j	30002cb4 <rt_kprintf>

0000000030001700 <rt_malloc>:
    30001700:	f8010113          	addi	sp,sp,-128
    30001704:	06113c23          	sd	ra,120(sp)
    30001708:	06813823          	sd	s0,112(sp)
    3000170c:	06913423          	sd	s1,104(sp)
    30001710:	07213023          	sd	s2,96(sp)
    30001714:	05313c23          	sd	s3,88(sp)
    30001718:	05413823          	sd	s4,80(sp)
    3000171c:	05513423          	sd	s5,72(sp)
    30001720:	05613023          	sd	s6,64(sp)
    30001724:	03713c23          	sd	s7,56(sp)
    30001728:	03813823          	sd	s8,48(sp)
    3000172c:	03913423          	sd	s9,40(sp)
    30001730:	03a13023          	sd	s10,32(sp)
    30001734:	01b13c23          	sd	s11,24(sp)
    30001738:	00051663          	bnez	a0,30001744 <rt_malloc+0x44>
    3000173c:	00000913          	li	s2,0
    30001740:	2280006f          	j	30001968 <rt_malloc+0x268>
    30001744:	00050413          	mv	s0,a0
    30001748:	65c030ef          	jal	ra,30004da4 <rt_hw_interrupt_disable>
    3000174c:	00050493          	mv	s1,a0
    30001750:	628030ef          	jal	ra,30004d78 <rt_interrupt_get_nest>
    30001754:	02050863          	beqz	a0,30001784 <rt_malloc+0x84>
    30001758:	4ffff597          	auipc	a1,0x4ffff
    3000175c:	5e058593          	addi	a1,a1,1504 # 80000d38 <__FUNCTION__.3>
    30001760:	4ffff517          	auipc	a0,0x4ffff
    30001764:	35050513          	addi	a0,a0,848 # 80000ab0 <__FUNCTION__.6+0x1e8>
    30001768:	54c010ef          	jal	ra,30002cb4 <rt_kprintf>
    3000176c:	11800613          	li	a2,280
    30001770:	4ffff597          	auipc	a1,0x4ffff
    30001774:	5c858593          	addi	a1,a1,1480 # 80000d38 <__FUNCTION__.3>
    30001778:	4ffff517          	auipc	a0,0x4ffff
    3000177c:	36050513          	addi	a0,a0,864 # 80000ad8 <__FUNCTION__.6+0x210>
    30001780:	6b8010ef          	jal	ra,30002e38 <rt_assert_handler>
    30001784:	00048513          	mv	a0,s1
    30001788:	624030ef          	jal	ra,30004dac <rt_hw_interrupt_enable>
    3000178c:	85818493          	addi	s1,gp,-1960 # 80004250 <mem_size_aligned>
    30001790:	0004b783          	ld	a5,0(s1)
    30001794:	00740413          	addi	s0,s0,7
    30001798:	ff847413          	andi	s0,s0,-8
    3000179c:	fa87e0e3          	bltu	a5,s0,3000173c <rt_malloc+0x3c>
    300017a0:	01800793          	li	a5,24
    300017a4:	00f47463          	bgeu	s0,a5,300017ac <rt_malloc+0xac>
    300017a8:	01800413          	li	s0,24
    300017ac:	fff00593          	li	a1,-1
    300017b0:	50007517          	auipc	a0,0x50007
    300017b4:	d7050513          	addi	a0,a0,-656 # 80008520 <heap_sem>
    300017b8:	045010ef          	jal	ra,30002ffc <rt_sem_take>
    300017bc:	84018a93          	addi	s5,gp,-1984 # 80004238 <heap_ptr>
    300017c0:	84818993          	addi	s3,gp,-1976 # 80004240 <lfree>
    300017c4:	000abb83          	ld	s7,0(s5)
    300017c8:	0009b783          	ld	a5,0(s3)
    300017cc:	0004bc03          	ld	s8,0(s1)
    300017d0:	417787b3          	sub	a5,a5,s7
    300017d4:	408c0633          	sub	a2,s8,s0
    300017d8:	00c7ea63          	bltu	a5,a2,300017ec <rt_malloc+0xec>
    300017dc:	50007517          	auipc	a0,0x50007
    300017e0:	d4450513          	addi	a0,a0,-700 # 80008520 <heap_sem>
    300017e4:	1d1010ef          	jal	ra,300031b4 <rt_sem_release>
    300017e8:	f55ff06f          	j	3000173c <rt_malloc+0x3c>
    300017ec:	00fb84b3          	add	s1,s7,a5
    300017f0:	0024d703          	lhu	a4,2(s1)
    300017f4:	0084b683          	ld	a3,8(s1)
    300017f8:	1e071063          	bnez	a4,300019d8 <rt_malloc+0x2d8>
    300017fc:	40f68733          	sub	a4,a3,a5
    30001800:	fe070593          	addi	a1,a4,-32
    30001804:	1c85ea63          	bltu	a1,s0,300019d8 <rt_malloc+0x2d8>
    30001808:	87018d13          	addi	s10,gp,-1936 # 80004268 <used_mem>
    3000180c:	85018c93          	addi	s9,gp,-1968 # 80004248 <max_mem>
    30001810:	03840513          	addi	a0,s0,56
    30001814:	000d3903          	ld	s2,0(s10)
    30001818:	000cb603          	ld	a2,0(s9)
    3000181c:	02040a13          	addi	s4,s0,32
    30001820:	18a5e463          	bltu	a1,a0,300019a8 <rt_malloc+0x2a8>
    30001824:	01478db3          	add	s11,a5,s4
    30001828:	00002737          	lui	a4,0x2
    3000182c:	01bb8b33          	add	s6,s7,s11
    30001830:	ea070713          	addi	a4,a4,-352 # 1ea0 <__stack_size+0x16a0>
    30001834:	00fb3823          	sd	a5,16(s6) # 100010 <__stack_size+0xff810>
    30001838:	00eb2023          	sw	a4,0(s6)
    3000183c:	00db3423          	sd	a3,8(s6)
    30001840:	4ffff597          	auipc	a1,0x4ffff
    30001844:	2f058593          	addi	a1,a1,752 # 80000b30 <__FUNCTION__.6+0x268>
    30001848:	000b0513          	mv	a0,s6
    3000184c:	00c13423          	sd	a2,8(sp)
    30001850:	93dff0ef          	jal	ra,3000118c <rt_mem_setname>
    30001854:	00100793          	li	a5,1
    30001858:	01b4b423          	sd	s11,8(s1)
    3000185c:	00f49123          	sh	a5,2(s1)
    30001860:	008b3783          	ld	a5,8(s6)
    30001864:	020c0c13          	addi	s8,s8,32
    30001868:	00813603          	ld	a2,8(sp)
    3000186c:	01878663          	beq	a5,s8,30001878 <rt_malloc+0x178>
    30001870:	00fb87b3          	add	a5,s7,a5
    30001874:	01b7b823          	sd	s11,16(a5)
    30001878:	02090793          	addi	a5,s2,32
    3000187c:	008787b3          	add	a5,a5,s0
    30001880:	00fd3023          	sd	a5,0(s10)
    30001884:	00f67463          	bgeu	a2,a5,3000188c <rt_malloc+0x18c>
    30001888:	00fcb023          	sd	a5,0(s9)
    3000188c:	000027b7          	lui	a5,0x2
    30001890:	ea078793          	addi	a5,a5,-352 # 1ea0 <__stack_size+0x16a0>
    30001894:	00f49023          	sh	a5,0(s1)
    30001898:	310020ef          	jal	ra,30003ba8 <rt_thread_self>
    3000189c:	4ffff597          	auipc	a1,0x4ffff
    300018a0:	29c58593          	addi	a1,a1,668 # 80000b38 <__FUNCTION__.6+0x270>
    300018a4:	00050663          	beqz	a0,300018b0 <rt_malloc+0x1b0>
    300018a8:	300020ef          	jal	ra,30003ba8 <rt_thread_self>
    300018ac:	00050593          	mv	a1,a0
    300018b0:	00048513          	mv	a0,s1
    300018b4:	8d9ff0ef          	jal	ra,3000118c <rt_mem_setname>
    300018b8:	0009b783          	ld	a5,0(s3)
    300018bc:	83818913          	addi	s2,gp,-1992 # 80004230 <heap_end>
    300018c0:	02979063          	bne	a5,s1,300018e0 <rt_malloc+0x1e0>
    300018c4:	00093683          	ld	a3,0(s2)
    300018c8:	000ab603          	ld	a2,0(s5)
    300018cc:	00000713          	li	a4,0
    300018d0:	0027d583          	lhu	a1,2(a5)
    300018d4:	0e059a63          	bnez	a1,300019c8 <rt_malloc+0x2c8>
    300018d8:	00070463          	beqz	a4,300018e0 <rt_malloc+0x1e0>
    300018dc:	00f9b023          	sd	a5,0(s3)
    300018e0:	50007517          	auipc	a0,0x50007
    300018e4:	c4050513          	addi	a0,a0,-960 # 80008520 <heap_sem>
    300018e8:	0cd010ef          	jal	ra,300031b4 <rt_sem_release>
    300018ec:	00093783          	ld	a5,0(s2)
    300018f0:	01448a33          	add	s4,s1,s4
    300018f4:	0147fe63          	bgeu	a5,s4,30001910 <rt_malloc+0x210>
    300018f8:	18600613          	li	a2,390
    300018fc:	4ffff597          	auipc	a1,0x4ffff
    30001900:	43c58593          	addi	a1,a1,1084 # 80000d38 <__FUNCTION__.3>
    30001904:	4ffff517          	auipc	a0,0x4ffff
    30001908:	23c50513          	addi	a0,a0,572 # 80000b40 <__FUNCTION__.6+0x278>
    3000190c:	52c010ef          	jal	ra,30002e38 <rt_assert_handler>
    30001910:	0074f793          	andi	a5,s1,7
    30001914:	02048913          	addi	s2,s1,32
    30001918:	00078e63          	beqz	a5,30001934 <rt_malloc+0x234>
    3000191c:	18700613          	li	a2,391
    30001920:	4ffff597          	auipc	a1,0x4ffff
    30001924:	41858593          	addi	a1,a1,1048 # 80000d38 <__FUNCTION__.3>
    30001928:	4ffff517          	auipc	a0,0x4ffff
    3000192c:	26050513          	addi	a0,a0,608 # 80000b88 <__FUNCTION__.6+0x2c0>
    30001930:	508010ef          	jal	ra,30002e38 <rt_assert_handler>
    30001934:	0074f493          	andi	s1,s1,7
    30001938:	00048e63          	beqz	s1,30001954 <rt_malloc+0x254>
    3000193c:	18800613          	li	a2,392
    30001940:	4ffff597          	auipc	a1,0x4ffff
    30001944:	3f858593          	addi	a1,a1,1016 # 80000d38 <__FUNCTION__.3>
    30001948:	4ffff517          	auipc	a0,0x4ffff
    3000194c:	29050513          	addi	a0,a0,656 # 80000bd8 <__FUNCTION__.6+0x310>
    30001950:	4e8010ef          	jal	ra,30002e38 <rt_assert_handler>
    30001954:	8681b783          	ld	a5,-1944(gp) # 80004260 <rt_malloc_hook>
    30001958:	00078863          	beqz	a5,30001968 <rt_malloc+0x268>
    3000195c:	00040593          	mv	a1,s0
    30001960:	00090513          	mv	a0,s2
    30001964:	000780e7          	jalr	a5
    30001968:	07813083          	ld	ra,120(sp)
    3000196c:	07013403          	ld	s0,112(sp)
    30001970:	06813483          	ld	s1,104(sp)
    30001974:	05813983          	ld	s3,88(sp)
    30001978:	05013a03          	ld	s4,80(sp)
    3000197c:	04813a83          	ld	s5,72(sp)
    30001980:	04013b03          	ld	s6,64(sp)
    30001984:	03813b83          	ld	s7,56(sp)
    30001988:	03013c03          	ld	s8,48(sp)
    3000198c:	02813c83          	ld	s9,40(sp)
    30001990:	02013d03          	ld	s10,32(sp)
    30001994:	01813d83          	ld	s11,24(sp)
    30001998:	00090513          	mv	a0,s2
    3000199c:	06013903          	ld	s2,96(sp)
    300019a0:	08010113          	addi	sp,sp,128
    300019a4:	00008067          	ret
    300019a8:	00100793          	li	a5,1
    300019ac:	00f49123          	sh	a5,2(s1)
    300019b0:	012707b3          	add	a5,a4,s2
    300019b4:	ecdff06f          	j	30001880 <rt_malloc+0x180>
    300019b8:	0087b783          	ld	a5,8(a5)
    300019bc:	00100713          	li	a4,1
    300019c0:	00f607b3          	add	a5,a2,a5
    300019c4:	f0dff06f          	j	300018d0 <rt_malloc+0x1d0>
    300019c8:	fef698e3          	bne	a3,a5,300019b8 <rt_malloc+0x2b8>
    300019cc:	f0070ae3          	beqz	a4,300018e0 <rt_malloc+0x1e0>
    300019d0:	00d9b023          	sd	a3,0(s3)
    300019d4:	f0dff06f          	j	300018e0 <rt_malloc+0x1e0>
    300019d8:	00068793          	mv	a5,a3
    300019dc:	dfdff06f          	j	300017d8 <rt_malloc+0xd8>

00000000300019e0 <rt_calloc>:
    300019e0:	fe010113          	addi	sp,sp,-32
    300019e4:	00113c23          	sd	ra,24(sp)
    300019e8:	00813823          	sd	s0,16(sp)
    300019ec:	618030ef          	jal	ra,30005004 <__muldi3>
    300019f0:	00a13423          	sd	a0,8(sp)
    300019f4:	d0dff0ef          	jal	ra,30001700 <rt_malloc>
    300019f8:	00050413          	mv	s0,a0
    300019fc:	00050863          	beqz	a0,30001a0c <rt_calloc+0x2c>
    30001a00:	00813603          	ld	a2,8(sp)
    30001a04:	00000593          	li	a1,0
    30001a08:	0f9000ef          	jal	ra,30002300 <rt_memset>
    30001a0c:	01813083          	ld	ra,24(sp)
    30001a10:	00040513          	mv	a0,s0
    30001a14:	01013403          	ld	s0,16(sp)
    30001a18:	02010113          	addi	sp,sp,32
    30001a1c:	00008067          	ret

0000000030001a20 <rt_free>:
    30001a20:	1c050e63          	beqz	a0,30001bfc <rt_free+0x1dc>
    30001a24:	fe010113          	addi	sp,sp,-32
    30001a28:	00813823          	sd	s0,16(sp)
    30001a2c:	00913423          	sd	s1,8(sp)
    30001a30:	00113c23          	sd	ra,24(sp)
    30001a34:	01213023          	sd	s2,0(sp)
    30001a38:	00050413          	mv	s0,a0
    30001a3c:	368030ef          	jal	ra,30004da4 <rt_hw_interrupt_disable>
    30001a40:	00050493          	mv	s1,a0
    30001a44:	334030ef          	jal	ra,30004d78 <rt_interrupt_get_nest>
    30001a48:	02050463          	beqz	a0,30001a70 <rt_free+0x50>
    30001a4c:	81018593          	addi	a1,gp,-2032 # 80004208 <__FUNCTION__.0>
    30001a50:	4ffff517          	auipc	a0,0x4ffff
    30001a54:	06050513          	addi	a0,a0,96 # 80000ab0 <__FUNCTION__.6+0x1e8>
    30001a58:	25c010ef          	jal	ra,30002cb4 <rt_kprintf>
    30001a5c:	22f00613          	li	a2,559
    30001a60:	81018593          	addi	a1,gp,-2032 # 80004208 <__FUNCTION__.0>
    30001a64:	4ffff517          	auipc	a0,0x4ffff
    30001a68:	07450513          	addi	a0,a0,116 # 80000ad8 <__FUNCTION__.6+0x210>
    30001a6c:	3cc010ef          	jal	ra,30002e38 <rt_assert_handler>
    30001a70:	00048513          	mv	a0,s1
    30001a74:	338030ef          	jal	ra,30004dac <rt_hw_interrupt_enable>
    30001a78:	00747793          	andi	a5,s0,7
    30001a7c:	00078c63          	beqz	a5,30001a94 <rt_free+0x74>
    30001a80:	23100613          	li	a2,561
    30001a84:	81018593          	addi	a1,gp,-2032 # 80004208 <__FUNCTION__.0>
    30001a88:	4ffff517          	auipc	a0,0x4ffff
    30001a8c:	18050513          	addi	a0,a0,384 # 80000c08 <__FUNCTION__.6+0x340>
    30001a90:	3a8010ef          	jal	ra,30002e38 <rt_assert_handler>
    30001a94:	84018913          	addi	s2,gp,-1984 # 80004238 <heap_ptr>
    30001a98:	00093783          	ld	a5,0(s2)
    30001a9c:	00f46663          	bltu	s0,a5,30001aa8 <rt_free+0x88>
    30001aa0:	8381b783          	ld	a5,-1992(gp) # 80004230 <heap_end>
    30001aa4:	00f46c63          	bltu	s0,a5,30001abc <rt_free+0x9c>
    30001aa8:	23200613          	li	a2,562
    30001aac:	81018593          	addi	a1,gp,-2032 # 80004208 <__FUNCTION__.0>
    30001ab0:	4ffff517          	auipc	a0,0x4ffff
    30001ab4:	18850513          	addi	a0,a0,392 # 80000c38 <__FUNCTION__.6+0x370>
    30001ab8:	380010ef          	jal	ra,30002e38 <rt_assert_handler>
    30001abc:	8601b783          	ld	a5,-1952(gp) # 80004258 <rt_free_hook>
    30001ac0:	00078663          	beqz	a5,30001acc <rt_free+0xac>
    30001ac4:	00040513          	mv	a0,s0
    30001ac8:	000780e7          	jalr	a5
    30001acc:	00093783          	ld	a5,0(s2)
    30001ad0:	10f46a63          	bltu	s0,a5,30001be4 <rt_free+0x1c4>
    30001ad4:	8381b783          	ld	a5,-1992(gp) # 80004230 <heap_end>
    30001ad8:	10f47663          	bgeu	s0,a5,30001be4 <rt_free+0x1c4>
    30001adc:	fff00593          	li	a1,-1
    30001ae0:	50007517          	auipc	a0,0x50007
    30001ae4:	a4050513          	addi	a0,a0,-1472 # 80008520 <heap_sem>
    30001ae8:	514010ef          	jal	ra,30002ffc <rt_sem_take>
    30001aec:	fe245783          	lhu	a5,-30(s0)
    30001af0:	fe040493          	addi	s1,s0,-32
    30001af4:	00078a63          	beqz	a5,30001b08 <rt_free+0xe8>
    30001af8:	fe045703          	lhu	a4,-32(s0)
    30001afc:	000027b7          	lui	a5,0x2
    30001b00:	ea078793          	addi	a5,a5,-352 # 1ea0 <__stack_size+0x16a0>
    30001b04:	06f70463          	beq	a4,a5,30001b6c <rt_free+0x14c>
    30001b08:	4ffff517          	auipc	a0,0x4ffff
    30001b0c:	19050513          	addi	a0,a0,400 # 80000c98 <__FUNCTION__.6+0x3d0>
    30001b10:	1a4010ef          	jal	ra,30002cb4 <rt_kprintf>
    30001b14:	fe045683          	lhu	a3,-32(s0)
    30001b18:	fe245603          	lhu	a2,-30(s0)
    30001b1c:	00048593          	mv	a1,s1
    30001b20:	4ffff517          	auipc	a0,0x4ffff
    30001b24:	19850513          	addi	a0,a0,408 # 80000cb8 <__FUNCTION__.6+0x3f0>
    30001b28:	18c010ef          	jal	ra,30002cb4 <rt_kprintf>
    30001b2c:	fe245783          	lhu	a5,-30(s0)
    30001b30:	00079c63          	bnez	a5,30001b48 <rt_free+0x128>
    30001b34:	25100613          	li	a2,593
    30001b38:	81018593          	addi	a1,gp,-2032 # 80004208 <__FUNCTION__.0>
    30001b3c:	4ffff517          	auipc	a0,0x4ffff
    30001b40:	1ac50513          	addi	a0,a0,428 # 80000ce8 <__FUNCTION__.6+0x420>
    30001b44:	2f4010ef          	jal	ra,30002e38 <rt_assert_handler>
    30001b48:	fe045703          	lhu	a4,-32(s0)
    30001b4c:	000027b7          	lui	a5,0x2
    30001b50:	ea078793          	addi	a5,a5,-352 # 1ea0 <__stack_size+0x16a0>
    30001b54:	00f70c63          	beq	a4,a5,30001b6c <rt_free+0x14c>
    30001b58:	25200613          	li	a2,594
    30001b5c:	81018593          	addi	a1,gp,-2032 # 80004208 <__FUNCTION__.0>
    30001b60:	4ffff517          	auipc	a0,0x4ffff
    30001b64:	19850513          	addi	a0,a0,408 # 80000cf8 <__FUNCTION__.6+0x430>
    30001b68:	2d0010ef          	jal	ra,30002e38 <rt_assert_handler>
    30001b6c:	000027b7          	lui	a5,0x2
    30001b70:	ea078793          	addi	a5,a5,-352 # 1ea0 <__stack_size+0x16a0>
    30001b74:	fef41023          	sh	a5,-32(s0)
    30001b78:	fe041123          	sh	zero,-30(s0)
    30001b7c:	4ffff597          	auipc	a1,0x4ffff
    30001b80:	fb458593          	addi	a1,a1,-76 # 80000b30 <__FUNCTION__.6+0x268>
    30001b84:	00048513          	mv	a0,s1
    30001b88:	e04ff0ef          	jal	ra,3000118c <rt_mem_setname>
    30001b8c:	84818793          	addi	a5,gp,-1976 # 80004240 <lfree>
    30001b90:	0007b703          	ld	a4,0(a5)
    30001b94:	00e4f463          	bgeu	s1,a4,30001b9c <rt_free+0x17c>
    30001b98:	0097b023          	sd	s1,0(a5)
    30001b9c:	87018693          	addi	a3,gp,-1936 # 80004268 <used_mem>
    30001ba0:	fe843703          	ld	a4,-24(s0)
    30001ba4:	0006b783          	ld	a5,0(a3)
    30001ba8:	00048513          	mv	a0,s1
    30001bac:	40e787b3          	sub	a5,a5,a4
    30001bb0:	00093703          	ld	a4,0(s2)
    30001bb4:	40e48733          	sub	a4,s1,a4
    30001bb8:	00e787b3          	add	a5,a5,a4
    30001bbc:	00f6b023          	sd	a5,0(a3)
    30001bc0:	fe8ff0ef          	jal	ra,300013a8 <plug_holes>
    30001bc4:	01013403          	ld	s0,16(sp)
    30001bc8:	01813083          	ld	ra,24(sp)
    30001bcc:	00813483          	ld	s1,8(sp)
    30001bd0:	00013903          	ld	s2,0(sp)
    30001bd4:	50007517          	auipc	a0,0x50007
    30001bd8:	94c50513          	addi	a0,a0,-1716 # 80008520 <heap_sem>
    30001bdc:	02010113          	addi	sp,sp,32
    30001be0:	5d40106f          	j	300031b4 <rt_sem_release>
    30001be4:	01813083          	ld	ra,24(sp)
    30001be8:	01013403          	ld	s0,16(sp)
    30001bec:	00813483          	ld	s1,8(sp)
    30001bf0:	00013903          	ld	s2,0(sp)
    30001bf4:	02010113          	addi	sp,sp,32
    30001bf8:	00008067          	ret
    30001bfc:	00008067          	ret

0000000030001c00 <rt_realloc>:
    30001c00:	fc010113          	addi	sp,sp,-64
    30001c04:	02813823          	sd	s0,48(sp)
    30001c08:	02913423          	sd	s1,40(sp)
    30001c0c:	03213023          	sd	s2,32(sp)
    30001c10:	02113c23          	sd	ra,56(sp)
    30001c14:	01313c23          	sd	s3,24(sp)
    30001c18:	01413823          	sd	s4,16(sp)
    30001c1c:	00050493          	mv	s1,a0
    30001c20:	00058413          	mv	s0,a1
    30001c24:	180030ef          	jal	ra,30004da4 <rt_hw_interrupt_disable>
    30001c28:	00050913          	mv	s2,a0
    30001c2c:	14c030ef          	jal	ra,30004d78 <rt_interrupt_get_nest>
    30001c30:	02050863          	beqz	a0,30001c60 <rt_realloc+0x60>
    30001c34:	4ffff597          	auipc	a1,0x4ffff
    30001c38:	0f458593          	addi	a1,a1,244 # 80000d28 <__FUNCTION__.2>
    30001c3c:	4ffff517          	auipc	a0,0x4ffff
    30001c40:	e7450513          	addi	a0,a0,-396 # 80000ab0 <__FUNCTION__.6+0x1e8>
    30001c44:	070010ef          	jal	ra,30002cb4 <rt_kprintf>
    30001c48:	1ac00613          	li	a2,428
    30001c4c:	4ffff597          	auipc	a1,0x4ffff
    30001c50:	0dc58593          	addi	a1,a1,220 # 80000d28 <__FUNCTION__.2>
    30001c54:	4ffff517          	auipc	a0,0x4ffff
    30001c58:	e8450513          	addi	a0,a0,-380 # 80000ad8 <__FUNCTION__.6+0x210>
    30001c5c:	1dc010ef          	jal	ra,30002e38 <rt_assert_handler>
    30001c60:	00090513          	mv	a0,s2
    30001c64:	148030ef          	jal	ra,30004dac <rt_hw_interrupt_enable>
    30001c68:	85818a13          	addi	s4,gp,-1960 # 80004250 <mem_size_aligned>
    30001c6c:	000a3783          	ld	a5,0(s4)
    30001c70:	00740413          	addi	s0,s0,7
    30001c74:	ff847413          	andi	s0,s0,-8
    30001c78:	0087e863          	bltu	a5,s0,30001c88 <rt_realloc+0x88>
    30001c7c:	00041a63          	bnez	s0,30001c90 <rt_realloc+0x90>
    30001c80:	00048513          	mv	a0,s1
    30001c84:	d9dff0ef          	jal	ra,30001a20 <rt_free>
    30001c88:	00000913          	li	s2,0
    30001c8c:	05c0006f          	j	30001ce8 <rt_realloc+0xe8>
    30001c90:	02049463          	bnez	s1,30001cb8 <rt_realloc+0xb8>
    30001c94:	00040513          	mv	a0,s0
    30001c98:	03013403          	ld	s0,48(sp)
    30001c9c:	03813083          	ld	ra,56(sp)
    30001ca0:	02813483          	ld	s1,40(sp)
    30001ca4:	02013903          	ld	s2,32(sp)
    30001ca8:	01813983          	ld	s3,24(sp)
    30001cac:	01013a03          	ld	s4,16(sp)
    30001cb0:	04010113          	addi	sp,sp,64
    30001cb4:	a4dff06f          	j	30001700 <rt_malloc>
    30001cb8:	fff00593          	li	a1,-1
    30001cbc:	50007517          	auipc	a0,0x50007
    30001cc0:	86450513          	addi	a0,a0,-1948 # 80008520 <heap_sem>
    30001cc4:	338010ef          	jal	ra,30002ffc <rt_sem_take>
    30001cc8:	8401b903          	ld	s2,-1984(gp) # 80004238 <heap_ptr>
    30001ccc:	0124e663          	bltu	s1,s2,30001cd8 <rt_realloc+0xd8>
    30001cd0:	8381b783          	ld	a5,-1992(gp) # 80004230 <heap_end>
    30001cd4:	02f4ec63          	bltu	s1,a5,30001d0c <rt_realloc+0x10c>
    30001cd8:	50007517          	auipc	a0,0x50007
    30001cdc:	84850513          	addi	a0,a0,-1976 # 80008520 <heap_sem>
    30001ce0:	4d4010ef          	jal	ra,300031b4 <rt_sem_release>
    30001ce4:	00048913          	mv	s2,s1
    30001ce8:	03813083          	ld	ra,56(sp)
    30001cec:	03013403          	ld	s0,48(sp)
    30001cf0:	02813483          	ld	s1,40(sp)
    30001cf4:	01813983          	ld	s3,24(sp)
    30001cf8:	01013a03          	ld	s4,16(sp)
    30001cfc:	00090513          	mv	a0,s2
    30001d00:	02013903          	ld	s2,32(sp)
    30001d04:	04010113          	addi	sp,sp,64
    30001d08:	00008067          	ret
    30001d0c:	fe84b683          	ld	a3,-24(s1)
    30001d10:	fe048793          	addi	a5,s1,-32
    30001d14:	412787b3          	sub	a5,a5,s2
    30001d18:	fe068593          	addi	a1,a3,-32
    30001d1c:	40f589b3          	sub	s3,a1,a5
    30001d20:	fb340ce3          	beq	s0,s3,30001cd8 <rt_realloc+0xd8>
    30001d24:	03840713          	addi	a4,s0,56
    30001d28:	09377063          	bgeu	a4,s3,30001da8 <rt_realloc+0x1a8>
    30001d2c:	87018613          	addi	a2,gp,-1936 # 80004268 <used_mem>
    30001d30:	00063703          	ld	a4,0(a2)
    30001d34:	00f40433          	add	s0,s0,a5
    30001d38:	00e40733          	add	a4,s0,a4
    30001d3c:	40b70733          	sub	a4,a4,a1
    30001d40:	00e63023          	sd	a4,0(a2)
    30001d44:	02040413          	addi	s0,s0,32
    30001d48:	00002737          	lui	a4,0x2
    30001d4c:	00890533          	add	a0,s2,s0
    30001d50:	ea070713          	addi	a4,a4,-352 # 1ea0 <__stack_size+0x16a0>
    30001d54:	00e52023          	sw	a4,0(a0)
    30001d58:	00f53823          	sd	a5,16(a0)
    30001d5c:	00d53423          	sd	a3,8(a0)
    30001d60:	4ffff597          	auipc	a1,0x4ffff
    30001d64:	dd058593          	addi	a1,a1,-560 # 80000b30 <__FUNCTION__.6+0x268>
    30001d68:	00a13423          	sd	a0,8(sp)
    30001d6c:	c20ff0ef          	jal	ra,3000118c <rt_mem_setname>
    30001d70:	00813503          	ld	a0,8(sp)
    30001d74:	000a3783          	ld	a5,0(s4)
    30001d78:	fe84b423          	sd	s0,-24(s1)
    30001d7c:	00853703          	ld	a4,8(a0)
    30001d80:	02078793          	addi	a5,a5,32
    30001d84:	00f70663          	beq	a4,a5,30001d90 <rt_realloc+0x190>
    30001d88:	00e90933          	add	s2,s2,a4
    30001d8c:	00893823          	sd	s0,16(s2)
    30001d90:	84818793          	addi	a5,gp,-1976 # 80004240 <lfree>
    30001d94:	0007b703          	ld	a4,0(a5)
    30001d98:	00e57463          	bgeu	a0,a4,30001da0 <rt_realloc+0x1a0>
    30001d9c:	00a7b023          	sd	a0,0(a5)
    30001da0:	e08ff0ef          	jal	ra,300013a8 <plug_holes>
    30001da4:	f35ff06f          	j	30001cd8 <rt_realloc+0xd8>
    30001da8:	50006517          	auipc	a0,0x50006
    30001dac:	77850513          	addi	a0,a0,1912 # 80008520 <heap_sem>
    30001db0:	404010ef          	jal	ra,300031b4 <rt_sem_release>
    30001db4:	00040513          	mv	a0,s0
    30001db8:	949ff0ef          	jal	ra,30001700 <rt_malloc>
    30001dbc:	00050913          	mv	s2,a0
    30001dc0:	f20504e3          	beqz	a0,30001ce8 <rt_realloc+0xe8>
    30001dc4:	00040613          	mv	a2,s0
    30001dc8:	0089f463          	bgeu	s3,s0,30001dd0 <rt_realloc+0x1d0>
    30001dcc:	00098613          	mv	a2,s3
    30001dd0:	00048593          	mv	a1,s1
    30001dd4:	00090513          	mv	a0,s2
    30001dd8:	5d4000ef          	jal	ra,300023ac <rt_memcpy>
    30001ddc:	00048513          	mv	a0,s1
    30001de0:	c41ff0ef          	jal	ra,30001a20 <rt_free>
    30001de4:	f05ff06f          	j	30001ce8 <rt_realloc+0xe8>

0000000030001de8 <rt_thread_defunct_enqueue>:
    30001de8:	50002797          	auipc	a5,0x50002
    30001dec:	1e078793          	addi	a5,a5,480 # 80003fc8 <_rt_thread_defunct>
    30001df0:	0007b683          	ld	a3,0(a5)
    30001df4:	02850713          	addi	a4,a0,40
    30001df8:	00e7b023          	sd	a4,0(a5)
    30001dfc:	00e6b423          	sd	a4,8(a3)
    30001e00:	02d53423          	sd	a3,40(a0)
    30001e04:	02f53823          	sd	a5,48(a0)
    30001e08:	00008067          	ret

0000000030001e0c <rt_thread_defunct_dequeue>:
    30001e0c:	50002717          	auipc	a4,0x50002
    30001e10:	1bc70713          	addi	a4,a4,444 # 80003fc8 <_rt_thread_defunct>
    30001e14:	00073783          	ld	a5,0(a4)
    30001e18:	00000513          	li	a0,0
    30001e1c:	02e78063          	beq	a5,a4,30001e3c <rt_thread_defunct_dequeue+0x30>
    30001e20:	0007b683          	ld	a3,0(a5)
    30001e24:	0087b703          	ld	a4,8(a5)
    30001e28:	fd878513          	addi	a0,a5,-40
    30001e2c:	00e6b423          	sd	a4,8(a3)
    30001e30:	00d73023          	sd	a3,0(a4)
    30001e34:	00f7b423          	sd	a5,8(a5)
    30001e38:	00f7b023          	sd	a5,0(a5)
    30001e3c:	00008067          	ret

0000000030001e40 <rt_thread_idle_entry>:
    30001e40:	fb010113          	addi	sp,sp,-80
    30001e44:	03213823          	sd	s2,48(sp)
    30001e48:	03313423          	sd	s3,40(sp)
    30001e4c:	03413023          	sd	s4,32(sp)
    30001e50:	01513c23          	sd	s5,24(sp)
    30001e54:	01613823          	sd	s6,16(sp)
    30001e58:	01713423          	sd	s7,8(sp)
    30001e5c:	04113423          	sd	ra,72(sp)
    30001e60:	04813023          	sd	s0,64(sp)
    30001e64:	02913c23          	sd	s1,56(sp)
    30001e68:	01813023          	sd	s8,0(sp)
    30001e6c:	4ffffb97          	auipc	s7,0x4ffff
    30001e70:	f7cb8b93          	addi	s7,s7,-132 # 80000de8 <__fsym_list_mem_name+0x10>
    30001e74:	50006997          	auipc	s3,0x50006
    30001e78:	7f498993          	addi	s3,s3,2036 # 80008668 <rt_thread_stack>
    30001e7c:	4ffff917          	auipc	s2,0x4ffff
    30001e80:	f8c90913          	addi	s2,s2,-116 # 80000e08 <__FUNCTION__.0>
    30001e84:	4ffffa17          	auipc	s4,0x4ffff
    30001e88:	c2ca0a13          	addi	s4,s4,-980 # 80000ab0 <__FUNCTION__.6+0x1e8>
    30001e8c:	4ffffa97          	auipc	s5,0x4ffff
    30001e90:	c4ca8a93          	addi	s5,s5,-948 # 80000ad8 <__FUNCTION__.6+0x210>
    30001e94:	00100b13          	li	s6,1
    30001e98:	000b8513          	mv	a0,s7
    30001e9c:	619000ef          	jal	ra,30002cb4 <rt_kprintf>
    30001ea0:	50006417          	auipc	s0,0x50006
    30001ea4:	7a840413          	addi	s0,s0,1960 # 80008648 <idle_hook_list>
    30001ea8:	00043783          	ld	a5,0(s0)
    30001eac:	00078463          	beqz	a5,30001eb4 <rt_thread_idle_entry+0x74>
    30001eb0:	000780e7          	jalr	a5
    30001eb4:	00840413          	addi	s0,s0,8
    30001eb8:	fe8998e3          	bne	s3,s0,30001ea8 <rt_thread_idle_entry+0x68>
    30001ebc:	6e9020ef          	jal	ra,30004da4 <rt_hw_interrupt_disable>
    30001ec0:	00050413          	mv	s0,a0
    30001ec4:	6b5020ef          	jal	ra,30004d78 <rt_interrupt_get_nest>
    30001ec8:	02050063          	beqz	a0,30001ee8 <rt_thread_idle_entry+0xa8>
    30001ecc:	00090593          	mv	a1,s2
    30001ed0:	000a0513          	mv	a0,s4
    30001ed4:	5e1000ef          	jal	ra,30002cb4 <rt_kprintf>
    30001ed8:	0cb00613          	li	a2,203
    30001edc:	00090593          	mv	a1,s2
    30001ee0:	000a8513          	mv	a0,s5
    30001ee4:	755000ef          	jal	ra,30002e38 <rt_assert_handler>
    30001ee8:	00040513          	mv	a0,s0
    30001eec:	6c1020ef          	jal	ra,30004dac <rt_hw_interrupt_enable>
    30001ef0:	6b5020ef          	jal	ra,30004da4 <rt_hw_interrupt_disable>
    30001ef4:	00050493          	mv	s1,a0
    30001ef8:	f15ff0ef          	jal	ra,30001e0c <rt_thread_defunct_dequeue>
    30001efc:	00050413          	mv	s0,a0
    30001f00:	00051863          	bnez	a0,30001f10 <rt_thread_idle_entry+0xd0>
    30001f04:	00048513          	mv	a0,s1
    30001f08:	6a5020ef          	jal	ra,30004dac <rt_hw_interrupt_enable>
    30001f0c:	f8dff06f          	j	30001e98 <rt_thread_idle_entry+0x58>
    30001f10:	0d853c03          	ld	s8,216(a0)
    30001f14:	000c0e63          	beqz	s8,30001f30 <rt_thread_idle_entry+0xf0>
    30001f18:	00048513          	mv	a0,s1
    30001f1c:	691020ef          	jal	ra,30004dac <rt_hw_interrupt_enable>
    30001f20:	00040513          	mv	a0,s0
    30001f24:	000c00e7          	jalr	s8
    30001f28:	67d020ef          	jal	ra,30004da4 <rt_hw_interrupt_disable>
    30001f2c:	00050493          	mv	s1,a0
    30001f30:	00040513          	mv	a0,s0
    30001f34:	728020ef          	jal	ra,3000465c <rt_object_is_systemobject>
    30001f38:	01651c63          	bne	a0,s6,30001f50 <rt_thread_idle_entry+0x110>
    30001f3c:	00040513          	mv	a0,s0
    30001f40:	500020ef          	jal	ra,30004440 <rt_object_detach>
    30001f44:	00048513          	mv	a0,s1
    30001f48:	665020ef          	jal	ra,30004dac <rt_hw_interrupt_enable>
    30001f4c:	f71ff06f          	j	30001ebc <rt_thread_idle_entry+0x7c>
    30001f50:	00048513          	mv	a0,s1
    30001f54:	659020ef          	jal	ra,30004dac <rt_hw_interrupt_enable>
    30001f58:	05043503          	ld	a0,80(s0)
    30001f5c:	ac5ff0ef          	jal	ra,30001a20 <rt_free>
    30001f60:	00040513          	mv	a0,s0
    30001f64:	660020ef          	jal	ra,300045c4 <rt_object_delete>
    30001f68:	f55ff06f          	j	30001ebc <rt_thread_idle_entry+0x7c>

0000000030001f6c <rt_thread_idle_init>:
    30001f6c:	fd010113          	addi	sp,sp,-48
    30001f70:	00000613          	li	a2,0
    30001f74:	4ffff597          	auipc	a1,0x4ffff
    30001f78:	e8458593          	addi	a1,a1,-380 # 80000df8 <__fsym_list_mem_name+0x20>
    30001f7c:	00810513          	addi	a0,sp,8
    30001f80:	02113423          	sd	ra,40(sp)
    30001f84:	02813023          	sd	s0,32(sp)
    30001f88:	47d000ef          	jal	ra,30002c04 <rt_sprintf>
    30001f8c:	00000593          	li	a1,0
    30001f90:	4ffff517          	auipc	a0,0x4ffff
    30001f94:	e6850513          	addi	a0,a0,-408 # 80000df8 <__fsym_list_mem_name+0x20>
    30001f98:	51d000ef          	jal	ra,30002cb4 <rt_kprintf>
    30001f9c:	50006417          	auipc	s0,0x50006
    30001fa0:	5c440413          	addi	s0,s0,1476 # 80008560 <idle>
    30001fa4:	00810593          	addi	a1,sp,8
    30001fa8:	02000893          	li	a7,32
    30001fac:	01f00813          	li	a6,31
    30001fb0:	000047b7          	lui	a5,0x4
    30001fb4:	50006717          	auipc	a4,0x50006
    30001fb8:	6b470713          	addi	a4,a4,1716 # 80008668 <rt_thread_stack>
    30001fbc:	00000693          	li	a3,0
    30001fc0:	00000617          	auipc	a2,0x0
    30001fc4:	e8060613          	addi	a2,a2,-384 # 30001e40 <rt_thread_idle_entry>
    30001fc8:	00040513          	mv	a0,s0
    30001fcc:	305010ef          	jal	ra,30003ad0 <rt_thread_init>
    30001fd0:	00040513          	mv	a0,s0
    30001fd4:	11c020ef          	jal	ra,300040f0 <rt_thread_startup>
    30001fd8:	4ffff517          	auipc	a0,0x4ffff
    30001fdc:	e2850513          	addi	a0,a0,-472 # 80000e00 <__fsym_list_mem_name+0x28>
    30001fe0:	4d5000ef          	jal	ra,30002cb4 <rt_kprintf>
    30001fe4:	02813083          	ld	ra,40(sp)
    30001fe8:	02013403          	ld	s0,32(sp)
    30001fec:	03010113          	addi	sp,sp,48
    30001ff0:	00008067          	ret

0000000030001ff4 <print_number>:
    30001ff4:	f7010113          	addi	sp,sp,-144
    30001ff8:	08813023          	sd	s0,128(sp)
    30001ffc:	06913c23          	sd	s1,120(sp)
    30002000:	07313423          	sd	s3,104(sp)
    30002004:	07413023          	sd	s4,96(sp)
    30002008:	05713423          	sd	s7,72(sp)
    3000200c:	05813023          	sd	s8,64(sp)
    30002010:	03b13423          	sd	s11,40(sp)
    30002014:	00078c13          	mv	s8,a5
    30002018:	08113423          	sd	ra,136(sp)
    3000201c:	07213823          	sd	s2,112(sp)
    30002020:	05513c23          	sd	s5,88(sp)
    30002024:	05613823          	sd	s6,80(sp)
    30002028:	03913c23          	sd	s9,56(sp)
    3000202c:	03a13823          	sd	s10,48(sp)
    30002030:	04087793          	andi	a5,a6,64
    30002034:	00070b93          	mv	s7,a4
    30002038:	00050413          	mv	s0,a0
    3000203c:	00058a13          	mv	s4,a1
    30002040:	00060493          	mv	s1,a2
    30002044:	00068d93          	mv	s11,a3
    30002048:	00080993          	mv	s3,a6
    3000204c:	4ffff717          	auipc	a4,0x4ffff
    30002050:	01c70713          	addi	a4,a4,28 # 80001068 <small_digits.1>
    30002054:	00078663          	beqz	a5,30002060 <print_number+0x6c>
    30002058:	4ffff717          	auipc	a4,0x4ffff
    3000205c:	ff870713          	addi	a4,a4,-8 # 80001050 <large_digits.2>
    30002060:	0109f613          	andi	a2,s3,16
    30002064:	08060063          	beqz	a2,300020e4 <print_number+0xf0>
    30002068:	ffe9f993          	andi	s3,s3,-2
    3000206c:	02000c93          	li	s9,32
    30002070:	0029f793          	andi	a5,s3,2
    30002074:	0e078063          	beqz	a5,30002154 <print_number+0x160>
    30002078:	0804d063          	bgez	s1,300020f8 <print_number+0x104>
    3000207c:	409004b3          	neg	s1,s1
    30002080:	02d00a93          	li	s5,45
    30002084:	01010d13          	addi	s10,sp,16
    30002088:	00000913          	li	s2,0
    3000208c:	00a00693          	li	a3,10
    30002090:	0cdd9663          	bne	s11,a3,3000215c <print_number+0x168>
    30002094:	00a00593          	li	a1,10
    30002098:	00048513          	mv	a0,s1
    3000209c:	00e13423          	sd	a4,8(sp)
    300020a0:	00c13023          	sd	a2,0(sp)
    300020a4:	114030ef          	jal	ra,300051b8 <__umoddi3>
    300020a8:	00050b1b          	sext.w	s6,a0
    300020ac:	00a00593          	li	a1,10
    300020b0:	00048513          	mv	a0,s1
    300020b4:	0bc030ef          	jal	ra,30005170 <__udivdi3>
    300020b8:	00013603          	ld	a2,0(sp)
    300020bc:	00813703          	ld	a4,8(sp)
    300020c0:	00050493          	mv	s1,a0
    300020c4:	00a00693          	li	a3,10
    300020c8:	01670b33          	add	s6,a4,s6
    300020cc:	000b4783          	lbu	a5,0(s6)
    300020d0:	0019091b          	addiw	s2,s2,1
    300020d4:	001d0d13          	addi	s10,s10,1
    300020d8:	fefd0fa3          	sb	a5,-1(s10)
    300020dc:	fa049ae3          	bnez	s1,30002090 <print_number+0x9c>
    300020e0:	03c0006f          	j	3000211c <print_number+0x128>
    300020e4:	0019f793          	andi	a5,s3,1
    300020e8:	02000c93          	li	s9,32
    300020ec:	f80782e3          	beqz	a5,30002070 <print_number+0x7c>
    300020f0:	03000c93          	li	s9,48
    300020f4:	f7dff06f          	j	30002070 <print_number+0x7c>
    300020f8:	0049f793          	andi	a5,s3,4
    300020fc:	02b00a93          	li	s5,43
    30002100:	00079663          	bnez	a5,3000210c <print_number+0x118>
    30002104:	00299a93          	slli	s5,s3,0x2
    30002108:	020afa93          	andi	s5,s5,32
    3000210c:	f6049ce3          	bnez	s1,30002084 <print_number+0x90>
    30002110:	03000793          	li	a5,48
    30002114:	00f10823          	sb	a5,16(sp)
    30002118:	00100913          	li	s2,1
    3000211c:	00090793          	mv	a5,s2
    30002120:	01895463          	bge	s2,s8,30002128 <print_number+0x134>
    30002124:	000c0793          	mv	a5,s8
    30002128:	0119f993          	andi	s3,s3,17
    3000212c:	0007859b          	sext.w	a1,a5
    30002130:	40fb86bb          	subw	a3,s7,a5
    30002134:	06099263          	bnez	s3,30002198 <print_number+0x1a4>
    30002138:	000a8663          	beqz	s5,30002144 <print_number+0x150>
    3000213c:	00d05463          	blez	a3,30002144 <print_number+0x150>
    30002140:	fff6869b          	addiw	a3,a3,-1
    30002144:	00040713          	mv	a4,s0
    30002148:	00d4053b          	addw	a0,s0,a3
    3000214c:	02000813          	li	a6,32
    30002150:	0240006f          	j	30002174 <print_number+0x180>
    30002154:	00000a93          	li	s5,0
    30002158:	fb5ff06f          	j	3000210c <print_number+0x118>
    3000215c:	00f4fb13          	andi	s6,s1,15
    30002160:	0044d493          	srli	s1,s1,0x4
    30002164:	f65ff06f          	j	300020c8 <print_number+0xd4>
    30002168:	01477463          	bgeu	a4,s4,30002170 <print_number+0x17c>
    3000216c:	01070023          	sb	a6,0(a4)
    30002170:	00170713          	addi	a4,a4,1
    30002174:	40e507bb          	subw	a5,a0,a4
    30002178:	fef048e3          	bgtz	a5,30002168 <print_number+0x174>
    3000217c:	00068793          	mv	a5,a3
    30002180:	0006d463          	bgez	a3,30002188 <print_number+0x194>
    30002184:	00000793          	li	a5,0
    30002188:	0007871b          	sext.w	a4,a5
    3000218c:	fff6869b          	addiw	a3,a3,-1
    30002190:	00e40433          	add	s0,s0,a4
    30002194:	40f686bb          	subw	a3,a3,a5
    30002198:	000a8a63          	beqz	s5,300021ac <print_number+0x1b8>
    3000219c:	01447463          	bgeu	s0,s4,300021a4 <print_number+0x1b0>
    300021a0:	01540023          	sb	s5,0(s0)
    300021a4:	fff6869b          	addiw	a3,a3,-1
    300021a8:	00140413          	addi	s0,s0,1
    300021ac:	04060663          	beqz	a2,300021f8 <print_number+0x204>
    300021b0:	0005871b          	sext.w	a4,a1
    300021b4:	00040613          	mv	a2,s0
    300021b8:	00b405bb          	addw	a1,s0,a1
    300021bc:	03000513          	li	a0,48
    300021c0:	0500006f          	j	30002210 <print_number+0x21c>
    300021c4:	01477463          	bgeu	a4,s4,300021cc <print_number+0x1d8>
    300021c8:	01970023          	sb	s9,0(a4)
    300021cc:	00170713          	addi	a4,a4,1
    300021d0:	40e607bb          	subw	a5,a2,a4
    300021d4:	fef048e3          	bgtz	a5,300021c4 <print_number+0x1d0>
    300021d8:	00068793          	mv	a5,a3
    300021dc:	0006d463          	bgez	a3,300021e4 <print_number+0x1f0>
    300021e0:	00000793          	li	a5,0
    300021e4:	0007871b          	sext.w	a4,a5
    300021e8:	fff6869b          	addiw	a3,a3,-1
    300021ec:	00e40433          	add	s0,s0,a4
    300021f0:	40f686bb          	subw	a3,a3,a5
    300021f4:	fbdff06f          	j	300021b0 <print_number+0x1bc>
    300021f8:	00040713          	mv	a4,s0
    300021fc:	00d4063b          	addw	a2,s0,a3
    30002200:	fd1ff06f          	j	300021d0 <print_number+0x1dc>
    30002204:	01467463          	bgeu	a2,s4,3000220c <print_number+0x218>
    30002208:	00a60023          	sb	a0,0(a2)
    3000220c:	00160613          	addi	a2,a2,1
    30002210:	40c587bb          	subw	a5,a1,a2
    30002214:	fef948e3          	blt	s2,a5,30002204 <print_number+0x210>
    30002218:	4127073b          	subw	a4,a4,s2
    3000221c:	02071713          	slli	a4,a4,0x20
    30002220:	02075713          	srli	a4,a4,0x20
    30002224:	00e40433          	add	s0,s0,a4
    30002228:	0009079b          	sext.w	a5,s2
    3000222c:	00f05463          	blez	a5,30002234 <print_number+0x240>
    30002230:	000c1a63          	bnez	s8,30002244 <print_number+0x250>
    30002234:	00040793          	mv	a5,s0
    30002238:	0086863b          	addw	a2,a3,s0
    3000223c:	02000593          	li	a1,32
    30002240:	0300006f          	j	30002270 <print_number+0x27c>
    30002244:	01447a63          	bgeu	s0,s4,30002258 <print_number+0x264>
    30002248:	01090793          	addi	a5,s2,16
    3000224c:	002787b3          	add	a5,a5,sp
    30002250:	fff7c783          	lbu	a5,-1(a5) # 3fff <__stack_size+0x37ff>
    30002254:	00f40023          	sb	a5,0(s0)
    30002258:	00140413          	addi	s0,s0,1
    3000225c:	fff90913          	addi	s2,s2,-1
    30002260:	fc9ff06f          	j	30002228 <print_number+0x234>
    30002264:	0147f463          	bgeu	a5,s4,3000226c <print_number+0x278>
    30002268:	00b78023          	sb	a1,0(a5)
    3000226c:	00178793          	addi	a5,a5,1
    30002270:	40f6073b          	subw	a4,a2,a5
    30002274:	fee048e3          	bgtz	a4,30002264 <print_number+0x270>
    30002278:	0006851b          	sext.w	a0,a3
    3000227c:	0006d463          	bgez	a3,30002284 <print_number+0x290>
    30002280:	00000513          	li	a0,0
    30002284:	08813083          	ld	ra,136(sp)
    30002288:	00a40533          	add	a0,s0,a0
    3000228c:	08013403          	ld	s0,128(sp)
    30002290:	07813483          	ld	s1,120(sp)
    30002294:	07013903          	ld	s2,112(sp)
    30002298:	06813983          	ld	s3,104(sp)
    3000229c:	06013a03          	ld	s4,96(sp)
    300022a0:	05813a83          	ld	s5,88(sp)
    300022a4:	05013b03          	ld	s6,80(sp)
    300022a8:	04813b83          	ld	s7,72(sp)
    300022ac:	04013c03          	ld	s8,64(sp)
    300022b0:	03813c83          	ld	s9,56(sp)
    300022b4:	03013d03          	ld	s10,48(sp)
    300022b8:	02813d83          	ld	s11,40(sp)
    300022bc:	09010113          	addi	sp,sp,144
    300022c0:	00008067          	ret

00000000300022c4 <rt_set_errno>:
    300022c4:	ff010113          	addi	sp,sp,-16
    300022c8:	00813023          	sd	s0,0(sp)
    300022cc:	00113423          	sd	ra,8(sp)
    300022d0:	00050413          	mv	s0,a0
    300022d4:	2a5020ef          	jal	ra,30004d78 <rt_interrupt_get_nest>
    300022d8:	00050c63          	beqz	a0,300022f0 <rt_set_errno+0x2c>
    300022dc:	8681ac23          	sw	s0,-1928(gp) # 80004270 <__rt_errno>
    300022e0:	00813083          	ld	ra,8(sp)
    300022e4:	00013403          	ld	s0,0(sp)
    300022e8:	01010113          	addi	sp,sp,16
    300022ec:	00008067          	ret
    300022f0:	0b9010ef          	jal	ra,30003ba8 <rt_thread_self>
    300022f4:	fe0504e3          	beqz	a0,300022dc <rt_set_errno+0x18>
    300022f8:	06853023          	sd	s0,96(a0)
    300022fc:	fe5ff06f          	j	300022e0 <rt_set_errno+0x1c>

0000000030002300 <rt_memset>:
    30002300:	00700713          	li	a4,7
    30002304:	00050793          	mv	a5,a0
    30002308:	00c77663          	bgeu	a4,a2,30002314 <rt_memset+0x14>
    3000230c:	00757713          	andi	a4,a0,7
    30002310:	00070863          	beqz	a4,30002320 <rt_memset+0x20>
    30002314:	00c78633          	add	a2,a5,a2
    30002318:	08c79463          	bne	a5,a2,300023a0 <rt_memset+0xa0>
    3000231c:	00008067          	ret
    30002320:	00800793          	li	a5,8
    30002324:	0ff5f693          	zext.b	a3,a1
    30002328:	00871713          	slli	a4,a4,0x8
    3000232c:	fff7879b          	addiw	a5,a5,-1
    30002330:	00e6e733          	or	a4,a3,a4
    30002334:	fe079ae3          	bnez	a5,30002328 <rt_memset+0x28>
    30002338:	00050793          	mv	a5,a0
    3000233c:	00c508b3          	add	a7,a0,a2
    30002340:	01f00693          	li	a3,31
    30002344:	40f88833          	sub	a6,a7,a5
    30002348:	0306ea63          	bltu	a3,a6,3000237c <rt_memset+0x7c>
    3000234c:	fe067793          	andi	a5,a2,-32
    30002350:	00f507b3          	add	a5,a0,a5
    30002354:	01f67613          	andi	a2,a2,31
    30002358:	00078693          	mv	a3,a5
    3000235c:	00c78333          	add	t1,a5,a2
    30002360:	00700813          	li	a6,7
    30002364:	40d308b3          	sub	a7,t1,a3
    30002368:	03186663          	bltu	a6,a7,30002394 <rt_memset+0x94>
    3000236c:	01867713          	andi	a4,a2,24
    30002370:	00e787b3          	add	a5,a5,a4
    30002374:	00767613          	andi	a2,a2,7
    30002378:	f9dff06f          	j	30002314 <rt_memset+0x14>
    3000237c:	00e7b023          	sd	a4,0(a5)
    30002380:	00e7b423          	sd	a4,8(a5)
    30002384:	00e7b823          	sd	a4,16(a5)
    30002388:	00e7bc23          	sd	a4,24(a5)
    3000238c:	02078793          	addi	a5,a5,32
    30002390:	fb5ff06f          	j	30002344 <rt_memset+0x44>
    30002394:	00868693          	addi	a3,a3,8
    30002398:	fee6bc23          	sd	a4,-8(a3)
    3000239c:	fc9ff06f          	j	30002364 <rt_memset+0x64>
    300023a0:	00178793          	addi	a5,a5,1
    300023a4:	feb78fa3          	sb	a1,-1(a5)
    300023a8:	f71ff06f          	j	30002318 <rt_memset+0x18>

00000000300023ac <rt_memcpy>:
    300023ac:	0006061b          	sext.w	a2,a2
    300023b0:	01f00793          	li	a5,31
    300023b4:	00050693          	mv	a3,a0
    300023b8:	00c7f863          	bgeu	a5,a2,300023c8 <rt_memcpy+0x1c>
    300023bc:	00b567b3          	or	a5,a0,a1
    300023c0:	0077f793          	andi	a5,a5,7
    300023c4:	08078463          	beqz	a5,3000244c <rt_memcpy+0xa0>
    300023c8:	00000793          	li	a5,0
    300023cc:	0007871b          	sext.w	a4,a5
    300023d0:	0ae61263          	bne	a2,a4,30002474 <rt_memcpy+0xc8>
    300023d4:	00008067          	ret
    300023d8:	00073883          	ld	a7,0(a4)
    300023dc:	02070713          	addi	a4,a4,32
    300023e0:	02068693          	addi	a3,a3,32
    300023e4:	ff16b023          	sd	a7,-32(a3)
    300023e8:	fe873883          	ld	a7,-24(a4)
    300023ec:	ff16b423          	sd	a7,-24(a3)
    300023f0:	ff073883          	ld	a7,-16(a4)
    300023f4:	ff16b823          	sd	a7,-16(a3)
    300023f8:	ff873883          	ld	a7,-8(a4)
    300023fc:	ff16bc23          	sd	a7,-8(a3)
    30002400:	40e308bb          	subw	a7,t1,a4
    30002404:	fd186ae3          	bltu	a6,a7,300023d8 <rt_memcpy+0x2c>
    30002408:	0056571b          	srliw	a4,a2,0x5
    3000240c:	00571713          	slli	a4,a4,0x5
    30002410:	00e506b3          	add	a3,a0,a4
    30002414:	01f67813          	andi	a6,a2,31
    30002418:	00e58733          	add	a4,a1,a4
    3000241c:	01f67613          	andi	a2,a2,31
    30002420:	00700593          	li	a1,7
    30002424:	40f608bb          	subw	a7,a2,a5
    30002428:	0315ca63          	blt	a1,a7,3000245c <rt_memcpy+0xb0>
    3000242c:	0038561b          	srliw	a2,a6,0x3
    30002430:	02061593          	slli	a1,a2,0x20
    30002434:	01d5d593          	srli	a1,a1,0x1d
    30002438:	0036161b          	slliw	a2,a2,0x3
    3000243c:	00b686b3          	add	a3,a3,a1
    30002440:	40c8063b          	subw	a2,a6,a2
    30002444:	00b705b3          	add	a1,a4,a1
    30002448:	f81ff06f          	j	300023c8 <rt_memcpy+0x1c>
    3000244c:	00058713          	mv	a4,a1
    30002450:	00c5833b          	addw	t1,a1,a2
    30002454:	01f00813          	li	a6,31
    30002458:	fa9ff06f          	j	30002400 <rt_memcpy+0x54>
    3000245c:	00f708b3          	add	a7,a4,a5
    30002460:	0008b303          	ld	t1,0(a7)
    30002464:	00f688b3          	add	a7,a3,a5
    30002468:	00878793          	addi	a5,a5,8
    3000246c:	0068b023          	sd	t1,0(a7)
    30002470:	fb5ff06f          	j	30002424 <rt_memcpy+0x78>
    30002474:	00f58733          	add	a4,a1,a5
    30002478:	00074803          	lbu	a6,0(a4)
    3000247c:	00f68733          	add	a4,a3,a5
    30002480:	00178793          	addi	a5,a5,1
    30002484:	01070023          	sb	a6,0(a4)
    30002488:	f45ff06f          	j	300023cc <rt_memcpy+0x20>

000000003000248c <rt_memmove>:
    3000248c:	04a5fa63          	bgeu	a1,a0,300024e0 <rt_memmove+0x54>
    30002490:	00c586b3          	add	a3,a1,a2
    30002494:	04d57663          	bgeu	a0,a3,300024e0 <rt_memmove+0x54>
    30002498:	fff64593          	not	a1,a2
    3000249c:	00000793          	li	a5,0
    300024a0:	fff78793          	addi	a5,a5,-1
    300024a4:	00f59463          	bne	a1,a5,300024ac <rt_memmove+0x20>
    300024a8:	00008067          	ret
    300024ac:	00f68733          	add	a4,a3,a5
    300024b0:	00074803          	lbu	a6,0(a4)
    300024b4:	00f60733          	add	a4,a2,a5
    300024b8:	00e50733          	add	a4,a0,a4
    300024bc:	01070023          	sb	a6,0(a4)
    300024c0:	fe1ff06f          	j	300024a0 <rt_memmove+0x14>
    300024c4:	00f58733          	add	a4,a1,a5
    300024c8:	00074683          	lbu	a3,0(a4)
    300024cc:	00f50733          	add	a4,a0,a5
    300024d0:	00178793          	addi	a5,a5,1
    300024d4:	00d70023          	sb	a3,0(a4)
    300024d8:	fef616e3          	bne	a2,a5,300024c4 <rt_memmove+0x38>
    300024dc:	00008067          	ret
    300024e0:	00000793          	li	a5,0
    300024e4:	ff5ff06f          	j	300024d8 <rt_memmove+0x4c>

00000000300024e8 <rt_memcmp>:
    300024e8:	00050693          	mv	a3,a0
    300024ec:	00000713          	li	a4,0
    300024f0:	00e61663          	bne	a2,a4,300024fc <rt_memcmp+0x14>
    300024f4:	00000513          	li	a0,0
    300024f8:	0200006f          	j	30002518 <rt_memcmp+0x30>
    300024fc:	00e687b3          	add	a5,a3,a4
    30002500:	00e58533          	add	a0,a1,a4
    30002504:	0007c783          	lbu	a5,0(a5)
    30002508:	00054503          	lbu	a0,0(a0)
    3000250c:	00170713          	addi	a4,a4,1
    30002510:	40a7853b          	subw	a0,a5,a0
    30002514:	fc050ee3          	beqz	a0,300024f0 <rt_memcmp+0x8>
    30002518:	00008067          	ret

000000003000251c <rt_strncpy>:
    3000251c:	04060063          	beqz	a2,3000255c <rt_strncpy+0x40>
    30002520:	00050793          	mv	a5,a0
    30002524:	0005c683          	lbu	a3,0(a1)
    30002528:	00158593          	addi	a1,a1,1
    3000252c:	00178793          	addi	a5,a5,1
    30002530:	fed78fa3          	sb	a3,-1(a5)
    30002534:	00060713          	mv	a4,a2
    30002538:	fff60613          	addi	a2,a2,-1
    3000253c:	00069e63          	bnez	a3,30002558 <rt_strncpy+0x3c>
    30002540:	00e78733          	add	a4,a5,a4
    30002544:	00178793          	addi	a5,a5,1
    30002548:	00e79463          	bne	a5,a4,30002550 <rt_strncpy+0x34>
    3000254c:	00008067          	ret
    30002550:	fe078fa3          	sb	zero,-1(a5)
    30002554:	ff1ff06f          	j	30002544 <rt_strncpy+0x28>
    30002558:	fc0616e3          	bnez	a2,30002524 <rt_strncpy+0x8>
    3000255c:	00008067          	ret

0000000030002560 <rt_strncmp>:
    30002560:	00050693          	mv	a3,a0
    30002564:	00000713          	li	a4,0
    30002568:	00e61663          	bne	a2,a4,30002574 <rt_strncmp+0x14>
    3000256c:	00000513          	li	a0,0
    30002570:	02c0006f          	j	3000259c <rt_strncmp+0x3c>
    30002574:	00e687b3          	add	a5,a3,a4
    30002578:	0007c803          	lbu	a6,0(a5)
    3000257c:	00e587b3          	add	a5,a1,a4
    30002580:	0007c783          	lbu	a5,0(a5)
    30002584:	40f807bb          	subw	a5,a6,a5
    30002588:	0187951b          	slliw	a0,a5,0x18
    3000258c:	4185551b          	sraiw	a0,a0,0x18
    30002590:	00051663          	bnez	a0,3000259c <rt_strncmp+0x3c>
    30002594:	00170713          	addi	a4,a4,1
    30002598:	fc0818e3          	bnez	a6,30002568 <rt_strncmp+0x8>
    3000259c:	00008067          	ret

00000000300025a0 <rt_strcmp>:
    300025a0:	00054783          	lbu	a5,0(a0)
    300025a4:	0005c703          	lbu	a4,0(a1)
    300025a8:	00078463          	beqz	a5,300025b0 <rt_strcmp+0x10>
    300025ac:	00e78663          	beq	a5,a4,300025b8 <rt_strcmp+0x18>
    300025b0:	40e7853b          	subw	a0,a5,a4
    300025b4:	00008067          	ret
    300025b8:	00150513          	addi	a0,a0,1
    300025bc:	00158593          	addi	a1,a1,1
    300025c0:	fe1ff06f          	j	300025a0 <rt_strcmp>

00000000300025c4 <rt_strlen>:
    300025c4:	00050793          	mv	a5,a0
    300025c8:	0007c703          	lbu	a4,0(a5)
    300025cc:	00071663          	bnez	a4,300025d8 <rt_strlen+0x14>
    300025d0:	40a78533          	sub	a0,a5,a0
    300025d4:	00008067          	ret
    300025d8:	00178793          	addi	a5,a5,1
    300025dc:	fedff06f          	j	300025c8 <rt_strlen+0x4>

00000000300025e0 <rt_strstr>:
    300025e0:	fd010113          	addi	sp,sp,-48
    300025e4:	02813023          	sd	s0,32(sp)
    300025e8:	00050413          	mv	s0,a0
    300025ec:	00058513          	mv	a0,a1
    300025f0:	00913c23          	sd	s1,24(sp)
    300025f4:	01213823          	sd	s2,16(sp)
    300025f8:	02113423          	sd	ra,40(sp)
    300025fc:	01313423          	sd	s3,8(sp)
    30002600:	00058913          	mv	s2,a1
    30002604:	fc1ff0ef          	jal	ra,300025c4 <rt_strlen>
    30002608:	0005049b          	sext.w	s1,a0
    3000260c:	00048e63          	beqz	s1,30002628 <rt_strstr+0x48>
    30002610:	00040513          	mv	a0,s0
    30002614:	fb1ff0ef          	jal	ra,300025c4 <rt_strlen>
    30002618:	008509bb          	addw	s3,a0,s0
    3000261c:	408987bb          	subw	a5,s3,s0
    30002620:	0297d463          	bge	a5,s1,30002648 <rt_strstr+0x68>
    30002624:	00000413          	li	s0,0
    30002628:	02813083          	ld	ra,40(sp)
    3000262c:	00040513          	mv	a0,s0
    30002630:	02013403          	ld	s0,32(sp)
    30002634:	01813483          	ld	s1,24(sp)
    30002638:	01013903          	ld	s2,16(sp)
    3000263c:	00813983          	ld	s3,8(sp)
    30002640:	03010113          	addi	sp,sp,48
    30002644:	00008067          	ret
    30002648:	00048613          	mv	a2,s1
    3000264c:	00090593          	mv	a1,s2
    30002650:	00040513          	mv	a0,s0
    30002654:	e95ff0ef          	jal	ra,300024e8 <rt_memcmp>
    30002658:	fc0508e3          	beqz	a0,30002628 <rt_strstr+0x48>
    3000265c:	00140413          	addi	s0,s0,1
    30002660:	fbdff06f          	j	3000261c <rt_strstr+0x3c>

0000000030002664 <rt_strdup>:
    30002664:	fe010113          	addi	sp,sp,-32
    30002668:	00113c23          	sd	ra,24(sp)
    3000266c:	00813823          	sd	s0,16(sp)
    30002670:	00a13423          	sd	a0,8(sp)
    30002674:	f51ff0ef          	jal	ra,300025c4 <rt_strlen>
    30002678:	00150613          	addi	a2,a0,1
    3000267c:	00060513          	mv	a0,a2
    30002680:	00c13023          	sd	a2,0(sp)
    30002684:	87cff0ef          	jal	ra,30001700 <rt_malloc>
    30002688:	00050413          	mv	s0,a0
    3000268c:	00050863          	beqz	a0,3000269c <rt_strdup+0x38>
    30002690:	00013603          	ld	a2,0(sp)
    30002694:	00813583          	ld	a1,8(sp)
    30002698:	d15ff0ef          	jal	ra,300023ac <rt_memcpy>
    3000269c:	01813083          	ld	ra,24(sp)
    300026a0:	00040513          	mv	a0,s0
    300026a4:	01013403          	ld	s0,16(sp)
    300026a8:	02010113          	addi	sp,sp,32
    300026ac:	00008067          	ret

00000000300026b0 <rt_vsnprintf>:
    300026b0:	fa010113          	addi	sp,sp,-96
    300026b4:	04813823          	sd	s0,80(sp)
    300026b8:	03513423          	sd	s5,40(sp)
    300026bc:	03613023          	sd	s6,32(sp)
    300026c0:	01713c23          	sd	s7,24(sp)
    300026c4:	04113c23          	sd	ra,88(sp)
    300026c8:	04913423          	sd	s1,72(sp)
    300026cc:	05213023          	sd	s2,64(sp)
    300026d0:	03313c23          	sd	s3,56(sp)
    300026d4:	03413823          	sd	s4,48(sp)
    300026d8:	01813823          	sd	s8,16(sp)
    300026dc:	01913423          	sd	s9,8(sp)
    300026e0:	00b50ab3          	add	s5,a0,a1
    300026e4:	00050b13          	mv	s6,a0
    300026e8:	00068413          	mv	s0,a3
    300026ec:	00058b93          	mv	s7,a1
    300026f0:	00aaf663          	bgeu	s5,a0,300026fc <rt_vsnprintf+0x4c>
    300026f4:	fff54b93          	not	s7,a0
    300026f8:	fff00a93          	li	s5,-1
    300026fc:	000104b7          	lui	s1,0x10
    30002700:	000b0513          	mv	a0,s6
    30002704:	02b00913          	li	s2,43
    30002708:	02000c13          	li	s8,32
    3000270c:	02300993          	li	s3,35
    30002710:	fff48493          	addi	s1,s1,-1 # ffff <__stack_size+0xf7ff>
    30002714:	0240006f          	j	30002738 <rt_vsnprintf+0x88>
    30002718:	02500713          	li	a4,37
    3000271c:	06e78463          	beq	a5,a4,30002784 <rt_vsnprintf+0xd4>
    30002720:	01557463          	bgeu	a0,s5,30002728 <rt_vsnprintf+0x78>
    30002724:	00f50023          	sb	a5,0(a0)
    30002728:	00150793          	addi	a5,a0,1
    3000272c:	00060a13          	mv	s4,a2
    30002730:	001a0613          	addi	a2,s4,1
    30002734:	00078513          	mv	a0,a5
    30002738:	00064783          	lbu	a5,0(a2)
    3000273c:	fc079ee3          	bnez	a5,30002718 <rt_vsnprintf+0x68>
    30002740:	000b8663          	beqz	s7,3000274c <rt_vsnprintf+0x9c>
    30002744:	47557a63          	bgeu	a0,s5,30002bb8 <rt_vsnprintf+0x508>
    30002748:	00050023          	sb	zero,0(a0)
    3000274c:	05813083          	ld	ra,88(sp)
    30002750:	05013403          	ld	s0,80(sp)
    30002754:	04813483          	ld	s1,72(sp)
    30002758:	04013903          	ld	s2,64(sp)
    3000275c:	03813983          	ld	s3,56(sp)
    30002760:	03013a03          	ld	s4,48(sp)
    30002764:	02813a83          	ld	s5,40(sp)
    30002768:	01813b83          	ld	s7,24(sp)
    3000276c:	01013c03          	ld	s8,16(sp)
    30002770:	00813c83          	ld	s9,8(sp)
    30002774:	4165053b          	subw	a0,a0,s6
    30002778:	02013b03          	ld	s6,32(sp)
    3000277c:	06010113          	addi	sp,sp,96
    30002780:	00008067          	ret
    30002784:	00000813          	li	a6,0
    30002788:	02d00713          	li	a4,45
    3000278c:	03000693          	li	a3,48
    30002790:	0100006f          	j	300027a0 <rt_vsnprintf+0xf0>
    30002794:	03279063          	bne	a5,s2,300027b4 <rt_vsnprintf+0x104>
    30002798:	00486813          	ori	a6,a6,4
    3000279c:	000a0613          	mv	a2,s4
    300027a0:	00164783          	lbu	a5,1(a2)
    300027a4:	00160a13          	addi	s4,a2,1
    300027a8:	fee796e3          	bne	a5,a4,30002794 <rt_vsnprintf+0xe4>
    300027ac:	01086813          	ori	a6,a6,16
    300027b0:	fedff06f          	j	3000279c <rt_vsnprintf+0xec>
    300027b4:	01879663          	bne	a5,s8,300027c0 <rt_vsnprintf+0x110>
    300027b8:	00886813          	ori	a6,a6,8
    300027bc:	fe1ff06f          	j	3000279c <rt_vsnprintf+0xec>
    300027c0:	01379663          	bne	a5,s3,300027cc <rt_vsnprintf+0x11c>
    300027c4:	02086813          	ori	a6,a6,32
    300027c8:	fd5ff06f          	j	3000279c <rt_vsnprintf+0xec>
    300027cc:	00d79663          	bne	a5,a3,300027d8 <rt_vsnprintf+0x128>
    300027d0:	00186813          	ori	a6,a6,1
    300027d4:	fc9ff06f          	j	3000279c <rt_vsnprintf+0xec>
    300027d8:	fd07871b          	addiw	a4,a5,-48
    300027dc:	00900693          	li	a3,9
    300027e0:	06e6e263          	bltu	a3,a4,30002844 <rt_vsnprintf+0x194>
    300027e4:	00000713          	li	a4,0
    300027e8:	00900613          	li	a2,9
    300027ec:	01c0006f          	j	30002808 <rt_vsnprintf+0x158>
    300027f0:	0027179b          	slliw	a5,a4,0x2
    300027f4:	00e787bb          	addw	a5,a5,a4
    300027f8:	0017979b          	slliw	a5,a5,0x1
    300027fc:	00d787bb          	addw	a5,a5,a3
    30002800:	001a0a13          	addi	s4,s4,1
    30002804:	fd07871b          	addiw	a4,a5,-48
    30002808:	000a4683          	lbu	a3,0(s4)
    3000280c:	fd06879b          	addiw	a5,a3,-48
    30002810:	fef670e3          	bgeu	a2,a5,300027f0 <rt_vsnprintf+0x140>
    30002814:	000a4603          	lbu	a2,0(s4)
    30002818:	02e00693          	li	a3,46
    3000281c:	fff00793          	li	a5,-1
    30002820:	08d61063          	bne	a2,a3,300028a0 <rt_vsnprintf+0x1f0>
    30002824:	001a4783          	lbu	a5,1(s4)
    30002828:	00900613          	li	a2,9
    3000282c:	001a0693          	addi	a3,s4,1
    30002830:	fd07859b          	addiw	a1,a5,-48
    30002834:	0cb66863          	bltu	a2,a1,30002904 <rt_vsnprintf+0x254>
    30002838:	00000613          	li	a2,0
    3000283c:	00900893          	li	a7,9
    30002840:	0440006f          	j	30002884 <rt_vsnprintf+0x1d4>
    30002844:	02a00693          	li	a3,42
    30002848:	fff00713          	li	a4,-1
    3000284c:	fcd794e3          	bne	a5,a3,30002814 <rt_vsnprintf+0x164>
    30002850:	00042703          	lw	a4,0(s0)
    30002854:	00260a13          	addi	s4,a2,2
    30002858:	00840413          	addi	s0,s0,8
    3000285c:	fa075ce3          	bgez	a4,30002814 <rt_vsnprintf+0x164>
    30002860:	40e0073b          	negw	a4,a4
    30002864:	01086813          	ori	a6,a6,16
    30002868:	fadff06f          	j	30002814 <rt_vsnprintf+0x164>
    3000286c:	0026179b          	slliw	a5,a2,0x2
    30002870:	00c787bb          	addw	a5,a5,a2
    30002874:	0017979b          	slliw	a5,a5,0x1
    30002878:	00b787bb          	addw	a5,a5,a1
    3000287c:	00168693          	addi	a3,a3,1
    30002880:	fd07861b          	addiw	a2,a5,-48
    30002884:	0006c583          	lbu	a1,0(a3)
    30002888:	fd05879b          	addiw	a5,a1,-48
    3000288c:	fef8f0e3          	bgeu	a7,a5,3000286c <rt_vsnprintf+0x1bc>
    30002890:	0006079b          	sext.w	a5,a2
    30002894:	00065463          	bgez	a2,3000289c <rt_vsnprintf+0x1ec>
    30002898:	00000793          	li	a5,0
    3000289c:	00068a13          	mv	s4,a3
    300028a0:	000a4583          	lbu	a1,0(s4)
    300028a4:	06800693          	li	a3,104
    300028a8:	0fb5f613          	andi	a2,a1,251
    300028ac:	06d61e63          	bne	a2,a3,30002928 <rt_vsnprintf+0x278>
    300028b0:	001a0a13          	addi	s4,s4,1
    300028b4:	000a4683          	lbu	a3,0(s4)
    300028b8:	07800613          	li	a2,120
    300028bc:	02d66063          	bltu	a2,a3,300028dc <rt_vsnprintf+0x22c>
    300028c0:	06200613          	li	a2,98
    300028c4:	06d66663          	bltu	a2,a3,30002930 <rt_vsnprintf+0x280>
    300028c8:	02500613          	li	a2,37
    300028cc:	26c68c63          	beq	a3,a2,30002b44 <rt_vsnprintf+0x494>
    300028d0:	05800613          	li	a2,88
    300028d4:	04086813          	ori	a6,a6,64
    300028d8:	26c68e63          	beq	a3,a2,30002b54 <rt_vsnprintf+0x4a4>
    300028dc:	01557663          	bgeu	a0,s5,300028e8 <rt_vsnprintf+0x238>
    300028e0:	02500793          	li	a5,37
    300028e4:	00f50023          	sb	a5,0(a0)
    300028e8:	000a4703          	lbu	a4,0(s4)
    300028ec:	00150793          	addi	a5,a0,1
    300028f0:	2a070663          	beqz	a4,30002b9c <rt_vsnprintf+0x4ec>
    300028f4:	0157f463          	bgeu	a5,s5,300028fc <rt_vsnprintf+0x24c>
    300028f8:	00e500a3          	sb	a4,1(a0)
    300028fc:	00250793          	addi	a5,a0,2
    30002900:	e31ff06f          	j	30002730 <rt_vsnprintf+0x80>
    30002904:	02a00613          	li	a2,42
    30002908:	00c79a63          	bne	a5,a2,3000291c <rt_vsnprintf+0x26c>
    3000290c:	00042603          	lw	a2,0(s0)
    30002910:	002a0693          	addi	a3,s4,2
    30002914:	00840413          	addi	s0,s0,8
    30002918:	f79ff06f          	j	30002890 <rt_vsnprintf+0x1e0>
    3000291c:	00068a13          	mv	s4,a3
    30002920:	00000793          	li	a5,0
    30002924:	f7dff06f          	j	300028a0 <rt_vsnprintf+0x1f0>
    30002928:	00000593          	li	a1,0
    3000292c:	f89ff06f          	j	300028b4 <rt_vsnprintf+0x204>
    30002930:	f9d6869b          	addiw	a3,a3,-99
    30002934:	0ff6f693          	zext.b	a3,a3
    30002938:	01500613          	li	a2,21
    3000293c:	fad660e3          	bltu	a2,a3,300028dc <rt_vsnprintf+0x22c>
    30002940:	4fffe617          	auipc	a2,0x4fffe
    30002944:	4e860613          	addi	a2,a2,1256 # 80000e28 <__FUNCTION__.0+0x20>
    30002948:	00269693          	slli	a3,a3,0x2
    3000294c:	00c686b3          	add	a3,a3,a2
    30002950:	0006a683          	lw	a3,0(a3)
    30002954:	00c686b3          	add	a3,a3,a2
    30002958:	00068067          	jr	a3
    3000295c:	01087813          	andi	a6,a6,16
    30002960:	04081863          	bnez	a6,300029b0 <rt_vsnprintf+0x300>
    30002964:	00070693          	mv	a3,a4
    30002968:	00050793          	mv	a5,a0
    3000296c:	0100006f          	j	3000297c <rt_vsnprintf+0x2cc>
    30002970:	0157f463          	bgeu	a5,s5,30002978 <rt_vsnprintf+0x2c8>
    30002974:	01878023          	sb	s8,0(a5)
    30002978:	00178793          	addi	a5,a5,1
    3000297c:	fff6869b          	addiw	a3,a3,-1
    30002980:	fed048e3          	bgtz	a3,30002970 <rt_vsnprintf+0x2c0>
    30002984:	fff7079b          	addiw	a5,a4,-1
    30002988:	00000693          	li	a3,0
    3000298c:	00e05663          	blez	a4,30002998 <rt_vsnprintf+0x2e8>
    30002990:	02079693          	slli	a3,a5,0x20
    30002994:	0206d693          	srli	a3,a3,0x20
    30002998:	00d50533          	add	a0,a0,a3
    3000299c:	00070693          	mv	a3,a4
    300029a0:	00e04463          	bgtz	a4,300029a8 <rt_vsnprintf+0x2f8>
    300029a4:	00100693          	li	a3,1
    300029a8:	40d787bb          	subw	a5,a5,a3
    300029ac:	0017871b          	addiw	a4,a5,1
    300029b0:	00840593          	addi	a1,s0,8
    300029b4:	01557663          	bgeu	a0,s5,300029c0 <rt_vsnprintf+0x310>
    300029b8:	00042783          	lw	a5,0(s0)
    300029bc:	00f50023          	sb	a5,0(a0)
    300029c0:	00150793          	addi	a5,a0,1
    300029c4:	00070613          	mv	a2,a4
    300029c8:	00078693          	mv	a3,a5
    300029cc:	fff6061b          	addiw	a2,a2,-1
    300029d0:	02c04263          	bgtz	a2,300029f4 <rt_vsnprintf+0x344>
    300029d4:	00000693          	li	a3,0
    300029d8:	00e05863          	blez	a4,300029e8 <rt_vsnprintf+0x338>
    300029dc:	fff7069b          	addiw	a3,a4,-1
    300029e0:	02069693          	slli	a3,a3,0x20
    300029e4:	0206d693          	srli	a3,a3,0x20
    300029e8:	00d787b3          	add	a5,a5,a3
    300029ec:	00058413          	mv	s0,a1
    300029f0:	d41ff06f          	j	30002730 <rt_vsnprintf+0x80>
    300029f4:	0156f463          	bgeu	a3,s5,300029fc <rt_vsnprintf+0x34c>
    300029f8:	01868023          	sb	s8,0(a3)
    300029fc:	00168693          	addi	a3,a3,1
    30002a00:	fcdff06f          	j	300029cc <rt_vsnprintf+0x31c>
    30002a04:	00043603          	ld	a2,0(s0)
    30002a08:	00840893          	addi	a7,s0,8
    30002a0c:	00061663          	bnez	a2,30002a18 <rt_vsnprintf+0x368>
    30002a10:	4fffe617          	auipc	a2,0x4fffe
    30002a14:	41060613          	addi	a2,a2,1040 # 80000e20 <__FUNCTION__.0+0x18>
    30002a18:	00000593          	li	a1,0
    30002a1c:	0005869b          	sext.w	a3,a1
    30002a20:	00d70a63          	beq	a4,a3,30002a34 <rt_vsnprintf+0x384>
    30002a24:	00158593          	addi	a1,a1,1
    30002a28:	00b60333          	add	t1,a2,a1
    30002a2c:	fff34303          	lbu	t1,-1(t1)
    30002a30:	fe0316e3          	bnez	t1,30002a1c <rt_vsnprintf+0x36c>
    30002a34:	00f05a63          	blez	a5,30002a48 <rt_vsnprintf+0x398>
    30002a38:	00068593          	mv	a1,a3
    30002a3c:	00d7d463          	bge	a5,a3,30002a44 <rt_vsnprintf+0x394>
    30002a40:	00078593          	mv	a1,a5
    30002a44:	0005869b          	sext.w	a3,a1
    30002a48:	01087813          	andi	a6,a6,16
    30002a4c:	04081a63          	bnez	a6,30002aa0 <rt_vsnprintf+0x3f0>
    30002a50:	00050793          	mv	a5,a0
    30002a54:	0007059b          	sext.w	a1,a4
    30002a58:	00e5033b          	addw	t1,a0,a4
    30002a5c:	0100006f          	j	30002a6c <rt_vsnprintf+0x3bc>
    30002a60:	0157f463          	bgeu	a5,s5,30002a68 <rt_vsnprintf+0x3b8>
    30002a64:	01878023          	sb	s8,0(a5)
    30002a68:	00178793          	addi	a5,a5,1
    30002a6c:	40f3083b          	subw	a6,t1,a5
    30002a70:	ff06c8e3          	blt	a3,a6,30002a60 <rt_vsnprintf+0x3b0>
    30002a74:	40d587bb          	subw	a5,a1,a3
    30002a78:	00000593          	li	a1,0
    30002a7c:	00d74663          	blt	a4,a3,30002a88 <rt_vsnprintf+0x3d8>
    30002a80:	02079593          	slli	a1,a5,0x20
    30002a84:	0205d593          	srli	a1,a1,0x20
    30002a88:	00b50533          	add	a0,a0,a1
    30002a8c:	fff7081b          	addiw	a6,a4,-1
    30002a90:	00000593          	li	a1,0
    30002a94:	00d74463          	blt	a4,a3,30002a9c <rt_vsnprintf+0x3ec>
    30002a98:	40f005bb          	negw	a1,a5
    30002a9c:	00b8073b          	addw	a4,a6,a1
    30002aa0:	00000793          	li	a5,0
    30002aa4:	0007859b          	sext.w	a1,a5
    30002aa8:	04d5c063          	blt	a1,a3,30002ae8 <rt_vsnprintf+0x438>
    30002aac:	00d507b3          	add	a5,a0,a3
    30002ab0:	0006881b          	sext.w	a6,a3
    30002ab4:	00078613          	mv	a2,a5
    30002ab8:	0007059b          	sext.w	a1,a4
    30002abc:	00e7833b          	addw	t1,a5,a4
    30002ac0:	40c3053b          	subw	a0,t1,a2
    30002ac4:	04a6c063          	blt	a3,a0,30002b04 <rt_vsnprintf+0x454>
    30002ac8:	00000613          	li	a2,0
    30002acc:	00d74863          	blt	a4,a3,30002adc <rt_vsnprintf+0x42c>
    30002ad0:	410585bb          	subw	a1,a1,a6
    30002ad4:	02059613          	slli	a2,a1,0x20
    30002ad8:	02065613          	srli	a2,a2,0x20
    30002adc:	00c787b3          	add	a5,a5,a2
    30002ae0:	00088413          	mv	s0,a7
    30002ae4:	c4dff06f          	j	30002730 <rt_vsnprintf+0x80>
    30002ae8:	00f505b3          	add	a1,a0,a5
    30002aec:	0155f863          	bgeu	a1,s5,30002afc <rt_vsnprintf+0x44c>
    30002af0:	00f60833          	add	a6,a2,a5
    30002af4:	00084803          	lbu	a6,0(a6)
    30002af8:	01058023          	sb	a6,0(a1)
    30002afc:	00178793          	addi	a5,a5,1
    30002b00:	fa5ff06f          	j	30002aa4 <rt_vsnprintf+0x3f4>
    30002b04:	01567463          	bgeu	a2,s5,30002b0c <rt_vsnprintf+0x45c>
    30002b08:	01860023          	sb	s8,0(a2)
    30002b0c:	00160613          	addi	a2,a2,1
    30002b10:	fb1ff06f          	j	30002ac0 <rt_vsnprintf+0x410>
    30002b14:	fff00693          	li	a3,-1
    30002b18:	00d71663          	bne	a4,a3,30002b24 <rt_vsnprintf+0x474>
    30002b1c:	00186813          	ori	a6,a6,1
    30002b20:	01000713          	li	a4,16
    30002b24:	00043603          	ld	a2,0(s0)
    30002b28:	01000693          	li	a3,16
    30002b2c:	000a8593          	mv	a1,s5
    30002b30:	00840c93          	addi	s9,s0,8
    30002b34:	cc0ff0ef          	jal	ra,30001ff4 <print_number>
    30002b38:	00050793          	mv	a5,a0
    30002b3c:	000c8413          	mv	s0,s9
    30002b40:	bf1ff06f          	j	30002730 <rt_vsnprintf+0x80>
    30002b44:	01557463          	bgeu	a0,s5,30002b4c <rt_vsnprintf+0x49c>
    30002b48:	00d50023          	sb	a3,0(a0)
    30002b4c:	00150793          	addi	a5,a0,1
    30002b50:	be1ff06f          	j	30002730 <rt_vsnprintf+0x80>
    30002b54:	01000693          	li	a3,16
    30002b58:	06800893          	li	a7,104
    30002b5c:	00042603          	lw	a2,0(s0)
    30002b60:	00840413          	addi	s0,s0,8
    30002b64:	01159a63          	bne	a1,a7,30002b78 <rt_vsnprintf+0x4c8>
    30002b68:	00287893          	andi	a7,a6,2
    30002b6c:	0006059b          	sext.w	a1,a2
    30002b70:	02089e63          	bnez	a7,30002bac <rt_vsnprintf+0x4fc>
    30002b74:	0095f633          	and	a2,a1,s1
    30002b78:	02061613          	slli	a2,a2,0x20
    30002b7c:	02065613          	srli	a2,a2,0x20
    30002b80:	000a8593          	mv	a1,s5
    30002b84:	c70ff0ef          	jal	ra,30001ff4 <print_number>
    30002b88:	00050793          	mv	a5,a0
    30002b8c:	ba5ff06f          	j	30002730 <rt_vsnprintf+0x80>
    30002b90:	00286813          	ori	a6,a6,2
    30002b94:	00a00693          	li	a3,10
    30002b98:	fc1ff06f          	j	30002b58 <rt_vsnprintf+0x4a8>
    30002b9c:	fffa0a13          	addi	s4,s4,-1
    30002ba0:	b91ff06f          	j	30002730 <rt_vsnprintf+0x80>
    30002ba4:	00800693          	li	a3,8
    30002ba8:	fb1ff06f          	j	30002b58 <rt_vsnprintf+0x4a8>
    30002bac:	0106161b          	slliw	a2,a2,0x10
    30002bb0:	4106561b          	sraiw	a2,a2,0x10
    30002bb4:	fc5ff06f          	j	30002b78 <rt_vsnprintf+0x4c8>
    30002bb8:	fe0a8fa3          	sb	zero,-1(s5)
    30002bbc:	b91ff06f          	j	3000274c <rt_vsnprintf+0x9c>

0000000030002bc0 <rt_snprintf>:
    30002bc0:	fb010113          	addi	sp,sp,-80
    30002bc4:	02d13423          	sd	a3,40(sp)
    30002bc8:	02810693          	addi	a3,sp,40
    30002bcc:	00113c23          	sd	ra,24(sp)
    30002bd0:	02e13823          	sd	a4,48(sp)
    30002bd4:	02f13c23          	sd	a5,56(sp)
    30002bd8:	05013023          	sd	a6,64(sp)
    30002bdc:	05113423          	sd	a7,72(sp)
    30002be0:	00d13423          	sd	a3,8(sp)
    30002be4:	acdff0ef          	jal	ra,300026b0 <rt_vsnprintf>
    30002be8:	01813083          	ld	ra,24(sp)
    30002bec:	05010113          	addi	sp,sp,80
    30002bf0:	00008067          	ret

0000000030002bf4 <rt_vsprintf>:
    30002bf4:	00060693          	mv	a3,a2
    30002bf8:	00058613          	mv	a2,a1
    30002bfc:	fff00593          	li	a1,-1
    30002c00:	ab1ff06f          	j	300026b0 <rt_vsnprintf>

0000000030002c04 <rt_sprintf>:
    30002c04:	fb010113          	addi	sp,sp,-80
    30002c08:	02c13023          	sd	a2,32(sp)
    30002c0c:	02010613          	addi	a2,sp,32
    30002c10:	00113c23          	sd	ra,24(sp)
    30002c14:	02d13423          	sd	a3,40(sp)
    30002c18:	02e13823          	sd	a4,48(sp)
    30002c1c:	02f13c23          	sd	a5,56(sp)
    30002c20:	05013023          	sd	a6,64(sp)
    30002c24:	05113423          	sd	a7,72(sp)
    30002c28:	00c13423          	sd	a2,8(sp)
    30002c2c:	fc9ff0ef          	jal	ra,30002bf4 <rt_vsprintf>
    30002c30:	01813083          	ld	ra,24(sp)
    30002c34:	05010113          	addi	sp,sp,80
    30002c38:	00008067          	ret

0000000030002c3c <rt_console_get_device>:
    30002c3c:	8801b503          	ld	a0,-1920(gp) # 80004278 <_console_device>
    30002c40:	00008067          	ret

0000000030002c44 <rt_console_set_device>:
    30002c44:	fe010113          	addi	sp,sp,-32
    30002c48:	01213023          	sd	s2,0(sp)
    30002c4c:	88018913          	addi	s2,gp,-1920 # 80004278 <_console_device>
    30002c50:	00913423          	sd	s1,8(sp)
    30002c54:	00093483          	ld	s1,0(s2)
    30002c58:	00113c23          	sd	ra,24(sp)
    30002c5c:	00813823          	sd	s0,16(sp)
    30002c60:	fddfd0ef          	jal	ra,30000c3c <rt_device_find>
    30002c64:	04a48263          	beq	s1,a0,30002ca8 <rt_console_set_device+0x64>
    30002c68:	00050413          	mv	s0,a0
    30002c6c:	02050063          	beqz	a0,30002c8c <rt_console_set_device+0x48>
    30002c70:	00093503          	ld	a0,0(s2)
    30002c74:	00050463          	beqz	a0,30002c7c <rt_console_set_device+0x38>
    30002c78:	99cfe0ef          	jal	ra,30000e14 <rt_device_close>
    30002c7c:	04300593          	li	a1,67
    30002c80:	00040513          	mv	a0,s0
    30002c84:	838fe0ef          	jal	ra,30000cbc <rt_device_open>
    30002c88:	00893023          	sd	s0,0(s2)
    30002c8c:	01813083          	ld	ra,24(sp)
    30002c90:	01013403          	ld	s0,16(sp)
    30002c94:	00013903          	ld	s2,0(sp)
    30002c98:	00048513          	mv	a0,s1
    30002c9c:	00813483          	ld	s1,8(sp)
    30002ca0:	02010113          	addi	sp,sp,32
    30002ca4:	00008067          	ret
    30002ca8:	00000493          	li	s1,0
    30002cac:	fe1ff06f          	j	30002c8c <rt_console_set_device+0x48>

0000000030002cb0 <rt_hw_console_output>:
    30002cb0:	00008067          	ret

0000000030002cb4 <rt_kprintf>:
    30002cb4:	f9010113          	addi	sp,sp,-112
    30002cb8:	02b13c23          	sd	a1,56(sp)
    30002cbc:	04c13023          	sd	a2,64(sp)
    30002cc0:	04d13423          	sd	a3,72(sp)
    30002cc4:	00050613          	mv	a2,a0
    30002cc8:	03810693          	addi	a3,sp,56
    30002ccc:	0ff00593          	li	a1,255
    30002cd0:	5000a517          	auipc	a0,0x5000a
    30002cd4:	99850513          	addi	a0,a0,-1640 # 8000c668 <rt_log_buf.0>
    30002cd8:	00913c23          	sd	s1,24(sp)
    30002cdc:	00d13423          	sd	a3,8(sp)
    30002ce0:	02113423          	sd	ra,40(sp)
    30002ce4:	02813023          	sd	s0,32(sp)
    30002ce8:	04e13823          	sd	a4,80(sp)
    30002cec:	04f13c23          	sd	a5,88(sp)
    30002cf0:	07013023          	sd	a6,96(sp)
    30002cf4:	07113423          	sd	a7,104(sp)
    30002cf8:	88018493          	addi	s1,gp,-1920 # 80004278 <_console_device>
    30002cfc:	9b5ff0ef          	jal	ra,300026b0 <rt_vsnprintf>
    30002d00:	00050693          	mv	a3,a0
    30002d04:	0004b503          	ld	a0,0(s1)
    30002d08:	02051263          	bnez	a0,30002d2c <rt_kprintf+0x78>
    30002d0c:	5000a517          	auipc	a0,0x5000a
    30002d10:	95c50513          	addi	a0,a0,-1700 # 8000c668 <rt_log_buf.0>
    30002d14:	f9dff0ef          	jal	ra,30002cb0 <rt_hw_console_output>
    30002d18:	02813083          	ld	ra,40(sp)
    30002d1c:	02013403          	ld	s0,32(sp)
    30002d20:	01813483          	ld	s1,24(sp)
    30002d24:	07010113          	addi	sp,sp,112
    30002d28:	00008067          	ret
    30002d2c:	02e55403          	lhu	s0,46(a0)
    30002d30:	04046793          	ori	a5,s0,64
    30002d34:	02f51723          	sh	a5,46(a0)
    30002d38:	0ff00793          	li	a5,255
    30002d3c:	00d7f463          	bgeu	a5,a3,30002d44 <rt_kprintf+0x90>
    30002d40:	0ff00693          	li	a3,255
    30002d44:	5000a617          	auipc	a2,0x5000a
    30002d48:	92460613          	addi	a2,a2,-1756 # 8000c668 <rt_log_buf.0>
    30002d4c:	00000593          	li	a1,0
    30002d50:	a44fe0ef          	jal	ra,30000f94 <rt_device_write>
    30002d54:	0004b783          	ld	a5,0(s1)
    30002d58:	02879723          	sh	s0,46(a5)
    30002d5c:	fbdff06f          	j	30002d18 <rt_kprintf+0x64>

0000000030002d60 <rt_show_version>:
    30002d60:	ff010113          	addi	sp,sp,-16
    30002d64:	4fffe517          	auipc	a0,0x4fffe
    30002d68:	11c50513          	addi	a0,a0,284 # 80000e80 <__FUNCTION__.0+0x78>
    30002d6c:	00113423          	sd	ra,8(sp)
    30002d70:	f45ff0ef          	jal	ra,30002cb4 <rt_kprintf>
    30002d74:	4fffe517          	auipc	a0,0x4fffe
    30002d78:	11c50513          	addi	a0,a0,284 # 80000e90 <__FUNCTION__.0+0x88>
    30002d7c:	f39ff0ef          	jal	ra,30002cb4 <rt_kprintf>
    30002d80:	4fffe517          	auipc	a0,0x4fffe
    30002d84:	14850513          	addi	a0,a0,328 # 80000ec8 <__FUNCTION__.0+0xc0>
    30002d88:	4fffe717          	auipc	a4,0x4fffe
    30002d8c:	13070713          	addi	a4,a4,304 # 80000eb8 <__FUNCTION__.0+0xb0>
    30002d90:	00400693          	li	a3,4
    30002d94:	00000613          	li	a2,0
    30002d98:	00400593          	li	a1,4
    30002d9c:	f19ff0ef          	jal	ra,30002cb4 <rt_kprintf>
    30002da0:	00813083          	ld	ra,8(sp)
    30002da4:	4fffe517          	auipc	a0,0x4fffe
    30002da8:	14450513          	addi	a0,a0,324 # 80000ee8 <__FUNCTION__.0+0xe0>
    30002dac:	01010113          	addi	sp,sp,16
    30002db0:	f05ff06f          	j	30002cb4 <rt_kprintf>

0000000030002db4 <__rt_ffs>:
    30002db4:	08050063          	beqz	a0,30002e34 <__rt_ffs+0x80>
    30002db8:	0ff57713          	zext.b	a4,a0
    30002dbc:	4fffe797          	auipc	a5,0x4fffe
    30002dc0:	19478793          	addi	a5,a5,404 # 80000f50 <__lowest_bit_bitmap>
    30002dc4:	00070a63          	beqz	a4,30002dd8 <__rt_ffs+0x24>
    30002dc8:	00e787b3          	add	a5,a5,a4
    30002dcc:	0007c503          	lbu	a0,0(a5)
    30002dd0:	0015051b          	addiw	a0,a0,1
    30002dd4:	00008067          	ret
    30002dd8:	00010737          	lui	a4,0x10
    30002ddc:	f0070713          	addi	a4,a4,-256 # ff00 <__stack_size+0xf700>
    30002de0:	00e57733          	and	a4,a0,a4
    30002de4:	00070e63          	beqz	a4,30002e00 <__rt_ffs+0x4c>
    30002de8:	4085551b          	sraiw	a0,a0,0x8
    30002dec:	0ff57513          	zext.b	a0,a0
    30002df0:	00a787b3          	add	a5,a5,a0
    30002df4:	0007c503          	lbu	a0,0(a5)
    30002df8:	0095051b          	addiw	a0,a0,9
    30002dfc:	00008067          	ret
    30002e00:	00ff0737          	lui	a4,0xff0
    30002e04:	00e57733          	and	a4,a0,a4
    30002e08:	00070e63          	beqz	a4,30002e24 <__rt_ffs+0x70>
    30002e0c:	4105551b          	sraiw	a0,a0,0x10
    30002e10:	0ff57513          	zext.b	a0,a0
    30002e14:	00a787b3          	add	a5,a5,a0
    30002e18:	0007c503          	lbu	a0,0(a5)
    30002e1c:	0115051b          	addiw	a0,a0,17
    30002e20:	00008067          	ret
    30002e24:	0185551b          	srliw	a0,a0,0x18
    30002e28:	00a787b3          	add	a5,a5,a0
    30002e2c:	0007c503          	lbu	a0,0(a5)
    30002e30:	0195051b          	addiw	a0,a0,25
    30002e34:	00008067          	ret

0000000030002e38 <rt_assert_handler>:
    30002e38:	fe010113          	addi	sp,sp,-32
    30002e3c:	00113c23          	sd	ra,24(sp)
    30002e40:	000107a3          	sb	zero,15(sp)
    30002e44:	8881b803          	ld	a6,-1912(gp) # 80004280 <rt_assert_hook>
    30002e48:	02081863          	bnez	a6,30002e78 <rt_assert_handler+0x40>
    30002e4c:	00060693          	mv	a3,a2
    30002e50:	00058613          	mv	a2,a1
    30002e54:	00050593          	mv	a1,a0
    30002e58:	4fffe517          	auipc	a0,0x4fffe
    30002e5c:	0c050513          	addi	a0,a0,192 # 80000f18 <__FUNCTION__.0+0x110>
    30002e60:	e55ff0ef          	jal	ra,30002cb4 <rt_kprintf>
    30002e64:	00f14783          	lbu	a5,15(sp)
    30002e68:	fe078ee3          	beqz	a5,30002e64 <rt_assert_handler+0x2c>
    30002e6c:	01813083          	ld	ra,24(sp)
    30002e70:	02010113          	addi	sp,sp,32
    30002e74:	00008067          	ret
    30002e78:	01813083          	ld	ra,24(sp)
    30002e7c:	02010113          	addi	sp,sp,32
    30002e80:	00080067          	jr	a6

0000000030002e84 <rt_ipc_list_resume.isra.0>:
    30002e84:	fd850513          	addi	a0,a0,-40
    30002e88:	1940106f          	j	3000401c <rt_thread_resume>

0000000030002e8c <rt_ipc_list_suspend.isra.0>:
    30002e8c:	fe010113          	addi	sp,sp,-32
    30002e90:	00913423          	sd	s1,8(sp)
    30002e94:	01213023          	sd	s2,0(sp)
    30002e98:	00050493          	mv	s1,a0
    30002e9c:	00060913          	mv	s2,a2
    30002ea0:	00058513          	mv	a0,a1
    30002ea4:	00813823          	sd	s0,16(sp)
    30002ea8:	00113c23          	sd	ra,24(sp)
    30002eac:	00058413          	mv	s0,a1
    30002eb0:	78d000ef          	jal	ra,30003e3c <rt_thread_suspend>
    30002eb4:	04090063          	beqz	s2,30002ef4 <rt_ipc_list_suspend.isra.0+0x68>
    30002eb8:	00100793          	li	a5,1
    30002ebc:	02f90863          	beq	s2,a5,30002eec <rt_ipc_list_suspend.isra.0+0x60>
    30002ec0:	01013403          	ld	s0,16(sp)
    30002ec4:	01813083          	ld	ra,24(sp)
    30002ec8:	00813483          	ld	s1,8(sp)
    30002ecc:	00013903          	ld	s2,0(sp)
    30002ed0:	07f00613          	li	a2,127
    30002ed4:	4fffe597          	auipc	a1,0x4fffe
    30002ed8:	36458593          	addi	a1,a1,868 # 80001238 <__FUNCTION__.32>
    30002edc:	4fffe517          	auipc	a0,0x4fffe
    30002ee0:	bfc50513          	addi	a0,a0,-1028 # 80000ad8 <__FUNCTION__.6+0x210>
    30002ee4:	02010113          	addi	sp,sp,32
    30002ee8:	f51ff06f          	j	30002e38 <rt_assert_handler>
    30002eec:	0004b783          	ld	a5,0(s1)
    30002ef0:	02f49063          	bne	s1,a5,30002f10 <rt_ipc_list_suspend.isra.0+0x84>
    30002ef4:	0084b703          	ld	a4,8(s1)
    30002ef8:	02840793          	addi	a5,s0,40
    30002efc:	00f73023          	sd	a5,0(a4) # ff0000 <__stack_size+0xfef800>
    30002f00:	02e43823          	sd	a4,48(s0)
    30002f04:	00f4b423          	sd	a5,8(s1)
    30002f08:	02943423          	sd	s1,40(s0)
    30002f0c:	0280006f          	j	30002f34 <rt_ipc_list_suspend.isra.0+0xa8>
    30002f10:	06944683          	lbu	a3,105(s0)
    30002f14:	0417c703          	lbu	a4,65(a5)
    30002f18:	02e6fa63          	bgeu	a3,a4,30002f4c <rt_ipc_list_suspend.isra.0+0xc0>
    30002f1c:	0087b683          	ld	a3,8(a5)
    30002f20:	02840713          	addi	a4,s0,40
    30002f24:	00e6b023          	sd	a4,0(a3)
    30002f28:	02d43823          	sd	a3,48(s0)
    30002f2c:	00e7b423          	sd	a4,8(a5)
    30002f30:	02f43423          	sd	a5,40(s0)
    30002f34:	01813083          	ld	ra,24(sp)
    30002f38:	01013403          	ld	s0,16(sp)
    30002f3c:	00813483          	ld	s1,8(sp)
    30002f40:	00013903          	ld	s2,0(sp)
    30002f44:	02010113          	addi	sp,sp,32
    30002f48:	00008067          	ret
    30002f4c:	0007b783          	ld	a5,0(a5)
    30002f50:	fa1ff06f          	j	30002ef0 <rt_ipc_list_suspend.isra.0+0x64>

0000000030002f54 <rt_sem_init>:
    30002f54:	fd010113          	addi	sp,sp,-48
    30002f58:	02813023          	sd	s0,32(sp)
    30002f5c:	00913c23          	sd	s1,24(sp)
    30002f60:	01213823          	sd	s2,16(sp)
    30002f64:	01313423          	sd	s3,8(sp)
    30002f68:	02113423          	sd	ra,40(sp)
    30002f6c:	00050413          	mv	s0,a0
    30002f70:	00058993          	mv	s3,a1
    30002f74:	00060493          	mv	s1,a2
    30002f78:	00068913          	mv	s2,a3
    30002f7c:	00051e63          	bnez	a0,30002f98 <rt_sem_init+0x44>
    30002f80:	0d500613          	li	a2,213
    30002f84:	4fffe597          	auipc	a1,0x4fffe
    30002f88:	2dc58593          	addi	a1,a1,732 # 80001260 <__FUNCTION__.37>
    30002f8c:	4fffe517          	auipc	a0,0x4fffe
    30002f90:	0f450513          	addi	a0,a0,244 # 80001080 <small_digits.1+0x18>
    30002f94:	ea5ff0ef          	jal	ra,30002e38 <rt_assert_handler>
    30002f98:	000107b7          	lui	a5,0x10
    30002f9c:	00f4ee63          	bltu	s1,a5,30002fb8 <rt_sem_init+0x64>
    30002fa0:	0d600613          	li	a2,214
    30002fa4:	4fffe597          	auipc	a1,0x4fffe
    30002fa8:	2bc58593          	addi	a1,a1,700 # 80001260 <__FUNCTION__.37>
    30002fac:	4fffe517          	auipc	a0,0x4fffe
    30002fb0:	0e450513          	addi	a0,a0,228 # 80001090 <small_digits.1+0x28>
    30002fb4:	e85ff0ef          	jal	ra,30002e38 <rt_assert_handler>
    30002fb8:	00040513          	mv	a0,s0
    30002fbc:	00098613          	mv	a2,s3
    30002fc0:	00200593          	li	a1,2
    30002fc4:	36c010ef          	jal	ra,30004330 <rt_object_init>
    30002fc8:	02840793          	addi	a5,s0,40
    30002fcc:	02941c23          	sh	s1,56(s0)
    30002fd0:	01240aa3          	sb	s2,21(s0)
    30002fd4:	02813083          	ld	ra,40(sp)
    30002fd8:	02f43823          	sd	a5,48(s0)
    30002fdc:	02f43423          	sd	a5,40(s0)
    30002fe0:	02013403          	ld	s0,32(sp)
    30002fe4:	01813483          	ld	s1,24(sp)
    30002fe8:	01013903          	ld	s2,16(sp)
    30002fec:	00813983          	ld	s3,8(sp)
    30002ff0:	00000513          	li	a0,0
    30002ff4:	03010113          	addi	sp,sp,48
    30002ff8:	00008067          	ret

0000000030002ffc <rt_sem_take>:
    30002ffc:	fc010113          	addi	sp,sp,-64
    30003000:	02813823          	sd	s0,48(sp)
    30003004:	02113c23          	sd	ra,56(sp)
    30003008:	02913423          	sd	s1,40(sp)
    3000300c:	03213023          	sd	s2,32(sp)
    30003010:	01313c23          	sd	s3,24(sp)
    30003014:	00b12623          	sw	a1,12(sp)
    30003018:	00050413          	mv	s0,a0
    3000301c:	00051e63          	bnez	a0,30003038 <rt_sem_take+0x3c>
    30003020:	15300613          	li	a2,339
    30003024:	4fffe597          	auipc	a1,0x4fffe
    30003028:	22c58593          	addi	a1,a1,556 # 80001250 <__FUNCTION__.33>
    3000302c:	4fffe517          	auipc	a0,0x4fffe
    30003030:	05450513          	addi	a0,a0,84 # 80001080 <small_digits.1+0x18>
    30003034:	e05ff0ef          	jal	ra,30002e38 <rt_assert_handler>
    30003038:	00040513          	mv	a0,s0
    3000303c:	664010ef          	jal	ra,300046a0 <rt_object_get_type>
    30003040:	00200793          	li	a5,2
    30003044:	00f50e63          	beq	a0,a5,30003060 <rt_sem_take+0x64>
    30003048:	15400613          	li	a2,340
    3000304c:	4fffe597          	auipc	a1,0x4fffe
    30003050:	20458593          	addi	a1,a1,516 # 80001250 <__FUNCTION__.33>
    30003054:	4fffe517          	auipc	a0,0x4fffe
    30003058:	05450513          	addi	a0,a0,84 # 800010a8 <small_digits.1+0x40>
    3000305c:	dddff0ef          	jal	ra,30002e38 <rt_assert_handler>
    30003060:	8d01b783          	ld	a5,-1840(gp) # 800042c8 <rt_object_trytake_hook>
    30003064:	00078663          	beqz	a5,30003070 <rt_sem_take+0x74>
    30003068:	00040513          	mv	a0,s0
    3000306c:	000780e7          	jalr	a5 # 10000 <__stack_size+0xf800>
    30003070:	535010ef          	jal	ra,30004da4 <rt_hw_interrupt_disable>
    30003074:	03845783          	lhu	a5,56(s0)
    30003078:	00050993          	mv	s3,a0
    3000307c:	02078663          	beqz	a5,300030a8 <rt_sem_take+0xac>
    30003080:	fff7879b          	addiw	a5,a5,-1
    30003084:	02f41c23          	sh	a5,56(s0)
    30003088:	525010ef          	jal	ra,30004dac <rt_hw_interrupt_enable>
    3000308c:	8c81b783          	ld	a5,-1848(gp) # 800042c0 <rt_object_take_hook>
    30003090:	00000513          	li	a0,0
    30003094:	02078263          	beqz	a5,300030b8 <rt_sem_take+0xbc>
    30003098:	00040513          	mv	a0,s0
    3000309c:	000780e7          	jalr	a5
    300030a0:	00000513          	li	a0,0
    300030a4:	0140006f          	j	300030b8 <rt_sem_take+0xbc>
    300030a8:	00c12783          	lw	a5,12(sp)
    300030ac:	02079463          	bnez	a5,300030d4 <rt_sem_take+0xd8>
    300030b0:	4fd010ef          	jal	ra,30004dac <rt_hw_interrupt_enable>
    300030b4:	ffe00513          	li	a0,-2
    300030b8:	03813083          	ld	ra,56(sp)
    300030bc:	03013403          	ld	s0,48(sp)
    300030c0:	02813483          	ld	s1,40(sp)
    300030c4:	02013903          	ld	s2,32(sp)
    300030c8:	01813983          	ld	s3,24(sp)
    300030cc:	04010113          	addi	sp,sp,64
    300030d0:	00008067          	ret
    300030d4:	4d1010ef          	jal	ra,30004da4 <rt_hw_interrupt_disable>
    300030d8:	00050493          	mv	s1,a0
    300030dc:	2cd000ef          	jal	ra,30003ba8 <rt_thread_self>
    300030e0:	02051863          	bnez	a0,30003110 <rt_sem_take+0x114>
    300030e4:	4fffe597          	auipc	a1,0x4fffe
    300030e8:	16c58593          	addi	a1,a1,364 # 80001250 <__FUNCTION__.33>
    300030ec:	4fffe517          	auipc	a0,0x4fffe
    300030f0:	03450513          	addi	a0,a0,52 # 80001120 <small_digits.1+0xb8>
    300030f4:	bc1ff0ef          	jal	ra,30002cb4 <rt_kprintf>
    300030f8:	17400613          	li	a2,372
    300030fc:	4fffe597          	auipc	a1,0x4fffe
    30003100:	15458593          	addi	a1,a1,340 # 80001250 <__FUNCTION__.33>
    30003104:	4fffe517          	auipc	a0,0x4fffe
    30003108:	9d450513          	addi	a0,a0,-1580 # 80000ad8 <__FUNCTION__.6+0x210>
    3000310c:	d2dff0ef          	jal	ra,30002e38 <rt_assert_handler>
    30003110:	495010ef          	jal	ra,30004da4 <rt_hw_interrupt_disable>
    30003114:	00050913          	mv	s2,a0
    30003118:	461010ef          	jal	ra,30004d78 <rt_interrupt_get_nest>
    3000311c:	02050863          	beqz	a0,3000314c <rt_sem_take+0x150>
    30003120:	4fffe597          	auipc	a1,0x4fffe
    30003124:	13058593          	addi	a1,a1,304 # 80001250 <__FUNCTION__.33>
    30003128:	4fffe517          	auipc	a0,0x4fffe
    3000312c:	98850513          	addi	a0,a0,-1656 # 80000ab0 <__FUNCTION__.6+0x1e8>
    30003130:	b85ff0ef          	jal	ra,30002cb4 <rt_kprintf>
    30003134:	17400613          	li	a2,372
    30003138:	4fffe597          	auipc	a1,0x4fffe
    3000313c:	11858593          	addi	a1,a1,280 # 80001250 <__FUNCTION__.33>
    30003140:	4fffe517          	auipc	a0,0x4fffe
    30003144:	99850513          	addi	a0,a0,-1640 # 80000ad8 <__FUNCTION__.6+0x210>
    30003148:	cf1ff0ef          	jal	ra,30002e38 <rt_assert_handler>
    3000314c:	00090513          	mv	a0,s2
    30003150:	45d010ef          	jal	ra,30004dac <rt_hw_interrupt_enable>
    30003154:	00048513          	mv	a0,s1
    30003158:	455010ef          	jal	ra,30004dac <rt_hw_interrupt_enable>
    3000315c:	24d000ef          	jal	ra,30003ba8 <rt_thread_self>
    30003160:	06053023          	sd	zero,96(a0)
    30003164:	01544603          	lbu	a2,21(s0)
    30003168:	00050593          	mv	a1,a0
    3000316c:	00050493          	mv	s1,a0
    30003170:	02840513          	addi	a0,s0,40
    30003174:	d19ff0ef          	jal	ra,30002e8c <rt_ipc_list_suspend.isra.0>
    30003178:	00c12783          	lw	a5,12(sp)
    3000317c:	02f05063          	blez	a5,3000319c <rt_sem_take+0x1a0>
    30003180:	08848913          	addi	s2,s1,136
    30003184:	00c10613          	addi	a2,sp,12
    30003188:	00000593          	li	a1,0
    3000318c:	00090513          	mv	a0,s2
    30003190:	dfcfd0ef          	jal	ra,3000078c <rt_timer_control>
    30003194:	00090513          	mv	a0,s2
    30003198:	bc4fd0ef          	jal	ra,3000055c <rt_timer_start>
    3000319c:	00098513          	mv	a0,s3
    300031a0:	40d010ef          	jal	ra,30004dac <rt_hw_interrupt_enable>
    300031a4:	17d010ef          	jal	ra,30004b20 <rt_schedule>
    300031a8:	0604b503          	ld	a0,96(s1)
    300031ac:	ee0500e3          	beqz	a0,3000308c <rt_sem_take+0x90>
    300031b0:	f09ff06f          	j	300030b8 <rt_sem_take+0xbc>

00000000300031b4 <rt_sem_release>:
    300031b4:	fd010113          	addi	sp,sp,-48
    300031b8:	02813023          	sd	s0,32(sp)
    300031bc:	02113423          	sd	ra,40(sp)
    300031c0:	00913c23          	sd	s1,24(sp)
    300031c4:	00050413          	mv	s0,a0
    300031c8:	00051e63          	bnez	a0,300031e4 <rt_sem_release+0x30>
    300031cc:	1c000613          	li	a2,448
    300031d0:	4fffe597          	auipc	a1,0x4fffe
    300031d4:	05858593          	addi	a1,a1,88 # 80001228 <__FUNCTION__.31>
    300031d8:	4fffe517          	auipc	a0,0x4fffe
    300031dc:	ea850513          	addi	a0,a0,-344 # 80001080 <small_digits.1+0x18>
    300031e0:	c59ff0ef          	jal	ra,30002e38 <rt_assert_handler>
    300031e4:	00040513          	mv	a0,s0
    300031e8:	4b8010ef          	jal	ra,300046a0 <rt_object_get_type>
    300031ec:	00200793          	li	a5,2
    300031f0:	00f50e63          	beq	a0,a5,3000320c <rt_sem_release+0x58>
    300031f4:	1c100613          	li	a2,449
    300031f8:	4fffe597          	auipc	a1,0x4fffe
    300031fc:	03058593          	addi	a1,a1,48 # 80001228 <__FUNCTION__.31>
    30003200:	4fffe517          	auipc	a0,0x4fffe
    30003204:	ea850513          	addi	a0,a0,-344 # 800010a8 <small_digits.1+0x40>
    30003208:	c31ff0ef          	jal	ra,30002e38 <rt_assert_handler>
    3000320c:	8c01b783          	ld	a5,-1856(gp) # 800042b8 <rt_object_put_hook>
    30003210:	00078663          	beqz	a5,3000321c <rt_sem_release+0x68>
    30003214:	00040513          	mv	a0,s0
    30003218:	000780e7          	jalr	a5
    3000321c:	389010ef          	jal	ra,30004da4 <rt_hw_interrupt_disable>
    30003220:	02843783          	ld	a5,40(s0)
    30003224:	02840713          	addi	a4,s0,40
    30003228:	00050493          	mv	s1,a0
    3000322c:	02e78863          	beq	a5,a4,3000325c <rt_sem_release+0xa8>
    30003230:	00078513          	mv	a0,a5
    30003234:	c51ff0ef          	jal	ra,30002e84 <rt_ipc_list_resume.isra.0>
    30003238:	00100413          	li	s0,1
    3000323c:	00048513          	mv	a0,s1
    30003240:	36d010ef          	jal	ra,30004dac <rt_hw_interrupt_enable>
    30003244:	00000513          	li	a0,0
    30003248:	02040e63          	beqz	s0,30003284 <rt_sem_release+0xd0>
    3000324c:	00a13423          	sd	a0,8(sp)
    30003250:	0d1010ef          	jal	ra,30004b20 <rt_schedule>
    30003254:	00813503          	ld	a0,8(sp)
    30003258:	02c0006f          	j	30003284 <rt_sem_release+0xd0>
    3000325c:	03845783          	lhu	a5,56(s0)
    30003260:	00010737          	lui	a4,0x10
    30003264:	fff70713          	addi	a4,a4,-1 # ffff <__stack_size+0xf7ff>
    30003268:	00e78a63          	beq	a5,a4,3000327c <rt_sem_release+0xc8>
    3000326c:	0017879b          	addiw	a5,a5,1
    30003270:	02f41c23          	sh	a5,56(s0)
    30003274:	00000413          	li	s0,0
    30003278:	fc5ff06f          	j	3000323c <rt_sem_release+0x88>
    3000327c:	331010ef          	jal	ra,30004dac <rt_hw_interrupt_enable>
    30003280:	ffd00513          	li	a0,-3
    30003284:	02813083          	ld	ra,40(sp)
    30003288:	02013403          	ld	s0,32(sp)
    3000328c:	01813483          	ld	s1,24(sp)
    30003290:	03010113          	addi	sp,sp,48
    30003294:	00008067          	ret

0000000030003298 <rt_mutex_init>:
    30003298:	fe010113          	addi	sp,sp,-32
    3000329c:	00813823          	sd	s0,16(sp)
    300032a0:	00913423          	sd	s1,8(sp)
    300032a4:	00113c23          	sd	ra,24(sp)
    300032a8:	00050413          	mv	s0,a0
    300032ac:	00058493          	mv	s1,a1
    300032b0:	00051e63          	bnez	a0,300032cc <rt_mutex_init+0x34>
    300032b4:	22a00613          	li	a2,554
    300032b8:	4fffe597          	auipc	a1,0x4fffe
    300032bc:	f6058593          	addi	a1,a1,-160 # 80001218 <__FUNCTION__.29>
    300032c0:	4fffe517          	auipc	a0,0x4fffe
    300032c4:	e9850513          	addi	a0,a0,-360 # 80001158 <small_digits.1+0xf0>
    300032c8:	b71ff0ef          	jal	ra,30002e38 <rt_assert_handler>
    300032cc:	00040513          	mv	a0,s0
    300032d0:	00048613          	mv	a2,s1
    300032d4:	00300593          	li	a1,3
    300032d8:	058010ef          	jal	ra,30004330 <rt_object_init>
    300032dc:	02840793          	addi	a5,s0,40
    300032e0:	02f43823          	sd	a5,48(s0)
    300032e4:	02f43423          	sd	a5,40(s0)
    300032e8:	00ff07b7          	lui	a5,0xff0
    300032ec:	00178793          	addi	a5,a5,1 # ff0001 <__stack_size+0xfef801>
    300032f0:	02f42c23          	sw	a5,56(s0)
    300032f4:	00100793          	li	a5,1
    300032f8:	01813083          	ld	ra,24(sp)
    300032fc:	04043023          	sd	zero,64(s0)
    30003300:	00f40aa3          	sb	a5,21(s0)
    30003304:	01013403          	ld	s0,16(sp)
    30003308:	00813483          	ld	s1,8(sp)
    3000330c:	00000513          	li	a0,0
    30003310:	02010113          	addi	sp,sp,32
    30003314:	00008067          	ret

0000000030003318 <rt_mutex_take>:
    30003318:	fc010113          	addi	sp,sp,-64
    3000331c:	02813823          	sd	s0,48(sp)
    30003320:	02913423          	sd	s1,40(sp)
    30003324:	02113c23          	sd	ra,56(sp)
    30003328:	03213023          	sd	s2,32(sp)
    3000332c:	01313c23          	sd	s3,24(sp)
    30003330:	00050413          	mv	s0,a0
    30003334:	00b12623          	sw	a1,12(sp)
    30003338:	26d010ef          	jal	ra,30004da4 <rt_hw_interrupt_disable>
    3000333c:	00050493          	mv	s1,a0
    30003340:	069000ef          	jal	ra,30003ba8 <rt_thread_self>
    30003344:	02051863          	bnez	a0,30003374 <rt_mutex_take+0x5c>
    30003348:	4fffe597          	auipc	a1,0x4fffe
    3000334c:	ec058593          	addi	a1,a1,-320 # 80001208 <__FUNCTION__.25>
    30003350:	4fffe517          	auipc	a0,0x4fffe
    30003354:	dd050513          	addi	a0,a0,-560 # 80001120 <small_digits.1+0xb8>
    30003358:	95dff0ef          	jal	ra,30002cb4 <rt_kprintf>
    3000335c:	2aa00613          	li	a2,682
    30003360:	4fffe597          	auipc	a1,0x4fffe
    30003364:	ea858593          	addi	a1,a1,-344 # 80001208 <__FUNCTION__.25>
    30003368:	4fffd517          	auipc	a0,0x4fffd
    3000336c:	77050513          	addi	a0,a0,1904 # 80000ad8 <__FUNCTION__.6+0x210>
    30003370:	ac9ff0ef          	jal	ra,30002e38 <rt_assert_handler>
    30003374:	231010ef          	jal	ra,30004da4 <rt_hw_interrupt_disable>
    30003378:	00050913          	mv	s2,a0
    3000337c:	1fd010ef          	jal	ra,30004d78 <rt_interrupt_get_nest>
    30003380:	02050863          	beqz	a0,300033b0 <rt_mutex_take+0x98>
    30003384:	4fffe597          	auipc	a1,0x4fffe
    30003388:	e8458593          	addi	a1,a1,-380 # 80001208 <__FUNCTION__.25>
    3000338c:	4fffd517          	auipc	a0,0x4fffd
    30003390:	72450513          	addi	a0,a0,1828 # 80000ab0 <__FUNCTION__.6+0x1e8>
    30003394:	921ff0ef          	jal	ra,30002cb4 <rt_kprintf>
    30003398:	2aa00613          	li	a2,682
    3000339c:	4fffe597          	auipc	a1,0x4fffe
    300033a0:	e6c58593          	addi	a1,a1,-404 # 80001208 <__FUNCTION__.25>
    300033a4:	4fffd517          	auipc	a0,0x4fffd
    300033a8:	73450513          	addi	a0,a0,1844 # 80000ad8 <__FUNCTION__.6+0x210>
    300033ac:	a8dff0ef          	jal	ra,30002e38 <rt_assert_handler>
    300033b0:	00090513          	mv	a0,s2
    300033b4:	1f9010ef          	jal	ra,30004dac <rt_hw_interrupt_enable>
    300033b8:	00048513          	mv	a0,s1
    300033bc:	1f1010ef          	jal	ra,30004dac <rt_hw_interrupt_enable>
    300033c0:	00041e63          	bnez	s0,300033dc <rt_mutex_take+0xc4>
    300033c4:	2ad00613          	li	a2,685
    300033c8:	4fffe597          	auipc	a1,0x4fffe
    300033cc:	e4058593          	addi	a1,a1,-448 # 80001208 <__FUNCTION__.25>
    300033d0:	4fffe517          	auipc	a0,0x4fffe
    300033d4:	d8850513          	addi	a0,a0,-632 # 80001158 <small_digits.1+0xf0>
    300033d8:	a61ff0ef          	jal	ra,30002e38 <rt_assert_handler>
    300033dc:	00040513          	mv	a0,s0
    300033e0:	2c0010ef          	jal	ra,300046a0 <rt_object_get_type>
    300033e4:	00300793          	li	a5,3
    300033e8:	00f50e63          	beq	a0,a5,30003404 <rt_mutex_take+0xec>
    300033ec:	2ae00613          	li	a2,686
    300033f0:	4fffe597          	auipc	a1,0x4fffe
    300033f4:	e1858593          	addi	a1,a1,-488 # 80001208 <__FUNCTION__.25>
    300033f8:	4fffe517          	auipc	a0,0x4fffe
    300033fc:	d7850513          	addi	a0,a0,-648 # 80001170 <small_digits.1+0x108>
    30003400:	a39ff0ef          	jal	ra,30002e38 <rt_assert_handler>
    30003404:	7a4000ef          	jal	ra,30003ba8 <rt_thread_self>
    30003408:	00050493          	mv	s1,a0
    3000340c:	199010ef          	jal	ra,30004da4 <rt_hw_interrupt_disable>
    30003410:	8d01b783          	ld	a5,-1840(gp) # 800042c8 <rt_object_trytake_hook>
    30003414:	00050913          	mv	s2,a0
    30003418:	00078663          	beqz	a5,30003424 <rt_mutex_take+0x10c>
    3000341c:	00040513          	mv	a0,s0
    30003420:	000780e7          	jalr	a5
    30003424:	04043503          	ld	a0,64(s0)
    30003428:	0604b023          	sd	zero,96(s1)
    3000342c:	02951e63          	bne	a0,s1,30003468 <rt_mutex_take+0x150>
    30003430:	03b44783          	lbu	a5,59(s0)
    30003434:	0ff00713          	li	a4,255
    30003438:	04e78863          	beq	a5,a4,30003488 <rt_mutex_take+0x170>
    3000343c:	0017879b          	addiw	a5,a5,1
    30003440:	02f40da3          	sb	a5,59(s0)
    30003444:	00090513          	mv	a0,s2
    30003448:	165010ef          	jal	ra,30004dac <rt_hw_interrupt_enable>
    3000344c:	8c81b783          	ld	a5,-1848(gp) # 800042c0 <rt_object_take_hook>
    30003450:	00000513          	li	a0,0
    30003454:	04078063          	beqz	a5,30003494 <rt_mutex_take+0x17c>
    30003458:	00040513          	mv	a0,s0
    3000345c:	000780e7          	jalr	a5
    30003460:	00000513          	li	a0,0
    30003464:	0300006f          	j	30003494 <rt_mutex_take+0x17c>
    30003468:	03845783          	lhu	a5,56(s0)
    3000346c:	04078263          	beqz	a5,300034b0 <rt_mutex_take+0x198>
    30003470:	fff7879b          	addiw	a5,a5,-1
    30003474:	02f41c23          	sh	a5,56(s0)
    30003478:	04943023          	sd	s1,64(s0)
    3000347c:	0694c783          	lbu	a5,105(s1)
    30003480:	02f40d23          	sb	a5,58(s0)
    30003484:	fadff06f          	j	30003430 <rt_mutex_take+0x118>
    30003488:	00090513          	mv	a0,s2
    3000348c:	121010ef          	jal	ra,30004dac <rt_hw_interrupt_enable>
    30003490:	ffd00513          	li	a0,-3
    30003494:	03813083          	ld	ra,56(sp)
    30003498:	03013403          	ld	s0,48(sp)
    3000349c:	02813483          	ld	s1,40(sp)
    300034a0:	02013903          	ld	s2,32(sp)
    300034a4:	01813983          	ld	s3,24(sp)
    300034a8:	04010113          	addi	sp,sp,64
    300034ac:	00008067          	ret
    300034b0:	00c12783          	lw	a5,12(sp)
    300034b4:	00079e63          	bnez	a5,300034d0 <rt_mutex_take+0x1b8>
    300034b8:	ffe00793          	li	a5,-2
    300034bc:	00090513          	mv	a0,s2
    300034c0:	06f4b023          	sd	a5,96(s1)
    300034c4:	0e9010ef          	jal	ra,30004dac <rt_hw_interrupt_enable>
    300034c8:	ffe00513          	li	a0,-2
    300034cc:	fc9ff06f          	j	30003494 <rt_mutex_take+0x17c>
    300034d0:	0694c703          	lbu	a4,105(s1)
    300034d4:	06954783          	lbu	a5,105(a0)
    300034d8:	00f77863          	bgeu	a4,a5,300034e8 <rt_mutex_take+0x1d0>
    300034dc:	06948613          	addi	a2,s1,105
    300034e0:	00200593          	li	a1,2
    300034e4:	4c9000ef          	jal	ra,300041ac <rt_thread_control>
    300034e8:	01544603          	lbu	a2,21(s0)
    300034ec:	00048593          	mv	a1,s1
    300034f0:	02840513          	addi	a0,s0,40
    300034f4:	999ff0ef          	jal	ra,30002e8c <rt_ipc_list_suspend.isra.0>
    300034f8:	00c12783          	lw	a5,12(sp)
    300034fc:	02f05063          	blez	a5,3000351c <rt_mutex_take+0x204>
    30003500:	08848993          	addi	s3,s1,136
    30003504:	00c10613          	addi	a2,sp,12
    30003508:	00000593          	li	a1,0
    3000350c:	00098513          	mv	a0,s3
    30003510:	a7cfd0ef          	jal	ra,3000078c <rt_timer_control>
    30003514:	00098513          	mv	a0,s3
    30003518:	844fd0ef          	jal	ra,3000055c <rt_timer_start>
    3000351c:	00090513          	mv	a0,s2
    30003520:	08d010ef          	jal	ra,30004dac <rt_hw_interrupt_enable>
    30003524:	5fc010ef          	jal	ra,30004b20 <rt_schedule>
    30003528:	0604b503          	ld	a0,96(s1)
    3000352c:	f60514e3          	bnez	a0,30003494 <rt_mutex_take+0x17c>
    30003530:	075010ef          	jal	ra,30004da4 <rt_hw_interrupt_disable>
    30003534:	00050913          	mv	s2,a0
    30003538:	f0dff06f          	j	30003444 <rt_mutex_take+0x12c>

000000003000353c <rt_mutex_release>:
    3000353c:	fd010113          	addi	sp,sp,-48
    30003540:	02813023          	sd	s0,32(sp)
    30003544:	02113423          	sd	ra,40(sp)
    30003548:	00913c23          	sd	s1,24(sp)
    3000354c:	01213823          	sd	s2,16(sp)
    30003550:	00050413          	mv	s0,a0
    30003554:	00051e63          	bnez	a0,30003570 <rt_mutex_release+0x34>
    30003558:	35400613          	li	a2,852
    3000355c:	4fffe597          	auipc	a1,0x4fffe
    30003560:	c9458593          	addi	a1,a1,-876 # 800011f0 <__FUNCTION__.24>
    30003564:	4fffe517          	auipc	a0,0x4fffe
    30003568:	bf450513          	addi	a0,a0,-1036 # 80001158 <small_digits.1+0xf0>
    3000356c:	8cdff0ef          	jal	ra,30002e38 <rt_assert_handler>
    30003570:	00040513          	mv	a0,s0
    30003574:	12c010ef          	jal	ra,300046a0 <rt_object_get_type>
    30003578:	00300793          	li	a5,3
    3000357c:	00f50e63          	beq	a0,a5,30003598 <rt_mutex_release+0x5c>
    30003580:	35500613          	li	a2,853
    30003584:	4fffe597          	auipc	a1,0x4fffe
    30003588:	c6c58593          	addi	a1,a1,-916 # 800011f0 <__FUNCTION__.24>
    3000358c:	4fffe517          	auipc	a0,0x4fffe
    30003590:	be450513          	addi	a0,a0,-1052 # 80001170 <small_digits.1+0x108>
    30003594:	8a5ff0ef          	jal	ra,30002e38 <rt_assert_handler>
    30003598:	00d010ef          	jal	ra,30004da4 <rt_hw_interrupt_disable>
    3000359c:	00050493          	mv	s1,a0
    300035a0:	608000ef          	jal	ra,30003ba8 <rt_thread_self>
    300035a4:	02051863          	bnez	a0,300035d4 <rt_mutex_release+0x98>
    300035a8:	4fffe597          	auipc	a1,0x4fffe
    300035ac:	c4858593          	addi	a1,a1,-952 # 800011f0 <__FUNCTION__.24>
    300035b0:	4fffe517          	auipc	a0,0x4fffe
    300035b4:	b7050513          	addi	a0,a0,-1168 # 80001120 <small_digits.1+0xb8>
    300035b8:	efcff0ef          	jal	ra,30002cb4 <rt_kprintf>
    300035bc:	35a00613          	li	a2,858
    300035c0:	4fffe597          	auipc	a1,0x4fffe
    300035c4:	c3058593          	addi	a1,a1,-976 # 800011f0 <__FUNCTION__.24>
    300035c8:	4fffd517          	auipc	a0,0x4fffd
    300035cc:	51050513          	addi	a0,a0,1296 # 80000ad8 <__FUNCTION__.6+0x210>
    300035d0:	869ff0ef          	jal	ra,30002e38 <rt_assert_handler>
    300035d4:	7d0010ef          	jal	ra,30004da4 <rt_hw_interrupt_disable>
    300035d8:	00050913          	mv	s2,a0
    300035dc:	79c010ef          	jal	ra,30004d78 <rt_interrupt_get_nest>
    300035e0:	02050863          	beqz	a0,30003610 <rt_mutex_release+0xd4>
    300035e4:	4fffe597          	auipc	a1,0x4fffe
    300035e8:	c0c58593          	addi	a1,a1,-1012 # 800011f0 <__FUNCTION__.24>
    300035ec:	4fffd517          	auipc	a0,0x4fffd
    300035f0:	4c450513          	addi	a0,a0,1220 # 80000ab0 <__FUNCTION__.6+0x1e8>
    300035f4:	ec0ff0ef          	jal	ra,30002cb4 <rt_kprintf>
    300035f8:	35a00613          	li	a2,858
    300035fc:	4fffe597          	auipc	a1,0x4fffe
    30003600:	bf458593          	addi	a1,a1,-1036 # 800011f0 <__FUNCTION__.24>
    30003604:	4fffd517          	auipc	a0,0x4fffd
    30003608:	4d450513          	addi	a0,a0,1236 # 80000ad8 <__FUNCTION__.6+0x210>
    3000360c:	82dff0ef          	jal	ra,30002e38 <rt_assert_handler>
    30003610:	00090513          	mv	a0,s2
    30003614:	798010ef          	jal	ra,30004dac <rt_hw_interrupt_enable>
    30003618:	00048513          	mv	a0,s1
    3000361c:	790010ef          	jal	ra,30004dac <rt_hw_interrupt_enable>
    30003620:	588000ef          	jal	ra,30003ba8 <rt_thread_self>
    30003624:	00050913          	mv	s2,a0
    30003628:	77c010ef          	jal	ra,30004da4 <rt_hw_interrupt_disable>
    3000362c:	8c01b783          	ld	a5,-1856(gp) # 800042b8 <rt_object_put_hook>
    30003630:	00050493          	mv	s1,a0
    30003634:	00078663          	beqz	a5,30003640 <rt_mutex_release+0x104>
    30003638:	00040513          	mv	a0,s0
    3000363c:	000780e7          	jalr	a5
    30003640:	04043783          	ld	a5,64(s0)
    30003644:	03278863          	beq	a5,s2,30003674 <rt_mutex_release+0x138>
    30003648:	fff00793          	li	a5,-1
    3000364c:	00048513          	mv	a0,s1
    30003650:	06f93023          	sd	a5,96(s2)
    30003654:	758010ef          	jal	ra,30004dac <rt_hw_interrupt_enable>
    30003658:	fff00513          	li	a0,-1
    3000365c:	02813083          	ld	ra,40(sp)
    30003660:	02013403          	ld	s0,32(sp)
    30003664:	01813483          	ld	s1,24(sp)
    30003668:	01013903          	ld	s2,16(sp)
    3000366c:	03010113          	addi	sp,sp,48
    30003670:	00008067          	ret
    30003674:	03b44783          	lbu	a5,59(s0)
    30003678:	fff7879b          	addiw	a5,a5,-1
    3000367c:	0ff7f793          	zext.b	a5,a5
    30003680:	02f40da3          	sb	a5,59(s0)
    30003684:	08079e63          	bnez	a5,30003720 <rt_mutex_release+0x1e4>
    30003688:	03a44703          	lbu	a4,58(s0)
    3000368c:	06994783          	lbu	a5,105(s2)
    30003690:	00f70a63          	beq	a4,a5,300036a4 <rt_mutex_release+0x168>
    30003694:	03a40613          	addi	a2,s0,58
    30003698:	00200593          	li	a1,2
    3000369c:	00090513          	mv	a0,s2
    300036a0:	30d000ef          	jal	ra,300041ac <rt_thread_control>
    300036a4:	02843503          	ld	a0,40(s0)
    300036a8:	02840793          	addi	a5,s0,40
    300036ac:	04f50863          	beq	a0,a5,300036fc <rt_mutex_release+0x1c0>
    300036b0:	fd850793          	addi	a5,a0,-40
    300036b4:	04f43023          	sd	a5,64(s0)
    300036b8:	04154783          	lbu	a5,65(a0)
    300036bc:	0ff00713          	li	a4,255
    300036c0:	02f40d23          	sb	a5,58(s0)
    300036c4:	03b44783          	lbu	a5,59(s0)
    300036c8:	06e78063          	beq	a5,a4,30003728 <rt_mutex_release+0x1ec>
    300036cc:	0017879b          	addiw	a5,a5,1
    300036d0:	02f40da3          	sb	a5,59(s0)
    300036d4:	fb0ff0ef          	jal	ra,30002e84 <rt_ipc_list_resume.isra.0>
    300036d8:	00100413          	li	s0,1
    300036dc:	00048513          	mv	a0,s1
    300036e0:	6cc010ef          	jal	ra,30004dac <rt_hw_interrupt_enable>
    300036e4:	00000513          	li	a0,0
    300036e8:	f6040ae3          	beqz	s0,3000365c <rt_mutex_release+0x120>
    300036ec:	00a13423          	sd	a0,8(sp)
    300036f0:	430010ef          	jal	ra,30004b20 <rt_schedule>
    300036f4:	00813503          	ld	a0,8(sp)
    300036f8:	f65ff06f          	j	3000365c <rt_mutex_release+0x120>
    300036fc:	03845783          	lhu	a5,56(s0)
    30003700:	00010737          	lui	a4,0x10
    30003704:	fff70713          	addi	a4,a4,-1 # ffff <__stack_size+0xf7ff>
    30003708:	02e78063          	beq	a5,a4,30003728 <rt_mutex_release+0x1ec>
    3000370c:	0017879b          	addiw	a5,a5,1
    30003710:	02f41c23          	sh	a5,56(s0)
    30003714:	fff00793          	li	a5,-1
    30003718:	04043023          	sd	zero,64(s0)
    3000371c:	02f40d23          	sb	a5,58(s0)
    30003720:	00000413          	li	s0,0
    30003724:	fb9ff06f          	j	300036dc <rt_mutex_release+0x1a0>
    30003728:	00048513          	mv	a0,s1
    3000372c:	680010ef          	jal	ra,30004dac <rt_hw_interrupt_enable>
    30003730:	ffd00513          	li	a0,-3
    30003734:	f29ff06f          	j	3000365c <rt_mutex_release+0x120>

0000000030003738 <rt_tick_get>:
    30003738:	8901a503          	lw	a0,-1904(gp) # 80004288 <rt_tick>
    3000373c:	00008067          	ret

0000000030003740 <rt_tick_increase>:
    30003740:	ff010113          	addi	sp,sp,-16
    30003744:	00113423          	sd	ra,8(sp)
    30003748:	00813023          	sd	s0,0(sp)
    3000374c:	658010ef          	jal	ra,30004da4 <rt_hw_interrupt_disable>
    30003750:	8901a783          	lw	a5,-1904(gp) # 80004288 <rt_tick>
    30003754:	0017879b          	addiw	a5,a5,1
    30003758:	88f1a823          	sw	a5,-1904(gp) # 80004288 <rt_tick>
    3000375c:	00050413          	mv	s0,a0
    30003760:	448000ef          	jal	ra,30003ba8 <rt_thread_self>
    30003764:	08053783          	ld	a5,128(a0)
    30003768:	fff78793          	addi	a5,a5,-1
    3000376c:	08f53023          	sd	a5,128(a0)
    30003770:	02079a63          	bnez	a5,300037a4 <rt_tick_increase+0x64>
    30003774:	07853783          	ld	a5,120(a0)
    30003778:	08f53023          	sd	a5,128(a0)
    3000377c:	06854783          	lbu	a5,104(a0)
    30003780:	0087e793          	ori	a5,a5,8
    30003784:	06f50423          	sb	a5,104(a0)
    30003788:	00040513          	mv	a0,s0
    3000378c:	620010ef          	jal	ra,30004dac <rt_hw_interrupt_enable>
    30003790:	390010ef          	jal	ra,30004b20 <rt_schedule>
    30003794:	00013403          	ld	s0,0(sp)
    30003798:	00813083          	ld	ra,8(sp)
    3000379c:	01010113          	addi	sp,sp,16
    300037a0:	8e4fd06f          	j	30000884 <rt_timer_check>
    300037a4:	00040513          	mv	a0,s0
    300037a8:	604010ef          	jal	ra,30004dac <rt_hw_interrupt_enable>
    300037ac:	fe9ff06f          	j	30003794 <rt_tick_increase+0x54>

00000000300037b0 <rt_tick_from_millisecond>:
    300037b0:	06054c63          	bltz	a0,30003828 <rt_tick_from_millisecond+0x78>
    300037b4:	fe010113          	addi	sp,sp,-32
    300037b8:	3e800593          	li	a1,1000
    300037bc:	00113c23          	sd	ra,24(sp)
    300037c0:	00813823          	sd	s0,16(sp)
    300037c4:	00913423          	sd	s1,8(sp)
    300037c8:	00050493          	mv	s1,a0
    300037cc:	19d010ef          	jal	ra,30005168 <__divdi3>
    300037d0:	0015141b          	slliw	s0,a0,0x1
    300037d4:	00a4043b          	addw	s0,s0,a0
    300037d8:	0034141b          	slliw	s0,s0,0x3
    300037dc:	00a4043b          	addw	s0,s0,a0
    300037e0:	3e800593          	li	a1,1000
    300037e4:	00048513          	mv	a0,s1
    300037e8:	205010ef          	jal	ra,300051ec <__moddi3>
    300037ec:	0015179b          	slliw	a5,a0,0x1
    300037f0:	00a787bb          	addw	a5,a5,a0
    300037f4:	0037979b          	slliw	a5,a5,0x3
    300037f8:	00a7853b          	addw	a0,a5,a0
    300037fc:	0025151b          	slliw	a0,a0,0x2
    30003800:	3e800593          	li	a1,1000
    30003804:	3e75051b          	addiw	a0,a0,999
    30003808:	161010ef          	jal	ra,30005168 <__divdi3>
    3000380c:	0024141b          	slliw	s0,s0,0x2
    30003810:	01813083          	ld	ra,24(sp)
    30003814:	00a4053b          	addw	a0,s0,a0
    30003818:	01013403          	ld	s0,16(sp)
    3000381c:	00813483          	ld	s1,8(sp)
    30003820:	02010113          	addi	sp,sp,32
    30003824:	00008067          	ret
    30003828:	fff00513          	li	a0,-1
    3000382c:	00008067          	ret

0000000030003830 <_rt_thread_cleanup_execute>:
    30003830:	fe010113          	addi	sp,sp,-32
    30003834:	00813823          	sd	s0,16(sp)
    30003838:	00913423          	sd	s1,8(sp)
    3000383c:	00050413          	mv	s0,a0
    30003840:	00113c23          	sd	ra,24(sp)
    30003844:	560010ef          	jal	ra,30004da4 <rt_hw_interrupt_disable>
    30003848:	0d843783          	ld	a5,216(s0)
    3000384c:	00050493          	mv	s1,a0
    30003850:	00078663          	beqz	a5,3000385c <_rt_thread_cleanup_execute+0x2c>
    30003854:	00040513          	mv	a0,s0
    30003858:	000780e7          	jalr	a5
    3000385c:	01013403          	ld	s0,16(sp)
    30003860:	01813083          	ld	ra,24(sp)
    30003864:	00048513          	mv	a0,s1
    30003868:	00813483          	ld	s1,8(sp)
    3000386c:	02010113          	addi	sp,sp,32
    30003870:	53c0106f          	j	30004dac <rt_hw_interrupt_enable>

0000000030003874 <_rt_thread_exit>:
    30003874:	fe010113          	addi	sp,sp,-32
    30003878:	00113c23          	sd	ra,24(sp)
    3000387c:	00813823          	sd	s0,16(sp)
    30003880:	00913423          	sd	s1,8(sp)
    30003884:	8e01b403          	ld	s0,-1824(gp) # 800042d8 <rt_current_thread>
    30003888:	51c010ef          	jal	ra,30004da4 <rt_hw_interrupt_disable>
    3000388c:	00050493          	mv	s1,a0
    30003890:	00040513          	mv	a0,s0
    30003894:	f9dff0ef          	jal	ra,30003830 <_rt_thread_cleanup_execute>
    30003898:	00040513          	mv	a0,s0
    3000389c:	17c010ef          	jal	ra,30004a18 <rt_schedule_remove_thread>
    300038a0:	00400793          	li	a5,4
    300038a4:	06f40423          	sb	a5,104(s0)
    300038a8:	08840513          	addi	a0,s0,136
    300038ac:	bf1fc0ef          	jal	ra,3000049c <rt_timer_detach>
    300038b0:	00040513          	mv	a0,s0
    300038b4:	5a9000ef          	jal	ra,3000465c <rt_object_is_systemobject>
    300038b8:	00100793          	li	a5,1
    300038bc:	02f51463          	bne	a0,a5,300038e4 <_rt_thread_exit+0x70>
    300038c0:	00040513          	mv	a0,s0
    300038c4:	37d000ef          	jal	ra,30004440 <rt_object_detach>
    300038c8:	258010ef          	jal	ra,30004b20 <rt_schedule>
    300038cc:	01013403          	ld	s0,16(sp)
    300038d0:	01813083          	ld	ra,24(sp)
    300038d4:	00048513          	mv	a0,s1
    300038d8:	00813483          	ld	s1,8(sp)
    300038dc:	02010113          	addi	sp,sp,32
    300038e0:	4cc0106f          	j	30004dac <rt_hw_interrupt_enable>
    300038e4:	00040513          	mv	a0,s0
    300038e8:	d00fe0ef          	jal	ra,30001de8 <rt_thread_defunct_enqueue>
    300038ec:	fddff06f          	j	300038c8 <_rt_thread_exit+0x54>

00000000300038f0 <_rt_thread_init.constprop.0>:
    300038f0:	fe010113          	addi	sp,sp,-32
    300038f4:	00813823          	sd	s0,16(sp)
    300038f8:	00050413          	mv	s0,a0
    300038fc:	00913423          	sd	s1,8(sp)
    30003900:	04c43423          	sd	a2,72(s0)
    30003904:	00078493          	mv	s1,a5
    30003908:	02071613          	slli	a2,a4,0x20
    3000390c:	02840793          	addi	a5,s0,40
    30003910:	00068513          	mv	a0,a3
    30003914:	02f43823          	sd	a5,48(s0)
    30003918:	02f43423          	sd	a5,40(s0)
    3000391c:	04b43023          	sd	a1,64(s0)
    30003920:	04d43823          	sd	a3,80(s0)
    30003924:	04e42c23          	sw	a4,88(s0)
    30003928:	02065613          	srli	a2,a2,0x20
    3000392c:	02300593          	li	a1,35
    30003930:	00113c23          	sd	ra,24(sp)
    30003934:	01213023          	sd	s2,0(sp)
    30003938:	00080913          	mv	s2,a6
    3000393c:	9c5fe0ef          	jal	ra,30002300 <rt_memset>
    30003940:	05846783          	lwu	a5,88(s0)
    30003944:	05043603          	ld	a2,80(s0)
    30003948:	04843583          	ld	a1,72(s0)
    3000394c:	04043503          	ld	a0,64(s0)
    30003950:	ff878793          	addi	a5,a5,-8
    30003954:	00f60633          	add	a2,a2,a5
    30003958:	00000697          	auipc	a3,0x0
    3000395c:	f1c68693          	addi	a3,a3,-228 # 30003874 <_rt_thread_exit>
    30003960:	62c010ef          	jal	ra,30004f8c <rt_hw_stack_init>
    30003964:	02a43c23          	sd	a0,56(s0)
    30003968:	01f00793          	li	a5,31
    3000396c:	0097fe63          	bgeu	a5,s1,30003988 <_rt_thread_init.constprop.0+0x98>
    30003970:	0ae00613          	li	a2,174
    30003974:	4fffe597          	auipc	a1,0x4fffe
    30003978:	b6c58593          	addi	a1,a1,-1172 # 800014e0 <__FUNCTION__.9>
    3000397c:	4fffe517          	auipc	a0,0x4fffe
    30003980:	8f450513          	addi	a0,a0,-1804 # 80001270 <__FUNCTION__.37+0x10>
    30003984:	cb4ff0ef          	jal	ra,30002e38 <rt_assert_handler>
    30003988:	02091813          	slli	a6,s2,0x20
    3000398c:	02085813          	srli	a6,a6,0x20
    30003990:	00000793          	li	a5,0
    30003994:	06940523          	sb	s1,106(s0)
    30003998:	069404a3          	sb	s1,105(s0)
    3000399c:	06042623          	sw	zero,108(s0)
    300039a0:	07043c23          	sd	a6,120(s0)
    300039a4:	09043023          	sd	a6,128(s0)
    300039a8:	06043023          	sd	zero,96(s0)
    300039ac:	06040423          	sb	zero,104(s0)
    300039b0:	0c043c23          	sd	zero,216(s0)
    300039b4:	0e043023          	sd	zero,224(s0)
    300039b8:	00000713          	li	a4,0
    300039bc:	00040693          	mv	a3,s0
    300039c0:	00000617          	auipc	a2,0x0
    300039c4:	04060613          	addi	a2,a2,64 # 30003a00 <rt_thread_timeout>
    300039c8:	00040593          	mv	a1,s0
    300039cc:	08840513          	addi	a0,s0,136
    300039d0:	a21fc0ef          	jal	ra,300003f0 <rt_timer_init>
    300039d4:	8981b783          	ld	a5,-1896(gp) # 80004290 <rt_thread_inited_hook>
    300039d8:	00078663          	beqz	a5,300039e4 <_rt_thread_init.constprop.0+0xf4>
    300039dc:	00040513          	mv	a0,s0
    300039e0:	000780e7          	jalr	a5
    300039e4:	01813083          	ld	ra,24(sp)
    300039e8:	01013403          	ld	s0,16(sp)
    300039ec:	00813483          	ld	s1,8(sp)
    300039f0:	00013903          	ld	s2,0(sp)
    300039f4:	00000513          	li	a0,0
    300039f8:	02010113          	addi	sp,sp,32
    300039fc:	00008067          	ret

0000000030003a00 <rt_thread_timeout>:
    30003a00:	fe010113          	addi	sp,sp,-32
    30003a04:	00813823          	sd	s0,16(sp)
    30003a08:	00113c23          	sd	ra,24(sp)
    30003a0c:	00913423          	sd	s1,8(sp)
    30003a10:	00050413          	mv	s0,a0
    30003a14:	00051e63          	bnez	a0,30003a30 <rt_thread_timeout+0x30>
    30003a18:	37600613          	li	a2,886
    30003a1c:	4fffe597          	auipc	a1,0x4fffe
    30003a20:	9fc58593          	addi	a1,a1,-1540 # 80001418 <__FUNCTION__.0>
    30003a24:	4fffe517          	auipc	a0,0x4fffe
    30003a28:	87450513          	addi	a0,a0,-1932 # 80001298 <__FUNCTION__.37+0x38>
    30003a2c:	c0cff0ef          	jal	ra,30002e38 <rt_assert_handler>
    30003a30:	06844783          	lbu	a5,104(s0)
    30003a34:	00200713          	li	a4,2
    30003a38:	0077f793          	andi	a5,a5,7
    30003a3c:	00e78e63          	beq	a5,a4,30003a58 <rt_thread_timeout+0x58>
    30003a40:	37700613          	li	a2,887
    30003a44:	4fffe597          	auipc	a1,0x4fffe
    30003a48:	9d458593          	addi	a1,a1,-1580 # 80001418 <__FUNCTION__.0>
    30003a4c:	4fffe517          	auipc	a0,0x4fffe
    30003a50:	86450513          	addi	a0,a0,-1948 # 800012b0 <__FUNCTION__.37+0x50>
    30003a54:	be4ff0ef          	jal	ra,30002e38 <rt_assert_handler>
    30003a58:	00040513          	mv	a0,s0
    30003a5c:	445000ef          	jal	ra,300046a0 <rt_object_get_type>
    30003a60:	00100793          	li	a5,1
    30003a64:	00f50e63          	beq	a0,a5,30003a80 <rt_thread_timeout+0x80>
    30003a68:	37800613          	li	a2,888
    30003a6c:	4fffe597          	auipc	a1,0x4fffe
    30003a70:	9ac58593          	addi	a1,a1,-1620 # 80001418 <__FUNCTION__.0>
    30003a74:	4fffe517          	auipc	a0,0x4fffe
    30003a78:	87c50513          	addi	a0,a0,-1924 # 800012f0 <__FUNCTION__.37+0x90>
    30003a7c:	bbcff0ef          	jal	ra,30002e38 <rt_assert_handler>
    30003a80:	324010ef          	jal	ra,30004da4 <rt_hw_interrupt_disable>
    30003a84:	02843683          	ld	a3,40(s0)
    30003a88:	03043703          	ld	a4,48(s0)
    30003a8c:	ffe00793          	li	a5,-2
    30003a90:	06f43023          	sd	a5,96(s0)
    30003a94:	00e6b423          	sd	a4,8(a3)
    30003a98:	02840793          	addi	a5,s0,40
    30003a9c:	00d73023          	sd	a3,0(a4)
    30003aa0:	00050493          	mv	s1,a0
    30003aa4:	02f43823          	sd	a5,48(s0)
    30003aa8:	02f43423          	sd	a5,40(s0)
    30003aac:	00040513          	mv	a0,s0
    30003ab0:	6c5000ef          	jal	ra,30004974 <rt_schedule_insert_thread>
    30003ab4:	00048513          	mv	a0,s1
    30003ab8:	2f4010ef          	jal	ra,30004dac <rt_hw_interrupt_enable>
    30003abc:	01013403          	ld	s0,16(sp)
    30003ac0:	01813083          	ld	ra,24(sp)
    30003ac4:	00813483          	ld	s1,8(sp)
    30003ac8:	02010113          	addi	sp,sp,32
    30003acc:	0540106f          	j	30004b20 <rt_schedule>

0000000030003ad0 <rt_thread_init>:
    30003ad0:	fb010113          	addi	sp,sp,-80
    30003ad4:	04813023          	sd	s0,64(sp)
    30003ad8:	02913c23          	sd	s1,56(sp)
    30003adc:	03213823          	sd	s2,48(sp)
    30003ae0:	03313423          	sd	s3,40(sp)
    30003ae4:	03413023          	sd	s4,32(sp)
    30003ae8:	01513c23          	sd	s5,24(sp)
    30003aec:	01613823          	sd	s6,16(sp)
    30003af0:	01713423          	sd	s7,8(sp)
    30003af4:	04113423          	sd	ra,72(sp)
    30003af8:	00050413          	mv	s0,a0
    30003afc:	00058b93          	mv	s7,a1
    30003b00:	00060913          	mv	s2,a2
    30003b04:	00068993          	mv	s3,a3
    30003b08:	00070493          	mv	s1,a4
    30003b0c:	00078a13          	mv	s4,a5
    30003b10:	00080a93          	mv	s5,a6
    30003b14:	00088b13          	mv	s6,a7
    30003b18:	00051e63          	bnez	a0,30003b34 <rt_thread_init+0x64>
    30003b1c:	10f00613          	li	a2,271
    30003b20:	4fffe597          	auipc	a1,0x4fffe
    30003b24:	92858593          	addi	a1,a1,-1752 # 80001448 <__FUNCTION__.10>
    30003b28:	4fffd517          	auipc	a0,0x4fffd
    30003b2c:	77050513          	addi	a0,a0,1904 # 80001298 <__FUNCTION__.37+0x38>
    30003b30:	b08ff0ef          	jal	ra,30002e38 <rt_assert_handler>
    30003b34:	00049e63          	bnez	s1,30003b50 <rt_thread_init+0x80>
    30003b38:	11000613          	li	a2,272
    30003b3c:	4fffe597          	auipc	a1,0x4fffe
    30003b40:	90c58593          	addi	a1,a1,-1780 # 80001448 <__FUNCTION__.10>
    30003b44:	4fffd517          	auipc	a0,0x4fffd
    30003b48:	7f450513          	addi	a0,a0,2036 # 80001338 <__FUNCTION__.37+0xd8>
    30003b4c:	aecff0ef          	jal	ra,30002e38 <rt_assert_handler>
    30003b50:	000b8613          	mv	a2,s7
    30003b54:	00040513          	mv	a0,s0
    30003b58:	00100593          	li	a1,1
    30003b5c:	7d4000ef          	jal	ra,30004330 <rt_object_init>
    30003b60:	00040513          	mv	a0,s0
    30003b64:	04013403          	ld	s0,64(sp)
    30003b68:	04813083          	ld	ra,72(sp)
    30003b6c:	00813b83          	ld	s7,8(sp)
    30003b70:	000b0813          	mv	a6,s6
    30003b74:	000a8793          	mv	a5,s5
    30003b78:	01013b03          	ld	s6,16(sp)
    30003b7c:	01813a83          	ld	s5,24(sp)
    30003b80:	000a0713          	mv	a4,s4
    30003b84:	00048693          	mv	a3,s1
    30003b88:	02013a03          	ld	s4,32(sp)
    30003b8c:	03813483          	ld	s1,56(sp)
    30003b90:	00098613          	mv	a2,s3
    30003b94:	00090593          	mv	a1,s2
    30003b98:	02813983          	ld	s3,40(sp)
    30003b9c:	03013903          	ld	s2,48(sp)
    30003ba0:	05010113          	addi	sp,sp,80
    30003ba4:	d4dff06f          	j	300038f0 <_rt_thread_init.constprop.0>

0000000030003ba8 <rt_thread_self>:
    30003ba8:	8e01b503          	ld	a0,-1824(gp) # 800042d8 <rt_current_thread>
    30003bac:	00008067          	ret

0000000030003bb0 <rt_thread_detach>:
    30003bb0:	fe010113          	addi	sp,sp,-32
    30003bb4:	00813823          	sd	s0,16(sp)
    30003bb8:	00113c23          	sd	ra,24(sp)
    30003bbc:	00913423          	sd	s1,8(sp)
    30003bc0:	00050413          	mv	s0,a0
    30003bc4:	00051e63          	bnez	a0,30003be0 <rt_thread_detach+0x30>
    30003bc8:	17200613          	li	a2,370
    30003bcc:	4fffe597          	auipc	a1,0x4fffe
    30003bd0:	8e458593          	addi	a1,a1,-1820 # 800014b0 <__FUNCTION__.7>
    30003bd4:	4fffd517          	auipc	a0,0x4fffd
    30003bd8:	6c450513          	addi	a0,a0,1732 # 80001298 <__FUNCTION__.37+0x38>
    30003bdc:	a5cff0ef          	jal	ra,30002e38 <rt_assert_handler>
    30003be0:	00040513          	mv	a0,s0
    30003be4:	2bd000ef          	jal	ra,300046a0 <rt_object_get_type>
    30003be8:	00100793          	li	a5,1
    30003bec:	00f50e63          	beq	a0,a5,30003c08 <rt_thread_detach+0x58>
    30003bf0:	17300613          	li	a2,371
    30003bf4:	4fffe597          	auipc	a1,0x4fffe
    30003bf8:	8bc58593          	addi	a1,a1,-1860 # 800014b0 <__FUNCTION__.7>
    30003bfc:	4fffd517          	auipc	a0,0x4fffd
    30003c00:	6f450513          	addi	a0,a0,1780 # 800012f0 <__FUNCTION__.37+0x90>
    30003c04:	a34ff0ef          	jal	ra,30002e38 <rt_assert_handler>
    30003c08:	00040513          	mv	a0,s0
    30003c0c:	251000ef          	jal	ra,3000465c <rt_object_is_systemobject>
    30003c10:	00051e63          	bnez	a0,30003c2c <rt_thread_detach+0x7c>
    30003c14:	17400613          	li	a2,372
    30003c18:	4fffe597          	auipc	a1,0x4fffe
    30003c1c:	89858593          	addi	a1,a1,-1896 # 800014b0 <__FUNCTION__.7>
    30003c20:	4fffd517          	auipc	a0,0x4fffd
    30003c24:	73050513          	addi	a0,a0,1840 # 80001350 <__FUNCTION__.37+0xf0>
    30003c28:	a10ff0ef          	jal	ra,30002e38 <rt_assert_handler>
    30003c2c:	06844783          	lbu	a5,104(s0)
    30003c30:	00400713          	li	a4,4
    30003c34:	0077f793          	andi	a5,a5,7
    30003c38:	04e78063          	beq	a5,a4,30003c78 <rt_thread_detach+0xc8>
    30003c3c:	00078663          	beqz	a5,30003c48 <rt_thread_detach+0x98>
    30003c40:	00040513          	mv	a0,s0
    30003c44:	5d5000ef          	jal	ra,30004a18 <rt_schedule_remove_thread>
    30003c48:	00040513          	mv	a0,s0
    30003c4c:	be5ff0ef          	jal	ra,30003830 <_rt_thread_cleanup_execute>
    30003c50:	08840513          	addi	a0,s0,136
    30003c54:	849fc0ef          	jal	ra,3000049c <rt_timer_detach>
    30003c58:	00400793          	li	a5,4
    30003c5c:	06f40423          	sb	a5,104(s0)
    30003c60:	00040513          	mv	a0,s0
    30003c64:	1f9000ef          	jal	ra,3000465c <rt_object_is_systemobject>
    30003c68:	00100793          	li	a5,1
    30003c6c:	02f51263          	bne	a0,a5,30003c90 <rt_thread_detach+0xe0>
    30003c70:	00040513          	mv	a0,s0
    30003c74:	7cc000ef          	jal	ra,30004440 <rt_object_detach>
    30003c78:	01813083          	ld	ra,24(sp)
    30003c7c:	01013403          	ld	s0,16(sp)
    30003c80:	00813483          	ld	s1,8(sp)
    30003c84:	00000513          	li	a0,0
    30003c88:	02010113          	addi	sp,sp,32
    30003c8c:	00008067          	ret
    30003c90:	114010ef          	jal	ra,30004da4 <rt_hw_interrupt_disable>
    30003c94:	00050493          	mv	s1,a0
    30003c98:	00040513          	mv	a0,s0
    30003c9c:	94cfe0ef          	jal	ra,30001de8 <rt_thread_defunct_enqueue>
    30003ca0:	00048513          	mv	a0,s1
    30003ca4:	108010ef          	jal	ra,30004dac <rt_hw_interrupt_enable>
    30003ca8:	fd1ff06f          	j	30003c78 <rt_thread_detach+0xc8>

0000000030003cac <rt_thread_create>:
    30003cac:	fc010113          	addi	sp,sp,-64
    30003cb0:	03213023          	sd	s2,32(sp)
    30003cb4:	00058913          	mv	s2,a1
    30003cb8:	00050593          	mv	a1,a0
    30003cbc:	00100513          	li	a0,1
    30003cc0:	02813823          	sd	s0,48(sp)
    30003cc4:	02913423          	sd	s1,40(sp)
    30003cc8:	01313c23          	sd	s3,24(sp)
    30003ccc:	01413823          	sd	s4,16(sp)
    30003cd0:	01513423          	sd	s5,8(sp)
    30003cd4:	02113c23          	sd	ra,56(sp)
    30003cd8:	00060993          	mv	s3,a2
    30003cdc:	00068493          	mv	s1,a3
    30003ce0:	00070a13          	mv	s4,a4
    30003ce4:	00078a93          	mv	s5,a5
    30003ce8:	7c8000ef          	jal	ra,300044b0 <rt_object_allocate>
    30003cec:	00050413          	mv	s0,a0
    30003cf0:	02050263          	beqz	a0,30003d14 <rt_thread_create+0x68>
    30003cf4:	02049513          	slli	a0,s1,0x20
    30003cf8:	02055513          	srli	a0,a0,0x20
    30003cfc:	a05fd0ef          	jal	ra,30001700 <rt_malloc>
    30003d00:	00050693          	mv	a3,a0
    30003d04:	02051c63          	bnez	a0,30003d3c <rt_thread_create+0x90>
    30003d08:	00040513          	mv	a0,s0
    30003d0c:	0b9000ef          	jal	ra,300045c4 <rt_object_delete>
    30003d10:	00000413          	li	s0,0
    30003d14:	03813083          	ld	ra,56(sp)
    30003d18:	00040513          	mv	a0,s0
    30003d1c:	03013403          	ld	s0,48(sp)
    30003d20:	02813483          	ld	s1,40(sp)
    30003d24:	02013903          	ld	s2,32(sp)
    30003d28:	01813983          	ld	s3,24(sp)
    30003d2c:	01013a03          	ld	s4,16(sp)
    30003d30:	00813a83          	ld	s5,8(sp)
    30003d34:	04010113          	addi	sp,sp,64
    30003d38:	00008067          	ret
    30003d3c:	000a8813          	mv	a6,s5
    30003d40:	000a0793          	mv	a5,s4
    30003d44:	00048713          	mv	a4,s1
    30003d48:	00098613          	mv	a2,s3
    30003d4c:	00090593          	mv	a1,s2
    30003d50:	00040513          	mv	a0,s0
    30003d54:	b9dff0ef          	jal	ra,300038f0 <_rt_thread_init.constprop.0>
    30003d58:	fbdff06f          	j	30003d14 <rt_thread_create+0x68>

0000000030003d5c <rt_thread_delete>:
    30003d5c:	fe010113          	addi	sp,sp,-32
    30003d60:	00813823          	sd	s0,16(sp)
    30003d64:	00113c23          	sd	ra,24(sp)
    30003d68:	00913423          	sd	s1,8(sp)
    30003d6c:	00050413          	mv	s0,a0
    30003d70:	00051e63          	bnez	a0,30003d8c <rt_thread_delete+0x30>
    30003d74:	1d900613          	li	a2,473
    30003d78:	4fffd597          	auipc	a1,0x4fffd
    30003d7c:	72058593          	addi	a1,a1,1824 # 80001498 <__FUNCTION__.6>
    30003d80:	4fffd517          	auipc	a0,0x4fffd
    30003d84:	51850513          	addi	a0,a0,1304 # 80001298 <__FUNCTION__.37+0x38>
    30003d88:	8b0ff0ef          	jal	ra,30002e38 <rt_assert_handler>
    30003d8c:	00040513          	mv	a0,s0
    30003d90:	111000ef          	jal	ra,300046a0 <rt_object_get_type>
    30003d94:	00100793          	li	a5,1
    30003d98:	00f50e63          	beq	a0,a5,30003db4 <rt_thread_delete+0x58>
    30003d9c:	1da00613          	li	a2,474
    30003da0:	4fffd597          	auipc	a1,0x4fffd
    30003da4:	6f858593          	addi	a1,a1,1784 # 80001498 <__FUNCTION__.6>
    30003da8:	4fffd517          	auipc	a0,0x4fffd
    30003dac:	54850513          	addi	a0,a0,1352 # 800012f0 <__FUNCTION__.37+0x90>
    30003db0:	888ff0ef          	jal	ra,30002e38 <rt_assert_handler>
    30003db4:	00040513          	mv	a0,s0
    30003db8:	0a5000ef          	jal	ra,3000465c <rt_object_is_systemobject>
    30003dbc:	00050e63          	beqz	a0,30003dd8 <rt_thread_delete+0x7c>
    30003dc0:	1db00613          	li	a2,475
    30003dc4:	4fffd597          	auipc	a1,0x4fffd
    30003dc8:	6d458593          	addi	a1,a1,1748 # 80001498 <__FUNCTION__.6>
    30003dcc:	4fffd517          	auipc	a0,0x4fffd
    30003dd0:	5b450513          	addi	a0,a0,1460 # 80001380 <__FUNCTION__.37+0x120>
    30003dd4:	864ff0ef          	jal	ra,30002e38 <rt_assert_handler>
    30003dd8:	06844783          	lbu	a5,104(s0)
    30003ddc:	00400713          	li	a4,4
    30003de0:	0077f793          	andi	a5,a5,7
    30003de4:	04e78063          	beq	a5,a4,30003e24 <rt_thread_delete+0xc8>
    30003de8:	00078663          	beqz	a5,30003df4 <rt_thread_delete+0x98>
    30003dec:	00040513          	mv	a0,s0
    30003df0:	429000ef          	jal	ra,30004a18 <rt_schedule_remove_thread>
    30003df4:	00040513          	mv	a0,s0
    30003df8:	a39ff0ef          	jal	ra,30003830 <_rt_thread_cleanup_execute>
    30003dfc:	08840513          	addi	a0,s0,136
    30003e00:	e9cfc0ef          	jal	ra,3000049c <rt_timer_detach>
    30003e04:	7a1000ef          	jal	ra,30004da4 <rt_hw_interrupt_disable>
    30003e08:	00400793          	li	a5,4
    30003e0c:	00050493          	mv	s1,a0
    30003e10:	06f40423          	sb	a5,104(s0)
    30003e14:	00040513          	mv	a0,s0
    30003e18:	fd1fd0ef          	jal	ra,30001de8 <rt_thread_defunct_enqueue>
    30003e1c:	00048513          	mv	a0,s1
    30003e20:	78d000ef          	jal	ra,30004dac <rt_hw_interrupt_enable>
    30003e24:	01813083          	ld	ra,24(sp)
    30003e28:	01013403          	ld	s0,16(sp)
    30003e2c:	00813483          	ld	s1,8(sp)
    30003e30:	00000513          	li	a0,0
    30003e34:	02010113          	addi	sp,sp,32
    30003e38:	00008067          	ret

0000000030003e3c <rt_thread_suspend>:
    30003e3c:	fe010113          	addi	sp,sp,-32
    30003e40:	00813823          	sd	s0,16(sp)
    30003e44:	00113c23          	sd	ra,24(sp)
    30003e48:	00913423          	sd	s1,8(sp)
    30003e4c:	01213023          	sd	s2,0(sp)
    30003e50:	00050413          	mv	s0,a0
    30003e54:	00051e63          	bnez	a0,30003e70 <rt_thread_suspend+0x34>
    30003e58:	31800613          	li	a2,792
    30003e5c:	4fffd597          	auipc	a1,0x4fffd
    30003e60:	5fc58593          	addi	a1,a1,1532 # 80001458 <__FUNCTION__.2>
    30003e64:	4fffd517          	auipc	a0,0x4fffd
    30003e68:	43450513          	addi	a0,a0,1076 # 80001298 <__FUNCTION__.37+0x38>
    30003e6c:	fcdfe0ef          	jal	ra,30002e38 <rt_assert_handler>
    30003e70:	00040513          	mv	a0,s0
    30003e74:	02d000ef          	jal	ra,300046a0 <rt_object_get_type>
    30003e78:	00100793          	li	a5,1
    30003e7c:	00f50e63          	beq	a0,a5,30003e98 <rt_thread_suspend+0x5c>
    30003e80:	31900613          	li	a2,793
    30003e84:	4fffd597          	auipc	a1,0x4fffd
    30003e88:	5d458593          	addi	a1,a1,1492 # 80001458 <__FUNCTION__.2>
    30003e8c:	4fffd517          	auipc	a0,0x4fffd
    30003e90:	46450513          	addi	a0,a0,1124 # 800012f0 <__FUNCTION__.37+0x90>
    30003e94:	fa5fe0ef          	jal	ra,30002e38 <rt_assert_handler>
    30003e98:	06844783          	lbu	a5,104(s0)
    30003e9c:	00100713          	li	a4,1
    30003ea0:	fff00513          	li	a0,-1
    30003ea4:	0077f913          	andi	s2,a5,7
    30003ea8:	0057f793          	andi	a5,a5,5
    30003eac:	06e79a63          	bne	a5,a4,30003f20 <rt_thread_suspend+0xe4>
    30003eb0:	6f5000ef          	jal	ra,30004da4 <rt_hw_interrupt_disable>
    30003eb4:	00300793          	li	a5,3
    30003eb8:	00050493          	mv	s1,a0
    30003ebc:	02f91263          	bne	s2,a5,30003ee0 <rt_thread_suspend+0xa4>
    30003ec0:	8e01b783          	ld	a5,-1824(gp) # 800042d8 <rt_current_thread>
    30003ec4:	00f40e63          	beq	s0,a5,30003ee0 <rt_thread_suspend+0xa4>
    30003ec8:	32a00613          	li	a2,810
    30003ecc:	4fffd597          	auipc	a1,0x4fffd
    30003ed0:	58c58593          	addi	a1,a1,1420 # 80001458 <__FUNCTION__.2>
    30003ed4:	4fffd517          	auipc	a0,0x4fffd
    30003ed8:	4ec50513          	addi	a0,a0,1260 # 800013c0 <__FUNCTION__.37+0x160>
    30003edc:	f5dfe0ef          	jal	ra,30002e38 <rt_assert_handler>
    30003ee0:	00040513          	mv	a0,s0
    30003ee4:	335000ef          	jal	ra,30004a18 <rt_schedule_remove_thread>
    30003ee8:	06844783          	lbu	a5,104(s0)
    30003eec:	08840513          	addi	a0,s0,136
    30003ef0:	ff87f793          	andi	a5,a5,-8
    30003ef4:	0027e793          	ori	a5,a5,2
    30003ef8:	06f40423          	sb	a5,104(s0)
    30003efc:	fdcfc0ef          	jal	ra,300006d8 <rt_timer_stop>
    30003f00:	00048513          	mv	a0,s1
    30003f04:	6a9000ef          	jal	ra,30004dac <rt_hw_interrupt_enable>
    30003f08:	8a81b783          	ld	a5,-1880(gp) # 800042a0 <rt_thread_suspend_hook>
    30003f0c:	00000513          	li	a0,0
    30003f10:	00078863          	beqz	a5,30003f20 <rt_thread_suspend+0xe4>
    30003f14:	00040513          	mv	a0,s0
    30003f18:	000780e7          	jalr	a5
    30003f1c:	00000513          	li	a0,0
    30003f20:	01813083          	ld	ra,24(sp)
    30003f24:	01013403          	ld	s0,16(sp)
    30003f28:	00813483          	ld	s1,8(sp)
    30003f2c:	00013903          	ld	s2,0(sp)
    30003f30:	02010113          	addi	sp,sp,32
    30003f34:	00008067          	ret

0000000030003f38 <rt_thread_sleep>:
    30003f38:	fd010113          	addi	sp,sp,-48
    30003f3c:	02813023          	sd	s0,32(sp)
    30003f40:	02113423          	sd	ra,40(sp)
    30003f44:	00913c23          	sd	s1,24(sp)
    30003f48:	01213823          	sd	s2,16(sp)
    30003f4c:	00a12623          	sw	a0,12(sp)
    30003f50:	8e01b403          	ld	s0,-1824(gp) # 800042d8 <rt_current_thread>
    30003f54:	00041e63          	bnez	s0,30003f70 <rt_thread_sleep+0x38>
    30003f58:	22100613          	li	a2,545
    30003f5c:	4fffd597          	auipc	a1,0x4fffd
    30003f60:	52c58593          	addi	a1,a1,1324 # 80001488 <__FUNCTION__.5>
    30003f64:	4fffd517          	auipc	a0,0x4fffd
    30003f68:	33450513          	addi	a0,a0,820 # 80001298 <__FUNCTION__.37+0x38>
    30003f6c:	ecdfe0ef          	jal	ra,30002e38 <rt_assert_handler>
    30003f70:	00040513          	mv	a0,s0
    30003f74:	72c000ef          	jal	ra,300046a0 <rt_object_get_type>
    30003f78:	00100793          	li	a5,1
    30003f7c:	00f50e63          	beq	a0,a5,30003f98 <rt_thread_sleep+0x60>
    30003f80:	22200613          	li	a2,546
    30003f84:	4fffd597          	auipc	a1,0x4fffd
    30003f88:	50458593          	addi	a1,a1,1284 # 80001488 <__FUNCTION__.5>
    30003f8c:	4fffd517          	auipc	a0,0x4fffd
    30003f90:	36450513          	addi	a0,a0,868 # 800012f0 <__FUNCTION__.37+0x90>
    30003f94:	ea5fe0ef          	jal	ra,30002e38 <rt_assert_handler>
    30003f98:	60d000ef          	jal	ra,30004da4 <rt_hw_interrupt_disable>
    30003f9c:	00050913          	mv	s2,a0
    30003fa0:	00040513          	mv	a0,s0
    30003fa4:	e99ff0ef          	jal	ra,30003e3c <rt_thread_suspend>
    30003fa8:	08840493          	addi	s1,s0,136
    30003fac:	00c10613          	addi	a2,sp,12
    30003fb0:	00000593          	li	a1,0
    30003fb4:	00048513          	mv	a0,s1
    30003fb8:	fd4fc0ef          	jal	ra,3000078c <rt_timer_control>
    30003fbc:	00048513          	mv	a0,s1
    30003fc0:	d9cfc0ef          	jal	ra,3000055c <rt_timer_start>
    30003fc4:	00090513          	mv	a0,s2
    30003fc8:	5e5000ef          	jal	ra,30004dac <rt_hw_interrupt_enable>
    30003fcc:	355000ef          	jal	ra,30004b20 <rt_schedule>
    30003fd0:	06043703          	ld	a4,96(s0)
    30003fd4:	ffe00793          	li	a5,-2
    30003fd8:	00f71463          	bne	a4,a5,30003fe0 <rt_thread_sleep+0xa8>
    30003fdc:	06043023          	sd	zero,96(s0)
    30003fe0:	02813083          	ld	ra,40(sp)
    30003fe4:	02013403          	ld	s0,32(sp)
    30003fe8:	01813483          	ld	s1,24(sp)
    30003fec:	01013903          	ld	s2,16(sp)
    30003ff0:	00000513          	li	a0,0
    30003ff4:	03010113          	addi	sp,sp,48
    30003ff8:	00008067          	ret

0000000030003ffc <rt_thread_delay>:
    30003ffc:	f3dff06f          	j	30003f38 <rt_thread_sleep>

0000000030004000 <rt_thread_mdelay>:
    30004000:	ff010113          	addi	sp,sp,-16
    30004004:	00113423          	sd	ra,8(sp)
    30004008:	fa8ff0ef          	jal	ra,300037b0 <rt_tick_from_millisecond>
    3000400c:	00813083          	ld	ra,8(sp)
    30004010:	0005051b          	sext.w	a0,a0
    30004014:	01010113          	addi	sp,sp,16
    30004018:	f21ff06f          	j	30003f38 <rt_thread_sleep>

000000003000401c <rt_thread_resume>:
    3000401c:	fe010113          	addi	sp,sp,-32
    30004020:	00813823          	sd	s0,16(sp)
    30004024:	00113c23          	sd	ra,24(sp)
    30004028:	00913423          	sd	s1,8(sp)
    3000402c:	00050413          	mv	s0,a0
    30004030:	00051e63          	bnez	a0,3000404c <rt_thread_resume+0x30>
    30004034:	34800613          	li	a2,840
    30004038:	4fffd597          	auipc	a1,0x4fffd
    3000403c:	3f858593          	addi	a1,a1,1016 # 80001430 <__FUNCTION__.1>
    30004040:	4fffd517          	auipc	a0,0x4fffd
    30004044:	25850513          	addi	a0,a0,600 # 80001298 <__FUNCTION__.37+0x38>
    30004048:	df1fe0ef          	jal	ra,30002e38 <rt_assert_handler>
    3000404c:	00040513          	mv	a0,s0
    30004050:	650000ef          	jal	ra,300046a0 <rt_object_get_type>
    30004054:	00100793          	li	a5,1
    30004058:	00f50e63          	beq	a0,a5,30004074 <rt_thread_resume+0x58>
    3000405c:	34900613          	li	a2,841
    30004060:	4fffd597          	auipc	a1,0x4fffd
    30004064:	3d058593          	addi	a1,a1,976 # 80001430 <__FUNCTION__.1>
    30004068:	4fffd517          	auipc	a0,0x4fffd
    3000406c:	28850513          	addi	a0,a0,648 # 800012f0 <__FUNCTION__.37+0x90>
    30004070:	dc9fe0ef          	jal	ra,30002e38 <rt_assert_handler>
    30004074:	06844783          	lbu	a5,104(s0)
    30004078:	00200713          	li	a4,2
    3000407c:	fff00513          	li	a0,-1
    30004080:	0077f793          	andi	a5,a5,7
    30004084:	04e79c63          	bne	a5,a4,300040dc <rt_thread_resume+0xc0>
    30004088:	51d000ef          	jal	ra,30004da4 <rt_hw_interrupt_disable>
    3000408c:	02843683          	ld	a3,40(s0)
    30004090:	03043703          	ld	a4,48(s0)
    30004094:	02840793          	addi	a5,s0,40
    30004098:	00050493          	mv	s1,a0
    3000409c:	00e6b423          	sd	a4,8(a3)
    300040a0:	00d73023          	sd	a3,0(a4)
    300040a4:	02f43823          	sd	a5,48(s0)
    300040a8:	02f43423          	sd	a5,40(s0)
    300040ac:	08840513          	addi	a0,s0,136
    300040b0:	e28fc0ef          	jal	ra,300006d8 <rt_timer_stop>
    300040b4:	00040513          	mv	a0,s0
    300040b8:	0bd000ef          	jal	ra,30004974 <rt_schedule_insert_thread>
    300040bc:	00048513          	mv	a0,s1
    300040c0:	4ed000ef          	jal	ra,30004dac <rt_hw_interrupt_enable>
    300040c4:	8a01b783          	ld	a5,-1888(gp) # 80004298 <rt_thread_resume_hook>
    300040c8:	00000513          	li	a0,0
    300040cc:	00078863          	beqz	a5,300040dc <rt_thread_resume+0xc0>
    300040d0:	00040513          	mv	a0,s0
    300040d4:	000780e7          	jalr	a5
    300040d8:	00000513          	li	a0,0
    300040dc:	01813083          	ld	ra,24(sp)
    300040e0:	01013403          	ld	s0,16(sp)
    300040e4:	00813483          	ld	s1,8(sp)
    300040e8:	02010113          	addi	sp,sp,32
    300040ec:	00008067          	ret

00000000300040f0 <rt_thread_startup>:
    300040f0:	ff010113          	addi	sp,sp,-16
    300040f4:	00813023          	sd	s0,0(sp)
    300040f8:	00113423          	sd	ra,8(sp)
    300040fc:	00050413          	mv	s0,a0
    30004100:	00051e63          	bnez	a0,3000411c <rt_thread_startup+0x2c>
    30004104:	14100613          	li	a2,321
    30004108:	4fffd597          	auipc	a1,0x4fffd
    3000410c:	3c058593          	addi	a1,a1,960 # 800014c8 <__FUNCTION__.8>
    30004110:	4fffd517          	auipc	a0,0x4fffd
    30004114:	18850513          	addi	a0,a0,392 # 80001298 <__FUNCTION__.37+0x38>
    30004118:	d21fe0ef          	jal	ra,30002e38 <rt_assert_handler>
    3000411c:	06844783          	lbu	a5,104(s0)
    30004120:	0077f793          	andi	a5,a5,7
    30004124:	00078e63          	beqz	a5,30004140 <rt_thread_startup+0x50>
    30004128:	14200613          	li	a2,322
    3000412c:	4fffd597          	auipc	a1,0x4fffd
    30004130:	39c58593          	addi	a1,a1,924 # 800014c8 <__FUNCTION__.8>
    30004134:	4fffd517          	auipc	a0,0x4fffd
    30004138:	2ac50513          	addi	a0,a0,684 # 800013e0 <__FUNCTION__.37+0x180>
    3000413c:	cfdfe0ef          	jal	ra,30002e38 <rt_assert_handler>
    30004140:	00040513          	mv	a0,s0
    30004144:	55c000ef          	jal	ra,300046a0 <rt_object_get_type>
    30004148:	00100793          	li	a5,1
    3000414c:	00f50e63          	beq	a0,a5,30004168 <rt_thread_startup+0x78>
    30004150:	14300613          	li	a2,323
    30004154:	4fffd597          	auipc	a1,0x4fffd
    30004158:	37458593          	addi	a1,a1,884 # 800014c8 <__FUNCTION__.8>
    3000415c:	4fffd517          	auipc	a0,0x4fffd
    30004160:	19450513          	addi	a0,a0,404 # 800012f0 <__FUNCTION__.37+0x90>
    30004164:	cd5fe0ef          	jal	ra,30002e38 <rt_assert_handler>
    30004168:	06a44703          	lbu	a4,106(s0)
    3000416c:	00100793          	li	a5,1
    30004170:	00040513          	mv	a0,s0
    30004174:	00e797b3          	sll	a5,a5,a4
    30004178:	06f42623          	sw	a5,108(s0)
    3000417c:	00200793          	li	a5,2
    30004180:	06f40423          	sb	a5,104(s0)
    30004184:	06e404a3          	sb	a4,105(s0)
    30004188:	e95ff0ef          	jal	ra,3000401c <rt_thread_resume>
    3000418c:	8e01b783          	ld	a5,-1824(gp) # 800042d8 <rt_current_thread>
    30004190:	00078463          	beqz	a5,30004198 <rt_thread_startup+0xa8>
    30004194:	18d000ef          	jal	ra,30004b20 <rt_schedule>
    30004198:	00813083          	ld	ra,8(sp)
    3000419c:	00013403          	ld	s0,0(sp)
    300041a0:	00000513          	li	a0,0
    300041a4:	01010113          	addi	sp,sp,16
    300041a8:	00008067          	ret

00000000300041ac <rt_thread_control>:
    300041ac:	fc010113          	addi	sp,sp,-64
    300041b0:	02813823          	sd	s0,48(sp)
    300041b4:	02913423          	sd	s1,40(sp)
    300041b8:	03213023          	sd	s2,32(sp)
    300041bc:	02113c23          	sd	ra,56(sp)
    300041c0:	01313c23          	sd	s3,24(sp)
    300041c4:	00050413          	mv	s0,a0
    300041c8:	00058493          	mv	s1,a1
    300041cc:	00060913          	mv	s2,a2
    300041d0:	00051e63          	bnez	a0,300041ec <rt_thread_control+0x40>
    300041d4:	2a600613          	li	a2,678
    300041d8:	4fffd597          	auipc	a1,0x4fffd
    300041dc:	29858593          	addi	a1,a1,664 # 80001470 <__FUNCTION__.3>
    300041e0:	4fffd517          	auipc	a0,0x4fffd
    300041e4:	0b850513          	addi	a0,a0,184 # 80001298 <__FUNCTION__.37+0x38>
    300041e8:	c51fe0ef          	jal	ra,30002e38 <rt_assert_handler>
    300041ec:	00040513          	mv	a0,s0
    300041f0:	4b0000ef          	jal	ra,300046a0 <rt_object_get_type>
    300041f4:	00100793          	li	a5,1
    300041f8:	00f50e63          	beq	a0,a5,30004214 <rt_thread_control+0x68>
    300041fc:	2a700613          	li	a2,679
    30004200:	4fffd597          	auipc	a1,0x4fffd
    30004204:	27058593          	addi	a1,a1,624 # 80001470 <__FUNCTION__.3>
    30004208:	4fffd517          	auipc	a0,0x4fffd
    3000420c:	0e850513          	addi	a0,a0,232 # 800012f0 <__FUNCTION__.37+0x90>
    30004210:	c29fe0ef          	jal	ra,30002e38 <rt_assert_handler>
    30004214:	00100993          	li	s3,1
    30004218:	0b348663          	beq	s1,s3,300042c4 <rt_thread_control+0x118>
    3000421c:	00200793          	li	a5,2
    30004220:	02f48463          	beq	s1,a5,30004248 <rt_thread_control+0x9c>
    30004224:	08048063          	beqz	s1,300042a4 <rt_thread_control+0xf8>
    30004228:	00000513          	li	a0,0
    3000422c:	03813083          	ld	ra,56(sp)
    30004230:	03013403          	ld	s0,48(sp)
    30004234:	02813483          	ld	s1,40(sp)
    30004238:	02013903          	ld	s2,32(sp)
    3000423c:	01813983          	ld	s3,24(sp)
    30004240:	04010113          	addi	sp,sp,64
    30004244:	00008067          	ret
    30004248:	35d000ef          	jal	ra,30004da4 <rt_hw_interrupt_disable>
    3000424c:	06844783          	lbu	a5,104(s0)
    30004250:	00050493          	mv	s1,a0
    30004254:	0077f793          	andi	a5,a5,7
    30004258:	03379a63          	bne	a5,s3,3000428c <rt_thread_control+0xe0>
    3000425c:	00040513          	mv	a0,s0
    30004260:	7b8000ef          	jal	ra,30004a18 <rt_schedule_remove_thread>
    30004264:	00094703          	lbu	a4,0(s2)
    30004268:	00100793          	li	a5,1
    3000426c:	00040513          	mv	a0,s0
    30004270:	00e797bb          	sllw	a5,a5,a4
    30004274:	06e404a3          	sb	a4,105(s0)
    30004278:	06f42623          	sw	a5,108(s0)
    3000427c:	6f8000ef          	jal	ra,30004974 <rt_schedule_insert_thread>
    30004280:	00048513          	mv	a0,s1
    30004284:	329000ef          	jal	ra,30004dac <rt_hw_interrupt_enable>
    30004288:	fa1ff06f          	j	30004228 <rt_thread_control+0x7c>
    3000428c:	00094703          	lbu	a4,0(s2)
    30004290:	00100793          	li	a5,1
    30004294:	00e797bb          	sllw	a5,a5,a4
    30004298:	06e404a3          	sb	a4,105(s0)
    3000429c:	06f42623          	sw	a5,108(s0)
    300042a0:	fe1ff06f          	j	30004280 <rt_thread_control+0xd4>
    300042a4:	00040513          	mv	a0,s0
    300042a8:	03013403          	ld	s0,48(sp)
    300042ac:	03813083          	ld	ra,56(sp)
    300042b0:	02813483          	ld	s1,40(sp)
    300042b4:	02013903          	ld	s2,32(sp)
    300042b8:	01813983          	ld	s3,24(sp)
    300042bc:	04010113          	addi	sp,sp,64
    300042c0:	e31ff06f          	j	300040f0 <rt_thread_startup>
    300042c4:	00040513          	mv	a0,s0
    300042c8:	394000ef          	jal	ra,3000465c <rt_object_is_systemobject>
    300042cc:	00951e63          	bne	a0,s1,300042e8 <rt_thread_control+0x13c>
    300042d0:	00040513          	mv	a0,s0
    300042d4:	8ddff0ef          	jal	ra,30003bb0 <rt_thread_detach>
    300042d8:	00a13423          	sd	a0,8(sp)
    300042dc:	045000ef          	jal	ra,30004b20 <rt_schedule>
    300042e0:	00813503          	ld	a0,8(sp)
    300042e4:	f49ff06f          	j	3000422c <rt_thread_control+0x80>
    300042e8:	00040513          	mv	a0,s0
    300042ec:	a71ff0ef          	jal	ra,30003d5c <rt_thread_delete>
    300042f0:	fe9ff06f          	j	300042d8 <rt_thread_control+0x12c>

00000000300042f4 <rt_object_get_information>:
    300042f4:	50000697          	auipc	a3,0x50000
    300042f8:	ce468693          	addi	a3,a3,-796 # 80003fd8 <rt_object_container>
    300042fc:	00000793          	li	a5,0
    30004300:	00068713          	mv	a4,a3
    30004304:	00900613          	li	a2,9
    30004308:	0006a583          	lw	a1,0(a3)
    3000430c:	00a59863          	bne	a1,a0,3000431c <rt_object_get_information+0x28>
    30004310:	00579793          	slli	a5,a5,0x5
    30004314:	00f70533          	add	a0,a4,a5
    30004318:	00008067          	ret
    3000431c:	0017879b          	addiw	a5,a5,1
    30004320:	02068693          	addi	a3,a3,32
    30004324:	fec792e3          	bne	a5,a2,30004308 <rt_object_get_information+0x14>
    30004328:	00000513          	li	a0,0
    3000432c:	00008067          	ret

0000000030004330 <rt_object_init>:
    30004330:	fb010113          	addi	sp,sp,-80
    30004334:	04813023          	sd	s0,64(sp)
    30004338:	00050413          	mv	s0,a0
    3000433c:	00058513          	mv	a0,a1
    30004340:	02913c23          	sd	s1,56(sp)
    30004344:	03213823          	sd	s2,48(sp)
    30004348:	03413023          	sd	s4,32(sp)
    3000434c:	04113423          	sd	ra,72(sp)
    30004350:	03313423          	sd	s3,40(sp)
    30004354:	01513c23          	sd	s5,24(sp)
    30004358:	01613823          	sd	s6,16(sp)
    3000435c:	01713423          	sd	s7,8(sp)
    30004360:	00058913          	mv	s2,a1
    30004364:	00060a13          	mv	s4,a2
    30004368:	f8dff0ef          	jal	ra,300042f4 <rt_object_get_information>
    3000436c:	00050493          	mv	s1,a0
    30004370:	00051e63          	bnez	a0,3000438c <rt_object_init+0x5c>
    30004374:	13800613          	li	a2,312
    30004378:	4fffd597          	auipc	a1,0x4fffd
    3000437c:	27858593          	addi	a1,a1,632 # 800015f0 <__FUNCTION__.6>
    30004380:	4fffd517          	auipc	a0,0x4fffd
    30004384:	17050513          	addi	a0,a0,368 # 800014f0 <__FUNCTION__.9+0x10>
    30004388:	ab1fe0ef          	jal	ra,30002e38 <rt_assert_handler>
    3000438c:	0f9000ef          	jal	ra,30004c84 <rt_enter_critical>
    30004390:	0084b983          	ld	s3,8(s1)
    30004394:	00848a93          	addi	s5,s1,8
    30004398:	4fffdb17          	auipc	s6,0x4fffd
    3000439c:	258b0b13          	addi	s6,s6,600 # 800015f0 <__FUNCTION__.6>
    300043a0:	4fffdb97          	auipc	s7,0x4fffd
    300043a4:	168b8b93          	addi	s7,s7,360 # 80001508 <__FUNCTION__.9+0x28>
    300043a8:	073a9c63          	bne	s5,s3,30004420 <rt_object_init+0xf0>
    300043ac:	101000ef          	jal	ra,30004cac <rt_exit_critical>
    300043b0:	f8096913          	ori	s2,s2,-128
    300043b4:	01240a23          	sb	s2,20(s0)
    300043b8:	01400613          	li	a2,20
    300043bc:	000a0593          	mv	a1,s4
    300043c0:	00040513          	mv	a0,s0
    300043c4:	958fe0ef          	jal	ra,3000251c <rt_strncpy>
    300043c8:	8b01b783          	ld	a5,-1872(gp) # 800042a8 <rt_object_attach_hook>
    300043cc:	00078663          	beqz	a5,300043d8 <rt_object_init+0xa8>
    300043d0:	00040513          	mv	a0,s0
    300043d4:	000780e7          	jalr	a5
    300043d8:	1cd000ef          	jal	ra,30004da4 <rt_hw_interrupt_disable>
    300043dc:	0084b703          	ld	a4,8(s1)
    300043e0:	01840793          	addi	a5,s0,24
    300043e4:	04813083          	ld	ra,72(sp)
    300043e8:	00f73423          	sd	a5,8(a4)
    300043ec:	00e43c23          	sd	a4,24(s0)
    300043f0:	00f4b423          	sd	a5,8(s1)
    300043f4:	03543023          	sd	s5,32(s0)
    300043f8:	04013403          	ld	s0,64(sp)
    300043fc:	03813483          	ld	s1,56(sp)
    30004400:	03013903          	ld	s2,48(sp)
    30004404:	02813983          	ld	s3,40(sp)
    30004408:	02013a03          	ld	s4,32(sp)
    3000440c:	01813a83          	ld	s5,24(sp)
    30004410:	01013b03          	ld	s6,16(sp)
    30004414:	00813b83          	ld	s7,8(sp)
    30004418:	05010113          	addi	sp,sp,80
    3000441c:	1910006f          	j	30004dac <rt_hw_interrupt_enable>
    30004420:	fe898793          	addi	a5,s3,-24
    30004424:	00f41a63          	bne	s0,a5,30004438 <rt_object_init+0x108>
    30004428:	14800613          	li	a2,328
    3000442c:	000b0593          	mv	a1,s6
    30004430:	000b8513          	mv	a0,s7
    30004434:	a05fe0ef          	jal	ra,30002e38 <rt_assert_handler>
    30004438:	0009b983          	ld	s3,0(s3)
    3000443c:	f6dff06f          	j	300043a8 <rt_object_init+0x78>

0000000030004440 <rt_object_detach>:
    30004440:	ff010113          	addi	sp,sp,-16
    30004444:	00813023          	sd	s0,0(sp)
    30004448:	00113423          	sd	ra,8(sp)
    3000444c:	00050413          	mv	s0,a0
    30004450:	00051e63          	bnez	a0,3000446c <rt_object_detach+0x2c>
    30004454:	17500613          	li	a2,373
    30004458:	4fffd597          	auipc	a1,0x4fffd
    3000445c:	18058593          	addi	a1,a1,384 # 800015d8 <__FUNCTION__.5>
    30004460:	4fffd517          	auipc	a0,0x4fffd
    30004464:	0b850513          	addi	a0,a0,184 # 80001518 <__FUNCTION__.9+0x38>
    30004468:	9d1fe0ef          	jal	ra,30002e38 <rt_assert_handler>
    3000446c:	8b81b783          	ld	a5,-1864(gp) # 800042b0 <rt_object_detach_hook>
    30004470:	00078663          	beqz	a5,3000447c <rt_object_detach+0x3c>
    30004474:	00040513          	mv	a0,s0
    30004478:	000780e7          	jalr	a5
    3000447c:	00040a23          	sb	zero,20(s0)
    30004480:	125000ef          	jal	ra,30004da4 <rt_hw_interrupt_disable>
    30004484:	01843683          	ld	a3,24(s0)
    30004488:	02043703          	ld	a4,32(s0)
    3000448c:	01840793          	addi	a5,s0,24
    30004490:	00813083          	ld	ra,8(sp)
    30004494:	00e6b423          	sd	a4,8(a3)
    30004498:	00d73023          	sd	a3,0(a4)
    3000449c:	02f43023          	sd	a5,32(s0)
    300044a0:	00f43c23          	sd	a5,24(s0)
    300044a4:	00013403          	ld	s0,0(sp)
    300044a8:	01010113          	addi	sp,sp,16
    300044ac:	1010006f          	j	30004dac <rt_hw_interrupt_enable>

00000000300044b0 <rt_object_allocate>:
    300044b0:	fd010113          	addi	sp,sp,-48
    300044b4:	02813023          	sd	s0,32(sp)
    300044b8:	01213823          	sd	s2,16(sp)
    300044bc:	01313423          	sd	s3,8(sp)
    300044c0:	02113423          	sd	ra,40(sp)
    300044c4:	00913c23          	sd	s1,24(sp)
    300044c8:	00050913          	mv	s2,a0
    300044cc:	00058993          	mv	s3,a1
    300044d0:	0d5000ef          	jal	ra,30004da4 <rt_hw_interrupt_disable>
    300044d4:	00050413          	mv	s0,a0
    300044d8:	0a1000ef          	jal	ra,30004d78 <rt_interrupt_get_nest>
    300044dc:	02050863          	beqz	a0,3000450c <rt_object_allocate+0x5c>
    300044e0:	4fffd597          	auipc	a1,0x4fffd
    300044e4:	0e058593          	addi	a1,a1,224 # 800015c0 <__FUNCTION__.4>
    300044e8:	4fffc517          	auipc	a0,0x4fffc
    300044ec:	5c850513          	addi	a0,a0,1480 # 80000ab0 <__FUNCTION__.6+0x1e8>
    300044f0:	fc4fe0ef          	jal	ra,30002cb4 <rt_kprintf>
    300044f4:	19800613          	li	a2,408
    300044f8:	4fffd597          	auipc	a1,0x4fffd
    300044fc:	0c858593          	addi	a1,a1,200 # 800015c0 <__FUNCTION__.4>
    30004500:	4fffc517          	auipc	a0,0x4fffc
    30004504:	5d850513          	addi	a0,a0,1496 # 80000ad8 <__FUNCTION__.6+0x210>
    30004508:	931fe0ef          	jal	ra,30002e38 <rt_assert_handler>
    3000450c:	00040513          	mv	a0,s0
    30004510:	09d000ef          	jal	ra,30004dac <rt_hw_interrupt_enable>
    30004514:	00090513          	mv	a0,s2
    30004518:	dddff0ef          	jal	ra,300042f4 <rt_object_get_information>
    3000451c:	00050493          	mv	s1,a0
    30004520:	00051e63          	bnez	a0,3000453c <rt_object_allocate+0x8c>
    30004524:	19c00613          	li	a2,412
    30004528:	4fffd597          	auipc	a1,0x4fffd
    3000452c:	09858593          	addi	a1,a1,152 # 800015c0 <__FUNCTION__.4>
    30004530:	4fffd517          	auipc	a0,0x4fffd
    30004534:	fc050513          	addi	a0,a0,-64 # 800014f0 <__FUNCTION__.9+0x10>
    30004538:	901fe0ef          	jal	ra,30002e38 <rt_assert_handler>
    3000453c:	0184b503          	ld	a0,24(s1)
    30004540:	9c0fd0ef          	jal	ra,30001700 <rt_malloc>
    30004544:	00050413          	mv	s0,a0
    30004548:	04050e63          	beqz	a0,300045a4 <rt_object_allocate+0xf4>
    3000454c:	0184b603          	ld	a2,24(s1)
    30004550:	00000593          	li	a1,0
    30004554:	dadfd0ef          	jal	ra,30002300 <rt_memset>
    30004558:	01400613          	li	a2,20
    3000455c:	01240a23          	sb	s2,20(s0)
    30004560:	00040aa3          	sb	zero,21(s0)
    30004564:	00098593          	mv	a1,s3
    30004568:	00040513          	mv	a0,s0
    3000456c:	fb1fd0ef          	jal	ra,3000251c <rt_strncpy>
    30004570:	8b01b783          	ld	a5,-1872(gp) # 800042a8 <rt_object_attach_hook>
    30004574:	00078663          	beqz	a5,30004580 <rt_object_allocate+0xd0>
    30004578:	00040513          	mv	a0,s0
    3000457c:	000780e7          	jalr	a5
    30004580:	025000ef          	jal	ra,30004da4 <rt_hw_interrupt_disable>
    30004584:	0084b703          	ld	a4,8(s1)
    30004588:	01840793          	addi	a5,s0,24
    3000458c:	00848493          	addi	s1,s1,8
    30004590:	00f73423          	sd	a5,8(a4)
    30004594:	00e43c23          	sd	a4,24(s0)
    30004598:	00f4b023          	sd	a5,0(s1)
    3000459c:	02943023          	sd	s1,32(s0)
    300045a0:	00d000ef          	jal	ra,30004dac <rt_hw_interrupt_enable>
    300045a4:	02813083          	ld	ra,40(sp)
    300045a8:	00040513          	mv	a0,s0
    300045ac:	02013403          	ld	s0,32(sp)
    300045b0:	01813483          	ld	s1,24(sp)
    300045b4:	01013903          	ld	s2,16(sp)
    300045b8:	00813983          	ld	s3,8(sp)
    300045bc:	03010113          	addi	sp,sp,48
    300045c0:	00008067          	ret

00000000300045c4 <rt_object_delete>:
    300045c4:	ff010113          	addi	sp,sp,-16
    300045c8:	00813023          	sd	s0,0(sp)
    300045cc:	00113423          	sd	ra,8(sp)
    300045d0:	00050413          	mv	s0,a0
    300045d4:	00051e63          	bnez	a0,300045f0 <rt_object_delete+0x2c>
    300045d8:	1d600613          	li	a2,470
    300045dc:	4fffd597          	auipc	a1,0x4fffd
    300045e0:	fcc58593          	addi	a1,a1,-52 # 800015a8 <__FUNCTION__.3>
    300045e4:	4fffd517          	auipc	a0,0x4fffd
    300045e8:	f3450513          	addi	a0,a0,-204 # 80001518 <__FUNCTION__.9+0x38>
    300045ec:	84dfe0ef          	jal	ra,30002e38 <rt_assert_handler>
    300045f0:	01440783          	lb	a5,20(s0)
    300045f4:	0007de63          	bgez	a5,30004610 <rt_object_delete+0x4c>
    300045f8:	1d700613          	li	a2,471
    300045fc:	4fffd597          	auipc	a1,0x4fffd
    30004600:	fac58593          	addi	a1,a1,-84 # 800015a8 <__FUNCTION__.3>
    30004604:	4fffd517          	auipc	a0,0x4fffd
    30004608:	f2c50513          	addi	a0,a0,-212 # 80001530 <__FUNCTION__.9+0x50>
    3000460c:	82dfe0ef          	jal	ra,30002e38 <rt_assert_handler>
    30004610:	8b81b783          	ld	a5,-1864(gp) # 800042b0 <rt_object_detach_hook>
    30004614:	00078663          	beqz	a5,30004620 <rt_object_delete+0x5c>
    30004618:	00040513          	mv	a0,s0
    3000461c:	000780e7          	jalr	a5
    30004620:	00040a23          	sb	zero,20(s0)
    30004624:	780000ef          	jal	ra,30004da4 <rt_hw_interrupt_disable>
    30004628:	01843683          	ld	a3,24(s0)
    3000462c:	02043703          	ld	a4,32(s0)
    30004630:	01840793          	addi	a5,s0,24
    30004634:	00e6b423          	sd	a4,8(a3)
    30004638:	00d73023          	sd	a3,0(a4)
    3000463c:	02f43023          	sd	a5,32(s0)
    30004640:	00f43c23          	sd	a5,24(s0)
    30004644:	768000ef          	jal	ra,30004dac <rt_hw_interrupt_enable>
    30004648:	00040513          	mv	a0,s0
    3000464c:	00013403          	ld	s0,0(sp)
    30004650:	00813083          	ld	ra,8(sp)
    30004654:	01010113          	addi	sp,sp,16
    30004658:	bc8fd06f          	j	30001a20 <rt_free>

000000003000465c <rt_object_is_systemobject>:
    3000465c:	ff010113          	addi	sp,sp,-16
    30004660:	00813023          	sd	s0,0(sp)
    30004664:	00113423          	sd	ra,8(sp)
    30004668:	00050413          	mv	s0,a0
    3000466c:	00051e63          	bnez	a0,30004688 <rt_object_is_systemobject+0x2c>
    30004670:	1f800613          	li	a2,504
    30004674:	4fffd597          	auipc	a1,0x4fffd
    30004678:	f1458593          	addi	a1,a1,-236 # 80001588 <__FUNCTION__.2>
    3000467c:	4fffd517          	auipc	a0,0x4fffd
    30004680:	e9c50513          	addi	a0,a0,-356 # 80001518 <__FUNCTION__.9+0x38>
    30004684:	fb4fe0ef          	jal	ra,30002e38 <rt_assert_handler>
    30004688:	01440503          	lb	a0,20(s0)
    3000468c:	00813083          	ld	ra,8(sp)
    30004690:	00013403          	ld	s0,0(sp)
    30004694:	01f5551b          	srliw	a0,a0,0x1f
    30004698:	01010113          	addi	sp,sp,16
    3000469c:	00008067          	ret

00000000300046a0 <rt_object_get_type>:
    300046a0:	ff010113          	addi	sp,sp,-16
    300046a4:	00813023          	sd	s0,0(sp)
    300046a8:	00113423          	sd	ra,8(sp)
    300046ac:	00050413          	mv	s0,a0
    300046b0:	00051e63          	bnez	a0,300046cc <rt_object_get_type+0x2c>
    300046b4:	20b00613          	li	a2,523
    300046b8:	4fffd597          	auipc	a1,0x4fffd
    300046bc:	eb858593          	addi	a1,a1,-328 # 80001570 <__FUNCTION__.1>
    300046c0:	4fffd517          	auipc	a0,0x4fffd
    300046c4:	e5850513          	addi	a0,a0,-424 # 80001518 <__FUNCTION__.9+0x38>
    300046c8:	f70fe0ef          	jal	ra,30002e38 <rt_assert_handler>
    300046cc:	01444503          	lbu	a0,20(s0)
    300046d0:	00813083          	ld	ra,8(sp)
    300046d4:	00013403          	ld	s0,0(sp)
    300046d8:	07f57513          	andi	a0,a0,127
    300046dc:	01010113          	addi	sp,sp,16
    300046e0:	00008067          	ret

00000000300046e4 <rt_object_find>:
    300046e4:	fd010113          	addi	sp,sp,-48
    300046e8:	01213823          	sd	s2,16(sp)
    300046ec:	00050913          	mv	s2,a0
    300046f0:	00058513          	mv	a0,a1
    300046f4:	02113423          	sd	ra,40(sp)
    300046f8:	02813023          	sd	s0,32(sp)
    300046fc:	00913c23          	sd	s1,24(sp)
    30004700:	01313423          	sd	s3,8(sp)
    30004704:	bf1ff0ef          	jal	ra,300042f4 <rt_object_get_information>
    30004708:	06090263          	beqz	s2,3000476c <rt_object_find+0x88>
    3000470c:	00050413          	mv	s0,a0
    30004710:	08050063          	beqz	a0,30004790 <rt_object_find+0xac>
    30004714:	690000ef          	jal	ra,30004da4 <rt_hw_interrupt_disable>
    30004718:	00050493          	mv	s1,a0
    3000471c:	65c000ef          	jal	ra,30004d78 <rt_interrupt_get_nest>
    30004720:	02050863          	beqz	a0,30004750 <rt_object_find+0x6c>
    30004724:	4fffd597          	auipc	a1,0x4fffd
    30004728:	e3c58593          	addi	a1,a1,-452 # 80001560 <__FUNCTION__.0>
    3000472c:	4fffc517          	auipc	a0,0x4fffc
    30004730:	38450513          	addi	a0,a0,900 # 80000ab0 <__FUNCTION__.6+0x1e8>
    30004734:	d80fe0ef          	jal	ra,30002cb4 <rt_kprintf>
    30004738:	22800613          	li	a2,552
    3000473c:	4fffd597          	auipc	a1,0x4fffd
    30004740:	e2458593          	addi	a1,a1,-476 # 80001560 <__FUNCTION__.0>
    30004744:	4fffc517          	auipc	a0,0x4fffc
    30004748:	39450513          	addi	a0,a0,916 # 80000ad8 <__FUNCTION__.6+0x210>
    3000474c:	eecfe0ef          	jal	ra,30002e38 <rt_assert_handler>
    30004750:	00048513          	mv	a0,s1
    30004754:	658000ef          	jal	ra,30004dac <rt_hw_interrupt_enable>
    30004758:	52c000ef          	jal	ra,30004c84 <rt_enter_critical>
    3000475c:	00843483          	ld	s1,8(s0)
    30004760:	00840993          	addi	s3,s0,8
    30004764:	01349863          	bne	s1,s3,30004774 <rt_object_find+0x90>
    30004768:	544000ef          	jal	ra,30004cac <rt_exit_critical>
    3000476c:	00000413          	li	s0,0
    30004770:	0200006f          	j	30004790 <rt_object_find+0xac>
    30004774:	fe848413          	addi	s0,s1,-24
    30004778:	01400613          	li	a2,20
    3000477c:	00090593          	mv	a1,s2
    30004780:	00040513          	mv	a0,s0
    30004784:	dddfd0ef          	jal	ra,30002560 <rt_strncmp>
    30004788:	02051463          	bnez	a0,300047b0 <rt_object_find+0xcc>
    3000478c:	520000ef          	jal	ra,30004cac <rt_exit_critical>
    30004790:	02813083          	ld	ra,40(sp)
    30004794:	00040513          	mv	a0,s0
    30004798:	02013403          	ld	s0,32(sp)
    3000479c:	01813483          	ld	s1,24(sp)
    300047a0:	01013903          	ld	s2,16(sp)
    300047a4:	00813983          	ld	s3,8(sp)
    300047a8:	03010113          	addi	sp,sp,48
    300047ac:	00008067          	ret
    300047b0:	0004b483          	ld	s1,0(s1)
