
rtthread.elf:     file format elf64-littleriscv


Disassembly of section .init:

0000000030000000 <_start>:
    30000000:	50005197          	auipc	gp,0x50005
    30000004:	9f818193          	addi	gp,gp,-1544 # 800049f8 <__global_pointer$>
    30000008:	51000117          	auipc	sp,0x51000
    3000000c:	ff810113          	addi	sp,sp,-8 # 81000000 <__stack_start__>
    30000010:	0000d517          	auipc	a0,0xd
    30000014:	d6050513          	addi	a0,a0,-672 # 3000cd70 <_data_lma>
    30000018:	50000597          	auipc	a1,0x50000
    3000001c:	fe858593          	addi	a1,a1,-24 # 80000000 <__fsym___cmd_reboot>
    30000020:	82018613          	addi	a2,gp,-2016 # 80004218 <random_nr.2>
    30000024:	00c5fc63          	bgeu	a1,a2,3000003c <_start+0x3c>
    30000028:	00052283          	lw	t0,0(a0)
    3000002c:	0055a023          	sw	t0,0(a1)
    30000030:	00450513          	addi	a0,a0,4
    30000034:	00458593          	addi	a1,a1,4
    30000038:	fec5e8e3          	bltu	a1,a2,30000028 <_start+0x28>
    3000003c:	82018513          	addi	a0,gp,-2016 # 80004218 <random_nr.2>
    30000040:	5000d597          	auipc	a1,0x5000d
    30000044:	4b058593          	addi	a1,a1,1200 # 8000d4f0 <__bss_end>
    30000048:	00b57863          	bgeu	a0,a1,30000058 <_start+0x58>
    3000004c:	00052023          	sw	zero,0(a0)
    30000050:	00450513          	addi	a0,a0,4
    30000054:	feb56ce3          	bltu	a0,a1,3000004c <_start+0x4c>
    30000058:	00000097          	auipc	ra,0x0
    3000005c:	ff010113          	addi	sp,sp,-16
    30000060:	00113423          	sd	ra,8(sp)
    30000064:	00000513          	li	a0,0
    30000068:	00000593          	li	a1,0
    3000006c:	30405073          	csrwi	mie,0
    30000070:	34405073          	csrwi	mip,0
    30000074:	00005297          	auipc	t0,0x5
    30000078:	fb428293          	addi	t0,t0,-76 # 30005028 <trap_entry>
    3000007c:	30529073          	csrw	mtvec,t0
    30000080:	0ad040ef          	jal	ra,3000492c <entry>
    30000084:	0000006f          	j	30000084 <_start+0x84>

Disassembly of section .text:

0000000030000088 <main>:
    30000088:	ff010113          	addi	sp,sp,-16
    3000008c:	50000517          	auipc	a0,0x50000
    30000090:	5dc50513          	addi	a0,a0,1500 # 80000668 <__fsym___cmd_reboot_name+0x10>
    30000094:	00113423          	sd	ra,8(sp)
    30000098:	41d020ef          	jal	ra,30002cb4 <rt_kprintf>
    3000009c:	00813083          	ld	ra,8(sp)
    300000a0:	00000513          	li	a0,0
    300000a4:	01010113          	addi	sp,sp,16
    300000a8:	00008067          	ret

00000000300000ac <drv_uart_putc>:
    300000ac:	00058513          	mv	a0,a1
    300000b0:	10000737          	lui	a4,0x10000
    300000b4:	00574783          	lbu	a5,5(a4) # 10000005 <__stack_size+0xffff805>
    300000b8:	0207f793          	andi	a5,a5,32
    300000bc:	fe078ce3          	beqz	a5,300000b4 <drv_uart_putc+0x8>
    300000c0:	00a70023          	sb	a0,0(a4)
    300000c4:	00008067          	ret

00000000300000c8 <drv_uart_getc>:
    300000c8:	10000737          	lui	a4,0x10000
    300000cc:	00574783          	lbu	a5,5(a4) # 10000005 <__stack_size+0xffff805>
    300000d0:	fff00513          	li	a0,-1
    300000d4:	0017f793          	andi	a5,a5,1
    300000d8:	00078463          	beqz	a5,300000e0 <drv_uart_getc+0x18>
    300000dc:	00074503          	lbu	a0,0(a4)
    300000e0:	00008067          	ret

00000000300000e4 <rt_uart_configure>:
    300000e4:	fe010113          	addi	sp,sp,-32
    300000e8:	00813823          	sd	s0,16(sp)
    300000ec:	00913423          	sd	s1,8(sp)
    300000f0:	00113c23          	sd	ra,24(sp)
    300000f4:	00050413          	mv	s0,a0
    300000f8:	00058493          	mv	s1,a1
    300000fc:	00051e63          	bnez	a0,30000118 <rt_uart_configure+0x34>
    30000100:	03a00613          	li	a2,58
    30000104:	50000597          	auipc	a1,0x50000
    30000108:	4d458593          	addi	a1,a1,1236 # 800005d8 <__FUNCTION__.0>
    3000010c:	50000517          	auipc	a0,0x50000
    30000110:	49c50513          	addi	a0,a0,1180 # 800005a8 <__rt_init_end>
    30000114:	525020ef          	jal	ra,30002e38 <rt_assert_handler>
    30000118:	0004a783          	lw	a5,0(s1)
    3000011c:	01813083          	ld	ra,24(sp)
    30000120:	00000513          	li	a0,0
    30000124:	08f42423          	sw	a5,136(s0)
    30000128:	0044a783          	lw	a5,4(s1)
    3000012c:	00813483          	ld	s1,8(sp)
    30000130:	08f42623          	sw	a5,140(s0)
    30000134:	01013403          	ld	s0,16(sp)
    30000138:	02010113          	addi	sp,sp,32
    3000013c:	00008067          	ret

0000000030000140 <uart_control>:
    30000140:	07853783          	ld	a5,120(a0)
    30000144:	02079a63          	bnez	a5,30000178 <uart_control+0x38>
    30000148:	ff010113          	addi	sp,sp,-16
    3000014c:	50000517          	auipc	a0,0x50000
    30000150:	47450513          	addi	a0,a0,1140 # 800005c0 <__rt_init_end+0x18>
    30000154:	04700613          	li	a2,71
    30000158:	50000597          	auipc	a1,0x50000
    3000015c:	49858593          	addi	a1,a1,1176 # 800005f0 <__FUNCTION__.1>
    30000160:	00113423          	sd	ra,8(sp)
    30000164:	4d5020ef          	jal	ra,30002e38 <rt_assert_handler>
    30000168:	00813083          	ld	ra,8(sp)
    3000016c:	00000513          	li	a0,0
    30000170:	01010113          	addi	sp,sp,16
    30000174:	00008067          	ret
    30000178:	00000513          	li	a0,0
    3000017c:	00008067          	ret

0000000030000180 <virt_uart_init>:
    30000180:	100007b7          	lui	a5,0x10000
    30000184:	000780a3          	sb	zero,1(a5) # 10000001 <__stack_size+0xffff801>
    30000188:	0037c703          	lbu	a4,3(a5)
    3000018c:	08076713          	ori	a4,a4,128
    30000190:	00e781a3          	sb	a4,3(a5)
    30000194:	00100713          	li	a4,1
    30000198:	00e78023          	sb	a4,0(a5)
    3000019c:	000780a3          	sb	zero,1(a5)
    300001a0:	00300713          	li	a4,3
    300001a4:	00e781a3          	sb	a4,3(a5)
    300001a8:	0017c703          	lbu	a4,1(a5)
    300001ac:	00176713          	ori	a4,a4,1
    300001b0:	00e780a3          	sb	a4,1(a5)
    300001b4:	00008067          	ret

00000000300001b8 <rt_hw_uart_init>:
    300001b8:	ff010113          	addi	sp,sp,-16
    300001bc:	00113423          	sd	ra,8(sp)
    300001c0:	97018513          	addi	a0,gp,-1680 # 80004368 <serial1>
    300001c4:	50000797          	auipc	a5,0x50000
    300001c8:	43c78793          	addi	a5,a5,1084 # 80000600 <_uart_ops>
    300001cc:	08f53023          	sd	a5,128(a0)
    300001d0:	50004797          	auipc	a5,0x50004
    300001d4:	0307b783          	ld	a5,48(a5) # 80004200 <soft_timer_status+0x8>
    300001d8:	a1018693          	addi	a3,gp,-1520 # 80004408 <uart1>
    300001dc:	08f53423          	sd	a5,136(a0)
    300001e0:	100007b7          	lui	a5,0x10000
    300001e4:	00f6b023          	sd	a5,0(a3)
    300001e8:	00a00793          	li	a5,10
    300001ec:	00f6a423          	sw	a5,8(a3)
    300001f0:	f91ff0ef          	jal	ra,30000180 <virt_uart_init>
    300001f4:	a1018693          	addi	a3,gp,-1520 # 80004408 <uart1>
    300001f8:	04300613          	li	a2,67
    300001fc:	50000597          	auipc	a1,0x50000
    30000200:	3d458593          	addi	a1,a1,980 # 800005d0 <__rt_init_end+0x28>
    30000204:	97018513          	addi	a0,gp,-1680 # 80004368 <serial1>
    30000208:	2240c0ef          	jal	ra,3000c42c <rt_hw_serial_register>
    3000020c:	00813083          	ld	ra,8(sp)
    30000210:	00000513          	li	a0,0
    30000214:	01010113          	addi	sp,sp,16
    30000218:	00008067          	ret

000000003000021c <plic_claim>:
    3000021c:	f1402773          	csrr	a4,mhartid
    30000220:	0c2007b7          	lui	a5,0xc200
    30000224:	00c7171b          	slliw	a4,a4,0xc
    30000228:	00e787b3          	add	a5,a5,a4
    3000022c:	0047a503          	lw	a0,4(a5) # c200004 <__stack_size+0xc1ff804>
    30000230:	00008067          	ret

0000000030000234 <plic_complete>:
    30000234:	f1402773          	csrr	a4,mhartid
    30000238:	0c2007b7          	lui	a5,0xc200
    3000023c:	00c7171b          	slliw	a4,a4,0xc
    30000240:	00e787b3          	add	a5,a5,a4
    30000244:	00a7a223          	sw	a0,4(a5) # c200004 <__stack_size+0xc1ff804>
    30000248:	00008067          	ret

000000003000024c <rt_hw_cpu_reset>:
    3000024c:	00000513          	li	a0,0
    30000250:	00000593          	li	a1,0
    30000254:	00000613          	li	a2,0
    30000258:	00000693          	li	a3,0
    3000025c:	00000713          	li	a4,0
    30000260:	00000813          	li	a6,0
    30000264:	00800893          	li	a7,8
    30000268:	00000073          	ecall
    3000026c:	0000006f          	j	3000026c <rt_hw_cpu_reset+0x20>

0000000030000270 <rt_hw_board_init>:
    30000270:	ff010113          	addi	sp,sp,-16
    30000274:	00113423          	sd	ra,8(sp)
    30000278:	00813023          	sd	s0,0(sp)
    3000027c:	7d5040ef          	jal	ra,30005250 <rt_hw_interrupt_init>
    30000280:	f39ff0ef          	jal	ra,300001b8 <rt_hw_uart_init>
    30000284:	5640d617          	auipc	a2,0x5640d
    30000288:	26c60613          	addi	a2,a2,620 # 8640d4f0 <__stack_start__+0x540d4f0>
    3000028c:	5000d417          	auipc	s0,0x5000d
    30000290:	26440413          	addi	s0,s0,612 # 8000d4f0 <__bss_end>
    30000294:	00060593          	mv	a1,a2
    30000298:	00040513          	mv	a0,s0
    3000029c:	304010ef          	jal	ra,300015a0 <rt_system_heap_init>
    300002a0:	50000517          	auipc	a0,0x50000
    300002a4:	33050513          	addi	a0,a0,816 # 800005d0 <__rt_init_end+0x28>
    300002a8:	19d020ef          	jal	ra,30002c44 <rt_console_set_device>
    300002ac:	499040ef          	jal	ra,30004f44 <rt_hw_tick_init>
    300002b0:	00040593          	mv	a1,s0
    300002b4:	5640d617          	auipc	a2,0x5640d
    300002b8:	23c60613          	addi	a2,a2,572 # 8640d4f0 <__stack_start__+0x540d4f0>
    300002bc:	50000517          	auipc	a0,0x50000
    300002c0:	36c50513          	addi	a0,a0,876 # 80000628 <_uart_ops+0x28>
    300002c4:	1f1020ef          	jal	ra,30002cb4 <rt_kprintf>
    300002c8:	00013403          	ld	s0,0(sp)
    300002cc:	00813083          	ld	ra,8(sp)
    300002d0:	01010113          	addi	sp,sp,16
    300002d4:	5040406f          	j	300047d8 <rt_components_board_init>

00000000300002d8 <strlen>:
    300002d8:	2ec0206f          	j	300025c4 <rt_strlen>

00000000300002dc <strcpy>:
    300002dc:	00050793          	mv	a5,a0
    300002e0:	0005c703          	lbu	a4,0(a1)
    300002e4:	00071663          	bnez	a4,300002f0 <strcpy+0x14>
    300002e8:	00078023          	sb	zero,0(a5)
    300002ec:	00008067          	ret
    300002f0:	00e78023          	sb	a4,0(a5)
    300002f4:	00158593          	addi	a1,a1,1
    300002f8:	00178793          	addi	a5,a5,1
    300002fc:	fe5ff06f          	j	300002e0 <strcpy+0x4>

0000000030000300 <strncpy>:
    30000300:	21c0206f          	j	3000251c <rt_strncpy>

0000000030000304 <strcat>:
    30000304:	fe010113          	addi	sp,sp,-32
    30000308:	00113c23          	sd	ra,24(sp)
    3000030c:	00813823          	sd	s0,16(sp)
    30000310:	00b13423          	sd	a1,8(sp)
    30000314:	00050413          	mv	s0,a0
    30000318:	2ac020ef          	jal	ra,300025c4 <rt_strlen>
    3000031c:	00813583          	ld	a1,8(sp)
    30000320:	00a40533          	add	a0,s0,a0
    30000324:	fb9ff0ef          	jal	ra,300002dc <strcpy>
    30000328:	01813083          	ld	ra,24(sp)
    3000032c:	00040513          	mv	a0,s0
    30000330:	01013403          	ld	s0,16(sp)
    30000334:	02010113          	addi	sp,sp,32
    30000338:	00008067          	ret

000000003000033c <strcmp>:
    3000033c:	2640206f          	j	300025a0 <rt_strcmp>

0000000030000340 <strncmp>:
    30000340:	2200206f          	j	30002560 <rt_strncmp>

0000000030000344 <memset>:
    30000344:	7bd0106f          	j	30002300 <rt_memset>

0000000030000348 <memcpy>:
    30000348:	0640206f          	j	300023ac <rt_memcpy>

000000003000034c <memcmp>:
    3000034c:	19c0206f          	j	300024e8 <rt_memcmp>

0000000030000350 <strstr>:
    30000350:	2900206f          	j	300025e0 <rt_strstr>

0000000030000354 <strrchr>:
    30000354:	00050c63          	beqz	a0,3000036c <strrchr+0x18>
    30000358:	00050793          	mv	a5,a0
    3000035c:	0ff5f593          	zext.b	a1,a1
    30000360:	00000513          	li	a0,0
    30000364:	0007c703          	lbu	a4,0(a5)
    30000368:	00071463          	bnez	a4,30000370 <strrchr+0x1c>
    3000036c:	00008067          	ret
    30000370:	00e59463          	bne	a1,a4,30000378 <strrchr+0x24>
    30000374:	00078513          	mv	a0,a5
    30000378:	00178793          	addi	a5,a5,1
    3000037c:	fe9ff06f          	j	30000364 <strrchr+0x10>

0000000030000380 <atoi>:
    30000380:	00050793          	mv	a5,a0
    30000384:	02000713          	li	a4,32
    30000388:	0007c683          	lbu	a3,0(a5)
    3000038c:	02e68063          	beq	a3,a4,300003ac <atoi+0x2c>
    30000390:	00000513          	li	a0,0
    30000394:	00900613          	li	a2,9
    30000398:	0007c683          	lbu	a3,0(a5)
    3000039c:	fd06871b          	addiw	a4,a3,-48
    300003a0:	0ff77713          	zext.b	a4,a4
    300003a4:	00e67863          	bgeu	a2,a4,300003b4 <atoi+0x34>
    300003a8:	00008067          	ret
    300003ac:	00178793          	addi	a5,a5,1
    300003b0:	fd9ff06f          	j	30000388 <atoi+0x8>
    300003b4:	0025171b          	slliw	a4,a0,0x2
    300003b8:	00a7053b          	addw	a0,a4,a0
    300003bc:	0015151b          	slliw	a0,a0,0x1
    300003c0:	00d5053b          	addw	a0,a0,a3
    300003c4:	fd05051b          	addiw	a0,a0,-48
    300003c8:	00178793          	addi	a5,a5,1
    300003cc:	fcdff06f          	j	30000398 <atoi+0x18>

00000000300003d0 <_rt_timer_remove>:
    300003d0:	02853683          	ld	a3,40(a0)
    300003d4:	03053703          	ld	a4,48(a0)
    300003d8:	02850793          	addi	a5,a0,40
    300003dc:	00e6b423          	sd	a4,8(a3)
    300003e0:	00d73023          	sd	a3,0(a4)
    300003e4:	02f53823          	sd	a5,48(a0)
    300003e8:	02f53423          	sd	a5,40(a0)
    300003ec:	00008067          	ret

00000000300003f0 <rt_timer_init>:
    300003f0:	fc010113          	addi	sp,sp,-64
    300003f4:	02813823          	sd	s0,48(sp)
    300003f8:	02913423          	sd	s1,40(sp)
    300003fc:	03213023          	sd	s2,32(sp)
    30000400:	01313c23          	sd	s3,24(sp)
    30000404:	01413823          	sd	s4,16(sp)
    30000408:	01513423          	sd	s5,8(sp)
    3000040c:	02113c23          	sd	ra,56(sp)
    30000410:	00050413          	mv	s0,a0
    30000414:	00058a93          	mv	s5,a1
    30000418:	00060a13          	mv	s4,a2
    3000041c:	00068993          	mv	s3,a3
    30000420:	00070913          	mv	s2,a4
    30000424:	00078493          	mv	s1,a5
    30000428:	00051e63          	bnez	a0,30000444 <rt_timer_init+0x54>
    3000042c:	0c900613          	li	a2,201
    30000430:	50000597          	auipc	a1,0x50000
    30000434:	35858593          	addi	a1,a1,856 # 80000788 <__FUNCTION__.6>
    30000438:	50000517          	auipc	a0,0x50000
    3000043c:	24050513          	addi	a0,a0,576 # 80000678 <__fsym___cmd_reboot_name+0x20>
    30000440:	1f9020ef          	jal	ra,30002e38 <rt_assert_handler>
    30000444:	000a8613          	mv	a2,s5
    30000448:	00040513          	mv	a0,s0
    3000044c:	00a00593          	li	a1,10
    30000450:	6e1030ef          	jal	ra,30004330 <rt_object_init>
    30000454:	02840793          	addi	a5,s0,40
    30000458:	ffe4f493          	andi	s1,s1,-2
    3000045c:	00940aa3          	sb	s1,21(s0)
    30000460:	03443c23          	sd	s4,56(s0)
    30000464:	05343023          	sd	s3,64(s0)
    30000468:	05242423          	sw	s2,72(s0)
    3000046c:	03813083          	ld	ra,56(sp)
    30000470:	04042623          	sw	zero,76(s0)
    30000474:	02f43823          	sd	a5,48(s0)
    30000478:	02f43423          	sd	a5,40(s0)
    3000047c:	03013403          	ld	s0,48(sp)
    30000480:	02813483          	ld	s1,40(sp)
    30000484:	02013903          	ld	s2,32(sp)
    30000488:	01813983          	ld	s3,24(sp)
    3000048c:	01013a03          	ld	s4,16(sp)
    30000490:	00813a83          	ld	s5,8(sp)
    30000494:	04010113          	addi	sp,sp,64
    30000498:	00008067          	ret

000000003000049c <rt_timer_detach>:
    3000049c:	fe010113          	addi	sp,sp,-32
    300004a0:	00813823          	sd	s0,16(sp)
    300004a4:	00113c23          	sd	ra,24(sp)
    300004a8:	00913423          	sd	s1,8(sp)
    300004ac:	00050413          	mv	s0,a0
    300004b0:	00051e63          	bnez	a0,300004cc <rt_timer_detach+0x30>
    300004b4:	0de00613          	li	a2,222
    300004b8:	50000597          	auipc	a1,0x50000
    300004bc:	2c058593          	addi	a1,a1,704 # 80000778 <__FUNCTION__.5>
    300004c0:	50000517          	auipc	a0,0x50000
    300004c4:	1b850513          	addi	a0,a0,440 # 80000678 <__fsym___cmd_reboot_name+0x20>
    300004c8:	171020ef          	jal	ra,30002e38 <rt_assert_handler>
    300004cc:	00040513          	mv	a0,s0
    300004d0:	1d0040ef          	jal	ra,300046a0 <rt_object_get_type>
    300004d4:	00a00793          	li	a5,10
    300004d8:	00f50e63          	beq	a0,a5,300004f4 <rt_timer_detach+0x58>
    300004dc:	0df00613          	li	a2,223
    300004e0:	50000597          	auipc	a1,0x50000
    300004e4:	29858593          	addi	a1,a1,664 # 80000778 <__FUNCTION__.5>
    300004e8:	50000517          	auipc	a0,0x50000
    300004ec:	1a850513          	addi	a0,a0,424 # 80000690 <__fsym___cmd_reboot_name+0x38>
    300004f0:	149020ef          	jal	ra,30002e38 <rt_assert_handler>
    300004f4:	00040513          	mv	a0,s0
    300004f8:	164040ef          	jal	ra,3000465c <rt_object_is_systemobject>
    300004fc:	00051e63          	bnez	a0,30000518 <rt_timer_detach+0x7c>
    30000500:	0e000613          	li	a2,224
    30000504:	50000597          	auipc	a1,0x50000
    30000508:	27458593          	addi	a1,a1,628 # 80000778 <__FUNCTION__.5>
    3000050c:	50000517          	auipc	a0,0x50000
    30000510:	1c450513          	addi	a0,a0,452 # 800006d0 <__fsym___cmd_reboot_name+0x78>
    30000514:	125020ef          	jal	ra,30002e38 <rt_assert_handler>
    30000518:	08d040ef          	jal	ra,30004da4 <rt_hw_interrupt_disable>
    3000051c:	00050493          	mv	s1,a0
    30000520:	00040513          	mv	a0,s0
    30000524:	eadff0ef          	jal	ra,300003d0 <_rt_timer_remove>
    30000528:	01544783          	lbu	a5,21(s0)
    3000052c:	00048513          	mv	a0,s1
    30000530:	ffe7f793          	andi	a5,a5,-2
    30000534:	00f40aa3          	sb	a5,21(s0)
    30000538:	075040ef          	jal	ra,30004dac <rt_hw_interrupt_enable>
    3000053c:	00040513          	mv	a0,s0
    30000540:	701030ef          	jal	ra,30004440 <rt_object_detach>
    30000544:	01813083          	ld	ra,24(sp)
    30000548:	01013403          	ld	s0,16(sp)
    3000054c:	00813483          	ld	s1,8(sp)
    30000550:	00000513          	li	a0,0
    30000554:	02010113          	addi	sp,sp,32
    30000558:	00008067          	ret

000000003000055c <rt_timer_start>:
    3000055c:	fe010113          	addi	sp,sp,-32
    30000560:	00813823          	sd	s0,16(sp)
    30000564:	00113c23          	sd	ra,24(sp)
    30000568:	00913423          	sd	s1,8(sp)
    3000056c:	00050413          	mv	s0,a0
    30000570:	00051e63          	bnez	a0,3000058c <rt_timer_start+0x30>
    30000574:	14500613          	li	a2,325
    30000578:	50000597          	auipc	a1,0x50000
    3000057c:	1f058593          	addi	a1,a1,496 # 80000768 <__FUNCTION__.3>
    30000580:	50000517          	auipc	a0,0x50000
    30000584:	0f850513          	addi	a0,a0,248 # 80000678 <__fsym___cmd_reboot_name+0x20>
    30000588:	0b1020ef          	jal	ra,30002e38 <rt_assert_handler>
    3000058c:	00040513          	mv	a0,s0
    30000590:	110040ef          	jal	ra,300046a0 <rt_object_get_type>
    30000594:	00a00793          	li	a5,10
    30000598:	00f50e63          	beq	a0,a5,300005b4 <rt_timer_start+0x58>
    3000059c:	14600613          	li	a2,326
    300005a0:	50000597          	auipc	a1,0x50000
    300005a4:	1c858593          	addi	a1,a1,456 # 80000768 <__FUNCTION__.3>
    300005a8:	50000517          	auipc	a0,0x50000
    300005ac:	0e850513          	addi	a0,a0,232 # 80000690 <__fsym___cmd_reboot_name+0x38>
    300005b0:	089020ef          	jal	ra,30002e38 <rt_assert_handler>
    300005b4:	7f0040ef          	jal	ra,30004da4 <rt_hw_interrupt_disable>
    300005b8:	00050493          	mv	s1,a0
    300005bc:	00040513          	mv	a0,s0
    300005c0:	e11ff0ef          	jal	ra,300003d0 <_rt_timer_remove>
    300005c4:	01544783          	lbu	a5,21(s0)
    300005c8:	ffe7f793          	andi	a5,a5,-2
    300005cc:	00f40aa3          	sb	a5,21(s0)
    300005d0:	8c81b783          	ld	a5,-1848(gp) # 800042c0 <rt_object_take_hook>
    300005d4:	00078663          	beqz	a5,300005e0 <rt_timer_start+0x84>
    300005d8:	00040513          	mv	a0,s0
    300005dc:	000780e7          	jalr	a5
    300005e0:	04842703          	lw	a4,72(s0)
    300005e4:	800007b7          	lui	a5,0x80000
    300005e8:	ffe7c793          	xori	a5,a5,-2
    300005ec:	00e7fe63          	bgeu	a5,a4,30000608 <rt_timer_start+0xac>
    300005f0:	15500613          	li	a2,341
    300005f4:	50000597          	auipc	a1,0x50000
    300005f8:	17458593          	addi	a1,a1,372 # 80000768 <__FUNCTION__.3>
    300005fc:	50000517          	auipc	a0,0x50000
    30000600:	10450513          	addi	a0,a0,260 # 80000700 <__fsym___cmd_reboot_name+0xa8>
    30000604:	035020ef          	jal	ra,30002e38 <rt_assert_handler>
    30000608:	130030ef          	jal	ra,30003738 <rt_tick_get>
    3000060c:	04842783          	lw	a5,72(s0)
    30000610:	01544703          	lbu	a4,21(s0)
    30000614:	00f5053b          	addw	a0,a0,a5
    30000618:	04a42623          	sw	a0,76(s0)
    3000061c:	00477693          	andi	a3,a4,4
    30000620:	a2018793          	addi	a5,gp,-1504 # 80004418 <rt_soft_timer_list>
    30000624:	00069463          	bnez	a3,3000062c <rt_timer_start+0xd0>
    30000628:	a3018793          	addi	a5,gp,-1488 # 80004428 <rt_timer_list>
    3000062c:	0087b803          	ld	a6,8(a5) # ffffffff80000008 <__stack_start__+0xfffffffeff000008>
    30000630:	800005b7          	lui	a1,0x80000
    30000634:	ffe5c593          	xori	a1,a1,-2
    30000638:	00078613          	mv	a2,a5
    3000063c:	0007b783          	ld	a5,0(a5)
    30000640:	00c80a63          	beq	a6,a2,30000654 <rt_timer_start+0xf8>
    30000644:	0247a683          	lw	a3,36(a5)
    30000648:	fed508e3          	beq	a0,a3,30000638 <rt_timer_start+0xdc>
    3000064c:	40a686bb          	subw	a3,a3,a0
    30000650:	fed5e4e3          	bltu	a1,a3,30000638 <rt_timer_start+0xdc>
    30000654:	82018593          	addi	a1,gp,-2016 # 80004218 <random_nr.2>
    30000658:	0005a683          	lw	a3,0(a1) # ffffffff80000000 <__stack_start__+0xfffffffeff000000>
    3000065c:	00176713          	ori	a4,a4,1
    30000660:	00048513          	mv	a0,s1
    30000664:	0016869b          	addiw	a3,a3,1
    30000668:	00d5a023          	sw	a3,0(a1)
    3000066c:	02840693          	addi	a3,s0,40
    30000670:	00d7b423          	sd	a3,8(a5)
    30000674:	02f43423          	sd	a5,40(s0)
    30000678:	00d63023          	sd	a3,0(a2)
    3000067c:	02c43823          	sd	a2,48(s0)
    30000680:	00e40aa3          	sb	a4,21(s0)
    30000684:	728040ef          	jal	ra,30004dac <rt_hw_interrupt_enable>
    30000688:	01544783          	lbu	a5,21(s0)
    3000068c:	0047f793          	andi	a5,a5,4
    30000690:	02078863          	beqz	a5,300006c0 <rt_timer_start+0x164>
    30000694:	50004717          	auipc	a4,0x50004
    30000698:	b6474703          	lbu	a4,-1180(a4) # 800041f8 <soft_timer_status>
    3000069c:	00100793          	li	a5,1
    300006a0:	02f71063          	bne	a4,a5,300006c0 <rt_timer_start+0x164>
    300006a4:	a4018513          	addi	a0,gp,-1472 # 80004438 <timer_thread>
    300006a8:	06854783          	lbu	a5,104(a0)
    300006ac:	00200713          	li	a4,2
    300006b0:	0077f793          	andi	a5,a5,7
    300006b4:	00e79663          	bne	a5,a4,300006c0 <rt_timer_start+0x164>
    300006b8:	165030ef          	jal	ra,3000401c <rt_thread_resume>
    300006bc:	464040ef          	jal	ra,30004b20 <rt_schedule>
    300006c0:	01813083          	ld	ra,24(sp)
    300006c4:	01013403          	ld	s0,16(sp)
    300006c8:	00813483          	ld	s1,8(sp)
    300006cc:	00000513          	li	a0,0
    300006d0:	02010113          	addi	sp,sp,32
    300006d4:	00008067          	ret

00000000300006d8 <rt_timer_stop>:
    300006d8:	fe010113          	addi	sp,sp,-32
    300006dc:	00813823          	sd	s0,16(sp)
    300006e0:	00113c23          	sd	ra,24(sp)
    300006e4:	00913423          	sd	s1,8(sp)
    300006e8:	00050413          	mv	s0,a0
    300006ec:	00051e63          	bnez	a0,30000708 <rt_timer_stop+0x30>
    300006f0:	1bb00613          	li	a2,443
    300006f4:	50000597          	auipc	a1,0x50000
    300006f8:	06458593          	addi	a1,a1,100 # 80000758 <__FUNCTION__.1>
    300006fc:	50000517          	auipc	a0,0x50000
    30000700:	f7c50513          	addi	a0,a0,-132 # 80000678 <__fsym___cmd_reboot_name+0x20>
    30000704:	734020ef          	jal	ra,30002e38 <rt_assert_handler>
    30000708:	00040513          	mv	a0,s0
    3000070c:	795030ef          	jal	ra,300046a0 <rt_object_get_type>
    30000710:	00a00793          	li	a5,10
    30000714:	00f50e63          	beq	a0,a5,30000730 <rt_timer_stop+0x58>
    30000718:	1bc00613          	li	a2,444
    3000071c:	50000597          	auipc	a1,0x50000
    30000720:	03c58593          	addi	a1,a1,60 # 80000758 <__FUNCTION__.1>
    30000724:	50000517          	auipc	a0,0x50000
    30000728:	f6c50513          	addi	a0,a0,-148 # 80000690 <__fsym___cmd_reboot_name+0x38>
    3000072c:	70c020ef          	jal	ra,30002e38 <rt_assert_handler>
    30000730:	01544783          	lbu	a5,21(s0)
    30000734:	fff00513          	li	a0,-1
    30000738:	0017f793          	andi	a5,a5,1
    3000073c:	02078e63          	beqz	a5,30000778 <rt_timer_stop+0xa0>
    30000740:	8c01b783          	ld	a5,-1856(gp) # 800042b8 <rt_object_put_hook>
    30000744:	00078663          	beqz	a5,30000750 <rt_timer_stop+0x78>
    30000748:	00040513          	mv	a0,s0
    3000074c:	000780e7          	jalr	a5
    30000750:	654040ef          	jal	ra,30004da4 <rt_hw_interrupt_disable>
    30000754:	00050493          	mv	s1,a0
    30000758:	00040513          	mv	a0,s0
    3000075c:	c75ff0ef          	jal	ra,300003d0 <_rt_timer_remove>
    30000760:	01544783          	lbu	a5,21(s0)
    30000764:	00048513          	mv	a0,s1
    30000768:	ffe7f793          	andi	a5,a5,-2
    3000076c:	00f40aa3          	sb	a5,21(s0)
    30000770:	63c040ef          	jal	ra,30004dac <rt_hw_interrupt_enable>
    30000774:	00000513          	li	a0,0
    30000778:	01813083          	ld	ra,24(sp)
    3000077c:	01013403          	ld	s0,16(sp)
    30000780:	00813483          	ld	s1,8(sp)
    30000784:	02010113          	addi	sp,sp,32
    30000788:	00008067          	ret

000000003000078c <rt_timer_control>:
    3000078c:	fe010113          	addi	sp,sp,-32
    30000790:	00813823          	sd	s0,16(sp)
    30000794:	00913423          	sd	s1,8(sp)
    30000798:	01213023          	sd	s2,0(sp)
    3000079c:	00113c23          	sd	ra,24(sp)
    300007a0:	00050413          	mv	s0,a0
    300007a4:	00058493          	mv	s1,a1
    300007a8:	00060913          	mv	s2,a2
    300007ac:	00051e63          	bnez	a0,300007c8 <rt_timer_control+0x3c>
    300007b0:	1df00613          	li	a2,479
    300007b4:	50000597          	auipc	a1,0x50000
    300007b8:	f8c58593          	addi	a1,a1,-116 # 80000740 <__FUNCTION__.0>
    300007bc:	50000517          	auipc	a0,0x50000
    300007c0:	ebc50513          	addi	a0,a0,-324 # 80000678 <__fsym___cmd_reboot_name+0x20>
    300007c4:	674020ef          	jal	ra,30002e38 <rt_assert_handler>
    300007c8:	00040513          	mv	a0,s0
    300007cc:	6d5030ef          	jal	ra,300046a0 <rt_object_get_type>
    300007d0:	00a00793          	li	a5,10
    300007d4:	00f50e63          	beq	a0,a5,300007f0 <rt_timer_control+0x64>
    300007d8:	1e000613          	li	a2,480
    300007dc:	50000597          	auipc	a1,0x50000
    300007e0:	f6458593          	addi	a1,a1,-156 # 80000740 <__FUNCTION__.0>
    300007e4:	50000517          	auipc	a0,0x50000
    300007e8:	eac50513          	addi	a0,a0,-340 # 80000690 <__fsym___cmd_reboot_name+0x38>
    300007ec:	64c020ef          	jal	ra,30002e38 <rt_assert_handler>
    300007f0:	5b4040ef          	jal	ra,30004da4 <rt_hw_interrupt_disable>
    300007f4:	00400793          	li	a5,4
    300007f8:	0297ea63          	bltu	a5,s1,3000082c <rt_timer_control+0xa0>
    300007fc:	50000717          	auipc	a4,0x50000
    30000800:	f2870713          	addi	a4,a4,-216 # 80000724 <__fsym___cmd_reboot_name+0xcc>
    30000804:	00249493          	slli	s1,s1,0x2
    30000808:	00e484b3          	add	s1,s1,a4
    3000080c:	0004a783          	lw	a5,0(s1)
    30000810:	00e787b3          	add	a5,a5,a4
    30000814:	00078067          	jr	a5
    30000818:	04842783          	lw	a5,72(s0)
    3000081c:	00f92023          	sw	a5,0(s2)
    30000820:	00c0006f          	j	3000082c <rt_timer_control+0xa0>
    30000824:	00092783          	lw	a5,0(s2)
    30000828:	04f42423          	sw	a5,72(s0)
    3000082c:	580040ef          	jal	ra,30004dac <rt_hw_interrupt_enable>
    30000830:	01813083          	ld	ra,24(sp)
    30000834:	01013403          	ld	s0,16(sp)
    30000838:	00813483          	ld	s1,8(sp)
    3000083c:	00013903          	ld	s2,0(sp)
    30000840:	00000513          	li	a0,0
    30000844:	02010113          	addi	sp,sp,32
    30000848:	00008067          	ret
    3000084c:	01544783          	lbu	a5,21(s0)
    30000850:	ffd7f793          	andi	a5,a5,-3
    30000854:	00f40aa3          	sb	a5,21(s0)
    30000858:	fd5ff06f          	j	3000082c <rt_timer_control+0xa0>
    3000085c:	01544783          	lbu	a5,21(s0)
    30000860:	0027e793          	ori	a5,a5,2
    30000864:	ff1ff06f          	j	30000854 <rt_timer_control+0xc8>
    30000868:	01544783          	lbu	a5,21(s0)
    3000086c:	0017f793          	andi	a5,a5,1
    30000870:	00078663          	beqz	a5,3000087c <rt_timer_control+0xf0>
    30000874:	00100793          	li	a5,1
    30000878:	fa5ff06f          	j	3000081c <rt_timer_control+0x90>
    3000087c:	00092023          	sw	zero,0(s2)
    30000880:	fadff06f          	j	3000082c <rt_timer_control+0xa0>

0000000030000884 <rt_timer_check>:
    30000884:	f9010113          	addi	sp,sp,-112
    30000888:	05213823          	sd	s2,80(sp)
    3000088c:	00010913          	mv	s2,sp
    30000890:	06113423          	sd	ra,104(sp)
    30000894:	04913c23          	sd	s1,88(sp)
    30000898:	05413023          	sd	s4,64(sp)
    3000089c:	03513c23          	sd	s5,56(sp)
    300008a0:	03613823          	sd	s6,48(sp)
    300008a4:	03713423          	sd	s7,40(sp)
    300008a8:	03813023          	sd	s8,32(sp)
    300008ac:	01913c23          	sd	s9,24(sp)
    300008b0:	06813023          	sd	s0,96(sp)
    300008b4:	05313423          	sd	s3,72(sp)
    300008b8:	01213423          	sd	s2,8(sp)
    300008bc:	01213023          	sd	s2,0(sp)
    300008c0:	679020ef          	jal	ra,30003738 <rt_tick_get>
    300008c4:	0005049b          	sext.w	s1,a0
    300008c8:	80000ab7          	lui	s5,0x80000
    300008cc:	4d8040ef          	jal	ra,30004da4 <rt_hw_interrupt_disable>
    300008d0:	00050a13          	mv	s4,a0
    300008d4:	a3018b13          	addi	s6,gp,-1488 # 80004428 <rt_timer_list>
    300008d8:	ffeaca93          	xori	s5,s5,-2
    300008dc:	82818b93          	addi	s7,gp,-2008 # 80004220 <rt_timer_enter_hook>
    300008e0:	83018c13          	addi	s8,gp,-2000 # 80004228 <rt_timer_exit_hook>
    300008e4:	00300c93          	li	s9,3
    300008e8:	000b3403          	ld	s0,0(s6)
    300008ec:	05641063          	bne	s0,s6,3000092c <rt_timer_check+0xa8>
    300008f0:	000a0513          	mv	a0,s4
    300008f4:	4b8040ef          	jal	ra,30004dac <rt_hw_interrupt_enable>
    300008f8:	06813083          	ld	ra,104(sp)
    300008fc:	06013403          	ld	s0,96(sp)
    30000900:	05813483          	ld	s1,88(sp)
    30000904:	05013903          	ld	s2,80(sp)
    30000908:	04813983          	ld	s3,72(sp)
    3000090c:	04013a03          	ld	s4,64(sp)
    30000910:	03813a83          	ld	s5,56(sp)
    30000914:	03013b03          	ld	s6,48(sp)
    30000918:	02813b83          	ld	s7,40(sp)
    3000091c:	02013c03          	ld	s8,32(sp)
    30000920:	01813c83          	ld	s9,24(sp)
    30000924:	07010113          	addi	sp,sp,112
    30000928:	00008067          	ret
    3000092c:	02442783          	lw	a5,36(s0)
    30000930:	fd840993          	addi	s3,s0,-40
    30000934:	40f487bb          	subw	a5,s1,a5
    30000938:	fafaece3          	bltu	s5,a5,300008f0 <rt_timer_check+0x6c>
    3000093c:	000bb783          	ld	a5,0(s7)
    30000940:	00078663          	beqz	a5,3000094c <rt_timer_check+0xc8>
    30000944:	00098513          	mv	a0,s3
    30000948:	000780e7          	jalr	a5
    3000094c:	00098513          	mv	a0,s3
    30000950:	a81ff0ef          	jal	ra,300003d0 <_rt_timer_remove>
    30000954:	fed44783          	lbu	a5,-19(s0)
    30000958:	0027f713          	andi	a4,a5,2
    3000095c:	00071663          	bnez	a4,30000968 <rt_timer_check+0xe4>
    30000960:	ffe7f793          	andi	a5,a5,-2
    30000964:	fef406a3          	sb	a5,-19(s0)
    30000968:	00013783          	ld	a5,0(sp)
    3000096c:	01843503          	ld	a0,24(s0)
    30000970:	0087b423          	sd	s0,8(a5)
    30000974:	00f43023          	sd	a5,0(s0)
    30000978:	01043783          	ld	a5,16(s0)
    3000097c:	00813023          	sd	s0,0(sp)
    30000980:	01243423          	sd	s2,8(s0)
    30000984:	000780e7          	jalr	a5
    30000988:	5b1020ef          	jal	ra,30003738 <rt_tick_get>
    3000098c:	000c3783          	ld	a5,0(s8)
    30000990:	0005049b          	sext.w	s1,a0
    30000994:	00078663          	beqz	a5,300009a0 <rt_timer_check+0x11c>
    30000998:	00098513          	mv	a0,s3
    3000099c:	000780e7          	jalr	a5
    300009a0:	00013783          	ld	a5,0(sp)
    300009a4:	f52782e3          	beq	a5,s2,300008e8 <rt_timer_check+0x64>
    300009a8:	00043703          	ld	a4,0(s0)
    300009ac:	00843783          	ld	a5,8(s0)
    300009b0:	00f73423          	sd	a5,8(a4)
    300009b4:	00e7b023          	sd	a4,0(a5)
    300009b8:	fed44783          	lbu	a5,-19(s0)
    300009bc:	00843423          	sd	s0,8(s0)
    300009c0:	00843023          	sd	s0,0(s0)
    300009c4:	0037f713          	andi	a4,a5,3
    300009c8:	f39710e3          	bne	a4,s9,300008e8 <rt_timer_check+0x64>
    300009cc:	ffe7f793          	andi	a5,a5,-2
    300009d0:	fef406a3          	sb	a5,-19(s0)
    300009d4:	00098513          	mv	a0,s3
    300009d8:	b85ff0ef          	jal	ra,3000055c <rt_timer_start>
    300009dc:	f0dff06f          	j	300008e8 <rt_timer_check+0x64>

00000000300009e0 <rt_soft_timer_check>:
    300009e0:	f9010113          	addi	sp,sp,-112
    300009e4:	05213823          	sd	s2,80(sp)
    300009e8:	00010913          	mv	s2,sp
    300009ec:	04913c23          	sd	s1,88(sp)
    300009f0:	05413023          	sd	s4,64(sp)
    300009f4:	03513c23          	sd	s5,56(sp)
    300009f8:	03613823          	sd	s6,48(sp)
    300009fc:	03713423          	sd	s7,40(sp)
    30000a00:	03813023          	sd	s8,32(sp)
    30000a04:	01913c23          	sd	s9,24(sp)
    30000a08:	01a13823          	sd	s10,16(sp)
    30000a0c:	06113423          	sd	ra,104(sp)
    30000a10:	06813023          	sd	s0,96(sp)
    30000a14:	05313423          	sd	s3,72(sp)
    30000a18:	01213423          	sd	s2,8(sp)
    30000a1c:	01213023          	sd	s2,0(sp)
    30000a20:	80000a37          	lui	s4,0x80000
    30000a24:	380040ef          	jal	ra,30004da4 <rt_hw_interrupt_disable>
    30000a28:	00050493          	mv	s1,a0
    30000a2c:	a2018a93          	addi	s5,gp,-1504 # 80004418 <rt_soft_timer_list>
    30000a30:	ffea4a13          	xori	s4,s4,-2
    30000a34:	82818b13          	addi	s6,gp,-2008 # 80004220 <rt_timer_enter_hook>
    30000a38:	83018b93          	addi	s7,gp,-2000 # 80004228 <rt_timer_exit_hook>
    30000a3c:	50003c17          	auipc	s8,0x50003
    30000a40:	7bcc0c13          	addi	s8,s8,1980 # 800041f8 <soft_timer_status>
    30000a44:	00100c93          	li	s9,1
    30000a48:	00300d13          	li	s10,3
    30000a4c:	000ab403          	ld	s0,0(s5) # ffffffff80000000 <__stack_start__+0xfffffffeff000000>
    30000a50:	01540c63          	beq	s0,s5,30000a68 <rt_soft_timer_check+0x88>
    30000a54:	4e5020ef          	jal	ra,30003738 <rt_tick_get>
    30000a58:	02442783          	lw	a5,36(s0)
    30000a5c:	fd840993          	addi	s3,s0,-40
    30000a60:	40f5053b          	subw	a0,a0,a5
    30000a64:	04aa7263          	bgeu	s4,a0,30000aa8 <rt_soft_timer_check+0xc8>
    30000a68:	00048513          	mv	a0,s1
    30000a6c:	340040ef          	jal	ra,30004dac <rt_hw_interrupt_enable>
    30000a70:	06813083          	ld	ra,104(sp)
    30000a74:	06013403          	ld	s0,96(sp)
    30000a78:	05813483          	ld	s1,88(sp)
    30000a7c:	05013903          	ld	s2,80(sp)
    30000a80:	04813983          	ld	s3,72(sp)
    30000a84:	04013a03          	ld	s4,64(sp)
    30000a88:	03813a83          	ld	s5,56(sp)
    30000a8c:	03013b03          	ld	s6,48(sp)
    30000a90:	02813b83          	ld	s7,40(sp)
    30000a94:	02013c03          	ld	s8,32(sp)
    30000a98:	01813c83          	ld	s9,24(sp)
    30000a9c:	01013d03          	ld	s10,16(sp)
    30000aa0:	07010113          	addi	sp,sp,112
    30000aa4:	00008067          	ret
    30000aa8:	000b3783          	ld	a5,0(s6)
    30000aac:	00078663          	beqz	a5,30000ab8 <rt_soft_timer_check+0xd8>
    30000ab0:	00098513          	mv	a0,s3
    30000ab4:	000780e7          	jalr	a5
    30000ab8:	00098513          	mv	a0,s3
    30000abc:	915ff0ef          	jal	ra,300003d0 <_rt_timer_remove>
    30000ac0:	fed44783          	lbu	a5,-19(s0)
    30000ac4:	0027f713          	andi	a4,a5,2
    30000ac8:	00071663          	bnez	a4,30000ad4 <rt_soft_timer_check+0xf4>
    30000acc:	ffe7f793          	andi	a5,a5,-2
    30000ad0:	fef406a3          	sb	a5,-19(s0)
    30000ad4:	00013783          	ld	a5,0(sp)
    30000ad8:	00048513          	mv	a0,s1
    30000adc:	0087b423          	sd	s0,8(a5)
    30000ae0:	00f43023          	sd	a5,0(s0)
    30000ae4:	01243423          	sd	s2,8(s0)
    30000ae8:	50003797          	auipc	a5,0x50003
    30000aec:	70078823          	sb	zero,1808(a5) # 800041f8 <soft_timer_status>
    30000af0:	00813023          	sd	s0,0(sp)
    30000af4:	2b8040ef          	jal	ra,30004dac <rt_hw_interrupt_enable>
    30000af8:	01043783          	ld	a5,16(s0)
    30000afc:	01843503          	ld	a0,24(s0)
    30000b00:	000780e7          	jalr	a5
    30000b04:	000bb783          	ld	a5,0(s7)
    30000b08:	00078663          	beqz	a5,30000b14 <rt_soft_timer_check+0x134>
    30000b0c:	00098513          	mv	a0,s3
    30000b10:	000780e7          	jalr	a5
    30000b14:	290040ef          	jal	ra,30004da4 <rt_hw_interrupt_disable>
    30000b18:	00013783          	ld	a5,0(sp)
    30000b1c:	019c0023          	sb	s9,0(s8)
    30000b20:	00050493          	mv	s1,a0
    30000b24:	f32784e3          	beq	a5,s2,30000a4c <rt_soft_timer_check+0x6c>
    30000b28:	00043703          	ld	a4,0(s0)
    30000b2c:	00843783          	ld	a5,8(s0)
    30000b30:	00f73423          	sd	a5,8(a4)
    30000b34:	00e7b023          	sd	a4,0(a5)
    30000b38:	fed44783          	lbu	a5,-19(s0)
    30000b3c:	00843423          	sd	s0,8(s0)
    30000b40:	00843023          	sd	s0,0(s0)
    30000b44:	0037f713          	andi	a4,a5,3
    30000b48:	f1a712e3          	bne	a4,s10,30000a4c <rt_soft_timer_check+0x6c>
    30000b4c:	ffe7f793          	andi	a5,a5,-2
    30000b50:	fef406a3          	sb	a5,-19(s0)
    30000b54:	00098513          	mv	a0,s3
    30000b58:	a05ff0ef          	jal	ra,3000055c <rt_timer_start>
    30000b5c:	ef1ff06f          	j	30000a4c <rt_soft_timer_check+0x6c>

0000000030000b60 <rt_thread_timer_entry>:
    30000b60:	fd010113          	addi	sp,sp,-48
    30000b64:	00913c23          	sd	s1,24(sp)
    30000b68:	800004b7          	lui	s1,0x80000
    30000b6c:	01213823          	sd	s2,16(sp)
    30000b70:	01313423          	sd	s3,8(sp)
    30000b74:	02113423          	sd	ra,40(sp)
    30000b78:	02813023          	sd	s0,32(sp)
    30000b7c:	a2018913          	addi	s2,gp,-1504 # 80004418 <rt_soft_timer_list>
    30000b80:	fff00993          	li	s3,-1
    30000b84:	ffe4c493          	xori	s1,s1,-2
    30000b88:	21c040ef          	jal	ra,30004da4 <rt_hw_interrupt_disable>
    30000b8c:	00093783          	ld	a5,0(s2)
    30000b90:	fff00413          	li	s0,-1
    30000b94:	01278463          	beq	a5,s2,30000b9c <rt_thread_timer_entry+0x3c>
    30000b98:	0247a403          	lw	s0,36(a5)
    30000b9c:	210040ef          	jal	ra,30004dac <rt_hw_interrupt_enable>
    30000ba0:	01341c63          	bne	s0,s3,30000bb8 <rt_thread_timer_entry+0x58>
    30000ba4:	004030ef          	jal	ra,30003ba8 <rt_thread_self>
    30000ba8:	294030ef          	jal	ra,30003e3c <rt_thread_suspend>
    30000bac:	775030ef          	jal	ra,30004b20 <rt_schedule>
    30000bb0:	e31ff0ef          	jal	ra,300009e0 <rt_soft_timer_check>
    30000bb4:	fd5ff06f          	j	30000b88 <rt_thread_timer_entry+0x28>
    30000bb8:	381020ef          	jal	ra,30003738 <rt_tick_get>
    30000bbc:	40a4053b          	subw	a0,s0,a0
    30000bc0:	fea4e8e3          	bltu	s1,a0,30000bb0 <rt_thread_timer_entry+0x50>
    30000bc4:	438030ef          	jal	ra,30003ffc <rt_thread_delay>
    30000bc8:	fe9ff06f          	j	30000bb0 <rt_thread_timer_entry+0x50>

0000000030000bcc <rt_system_timer_init>:
    30000bcc:	a3018793          	addi	a5,gp,-1488 # 80004428 <rt_timer_list>
    30000bd0:	00f7b423          	sd	a5,8(a5)
    30000bd4:	00f7b023          	sd	a5,0(a5)
    30000bd8:	00008067          	ret

0000000030000bdc <rt_system_timer_thread_init>:
    30000bdc:	ff010113          	addi	sp,sp,-16
    30000be0:	00813023          	sd	s0,0(sp)
    30000be4:	00113423          	sd	ra,8(sp)
    30000be8:	a2018793          	addi	a5,gp,-1504 # 80004418 <rt_soft_timer_list>
    30000bec:	a4018413          	addi	s0,gp,-1472 # 80004438 <timer_thread>
    30000bf0:	00f7b423          	sd	a5,8(a5)
    30000bf4:	00f7b023          	sd	a5,0(a5)
    30000bf8:	00040513          	mv	a0,s0
    30000bfc:	00a00893          	li	a7,10
    30000c00:	00400813          	li	a6,4
    30000c04:	000047b7          	lui	a5,0x4
    30000c08:	50004717          	auipc	a4,0x50004
    30000c0c:	91870713          	addi	a4,a4,-1768 # 80004520 <timer_thread_stack>
    30000c10:	00000693          	li	a3,0
    30000c14:	00000617          	auipc	a2,0x0
    30000c18:	f4c60613          	addi	a2,a2,-180 # 30000b60 <rt_thread_timer_entry>
    30000c1c:	50000597          	auipc	a1,0x50000
    30000c20:	b1c58593          	addi	a1,a1,-1252 # 80000738 <__fsym___cmd_reboot_name+0xe0>
    30000c24:	6ad020ef          	jal	ra,30003ad0 <rt_thread_init>
    30000c28:	00040513          	mv	a0,s0
    30000c2c:	00013403          	ld	s0,0(sp)
    30000c30:	00813083          	ld	ra,8(sp)
    30000c34:	01010113          	addi	sp,sp,16
    30000c38:	4b80306f          	j	300040f0 <rt_thread_startup>

0000000030000c3c <rt_device_find>:
    30000c3c:	00900593          	li	a1,9
    30000c40:	2a50306f          	j	300046e4 <rt_object_find>

0000000030000c44 <rt_device_register>:
    30000c44:	02051463          	bnez	a0,30000c6c <rt_device_register+0x28>
    30000c48:	fff00513          	li	a0,-1
    30000c4c:	00008067          	ret
    30000c50:	fff00513          	li	a0,-1
    30000c54:	01813083          	ld	ra,24(sp)
    30000c58:	01013403          	ld	s0,16(sp)
    30000c5c:	00813483          	ld	s1,8(sp)
    30000c60:	00013903          	ld	s2,0(sp)
    30000c64:	02010113          	addi	sp,sp,32
    30000c68:	00008067          	ret
    30000c6c:	fe010113          	addi	sp,sp,-32
    30000c70:	00813823          	sd	s0,16(sp)
    30000c74:	00050413          	mv	s0,a0
    30000c78:	00058513          	mv	a0,a1
    30000c7c:	00913423          	sd	s1,8(sp)
    30000c80:	01213023          	sd	s2,0(sp)
    30000c84:	00113c23          	sd	ra,24(sp)
    30000c88:	00058493          	mv	s1,a1
    30000c8c:	00060913          	mv	s2,a2
    30000c90:	fadff0ef          	jal	ra,30000c3c <rt_device_find>
    30000c94:	fa051ee3          	bnez	a0,30000c50 <rt_device_register+0xc>
    30000c98:	00040513          	mv	a0,s0
    30000c9c:	00048613          	mv	a2,s1
    30000ca0:	00900593          	li	a1,9
    30000ca4:	68c030ef          	jal	ra,30004330 <rt_object_init>
    30000ca8:	00000513          	li	a0,0
    30000cac:	03241623          	sh	s2,44(s0)
    30000cb0:	02040823          	sb	zero,48(s0)
    30000cb4:	02041723          	sh	zero,46(s0)
    30000cb8:	f9dff06f          	j	30000c54 <rt_device_register+0x10>

0000000030000cbc <rt_device_open>:
    30000cbc:	fe010113          	addi	sp,sp,-32
    30000cc0:	00813823          	sd	s0,16(sp)
    30000cc4:	01213023          	sd	s2,0(sp)
    30000cc8:	00113c23          	sd	ra,24(sp)
    30000ccc:	00913423          	sd	s1,8(sp)
    30000cd0:	00050413          	mv	s0,a0
    30000cd4:	00058913          	mv	s2,a1
    30000cd8:	00051e63          	bnez	a0,30000cf4 <rt_device_open+0x38>
    30000cdc:	0c900613          	li	a2,201
    30000ce0:	50000597          	auipc	a1,0x50000
    30000ce4:	be858593          	addi	a1,a1,-1048 # 800008c8 <__FUNCTION__.6>
    30000ce8:	50000517          	auipc	a0,0x50000
    30000cec:	ab050513          	addi	a0,a0,-1360 # 80000798 <__FUNCTION__.6+0x10>
    30000cf0:	148020ef          	jal	ra,30002e38 <rt_assert_handler>
    30000cf4:	00040513          	mv	a0,s0
    30000cf8:	1a9030ef          	jal	ra,300046a0 <rt_object_get_type>
    30000cfc:	00900793          	li	a5,9
    30000d00:	00f50e63          	beq	a0,a5,30000d1c <rt_device_open+0x60>
    30000d04:	0ca00613          	li	a2,202
    30000d08:	50000597          	auipc	a1,0x50000
    30000d0c:	bc058593          	addi	a1,a1,-1088 # 800008c8 <__FUNCTION__.6>
    30000d10:	50000517          	auipc	a0,0x50000
    30000d14:	a9850513          	addi	a0,a0,-1384 # 800007a8 <__FUNCTION__.6+0x20>
    30000d18:	120020ef          	jal	ra,30002e38 <rt_assert_handler>
    30000d1c:	02c45783          	lhu	a5,44(s0)
    30000d20:	0107f793          	andi	a5,a5,16
    30000d24:	04079c63          	bnez	a5,30000d7c <rt_device_open+0xc0>
    30000d28:	04843783          	ld	a5,72(s0)
    30000d2c:	04078263          	beqz	a5,30000d70 <rt_device_open+0xb4>
    30000d30:	00040513          	mv	a0,s0
    30000d34:	000780e7          	jalr	a5 # 4000 <__stack_size+0x3800>
    30000d38:	00050493          	mv	s1,a0
    30000d3c:	02050a63          	beqz	a0,30000d70 <rt_device_open+0xb4>
    30000d40:	00050613          	mv	a2,a0
    30000d44:	00040593          	mv	a1,s0
    30000d48:	50000517          	auipc	a0,0x50000
    30000d4c:	ac850513          	addi	a0,a0,-1336 # 80000810 <__FUNCTION__.6+0x88>
    30000d50:	765010ef          	jal	ra,30002cb4 <rt_kprintf>
    30000d54:	01813083          	ld	ra,24(sp)
    30000d58:	01013403          	ld	s0,16(sp)
    30000d5c:	00013903          	ld	s2,0(sp)
    30000d60:	00048513          	mv	a0,s1
    30000d64:	00813483          	ld	s1,8(sp)
    30000d68:	02010113          	addi	sp,sp,32
    30000d6c:	00008067          	ret
    30000d70:	02c45783          	lhu	a5,44(s0)
    30000d74:	0107e793          	ori	a5,a5,16
    30000d78:	02f41623          	sh	a5,44(s0)
    30000d7c:	02c45783          	lhu	a5,44(s0)
    30000d80:	0087f793          	andi	a5,a5,8
    30000d84:	00078a63          	beqz	a5,30000d98 <rt_device_open+0xdc>
    30000d88:	02e45783          	lhu	a5,46(s0)
    30000d8c:	ff900493          	li	s1,-7
    30000d90:	0087f793          	andi	a5,a5,8
    30000d94:	fc0790e3          	bnez	a5,30000d54 <rt_device_open+0x98>
    30000d98:	05043783          	ld	a5,80(s0)
    30000d9c:	04078a63          	beqz	a5,30000df0 <rt_device_open+0x134>
    30000da0:	00090593          	mv	a1,s2
    30000da4:	00040513          	mv	a0,s0
    30000da8:	000780e7          	jalr	a5
    30000dac:	00050493          	mv	s1,a0
    30000db0:	04051c63          	bnez	a0,30000e08 <rt_device_open+0x14c>
    30000db4:	02e45783          	lhu	a5,46(s0)
    30000db8:	0087e793          	ori	a5,a5,8
    30000dbc:	02f41723          	sh	a5,46(s0)
    30000dc0:	03044783          	lbu	a5,48(s0)
    30000dc4:	0017879b          	addiw	a5,a5,1
    30000dc8:	0ff7f793          	zext.b	a5,a5
    30000dcc:	02f40823          	sb	a5,48(s0)
    30000dd0:	f80792e3          	bnez	a5,30000d54 <rt_device_open+0x98>
    30000dd4:	0f800613          	li	a2,248
    30000dd8:	50000597          	auipc	a1,0x50000
    30000ddc:	af058593          	addi	a1,a1,-1296 # 800008c8 <__FUNCTION__.6>
    30000de0:	50000517          	auipc	a0,0x50000
    30000de4:	a6850513          	addi	a0,a0,-1432 # 80000848 <__FUNCTION__.6+0xc0>
    30000de8:	050020ef          	jal	ra,30002e38 <rt_assert_handler>
    30000dec:	f69ff06f          	j	30000d54 <rt_device_open+0x98>
    30000df0:	000017b7          	lui	a5,0x1
    30000df4:	f0f78793          	addi	a5,a5,-241 # f0f <__stack_size+0x70f>
    30000df8:	00f97933          	and	s2,s2,a5
    30000dfc:	03241723          	sh	s2,46(s0)
    30000e00:	00000493          	li	s1,0
    30000e04:	fb1ff06f          	j	30000db4 <rt_device_open+0xf8>
    30000e08:	ffa00793          	li	a5,-6
    30000e0c:	f4f514e3          	bne	a0,a5,30000d54 <rt_device_open+0x98>
    30000e10:	fa5ff06f          	j	30000db4 <rt_device_open+0xf8>

0000000030000e14 <rt_device_close>:
    30000e14:	ff010113          	addi	sp,sp,-16
    30000e18:	00813023          	sd	s0,0(sp)
    30000e1c:	00113423          	sd	ra,8(sp)
    30000e20:	00050413          	mv	s0,a0
    30000e24:	00051e63          	bnez	a0,30000e40 <rt_device_close+0x2c>
    30000e28:	10a00613          	li	a2,266
    30000e2c:	50000597          	auipc	a1,0x50000
    30000e30:	a8c58593          	addi	a1,a1,-1396 # 800008b8 <__FUNCTION__.5>
    30000e34:	50000517          	auipc	a0,0x50000
    30000e38:	96450513          	addi	a0,a0,-1692 # 80000798 <__FUNCTION__.6+0x10>
    30000e3c:	7fd010ef          	jal	ra,30002e38 <rt_assert_handler>
    30000e40:	00040513          	mv	a0,s0
    30000e44:	05d030ef          	jal	ra,300046a0 <rt_object_get_type>
    30000e48:	00900793          	li	a5,9
    30000e4c:	00f50e63          	beq	a0,a5,30000e68 <rt_device_close+0x54>
    30000e50:	10b00613          	li	a2,267
    30000e54:	50000597          	auipc	a1,0x50000
    30000e58:	a6458593          	addi	a1,a1,-1436 # 800008b8 <__FUNCTION__.5>
    30000e5c:	50000517          	auipc	a0,0x50000
    30000e60:	94c50513          	addi	a0,a0,-1716 # 800007a8 <__FUNCTION__.6+0x20>
    30000e64:	7d5010ef          	jal	ra,30002e38 <rt_assert_handler>
    30000e68:	03044783          	lbu	a5,48(s0)
    30000e6c:	fff00513          	li	a0,-1
    30000e70:	04078063          	beqz	a5,30000eb0 <rt_device_close+0x9c>
    30000e74:	fff7879b          	addiw	a5,a5,-1
    30000e78:	0ff7f793          	zext.b	a5,a5
    30000e7c:	02f40823          	sb	a5,48(s0)
    30000e80:	00000513          	li	a0,0
    30000e84:	02079663          	bnez	a5,30000eb0 <rt_device_close+0x9c>
    30000e88:	05843783          	ld	a5,88(s0)
    30000e8c:	00079863          	bnez	a5,30000e9c <rt_device_close+0x88>
    30000e90:	00000513          	li	a0,0
    30000e94:	02041723          	sh	zero,46(s0)
    30000e98:	0180006f          	j	30000eb0 <rt_device_close+0x9c>
    30000e9c:	00040513          	mv	a0,s0
    30000ea0:	000780e7          	jalr	a5
    30000ea4:	fe0506e3          	beqz	a0,30000e90 <rt_device_close+0x7c>
    30000ea8:	ffa00793          	li	a5,-6
    30000eac:	fef504e3          	beq	a0,a5,30000e94 <rt_device_close+0x80>
    30000eb0:	00813083          	ld	ra,8(sp)
    30000eb4:	00013403          	ld	s0,0(sp)
    30000eb8:	01010113          	addi	sp,sp,16
    30000ebc:	00008067          	ret

0000000030000ec0 <rt_device_read>:
    30000ec0:	fd010113          	addi	sp,sp,-48
    30000ec4:	02813023          	sd	s0,32(sp)
    30000ec8:	00913c23          	sd	s1,24(sp)
    30000ecc:	01213823          	sd	s2,16(sp)
    30000ed0:	01313423          	sd	s3,8(sp)
    30000ed4:	02113423          	sd	ra,40(sp)
    30000ed8:	00050413          	mv	s0,a0
    30000edc:	00058493          	mv	s1,a1
    30000ee0:	00060913          	mv	s2,a2
    30000ee4:	00068993          	mv	s3,a3
    30000ee8:	00051e63          	bnez	a0,30000f04 <rt_device_read+0x44>
    30000eec:	13400613          	li	a2,308
    30000ef0:	50000597          	auipc	a1,0x50000
    30000ef4:	9b858593          	addi	a1,a1,-1608 # 800008a8 <__FUNCTION__.4>
    30000ef8:	50000517          	auipc	a0,0x50000
    30000efc:	8a050513          	addi	a0,a0,-1888 # 80000798 <__FUNCTION__.6+0x10>
    30000f00:	739010ef          	jal	ra,30002e38 <rt_assert_handler>
    30000f04:	00040513          	mv	a0,s0
    30000f08:	798030ef          	jal	ra,300046a0 <rt_object_get_type>
    30000f0c:	00900793          	li	a5,9
    30000f10:	00f50e63          	beq	a0,a5,30000f2c <rt_device_read+0x6c>
    30000f14:	13500613          	li	a2,309
    30000f18:	50000597          	auipc	a1,0x50000
    30000f1c:	99058593          	addi	a1,a1,-1648 # 800008a8 <__FUNCTION__.4>
    30000f20:	50000517          	auipc	a0,0x50000
    30000f24:	88850513          	addi	a0,a0,-1912 # 800007a8 <__FUNCTION__.6+0x20>
    30000f28:	711010ef          	jal	ra,30002e38 <rt_assert_handler>
    30000f2c:	03044783          	lbu	a5,48(s0)
    30000f30:	fff00513          	li	a0,-1
    30000f34:	02078e63          	beqz	a5,30000f70 <rt_device_read+0xb0>
    30000f38:	06043783          	ld	a5,96(s0)
    30000f3c:	02078863          	beqz	a5,30000f6c <rt_device_read+0xac>
    30000f40:	00040513          	mv	a0,s0
    30000f44:	02013403          	ld	s0,32(sp)
    30000f48:	02813083          	ld	ra,40(sp)
    30000f4c:	00098693          	mv	a3,s3
    30000f50:	00090613          	mv	a2,s2
    30000f54:	00813983          	ld	s3,8(sp)
    30000f58:	01013903          	ld	s2,16(sp)
    30000f5c:	00048593          	mv	a1,s1
    30000f60:	01813483          	ld	s1,24(sp)
    30000f64:	03010113          	addi	sp,sp,48
    30000f68:	00078067          	jr	a5
    30000f6c:	ffa00513          	li	a0,-6
    30000f70:	354010ef          	jal	ra,300022c4 <rt_set_errno>
    30000f74:	02813083          	ld	ra,40(sp)
    30000f78:	02013403          	ld	s0,32(sp)
    30000f7c:	01813483          	ld	s1,24(sp)
    30000f80:	01013903          	ld	s2,16(sp)
    30000f84:	00813983          	ld	s3,8(sp)
    30000f88:	00000513          	li	a0,0
    30000f8c:	03010113          	addi	sp,sp,48
    30000f90:	00008067          	ret

0000000030000f94 <rt_device_write>:
    30000f94:	fd010113          	addi	sp,sp,-48
    30000f98:	02813023          	sd	s0,32(sp)
    30000f9c:	00913c23          	sd	s1,24(sp)
    30000fa0:	01213823          	sd	s2,16(sp)
    30000fa4:	01313423          	sd	s3,8(sp)
    30000fa8:	02113423          	sd	ra,40(sp)
    30000fac:	00050413          	mv	s0,a0
    30000fb0:	00058493          	mv	s1,a1
    30000fb4:	00060913          	mv	s2,a2
    30000fb8:	00068993          	mv	s3,a3
    30000fbc:	00051e63          	bnez	a0,30000fd8 <rt_device_write+0x44>
    30000fc0:	15b00613          	li	a2,347
    30000fc4:	50000597          	auipc	a1,0x50000
    30000fc8:	8d458593          	addi	a1,a1,-1836 # 80000898 <__FUNCTION__.3>
    30000fcc:	4ffff517          	auipc	a0,0x4ffff
    30000fd0:	7cc50513          	addi	a0,a0,1996 # 80000798 <__FUNCTION__.6+0x10>
    30000fd4:	665010ef          	jal	ra,30002e38 <rt_assert_handler>
    30000fd8:	00040513          	mv	a0,s0
    30000fdc:	6c4030ef          	jal	ra,300046a0 <rt_object_get_type>
    30000fe0:	00900793          	li	a5,9
    30000fe4:	00f50e63          	beq	a0,a5,30001000 <rt_device_write+0x6c>
    30000fe8:	15c00613          	li	a2,348
    30000fec:	50000597          	auipc	a1,0x50000
    30000ff0:	8ac58593          	addi	a1,a1,-1876 # 80000898 <__FUNCTION__.3>
    30000ff4:	4ffff517          	auipc	a0,0x4ffff
    30000ff8:	7b450513          	addi	a0,a0,1972 # 800007a8 <__FUNCTION__.6+0x20>
    30000ffc:	63d010ef          	jal	ra,30002e38 <rt_assert_handler>
    30001000:	03044783          	lbu	a5,48(s0)
    30001004:	fff00513          	li	a0,-1
    30001008:	02078e63          	beqz	a5,30001044 <rt_device_write+0xb0>
    3000100c:	06843783          	ld	a5,104(s0)
    30001010:	02078863          	beqz	a5,30001040 <rt_device_write+0xac>
    30001014:	00040513          	mv	a0,s0
    30001018:	02013403          	ld	s0,32(sp)
    3000101c:	02813083          	ld	ra,40(sp)
    30001020:	00098693          	mv	a3,s3
    30001024:	00090613          	mv	a2,s2
    30001028:	00813983          	ld	s3,8(sp)
    3000102c:	01013903          	ld	s2,16(sp)
    30001030:	00048593          	mv	a1,s1
    30001034:	01813483          	ld	s1,24(sp)
    30001038:	03010113          	addi	sp,sp,48
    3000103c:	00078067          	jr	a5
    30001040:	ffa00513          	li	a0,-6
    30001044:	280010ef          	jal	ra,300022c4 <rt_set_errno>
    30001048:	02813083          	ld	ra,40(sp)
    3000104c:	02013403          	ld	s0,32(sp)
    30001050:	01813483          	ld	s1,24(sp)
    30001054:	01013903          	ld	s2,16(sp)
    30001058:	00813983          	ld	s3,8(sp)
    3000105c:	00000513          	li	a0,0
    30001060:	03010113          	addi	sp,sp,48
    30001064:	00008067          	ret

0000000030001068 <rt_device_control>:
    30001068:	fe010113          	addi	sp,sp,-32
    3000106c:	00813823          	sd	s0,16(sp)
    30001070:	00913423          	sd	s1,8(sp)
    30001074:	01213023          	sd	s2,0(sp)
    30001078:	00113c23          	sd	ra,24(sp)
    3000107c:	00050413          	mv	s0,a0
    30001080:	00058493          	mv	s1,a1
    30001084:	00060913          	mv	s2,a2
    30001088:	00051e63          	bnez	a0,300010a4 <rt_device_control+0x3c>
    3000108c:	17c00613          	li	a2,380
    30001090:	4ffff597          	auipc	a1,0x4ffff
    30001094:	7f058593          	addi	a1,a1,2032 # 80000880 <__FUNCTION__.2>
    30001098:	4ffff517          	auipc	a0,0x4ffff
    3000109c:	70050513          	addi	a0,a0,1792 # 80000798 <__FUNCTION__.6+0x10>
    300010a0:	599010ef          	jal	ra,30002e38 <rt_assert_handler>
    300010a4:	00040513          	mv	a0,s0
    300010a8:	5f8030ef          	jal	ra,300046a0 <rt_object_get_type>
    300010ac:	00900793          	li	a5,9
    300010b0:	00f50e63          	beq	a0,a5,300010cc <rt_device_control+0x64>
    300010b4:	17d00613          	li	a2,381
    300010b8:	4ffff597          	auipc	a1,0x4ffff
    300010bc:	7c858593          	addi	a1,a1,1992 # 80000880 <__FUNCTION__.2>
    300010c0:	4ffff517          	auipc	a0,0x4ffff
    300010c4:	6e850513          	addi	a0,a0,1768 # 800007a8 <__FUNCTION__.6+0x20>
    300010c8:	571010ef          	jal	ra,30002e38 <rt_assert_handler>
    300010cc:	07043783          	ld	a5,112(s0)
    300010d0:	02078463          	beqz	a5,300010f8 <rt_device_control+0x90>
    300010d4:	00040513          	mv	a0,s0
    300010d8:	01013403          	ld	s0,16(sp)
    300010dc:	01813083          	ld	ra,24(sp)
    300010e0:	00090613          	mv	a2,s2
    300010e4:	00048593          	mv	a1,s1
    300010e8:	00013903          	ld	s2,0(sp)
    300010ec:	00813483          	ld	s1,8(sp)
    300010f0:	02010113          	addi	sp,sp,32
    300010f4:	00078067          	jr	a5
    300010f8:	01813083          	ld	ra,24(sp)
    300010fc:	01013403          	ld	s0,16(sp)
    30001100:	00813483          	ld	s1,8(sp)
    30001104:	00013903          	ld	s2,0(sp)
    30001108:	ffa00513          	li	a0,-6
    3000110c:	02010113          	addi	sp,sp,32
    30001110:	00008067          	ret

0000000030001114 <rt_device_set_rx_indicate>:
    30001114:	fe010113          	addi	sp,sp,-32
    30001118:	00813823          	sd	s0,16(sp)
    3000111c:	00913423          	sd	s1,8(sp)
    30001120:	00113c23          	sd	ra,24(sp)
    30001124:	00050413          	mv	s0,a0
    30001128:	00058493          	mv	s1,a1
    3000112c:	00051e63          	bnez	a0,30001148 <rt_device_set_rx_indicate+0x34>
    30001130:	19600613          	li	a2,406
    30001134:	4ffff597          	auipc	a1,0x4ffff
    30001138:	72c58593          	addi	a1,a1,1836 # 80000860 <__FUNCTION__.1>
    3000113c:	4ffff517          	auipc	a0,0x4ffff
    30001140:	65c50513          	addi	a0,a0,1628 # 80000798 <__FUNCTION__.6+0x10>
    30001144:	4f5010ef          	jal	ra,30002e38 <rt_assert_handler>
    30001148:	00040513          	mv	a0,s0
    3000114c:	554030ef          	jal	ra,300046a0 <rt_object_get_type>
    30001150:	00900793          	li	a5,9
    30001154:	00f50e63          	beq	a0,a5,30001170 <rt_device_set_rx_indicate+0x5c>
    30001158:	19700613          	li	a2,407
    3000115c:	4ffff597          	auipc	a1,0x4ffff
    30001160:	70458593          	addi	a1,a1,1796 # 80000860 <__FUNCTION__.1>
    30001164:	4ffff517          	auipc	a0,0x4ffff
    30001168:	64450513          	addi	a0,a0,1604 # 800007a8 <__FUNCTION__.6+0x20>
    3000116c:	4cd010ef          	jal	ra,30002e38 <rt_assert_handler>
    30001170:	02943c23          	sd	s1,56(s0)
    30001174:	01813083          	ld	ra,24(sp)
    30001178:	01013403          	ld	s0,16(sp)
    3000117c:	00813483          	ld	s1,8(sp)
    30001180:	00000513          	li	a0,0
    30001184:	02010113          	addi	sp,sp,32
    30001188:	00008067          	ret

000000003000118c <rt_mem_setname>:
    3000118c:	00000713          	li	a4,0
    30001190:	00800613          	li	a2,8
    30001194:	00e586b3          	add	a3,a1,a4
    30001198:	0006c683          	lbu	a3,0(a3)
    3000119c:	0007079b          	sext.w	a5,a4
    300011a0:	00069c63          	bnez	a3,300011b8 <rt_mem_setname+0x2c>
    300011a4:	00800713          	li	a4,8
    300011a8:	02000613          	li	a2,32
    300011ac:	0007869b          	sext.w	a3,a5
    300011b0:	00e69e63          	bne	a3,a4,300011cc <rt_mem_setname+0x40>
    300011b4:	00008067          	ret
    300011b8:	00e507b3          	add	a5,a0,a4
    300011bc:	00d78c23          	sb	a3,24(a5)
    300011c0:	00170713          	addi	a4,a4,1
    300011c4:	fcc718e3          	bne	a4,a2,30001194 <rt_mem_setname+0x8>
    300011c8:	00008067          	ret
    300011cc:	00f506b3          	add	a3,a0,a5
    300011d0:	00c68c23          	sb	a2,24(a3)
    300011d4:	00178793          	addi	a5,a5,1
    300011d8:	fd5ff06f          	j	300011ac <rt_mem_setname+0x20>

00000000300011dc <list_mem>:
    300011dc:	ff010113          	addi	sp,sp,-16
    300011e0:	8581b583          	ld	a1,-1960(gp) # 80004250 <mem_size_aligned>
    300011e4:	4ffff517          	auipc	a0,0x4ffff
    300011e8:	6f450513          	addi	a0,a0,1780 # 800008d8 <__FUNCTION__.6+0x10>
    300011ec:	00113423          	sd	ra,8(sp)
    300011f0:	2c5010ef          	jal	ra,30002cb4 <rt_kprintf>
    300011f4:	8701b583          	ld	a1,-1936(gp) # 80004268 <used_mem>
    300011f8:	4ffff517          	auipc	a0,0x4ffff
    300011fc:	6f850513          	addi	a0,a0,1784 # 800008f0 <__FUNCTION__.6+0x28>
    30001200:	2b5010ef          	jal	ra,30002cb4 <rt_kprintf>
    30001204:	00813083          	ld	ra,8(sp)
    30001208:	8501b583          	ld	a1,-1968(gp) # 80004248 <max_mem>
    3000120c:	4ffff517          	auipc	a0,0x4ffff
    30001210:	6fc50513          	addi	a0,a0,1788 # 80000908 <__FUNCTION__.6+0x40>
    30001214:	01010113          	addi	sp,sp,16
    30001218:	29d0106f          	j	30002cb4 <rt_kprintf>

000000003000121c <memtrace>:
    3000121c:	fa010113          	addi	sp,sp,-96
    30001220:	04113c23          	sd	ra,88(sp)
    30001224:	04813823          	sd	s0,80(sp)
    30001228:	04913423          	sd	s1,72(sp)
    3000122c:	05213023          	sd	s2,64(sp)
    30001230:	03313c23          	sd	s3,56(sp)
    30001234:	03413823          	sd	s4,48(sp)
    30001238:	03513423          	sd	s5,40(sp)
    3000123c:	03613023          	sd	s6,32(sp)
    30001240:	01713c23          	sd	s7,24(sp)
    30001244:	01813823          	sd	s8,16(sp)
    30001248:	01913423          	sd	s9,8(sp)
    3000124c:	01a13023          	sd	s10,0(sp)
    30001250:	f8dff0ef          	jal	ra,300011dc <list_mem>
    30001254:	4ffff517          	auipc	a0,0x4ffff
    30001258:	6d450513          	addi	a0,a0,1748 # 80000928 <__FUNCTION__.6+0x60>
    3000125c:	259010ef          	jal	ra,30002cb4 <rt_kprintf>
    30001260:	84018493          	addi	s1,gp,-1984 # 80004238 <heap_ptr>
    30001264:	0004b583          	ld	a1,0(s1) # ffffffff80000000 <__stack_start__+0xfffffffeff000000>
    30001268:	4ffff517          	auipc	a0,0x4ffff
    3000126c:	6d850513          	addi	a0,a0,1752 # 80000940 <__FUNCTION__.6+0x78>
    30001270:	83818993          	addi	s3,gp,-1992 # 80004230 <heap_end>
    30001274:	241010ef          	jal	ra,30002cb4 <rt_kprintf>
    30001278:	8481b583          	ld	a1,-1976(gp) # 80004240 <lfree>
    3000127c:	4ffff517          	auipc	a0,0x4ffff
    30001280:	6dc50513          	addi	a0,a0,1756 # 80000958 <__FUNCTION__.6+0x90>
    30001284:	231010ef          	jal	ra,30002cb4 <rt_kprintf>
    30001288:	0009b583          	ld	a1,0(s3)
    3000128c:	4ffff517          	auipc	a0,0x4ffff
    30001290:	6e450513          	addi	a0,a0,1764 # 80000970 <__FUNCTION__.6+0xa8>
    30001294:	00002937          	lui	s2,0x2
    30001298:	21d010ef          	jal	ra,30002cb4 <rt_kprintf>
    3000129c:	4ffff517          	auipc	a0,0x4ffff
    300012a0:	6ec50513          	addi	a0,a0,1772 # 80000988 <__FUNCTION__.6+0xc0>
    300012a4:	211010ef          	jal	ra,30002cb4 <rt_kprintf>
    300012a8:	0004b403          	ld	s0,0(s1)
    300012ac:	4ffffa17          	auipc	s4,0x4ffff
    300012b0:	6fca0a13          	addi	s4,s4,1788 # 800009a8 <__FUNCTION__.6+0xe0>
    300012b4:	3ff00a93          	li	s5,1023
    300012b8:	00100b37          	lui	s6,0x100
    300012bc:	4ffffb97          	auipc	s7,0x4ffff
    300012c0:	70cb8b93          	addi	s7,s7,1804 # 800009c8 <__FUNCTION__.6+0x100>
    300012c4:	4ffffc17          	auipc	s8,0x4ffff
    300012c8:	6fcc0c13          	addi	s8,s8,1788 # 800009c0 <__FUNCTION__.6+0xf8>
    300012cc:	4ffffc97          	auipc	s9,0x4ffff
    300012d0:	6ecc8c93          	addi	s9,s9,1772 # 800009b8 <__FUNCTION__.6+0xf0>
    300012d4:	ea090913          	addi	s2,s2,-352 # 1ea0 <__stack_size+0x16a0>
    300012d8:	0009b783          	ld	a5,0(s3)
    300012dc:	04879063          	bne	a5,s0,3000131c <memtrace+0x100>
    300012e0:	05813083          	ld	ra,88(sp)
    300012e4:	05013403          	ld	s0,80(sp)
    300012e8:	04813483          	ld	s1,72(sp)
    300012ec:	04013903          	ld	s2,64(sp)
    300012f0:	03813983          	ld	s3,56(sp)
    300012f4:	03013a03          	ld	s4,48(sp)
    300012f8:	02813a83          	ld	s5,40(sp)
    300012fc:	02013b03          	ld	s6,32(sp)
    30001300:	01813b83          	ld	s7,24(sp)
    30001304:	01013c03          	ld	s8,16(sp)
    30001308:	00813c83          	ld	s9,8(sp)
    3000130c:	00013d03          	ld	s10,0(sp)
    30001310:	00000513          	li	a0,0
    30001314:	06010113          	addi	sp,sp,96
    30001318:	00008067          	ret
    3000131c:	00040593          	mv	a1,s0
    30001320:	000a0513          	mv	a0,s4
    30001324:	0004bd03          	ld	s10,0(s1)
    30001328:	18d010ef          	jal	ra,30002cb4 <rt_kprintf>
    3000132c:	00843783          	ld	a5,8(s0)
    30001330:	41a40d33          	sub	s10,s0,s10
    30001334:	000c8513          	mv	a0,s9
    30001338:	fe07879b          	addiw	a5,a5,-32
    3000133c:	41a785bb          	subw	a1,a5,s10
    30001340:	00bad863          	bge	s5,a1,30001350 <memtrace+0x134>
    30001344:	0565dc63          	bge	a1,s6,3000139c <memtrace+0x180>
    30001348:	40a5d59b          	sraiw	a1,a1,0xa
    3000134c:	000c0513          	mv	a0,s8
    30001350:	165010ef          	jal	ra,30002cb4 <rt_kprintf>
    30001354:	01b44703          	lbu	a4,27(s0)
    30001358:	01a44683          	lbu	a3,26(s0)
    3000135c:	01944603          	lbu	a2,25(s0)
    30001360:	01844583          	lbu	a1,24(s0)
    30001364:	4ffff517          	auipc	a0,0x4ffff
    30001368:	66c50513          	addi	a0,a0,1644 # 800009d0 <__FUNCTION__.6+0x108>
    3000136c:	149010ef          	jal	ra,30002cb4 <rt_kprintf>
    30001370:	00045783          	lhu	a5,0(s0)
    30001374:	4ffff517          	auipc	a0,0x4ffff
    30001378:	66c50513          	addi	a0,a0,1644 # 800009e0 <__FUNCTION__.6+0x118>
    3000137c:	01279663          	bne	a5,s2,30001388 <memtrace+0x16c>
    30001380:	50000517          	auipc	a0,0x50000
    30001384:	2b050513          	addi	a0,a0,688 # 80001630 <__FUNCTION__.6+0x40>
    30001388:	12d010ef          	jal	ra,30002cb4 <rt_kprintf>
    3000138c:	00843783          	ld	a5,8(s0)
    30001390:	0004b403          	ld	s0,0(s1)
    30001394:	00f40433          	add	s0,s0,a5
    30001398:	f41ff06f          	j	300012d8 <memtrace+0xbc>
    3000139c:	4145d59b          	sraiw	a1,a1,0x14
    300013a0:	000b8513          	mv	a0,s7
    300013a4:	fadff06f          	j	30001350 <memtrace+0x134>

00000000300013a8 <plug_holes>:
    300013a8:	fe010113          	addi	sp,sp,-32
    300013ac:	01213023          	sd	s2,0(sp)
    300013b0:	84018913          	addi	s2,gp,-1984 # 80004238 <heap_ptr>
    300013b4:	00093783          	ld	a5,0(s2)
    300013b8:	00813823          	sd	s0,16(sp)
    300013bc:	00113c23          	sd	ra,24(sp)
    300013c0:	00913423          	sd	s1,8(sp)
    300013c4:	00050413          	mv	s0,a0
    300013c8:	00f57e63          	bgeu	a0,a5,300013e4 <plug_holes+0x3c>
    300013cc:	0a100613          	li	a2,161
    300013d0:	50000597          	auipc	a1,0x50000
    300013d4:	94858593          	addi	a1,a1,-1720 # 80000d18 <__FUNCTION__.1>
    300013d8:	4ffff517          	auipc	a0,0x4ffff
    300013dc:	61050513          	addi	a0,a0,1552 # 800009e8 <__FUNCTION__.6+0x120>
    300013e0:	259010ef          	jal	ra,30002e38 <rt_assert_handler>
    300013e4:	83818493          	addi	s1,gp,-1992 # 80004230 <heap_end>
    300013e8:	0004b783          	ld	a5,0(s1)
    300013ec:	00f46e63          	bltu	s0,a5,30001408 <plug_holes+0x60>
    300013f0:	0a200613          	li	a2,162
    300013f4:	50000597          	auipc	a1,0x50000
    300013f8:	92458593          	addi	a1,a1,-1756 # 80000d18 <__FUNCTION__.1>
    300013fc:	4ffff517          	auipc	a0,0x4ffff
    30001400:	60c50513          	addi	a0,a0,1548 # 80000a08 <__FUNCTION__.6+0x140>
    30001404:	235010ef          	jal	ra,30002e38 <rt_assert_handler>
    30001408:	00245783          	lhu	a5,2(s0)
    3000140c:	00078e63          	beqz	a5,30001428 <plug_holes+0x80>
    30001410:	0a300613          	li	a2,163
    30001414:	50000597          	auipc	a1,0x50000
    30001418:	90458593          	addi	a1,a1,-1788 # 80000d18 <__FUNCTION__.1>
    3000141c:	4ffff517          	auipc	a0,0x4ffff
    30001420:	61c50513          	addi	a0,a0,1564 # 80000a38 <__FUNCTION__.6+0x170>
    30001424:	215010ef          	jal	ra,30002e38 <rt_assert_handler>
    30001428:	00093703          	ld	a4,0(s2)
    3000142c:	00843783          	ld	a5,8(s0)
    30001430:	00f707b3          	add	a5,a4,a5
    30001434:	02f40e63          	beq	s0,a5,30001470 <plug_holes+0xc8>
    30001438:	0027d683          	lhu	a3,2(a5)
    3000143c:	02069a63          	bnez	a3,30001470 <plug_holes+0xc8>
    30001440:	0004b683          	ld	a3,0(s1)
    30001444:	02f68663          	beq	a3,a5,30001470 <plug_holes+0xc8>
    30001448:	84818693          	addi	a3,gp,-1976 # 80004240 <lfree>
    3000144c:	0006b603          	ld	a2,0(a3)
    30001450:	00f61463          	bne	a2,a5,30001458 <plug_holes+0xb0>
    30001454:	0086b023          	sd	s0,0(a3)
    30001458:	0087b683          	ld	a3,8(a5)
    3000145c:	00d43423          	sd	a3,8(s0)
    30001460:	0087b783          	ld	a5,8(a5)
    30001464:	40e406b3          	sub	a3,s0,a4
    30001468:	00f707b3          	add	a5,a4,a5
    3000146c:	00d7b823          	sd	a3,16(a5)
    30001470:	01043683          	ld	a3,16(s0)
    30001474:	00d707b3          	add	a5,a4,a3
    30001478:	02f40863          	beq	s0,a5,300014a8 <plug_holes+0x100>
    3000147c:	0027d603          	lhu	a2,2(a5)
    30001480:	02061463          	bnez	a2,300014a8 <plug_holes+0x100>
    30001484:	84818613          	addi	a2,gp,-1976 # 80004240 <lfree>
    30001488:	00063583          	ld	a1,0(a2)
    3000148c:	00859463          	bne	a1,s0,30001494 <plug_holes+0xec>
    30001490:	00f63023          	sd	a5,0(a2)
    30001494:	00843603          	ld	a2,8(s0)
    30001498:	00c7b423          	sd	a2,8(a5)
    3000149c:	00843783          	ld	a5,8(s0)
    300014a0:	00f70733          	add	a4,a4,a5
    300014a4:	00d73823          	sd	a3,16(a4)
    300014a8:	01813083          	ld	ra,24(sp)
    300014ac:	01013403          	ld	s0,16(sp)
    300014b0:	00813483          	ld	s1,8(sp)
    300014b4:	00013903          	ld	s2,0(sp)
    300014b8:	02010113          	addi	sp,sp,32
    300014bc:	00008067          	ret

00000000300014c0 <memcheck>:
    300014c0:	fe010113          	addi	sp,sp,-32
    300014c4:	00813823          	sd	s0,16(sp)
    300014c8:	00913423          	sd	s1,8(sp)
    300014cc:	00113c23          	sd	ra,24(sp)
    300014d0:	01213023          	sd	s2,0(sp)
    300014d4:	0d1030ef          	jal	ra,30004da4 <rt_hw_interrupt_disable>
    300014d8:	8401b783          	ld	a5,-1984(gp) # 80004238 <heap_ptr>
    300014dc:	00002737          	lui	a4,0x2
    300014e0:	00050493          	mv	s1,a0
    300014e4:	8381b683          	ld	a3,-1992(gp) # 80004230 <heap_end>
    300014e8:	8581a603          	lw	a2,-1960(gp) # 80004250 <mem_size_aligned>
    300014ec:	00078413          	mv	s0,a5
    300014f0:	ea070713          	addi	a4,a4,-352 # 1ea0 <__stack_size+0x16a0>
    300014f4:	00100593          	li	a1,1
    300014f8:	02869463          	bne	a3,s0,30001520 <memcheck+0x60>
    300014fc:	00048513          	mv	a0,s1
    30001500:	0ad030ef          	jal	ra,30004dac <rt_hw_interrupt_enable>
    30001504:	01813083          	ld	ra,24(sp)
    30001508:	01013403          	ld	s0,16(sp)
    3000150c:	00813483          	ld	s1,8(sp)
    30001510:	00013903          	ld	s2,0(sp)
    30001514:	00000513          	li	a0,0
    30001518:	02010113          	addi	sp,sp,32
    3000151c:	00008067          	ret
    30001520:	40f4093b          	subw	s2,s0,a5
    30001524:	02094263          	bltz	s2,30001548 <memcheck+0x88>
    30001528:	03264063          	blt	a2,s2,30001548 <memcheck+0x88>
    3000152c:	00045503          	lhu	a0,0(s0)
    30001530:	00e51c63          	bne	a0,a4,30001548 <memcheck+0x88>
    30001534:	00245503          	lhu	a0,2(s0)
    30001538:	00a5e863          	bltu	a1,a0,30001548 <memcheck+0x88>
    3000153c:	00843403          	ld	s0,8(s0)
    30001540:	00878433          	add	s0,a5,s0
    30001544:	fb5ff06f          	j	300014f8 <memcheck+0x38>
    30001548:	4ffff517          	auipc	a0,0x4ffff
    3000154c:	50050513          	addi	a0,a0,1280 # 80000a48 <__FUNCTION__.6+0x180>
    30001550:	764010ef          	jal	ra,30002cb4 <rt_kprintf>
    30001554:	00040593          	mv	a1,s0
    30001558:	4ffff517          	auipc	a0,0x4ffff
    3000155c:	50850513          	addi	a0,a0,1288 # 80000a60 <__FUNCTION__.6+0x198>
    30001560:	754010ef          	jal	ra,30002cb4 <rt_kprintf>
    30001564:	00045583          	lhu	a1,0(s0)
    30001568:	4ffff517          	auipc	a0,0x4ffff
    3000156c:	51050513          	addi	a0,a0,1296 # 80000a78 <__FUNCTION__.6+0x1b0>
    30001570:	744010ef          	jal	ra,30002cb4 <rt_kprintf>
    30001574:	00245583          	lhu	a1,2(s0)
    30001578:	4ffff517          	auipc	a0,0x4ffff
    3000157c:	51850513          	addi	a0,a0,1304 # 80000a90 <__FUNCTION__.6+0x1c8>
    30001580:	734010ef          	jal	ra,30002cb4 <rt_kprintf>
    30001584:	00843583          	ld	a1,8(s0)
    30001588:	4ffff517          	auipc	a0,0x4ffff
    3000158c:	51850513          	addi	a0,a0,1304 # 80000aa0 <__FUNCTION__.6+0x1d8>
    30001590:	fe058593          	addi	a1,a1,-32
    30001594:	412585b3          	sub	a1,a1,s2
    30001598:	71c010ef          	jal	ra,30002cb4 <rt_kprintf>
    3000159c:	f61ff06f          	j	300014fc <memcheck+0x3c>

00000000300015a0 <rt_system_heap_init>:
    300015a0:	fd010113          	addi	sp,sp,-48
    300015a4:	02813023          	sd	s0,32(sp)
    300015a8:	00913c23          	sd	s1,24(sp)
    300015ac:	01213823          	sd	s2,16(sp)
    300015b0:	01313423          	sd	s3,8(sp)
    300015b4:	01413023          	sd	s4,0(sp)
    300015b8:	02113423          	sd	ra,40(sp)
    300015bc:	00750413          	addi	s0,a0,7
    300015c0:	00050913          	mv	s2,a0
    300015c4:	00058993          	mv	s3,a1
    300015c8:	ff85f493          	andi	s1,a1,-8
    300015cc:	7d8030ef          	jal	ra,30004da4 <rt_hw_interrupt_disable>
    300015d0:	ff847413          	andi	s0,s0,-8
    300015d4:	00050a13          	mv	s4,a0
    300015d8:	7a0030ef          	jal	ra,30004d78 <rt_interrupt_get_nest>
    300015dc:	02050863          	beqz	a0,3000160c <rt_system_heap_init+0x6c>
    300015e0:	4ffff597          	auipc	a1,0x4ffff
    300015e4:	76858593          	addi	a1,a1,1896 # 80000d48 <__FUNCTION__.4>
    300015e8:	4ffff517          	auipc	a0,0x4ffff
    300015ec:	4c850513          	addi	a0,a0,1224 # 80000ab0 <__FUNCTION__.6+0x1e8>
    300015f0:	6c4010ef          	jal	ra,30002cb4 <rt_kprintf>
    300015f4:	0d200613          	li	a2,210
    300015f8:	4ffff597          	auipc	a1,0x4ffff
    300015fc:	75058593          	addi	a1,a1,1872 # 80000d48 <__FUNCTION__.4>
    30001600:	4ffff517          	auipc	a0,0x4ffff
    30001604:	4d850513          	addi	a0,a0,1240 # 80000ad8 <__FUNCTION__.6+0x210>
    30001608:	031010ef          	jal	ra,30002e38 <rt_assert_handler>
    3000160c:	000a0513          	mv	a0,s4
    30001610:	79c030ef          	jal	ra,30004dac <rt_hw_interrupt_enable>
    30001614:	04000793          	li	a5,64
    30001618:	0a97fc63          	bgeu	a5,s1,300016d0 <rt_system_heap_init+0x130>
    3000161c:	fc048793          	addi	a5,s1,-64
    30001620:	0a87e863          	bltu	a5,s0,300016d0 <rt_system_heap_init+0x130>
    30001624:	408484b3          	sub	s1,s1,s0
    30001628:	fc048793          	addi	a5,s1,-64
    3000162c:	84f1bc23          	sd	a5,-1960(gp) # 80004250 <mem_size_aligned>
    30001630:	000027b7          	lui	a5,0x2
    30001634:	fe048493          	addi	s1,s1,-32
    30001638:	ea078793          	addi	a5,a5,-352 # 1ea0 <__stack_size+0x16a0>
    3000163c:	84018913          	addi	s2,gp,-1984 # 80004238 <heap_ptr>
    30001640:	00943423          	sd	s1,8(s0)
    30001644:	00f42023          	sw	a5,0(s0)
    30001648:	00040513          	mv	a0,s0
    3000164c:	00043823          	sd	zero,16(s0)
    30001650:	4ffff597          	auipc	a1,0x4ffff
    30001654:	49058593          	addi	a1,a1,1168 # 80000ae0 <__FUNCTION__.6+0x218>
    30001658:	00893023          	sd	s0,0(s2)
    3000165c:	b31ff0ef          	jal	ra,3000118c <rt_mem_setname>
    30001660:	00843783          	ld	a5,8(s0)
    30001664:	4ffff597          	auipc	a1,0x4ffff
    30001668:	47c58593          	addi	a1,a1,1148 # 80000ae0 <__FUNCTION__.6+0x218>
    3000166c:	00f40533          	add	a0,s0,a5
    30001670:	82a1bc23          	sd	a0,-1992(gp) # 80004230 <heap_end>
    30001674:	000127b7          	lui	a5,0x12
    30001678:	ea078793          	addi	a5,a5,-352 # 11ea0 <__stack_size+0x116a0>
    3000167c:	00f52023          	sw	a5,0(a0)
    30001680:	00953423          	sd	s1,8(a0)
    30001684:	00953823          	sd	s1,16(a0)
    30001688:	b05ff0ef          	jal	ra,3000118c <rt_mem_setname>
    3000168c:	00100693          	li	a3,1
    30001690:	00100613          	li	a2,1
    30001694:	4ffff597          	auipc	a1,0x4ffff
    30001698:	45458593          	addi	a1,a1,1108 # 80000ae8 <__FUNCTION__.6+0x220>
    3000169c:	50007517          	auipc	a0,0x50007
    300016a0:	e8450513          	addi	a0,a0,-380 # 80008520 <heap_sem>
    300016a4:	0b1010ef          	jal	ra,30002f54 <rt_sem_init>
    300016a8:	00093783          	ld	a5,0(s2)
    300016ac:	02813083          	ld	ra,40(sp)
    300016b0:	02013403          	ld	s0,32(sp)
    300016b4:	84f1b423          	sd	a5,-1976(gp) # 80004240 <lfree>
    300016b8:	01813483          	ld	s1,24(sp)
    300016bc:	01013903          	ld	s2,16(sp)
    300016c0:	00813983          	ld	s3,8(sp)
    300016c4:	00013a03          	ld	s4,0(sp)
    300016c8:	03010113          	addi	sp,sp,48
    300016cc:	00008067          	ret
    300016d0:	02013403          	ld	s0,32(sp)
    300016d4:	02813083          	ld	ra,40(sp)
    300016d8:	01813483          	ld	s1,24(sp)
    300016dc:	00013a03          	ld	s4,0(sp)
    300016e0:	00098613          	mv	a2,s3
    300016e4:	00090593          	mv	a1,s2
    300016e8:	00813983          	ld	s3,8(sp)
    300016ec:	01013903          	ld	s2,16(sp)
    300016f0:	4ffff517          	auipc	a0,0x4ffff
    300016f4:	40050513          	addi	a0,a0,1024 # 80000af0 <__FUNCTION__.6+0x228>
    300016f8:	03010113          	addi	sp,sp,48
    300016fc:	5b80106f          	j	30002cb4 <rt_kprintf>

0000000030001700 <rt_malloc>:
    30001700:	f8010113          	addi	sp,sp,-128
    30001704:	06113c23          	sd	ra,120(sp)
    30001708:	06813823          	sd	s0,112(sp)
    3000170c:	06913423          	sd	s1,104(sp)
    30001710:	07213023          	sd	s2,96(sp)
    30001714:	05313c23          	sd	s3,88(sp)
    30001718:	05413823          	sd	s4,80(sp)
    3000171c:	05513423          	sd	s5,72(sp)
    30001720:	05613023          	sd	s6,64(sp)
    30001724:	03713c23          	sd	s7,56(sp)
    30001728:	03813823          	sd	s8,48(sp)
    3000172c:	03913423          	sd	s9,40(sp)
    30001730:	03a13023          	sd	s10,32(sp)
    30001734:	01b13c23          	sd	s11,24(sp)
    30001738:	00051663          	bnez	a0,30001744 <rt_malloc+0x44>
    3000173c:	00000913          	li	s2,0
    30001740:	2280006f          	j	30001968 <rt_malloc+0x268>
    30001744:	00050413          	mv	s0,a0
    30001748:	65c030ef          	jal	ra,30004da4 <rt_hw_interrupt_disable>
    3000174c:	00050493          	mv	s1,a0
    30001750:	628030ef          	jal	ra,30004d78 <rt_interrupt_get_nest>
    30001754:	02050863          	beqz	a0,30001784 <rt_malloc+0x84>
    30001758:	4ffff597          	auipc	a1,0x4ffff
    3000175c:	5e058593          	addi	a1,a1,1504 # 80000d38 <__FUNCTION__.3>
    30001760:	4ffff517          	auipc	a0,0x4ffff
    30001764:	35050513          	addi	a0,a0,848 # 80000ab0 <__FUNCTION__.6+0x1e8>
    30001768:	54c010ef          	jal	ra,30002cb4 <rt_kprintf>
    3000176c:	11800613          	li	a2,280
    30001770:	4ffff597          	auipc	a1,0x4ffff
    30001774:	5c858593          	addi	a1,a1,1480 # 80000d38 <__FUNCTION__.3>
    30001778:	4ffff517          	auipc	a0,0x4ffff
    3000177c:	36050513          	addi	a0,a0,864 # 80000ad8 <__FUNCTION__.6+0x210>
    30001780:	6b8010ef          	jal	ra,30002e38 <rt_assert_handler>
    30001784:	00048513          	mv	a0,s1
    30001788:	624030ef          	jal	ra,30004dac <rt_hw_interrupt_enable>
    3000178c:	85818493          	addi	s1,gp,-1960 # 80004250 <mem_size_aligned>
    30001790:	0004b783          	ld	a5,0(s1)
    30001794:	00740413          	addi	s0,s0,7
    30001798:	ff847413          	andi	s0,s0,-8
    3000179c:	fa87e0e3          	bltu	a5,s0,3000173c <rt_malloc+0x3c>
    300017a0:	01800793          	li	a5,24
    300017a4:	00f47463          	bgeu	s0,a5,300017ac <rt_malloc+0xac>
    300017a8:	01800413          	li	s0,24
    300017ac:	fff00593          	li	a1,-1
    300017b0:	50007517          	auipc	a0,0x50007
    300017b4:	d7050513          	addi	a0,a0,-656 # 80008520 <heap_sem>
    300017b8:	045010ef          	jal	ra,30002ffc <rt_sem_take>
    300017bc:	84018a93          	addi	s5,gp,-1984 # 80004238 <heap_ptr>
    300017c0:	84818993          	addi	s3,gp,-1976 # 80004240 <lfree>
    300017c4:	000abb83          	ld	s7,0(s5)
    300017c8:	0009b783          	ld	a5,0(s3)
    300017cc:	0004bc03          	ld	s8,0(s1)
    300017d0:	417787b3          	sub	a5,a5,s7
    300017d4:	408c0633          	sub	a2,s8,s0
    300017d8:	00c7ea63          	bltu	a5,a2,300017ec <rt_malloc+0xec>
    300017dc:	50007517          	auipc	a0,0x50007
    300017e0:	d4450513          	addi	a0,a0,-700 # 80008520 <heap_sem>
    300017e4:	1d1010ef          	jal	ra,300031b4 <rt_sem_release>
    300017e8:	f55ff06f          	j	3000173c <rt_malloc+0x3c>
    300017ec:	00fb84b3          	add	s1,s7,a5
    300017f0:	0024d703          	lhu	a4,2(s1)
    300017f4:	0084b683          	ld	a3,8(s1)
    300017f8:	1e071063          	bnez	a4,300019d8 <rt_malloc+0x2d8>
    300017fc:	40f68733          	sub	a4,a3,a5
    30001800:	fe070593          	addi	a1,a4,-32
    30001804:	1c85ea63          	bltu	a1,s0,300019d8 <rt_malloc+0x2d8>
    30001808:	87018d13          	addi	s10,gp,-1936 # 80004268 <used_mem>
    3000180c:	85018c93          	addi	s9,gp,-1968 # 80004248 <max_mem>
    30001810:	03840513          	addi	a0,s0,56
    30001814:	000d3903          	ld	s2,0(s10)
    30001818:	000cb603          	ld	a2,0(s9)
    3000181c:	02040a13          	addi	s4,s0,32
    30001820:	18a5e463          	bltu	a1,a0,300019a8 <rt_malloc+0x2a8>
    30001824:	01478db3          	add	s11,a5,s4
    30001828:	00002737          	lui	a4,0x2
    3000182c:	01bb8b33          	add	s6,s7,s11
    30001830:	ea070713          	addi	a4,a4,-352 # 1ea0 <__stack_size+0x16a0>
    30001834:	00fb3823          	sd	a5,16(s6) # 100010 <__stack_size+0xff810>
    30001838:	00eb2023          	sw	a4,0(s6)
    3000183c:	00db3423          	sd	a3,8(s6)
    30001840:	4ffff597          	auipc	a1,0x4ffff
    30001844:	2f058593          	addi	a1,a1,752 # 80000b30 <__FUNCTION__.6+0x268>
    30001848:	000b0513          	mv	a0,s6
    3000184c:	00c13423          	sd	a2,8(sp)
    30001850:	93dff0ef          	jal	ra,3000118c <rt_mem_setname>
    30001854:	00100793          	li	a5,1
    30001858:	01b4b423          	sd	s11,8(s1)
    3000185c:	00f49123          	sh	a5,2(s1)
    30001860:	008b3783          	ld	a5,8(s6)
    30001864:	020c0c13          	addi	s8,s8,32
    30001868:	00813603          	ld	a2,8(sp)
    3000186c:	01878663          	beq	a5,s8,30001878 <rt_malloc+0x178>
    30001870:	00fb87b3          	add	a5,s7,a5
    30001874:	01b7b823          	sd	s11,16(a5)
    30001878:	02090793          	addi	a5,s2,32
    3000187c:	008787b3          	add	a5,a5,s0
    30001880:	00fd3023          	sd	a5,0(s10)
    30001884:	00f67463          	bgeu	a2,a5,3000188c <rt_malloc+0x18c>
    30001888:	00fcb023          	sd	a5,0(s9)
    3000188c:	000027b7          	lui	a5,0x2
    30001890:	ea078793          	addi	a5,a5,-352 # 1ea0 <__stack_size+0x16a0>
    30001894:	00f49023          	sh	a5,0(s1)
    30001898:	310020ef          	jal	ra,30003ba8 <rt_thread_self>
    3000189c:	4ffff597          	auipc	a1,0x4ffff
    300018a0:	29c58593          	addi	a1,a1,668 # 80000b38 <__FUNCTION__.6+0x270>
    300018a4:	00050663          	beqz	a0,300018b0 <rt_malloc+0x1b0>
    300018a8:	300020ef          	jal	ra,30003ba8 <rt_thread_self>
    300018ac:	00050593          	mv	a1,a0
    300018b0:	00048513          	mv	a0,s1
    300018b4:	8d9ff0ef          	jal	ra,3000118c <rt_mem_setname>
    300018b8:	0009b783          	ld	a5,0(s3)
    300018bc:	83818913          	addi	s2,gp,-1992 # 80004230 <heap_end>
    300018c0:	02979063          	bne	a5,s1,300018e0 <rt_malloc+0x1e0>
    300018c4:	00093683          	ld	a3,0(s2)
    300018c8:	000ab603          	ld	a2,0(s5)
    300018cc:	00000713          	li	a4,0
    300018d0:	0027d583          	lhu	a1,2(a5)
    300018d4:	0e059a63          	bnez	a1,300019c8 <rt_malloc+0x2c8>
    300018d8:	00070463          	beqz	a4,300018e0 <rt_malloc+0x1e0>
    300018dc:	00f9b023          	sd	a5,0(s3)
    300018e0:	50007517          	auipc	a0,0x50007
    300018e4:	c4050513          	addi	a0,a0,-960 # 80008520 <heap_sem>
    300018e8:	0cd010ef          	jal	ra,300031b4 <rt_sem_release>
    300018ec:	00093783          	ld	a5,0(s2)
    300018f0:	01448a33          	add	s4,s1,s4
    300018f4:	0147fe63          	bgeu	a5,s4,30001910 <rt_malloc+0x210>
    300018f8:	18600613          	li	a2,390
    300018fc:	4ffff597          	auipc	a1,0x4ffff
    30001900:	43c58593          	addi	a1,a1,1084 # 80000d38 <__FUNCTION__.3>
    30001904:	4ffff517          	auipc	a0,0x4ffff
    30001908:	23c50513          	addi	a0,a0,572 # 80000b40 <__FUNCTION__.6+0x278>
    3000190c:	52c010ef          	jal	ra,30002e38 <rt_assert_handler>
    30001910:	0074f793          	andi	a5,s1,7
    30001914:	02048913          	addi	s2,s1,32
    30001918:	00078e63          	beqz	a5,30001934 <rt_malloc+0x234>
    3000191c:	18700613          	li	a2,391
    30001920:	4ffff597          	auipc	a1,0x4ffff
    30001924:	41858593          	addi	a1,a1,1048 # 80000d38 <__FUNCTION__.3>
    30001928:	4ffff517          	auipc	a0,0x4ffff
    3000192c:	26050513          	addi	a0,a0,608 # 80000b88 <__FUNCTION__.6+0x2c0>
    30001930:	508010ef          	jal	ra,30002e38 <rt_assert_handler>
    30001934:	0074f493          	andi	s1,s1,7
    30001938:	00048e63          	beqz	s1,30001954 <rt_malloc+0x254>
    3000193c:	18800613          	li	a2,392
    30001940:	4ffff597          	auipc	a1,0x4ffff
    30001944:	3f858593          	addi	a1,a1,1016 # 80000d38 <__FUNCTION__.3>
    30001948:	4ffff517          	auipc	a0,0x4ffff
    3000194c:	29050513          	addi	a0,a0,656 # 80000bd8 <__FUNCTION__.6+0x310>
    30001950:	4e8010ef          	jal	ra,30002e38 <rt_assert_handler>
    30001954:	8681b783          	ld	a5,-1944(gp) # 80004260 <rt_malloc_hook>
    30001958:	00078863          	beqz	a5,30001968 <rt_malloc+0x268>
    3000195c:	00040593          	mv	a1,s0
    30001960:	00090513          	mv	a0,s2
    30001964:	000780e7          	jalr	a5
    30001968:	07813083          	ld	ra,120(sp)
    3000196c:	07013403          	ld	s0,112(sp)
    30001970:	06813483          	ld	s1,104(sp)
    30001974:	05813983          	ld	s3,88(sp)
    30001978:	05013a03          	ld	s4,80(sp)
    3000197c:	04813a83          	ld	s5,72(sp)
    30001980:	04013b03          	ld	s6,64(sp)
    30001984:	03813b83          	ld	s7,56(sp)
    30001988:	03013c03          	ld	s8,48(sp)
    3000198c:	02813c83          	ld	s9,40(sp)
    30001990:	02013d03          	ld	s10,32(sp)
    30001994:	01813d83          	ld	s11,24(sp)
    30001998:	00090513          	mv	a0,s2
    3000199c:	06013903          	ld	s2,96(sp)
    300019a0:	08010113          	addi	sp,sp,128
    300019a4:	00008067          	ret
    300019a8:	00100793          	li	a5,1
    300019ac:	00f49123          	sh	a5,2(s1)
    300019b0:	012707b3          	add	a5,a4,s2
    300019b4:	ecdff06f          	j	30001880 <rt_malloc+0x180>
    300019b8:	0087b783          	ld	a5,8(a5)
    300019bc:	00100713          	li	a4,1
    300019c0:	00f607b3          	add	a5,a2,a5
    300019c4:	f0dff06f          	j	300018d0 <rt_malloc+0x1d0>
    300019c8:	fef698e3          	bne	a3,a5,300019b8 <rt_malloc+0x2b8>
    300019cc:	f0070ae3          	beqz	a4,300018e0 <rt_malloc+0x1e0>
    300019d0:	00d9b023          	sd	a3,0(s3)
    300019d4:	f0dff06f          	j	300018e0 <rt_malloc+0x1e0>
    300019d8:	00068793          	mv	a5,a3
    300019dc:	dfdff06f          	j	300017d8 <rt_malloc+0xd8>

00000000300019e0 <rt_calloc>:
    300019e0:	fe010113          	addi	sp,sp,-32
    300019e4:	00113c23          	sd	ra,24(sp)
    300019e8:	00813823          	sd	s0,16(sp)
    300019ec:	618030ef          	jal	ra,30005004 <__muldi3>
    300019f0:	00a13423          	sd	a0,8(sp)
    300019f4:	d0dff0ef          	jal	ra,30001700 <rt_malloc>
    300019f8:	00050413          	mv	s0,a0
    300019fc:	00050863          	beqz	a0,30001a0c <rt_calloc+0x2c>
    30001a00:	00813603          	ld	a2,8(sp)
    30001a04:	00000593          	li	a1,0
    30001a08:	0f9000ef          	jal	ra,30002300 <rt_memset>
    30001a0c:	01813083          	ld	ra,24(sp)
    30001a10:	00040513          	mv	a0,s0
    30001a14:	01013403          	ld	s0,16(sp)
    30001a18:	02010113          	addi	sp,sp,32
    30001a1c:	00008067          	ret

0000000030001a20 <rt_free>:
    30001a20:	1c050e63          	beqz	a0,30001bfc <rt_free+0x1dc>
    30001a24:	fe010113          	addi	sp,sp,-32
    30001a28:	00813823          	sd	s0,16(sp)
    30001a2c:	00913423          	sd	s1,8(sp)
    30001a30:	00113c23          	sd	ra,24(sp)
    30001a34:	01213023          	sd	s2,0(sp)
    30001a38:	00050413          	mv	s0,a0
    30001a3c:	368030ef          	jal	ra,30004da4 <rt_hw_interrupt_disable>
    30001a40:	00050493          	mv	s1,a0
    30001a44:	334030ef          	jal	ra,30004d78 <rt_interrupt_get_nest>
    30001a48:	02050463          	beqz	a0,30001a70 <rt_free+0x50>
    30001a4c:	81018593          	addi	a1,gp,-2032 # 80004208 <__FUNCTION__.0>
    30001a50:	4ffff517          	auipc	a0,0x4ffff
    30001a54:	06050513          	addi	a0,a0,96 # 80000ab0 <__FUNCTION__.6+0x1e8>
    30001a58:	25c010ef          	jal	ra,30002cb4 <rt_kprintf>
    30001a5c:	22f00613          	li	a2,559
    30001a60:	81018593          	addi	a1,gp,-2032 # 80004208 <__FUNCTION__.0>
    30001a64:	4ffff517          	auipc	a0,0x4ffff
    30001a68:	07450513          	addi	a0,a0,116 # 80000ad8 <__FUNCTION__.6+0x210>
    30001a6c:	3cc010ef          	jal	ra,30002e38 <rt_assert_handler>
    30001a70:	00048513          	mv	a0,s1
    30001a74:	338030ef          	jal	ra,30004dac <rt_hw_interrupt_enable>
    30001a78:	00747793          	andi	a5,s0,7
    30001a7c:	00078c63          	beqz	a5,30001a94 <rt_free+0x74>
    30001a80:	23100613          	li	a2,561
    30001a84:	81018593          	addi	a1,gp,-2032 # 80004208 <__FUNCTION__.0>
    30001a88:	4ffff517          	auipc	a0,0x4ffff
    30001a8c:	18050513          	addi	a0,a0,384 # 80000c08 <__FUNCTION__.6+0x340>
    30001a90:	3a8010ef          	jal	ra,30002e38 <rt_assert_handler>
    30001a94:	84018913          	addi	s2,gp,-1984 # 80004238 <heap_ptr>
    30001a98:	00093783          	ld	a5,0(s2)
    30001a9c:	00f46663          	bltu	s0,a5,30001aa8 <rt_free+0x88>
    30001aa0:	8381b783          	ld	a5,-1992(gp) # 80004230 <heap_end>
    30001aa4:	00f46c63          	bltu	s0,a5,30001abc <rt_free+0x9c>
    30001aa8:	23200613          	li	a2,562
    30001aac:	81018593          	addi	a1,gp,-2032 # 80004208 <__FUNCTION__.0>
    30001ab0:	4ffff517          	auipc	a0,0x4ffff
    30001ab4:	18850513          	addi	a0,a0,392 # 80000c38 <__FUNCTION__.6+0x370>
    30001ab8:	380010ef          	jal	ra,30002e38 <rt_assert_handler>
    30001abc:	8601b783          	ld	a5,-1952(gp) # 80004258 <rt_free_hook>
    30001ac0:	00078663          	beqz	a5,30001acc <rt_free+0xac>
    30001ac4:	00040513          	mv	a0,s0
    30001ac8:	000780e7          	jalr	a5
    30001acc:	00093783          	ld	a5,0(s2)
    30001ad0:	10f46a63          	bltu	s0,a5,30001be4 <rt_free+0x1c4>
    30001ad4:	8381b783          	ld	a5,-1992(gp) # 80004230 <heap_end>
    30001ad8:	10f47663          	bgeu	s0,a5,30001be4 <rt_free+0x1c4>
    30001adc:	fff00593          	li	a1,-1
    30001ae0:	50007517          	auipc	a0,0x50007
    30001ae4:	a4050513          	addi	a0,a0,-1472 # 80008520 <heap_sem>
    30001ae8:	514010ef          	jal	ra,30002ffc <rt_sem_take>
    30001aec:	fe245783          	lhu	a5,-30(s0)
    30001af0:	fe040493          	addi	s1,s0,-32
    30001af4:	00078a63          	beqz	a5,30001b08 <rt_free+0xe8>
    30001af8:	fe045703          	lhu	a4,-32(s0)
    30001afc:	000027b7          	lui	a5,0x2
    30001b00:	ea078793          	addi	a5,a5,-352 # 1ea0 <__stack_size+0x16a0>
    30001b04:	06f70463          	beq	a4,a5,30001b6c <rt_free+0x14c>
    30001b08:	4ffff517          	auipc	a0,0x4ffff
    30001b0c:	19050513          	addi	a0,a0,400 # 80000c98 <__FUNCTION__.6+0x3d0>
    30001b10:	1a4010ef          	jal	ra,30002cb4 <rt_kprintf>
    30001b14:	fe045683          	lhu	a3,-32(s0)
    30001b18:	fe245603          	lhu	a2,-30(s0)
    30001b1c:	00048593          	mv	a1,s1
    30001b20:	4ffff517          	auipc	a0,0x4ffff
    30001b24:	19850513          	addi	a0,a0,408 # 80000cb8 <__FUNCTION__.6+0x3f0>
    30001b28:	18c010ef          	jal	ra,30002cb4 <rt_kprintf>
    30001b2c:	fe245783          	lhu	a5,-30(s0)
    30001b30:	00079c63          	bnez	a5,30001b48 <rt_free+0x128>
    30001b34:	25100613          	li	a2,593
    30001b38:	81018593          	addi	a1,gp,-2032 # 80004208 <__FUNCTION__.0>
    30001b3c:	4ffff517          	auipc	a0,0x4ffff
    30001b40:	1ac50513          	addi	a0,a0,428 # 80000ce8 <__FUNCTION__.6+0x420>
    30001b44:	2f4010ef          	jal	ra,30002e38 <rt_assert_handler>
    30001b48:	fe045703          	lhu	a4,-32(s0)
    30001b4c:	000027b7          	lui	a5,0x2
    30001b50:	ea078793          	addi	a5,a5,-352 # 1ea0 <__stack_size+0x16a0>
    30001b54:	00f70c63          	beq	a4,a5,30001b6c <rt_free+0x14c>
    30001b58:	25200613          	li	a2,594
    30001b5c:	81018593          	addi	a1,gp,-2032 # 80004208 <__FUNCTION__.0>
    30001b60:	4ffff517          	auipc	a0,0x4ffff
    30001b64:	19850513          	addi	a0,a0,408 # 80000cf8 <__FUNCTION__.6+0x430>
    30001b68:	2d0010ef          	jal	ra,30002e38 <rt_assert_handler>
    30001b6c:	000027b7          	lui	a5,0x2
    30001b70:	ea078793          	addi	a5,a5,-352 # 1ea0 <__stack_size+0x16a0>
    30001b74:	fef41023          	sh	a5,-32(s0)
    30001b78:	fe041123          	sh	zero,-30(s0)
    30001b7c:	4ffff597          	auipc	a1,0x4ffff
    30001b80:	fb458593          	addi	a1,a1,-76 # 80000b30 <__FUNCTION__.6+0x268>
    30001b84:	00048513          	mv	a0,s1
    30001b88:	e04ff0ef          	jal	ra,3000118c <rt_mem_setname>
    30001b8c:	84818793          	addi	a5,gp,-1976 # 80004240 <lfree>
    30001b90:	0007b703          	ld	a4,0(a5)
    30001b94:	00e4f463          	bgeu	s1,a4,30001b9c <rt_free+0x17c>
    30001b98:	0097b023          	sd	s1,0(a5)
    30001b9c:	87018693          	addi	a3,gp,-1936 # 80004268 <used_mem>
    30001ba0:	fe843703          	ld	a4,-24(s0)
    30001ba4:	0006b783          	ld	a5,0(a3)
    30001ba8:	00048513          	mv	a0,s1
    30001bac:	40e787b3          	sub	a5,a5,a4
    30001bb0:	00093703          	ld	a4,0(s2)
    30001bb4:	40e48733          	sub	a4,s1,a4
    30001bb8:	00e787b3          	add	a5,a5,a4
    30001bbc:	00f6b023          	sd	a5,0(a3)
    30001bc0:	fe8ff0ef          	jal	ra,300013a8 <plug_holes>
    30001bc4:	01013403          	ld	s0,16(sp)
    30001bc8:	01813083          	ld	ra,24(sp)
    30001bcc:	00813483          	ld	s1,8(sp)
    30001bd0:	00013903          	ld	s2,0(sp)
    30001bd4:	50007517          	auipc	a0,0x50007
    30001bd8:	94c50513          	addi	a0,a0,-1716 # 80008520 <heap_sem>
    30001bdc:	02010113          	addi	sp,sp,32
    30001be0:	5d40106f          	j	300031b4 <rt_sem_release>
    30001be4:	01813083          	ld	ra,24(sp)
    30001be8:	01013403          	ld	s0,16(sp)
    30001bec:	00813483          	ld	s1,8(sp)
    30001bf0:	00013903          	ld	s2,0(sp)
    30001bf4:	02010113          	addi	sp,sp,32
    30001bf8:	00008067          	ret
    30001bfc:	00008067          	ret

0000000030001c00 <rt_realloc>:
    30001c00:	fc010113          	addi	sp,sp,-64
    30001c04:	02813823          	sd	s0,48(sp)
    30001c08:	02913423          	sd	s1,40(sp)
    30001c0c:	03213023          	sd	s2,32(sp)
    30001c10:	02113c23          	sd	ra,56(sp)
    30001c14:	01313c23          	sd	s3,24(sp)
    30001c18:	01413823          	sd	s4,16(sp)
    30001c1c:	00050493          	mv	s1,a0
    30001c20:	00058413          	mv	s0,a1
    30001c24:	180030ef          	jal	ra,30004da4 <rt_hw_interrupt_disable>
    30001c28:	00050913          	mv	s2,a0
    30001c2c:	14c030ef          	jal	ra,30004d78 <rt_interrupt_get_nest>
    30001c30:	02050863          	beqz	a0,30001c60 <rt_realloc+0x60>
    30001c34:	4ffff597          	auipc	a1,0x4ffff
    30001c38:	0f458593          	addi	a1,a1,244 # 80000d28 <__FUNCTION__.2>
    30001c3c:	4ffff517          	auipc	a0,0x4ffff
    30001c40:	e7450513          	addi	a0,a0,-396 # 80000ab0 <__FUNCTION__.6+0x1e8>
    30001c44:	070010ef          	jal	ra,30002cb4 <rt_kprintf>
    30001c48:	1ac00613          	li	a2,428
    30001c4c:	4ffff597          	auipc	a1,0x4ffff
    30001c50:	0dc58593          	addi	a1,a1,220 # 80000d28 <__FUNCTION__.2>
    30001c54:	4ffff517          	auipc	a0,0x4ffff
    30001c58:	e8450513          	addi	a0,a0,-380 # 80000ad8 <__FUNCTION__.6+0x210>
    30001c5c:	1dc010ef          	jal	ra,30002e38 <rt_assert_handler>
    30001c60:	00090513          	mv	a0,s2
    30001c64:	148030ef          	jal	ra,30004dac <rt_hw_interrupt_enable>
    30001c68:	85818a13          	addi	s4,gp,-1960 # 80004250 <mem_size_aligned>
    30001c6c:	000a3783          	ld	a5,0(s4)
    30001c70:	00740413          	addi	s0,s0,7
    30001c74:	ff847413          	andi	s0,s0,-8
    30001c78:	0087e863          	bltu	a5,s0,30001c88 <rt_realloc+0x88>
    30001c7c:	00041a63          	bnez	s0,30001c90 <rt_realloc+0x90>
    30001c80:	00048513          	mv	a0,s1
    30001c84:	d9dff0ef          	jal	ra,30001a20 <rt_free>
    30001c88:	00000913          	li	s2,0
    30001c8c:	05c0006f          	j	30001ce8 <rt_realloc+0xe8>
    30001c90:	02049463          	bnez	s1,30001cb8 <rt_realloc+0xb8>
    30001c94:	00040513          	mv	a0,s0
    30001c98:	03013403          	ld	s0,48(sp)
    30001c9c:	03813083          	ld	ra,56(sp)
    30001ca0:	02813483          	ld	s1,40(sp)
    30001ca4:	02013903          	ld	s2,32(sp)
    30001ca8:	01813983          	ld	s3,24(sp)
    30001cac:	01013a03          	ld	s4,16(sp)
    30001cb0:	04010113          	addi	sp,sp,64
    30001cb4:	a4dff06f          	j	30001700 <rt_malloc>
    30001cb8:	fff00593          	li	a1,-1
    30001cbc:	50007517          	auipc	a0,0x50007
    30001cc0:	86450513          	addi	a0,a0,-1948 # 80008520 <heap_sem>
    30001cc4:	338010ef          	jal	ra,30002ffc <rt_sem_take>
    30001cc8:	8401b903          	ld	s2,-1984(gp) # 80004238 <heap_ptr>
    30001ccc:	0124e663          	bltu	s1,s2,30001cd8 <rt_realloc+0xd8>
    30001cd0:	8381b783          	ld	a5,-1992(gp) # 80004230 <heap_end>
    30001cd4:	02f4ec63          	bltu	s1,a5,30001d0c <rt_realloc+0x10c>
    30001cd8:	50007517          	auipc	a0,0x50007
    30001cdc:	84850513          	addi	a0,a0,-1976 # 80008520 <heap_sem>
    30001ce0:	4d4010ef          	jal	ra,300031b4 <rt_sem_release>
    30001ce4:	00048913          	mv	s2,s1
    30001ce8:	03813083          	ld	ra,56(sp)
    30001cec:	03013403          	ld	s0,48(sp)
    30001cf0:	02813483          	ld	s1,40(sp)
    30001cf4:	01813983          	ld	s3,24(sp)
    30001cf8:	01013a03          	ld	s4,16(sp)
    30001cfc:	00090513          	mv	a0,s2
    30001d00:	02013903          	ld	s2,32(sp)
    30001d04:	04010113          	addi	sp,sp,64
    30001d08:	00008067          	ret
    30001d0c:	fe84b683          	ld	a3,-24(s1)
    30001d10:	fe048793          	addi	a5,s1,-32
    30001d14:	412787b3          	sub	a5,a5,s2
    30001d18:	fe068593          	addi	a1,a3,-32
    30001d1c:	40f589b3          	sub	s3,a1,a5
    30001d20:	fb340ce3          	beq	s0,s3,30001cd8 <rt_realloc+0xd8>
    30001d24:	03840713          	addi	a4,s0,56
    30001d28:	09377063          	bgeu	a4,s3,30001da8 <rt_realloc+0x1a8>
    30001d2c:	87018613          	addi	a2,gp,-1936 # 80004268 <used_mem>
    30001d30:	00063703          	ld	a4,0(a2)
    30001d34:	00f40433          	add	s0,s0,a5
    30001d38:	00e40733          	add	a4,s0,a4
    30001d3c:	40b70733          	sub	a4,a4,a1
    30001d40:	00e63023          	sd	a4,0(a2)
    30001d44:	02040413          	addi	s0,s0,32
    30001d48:	00002737          	lui	a4,0x2
    30001d4c:	00890533          	add	a0,s2,s0
    30001d50:	ea070713          	addi	a4,a4,-352 # 1ea0 <__stack_size+0x16a0>
    30001d54:	00e52023          	sw	a4,0(a0)
    30001d58:	00f53823          	sd	a5,16(a0)
    30001d5c:	00d53423          	sd	a3,8(a0)
    30001d60:	4ffff597          	auipc	a1,0x4ffff
    30001d64:	dd058593          	addi	a1,a1,-560 # 80000b30 <__FUNCTION__.6+0x268>
    30001d68:	00a13423          	sd	a0,8(sp)
    30001d6c:	c20ff0ef          	jal	ra,3000118c <rt_mem_setname>
    30001d70:	00813503          	ld	a0,8(sp)
    30001d74:	000a3783          	ld	a5,0(s4)
    30001d78:	fe84b423          	sd	s0,-24(s1)
    30001d7c:	00853703          	ld	a4,8(a0)
    30001d80:	02078793          	addi	a5,a5,32
    30001d84:	00f70663          	beq	a4,a5,30001d90 <rt_realloc+0x190>
    30001d88:	00e90933          	add	s2,s2,a4
    30001d8c:	00893823          	sd	s0,16(s2)
    30001d90:	84818793          	addi	a5,gp,-1976 # 80004240 <lfree>
    30001d94:	0007b703          	ld	a4,0(a5)
    30001d98:	00e57463          	bgeu	a0,a4,30001da0 <rt_realloc+0x1a0>
    30001d9c:	00a7b023          	sd	a0,0(a5)
    30001da0:	e08ff0ef          	jal	ra,300013a8 <plug_holes>
    30001da4:	f35ff06f          	j	30001cd8 <rt_realloc+0xd8>
    30001da8:	50006517          	auipc	a0,0x50006
    30001dac:	77850513          	addi	a0,a0,1912 # 80008520 <heap_sem>
    30001db0:	404010ef          	jal	ra,300031b4 <rt_sem_release>
    30001db4:	00040513          	mv	a0,s0
    30001db8:	949ff0ef          	jal	ra,30001700 <rt_malloc>
    30001dbc:	00050913          	mv	s2,a0
    30001dc0:	f20504e3          	beqz	a0,30001ce8 <rt_realloc+0xe8>
    30001dc4:	00040613          	mv	a2,s0
    30001dc8:	0089f463          	bgeu	s3,s0,30001dd0 <rt_realloc+0x1d0>
    30001dcc:	00098613          	mv	a2,s3
    30001dd0:	00048593          	mv	a1,s1
    30001dd4:	00090513          	mv	a0,s2
    30001dd8:	5d4000ef          	jal	ra,300023ac <rt_memcpy>
    30001ddc:	00048513          	mv	a0,s1
    30001de0:	c41ff0ef          	jal	ra,30001a20 <rt_free>
    30001de4:	f05ff06f          	j	30001ce8 <rt_realloc+0xe8>

0000000030001de8 <rt_thread_defunct_enqueue>:
    30001de8:	50002797          	auipc	a5,0x50002
    30001dec:	1e078793          	addi	a5,a5,480 # 80003fc8 <_rt_thread_defunct>
    30001df0:	0007b683          	ld	a3,0(a5)
    30001df4:	02850713          	addi	a4,a0,40
    30001df8:	00e7b023          	sd	a4,0(a5)
    30001dfc:	00e6b423          	sd	a4,8(a3)
    30001e00:	02d53423          	sd	a3,40(a0)
    30001e04:	02f53823          	sd	a5,48(a0)
    30001e08:	00008067          	ret

0000000030001e0c <rt_thread_defunct_dequeue>:
    30001e0c:	50002717          	auipc	a4,0x50002
    30001e10:	1bc70713          	addi	a4,a4,444 # 80003fc8 <_rt_thread_defunct>
    30001e14:	00073783          	ld	a5,0(a4)
    30001e18:	00000513          	li	a0,0
    30001e1c:	02e78063          	beq	a5,a4,30001e3c <rt_thread_defunct_dequeue+0x30>
    30001e20:	0007b683          	ld	a3,0(a5)
    30001e24:	0087b703          	ld	a4,8(a5)
    30001e28:	fd878513          	addi	a0,a5,-40
    30001e2c:	00e6b423          	sd	a4,8(a3)
    30001e30:	00d73023          	sd	a3,0(a4)
    30001e34:	00f7b423          	sd	a5,8(a5)
    30001e38:	00f7b023          	sd	a5,0(a5)
    30001e3c:	00008067          	ret

0000000030001e40 <rt_thread_idle_entry>:
    30001e40:	fb010113          	addi	sp,sp,-80
    30001e44:	03213823          	sd	s2,48(sp)
    30001e48:	03313423          	sd	s3,40(sp)
    30001e4c:	03413023          	sd	s4,32(sp)
    30001e50:	01513c23          	sd	s5,24(sp)
    30001e54:	01613823          	sd	s6,16(sp)
    30001e58:	01713423          	sd	s7,8(sp)
    30001e5c:	04113423          	sd	ra,72(sp)
    30001e60:	04813023          	sd	s0,64(sp)
    30001e64:	02913c23          	sd	s1,56(sp)
    30001e68:	01813023          	sd	s8,0(sp)
    30001e6c:	4ffffb97          	auipc	s7,0x4ffff
    30001e70:	f7cb8b93          	addi	s7,s7,-132 # 80000de8 <__fsym_list_mem_name+0x10>
    30001e74:	50006997          	auipc	s3,0x50006
    30001e78:	7f498993          	addi	s3,s3,2036 # 80008668 <rt_thread_stack>
    30001e7c:	4ffff917          	auipc	s2,0x4ffff
    30001e80:	f8c90913          	addi	s2,s2,-116 # 80000e08 <__FUNCTION__.0>
    30001e84:	4ffffa17          	auipc	s4,0x4ffff
    30001e88:	c2ca0a13          	addi	s4,s4,-980 # 80000ab0 <__FUNCTION__.6+0x1e8>
    30001e8c:	4ffffa97          	auipc	s5,0x4ffff
    30001e90:	c4ca8a93          	addi	s5,s5,-948 # 80000ad8 <__FUNCTION__.6+0x210>
    30001e94:	00100b13          	li	s6,1
    30001e98:	000b8513          	mv	a0,s7
    30001e9c:	619000ef          	jal	ra,30002cb4 <rt_kprintf>
    30001ea0:	50006417          	auipc	s0,0x50006
    30001ea4:	7a840413          	addi	s0,s0,1960 # 80008648 <idle_hook_list>
    30001ea8:	00043783          	ld	a5,0(s0)
    30001eac:	00078463          	beqz	a5,30001eb4 <rt_thread_idle_entry+0x74>
    30001eb0:	000780e7          	jalr	a5
    30001eb4:	00840413          	addi	s0,s0,8
    30001eb8:	fe8998e3          	bne	s3,s0,30001ea8 <rt_thread_idle_entry+0x68>
    30001ebc:	6e9020ef          	jal	ra,30004da4 <rt_hw_interrupt_disable>
    30001ec0:	00050413          	mv	s0,a0
    30001ec4:	6b5020ef          	jal	ra,30004d78 <rt_interrupt_get_nest>
    30001ec8:	02050063          	beqz	a0,30001ee8 <rt_thread_idle_entry+0xa8>
    30001ecc:	00090593          	mv	a1,s2
    30001ed0:	000a0513          	mv	a0,s4
    30001ed4:	5e1000ef          	jal	ra,30002cb4 <rt_kprintf>
    30001ed8:	0cb00613          	li	a2,203
    30001edc:	00090593          	mv	a1,s2
    30001ee0:	000a8513          	mv	a0,s5
    30001ee4:	755000ef          	jal	ra,30002e38 <rt_assert_handler>
    30001ee8:	00040513          	mv	a0,s0
    30001eec:	6c1020ef          	jal	ra,30004dac <rt_hw_interrupt_enable>
    30001ef0:	6b5020ef          	jal	ra,30004da4 <rt_hw_interrupt_disable>
    30001ef4:	00050493          	mv	s1,a0
    30001ef8:	f15ff0ef          	jal	ra,30001e0c <rt_thread_defunct_dequeue>
    30001efc:	00050413          	mv	s0,a0
    30001f00:	00051863          	bnez	a0,30001f10 <rt_thread_idle_entry+0xd0>
    30001f04:	00048513          	mv	a0,s1
    30001f08:	6a5020ef          	jal	ra,30004dac <rt_hw_interrupt_enable>
    30001f0c:	f8dff06f          	j	30001e98 <rt_thread_idle_entry+0x58>
    30001f10:	0d853c03          	ld	s8,216(a0)
    30001f14:	000c0e63          	beqz	s8,30001f30 <rt_thread_idle_entry+0xf0>
    30001f18:	00048513          	mv	a0,s1
    30001f1c:	691020ef          	jal	ra,30004dac <rt_hw_interrupt_enable>
    30001f20:	00040513          	mv	a0,s0
    30001f24:	000c00e7          	jalr	s8
    30001f28:	67d020ef          	jal	ra,30004da4 <rt_hw_interrupt_disable>
    30001f2c:	00050493          	mv	s1,a0
    30001f30:	00040513          	mv	a0,s0
    30001f34:	728020ef          	jal	ra,3000465c <rt_object_is_systemobject>
    30001f38:	01651c63          	bne	a0,s6,30001f50 <rt_thread_idle_entry+0x110>
    30001f3c:	00040513          	mv	a0,s0
    30001f40:	500020ef          	jal	ra,30004440 <rt_object_detach>
    30001f44:	00048513          	mv	a0,s1
    30001f48:	665020ef          	jal	ra,30004dac <rt_hw_interrupt_enable>
    30001f4c:	f71ff06f          	j	30001ebc <rt_thread_idle_entry+0x7c>
    30001f50:	00048513          	mv	a0,s1
    30001f54:	659020ef          	jal	ra,30004dac <rt_hw_interrupt_enable>
    30001f58:	05043503          	ld	a0,80(s0)
    30001f5c:	ac5ff0ef          	jal	ra,30001a20 <rt_free>
    30001f60:	00040513          	mv	a0,s0
    30001f64:	660020ef          	jal	ra,300045c4 <rt_object_delete>
    30001f68:	f55ff06f          	j	30001ebc <rt_thread_idle_entry+0x7c>

0000000030001f6c <rt_thread_idle_init>:
    30001f6c:	fd010113          	addi	sp,sp,-48
    30001f70:	00000613          	li	a2,0
    30001f74:	4ffff597          	auipc	a1,0x4ffff
    30001f78:	e8458593          	addi	a1,a1,-380 # 80000df8 <__fsym_list_mem_name+0x20>
    30001f7c:	00810513          	addi	a0,sp,8
    30001f80:	02113423          	sd	ra,40(sp)
    30001f84:	02813023          	sd	s0,32(sp)
    30001f88:	47d000ef          	jal	ra,30002c04 <rt_sprintf>
    30001f8c:	00000593          	li	a1,0
    30001f90:	4ffff517          	auipc	a0,0x4ffff
    30001f94:	e6850513          	addi	a0,a0,-408 # 80000df8 <__fsym_list_mem_name+0x20>
    30001f98:	51d000ef          	jal	ra,30002cb4 <rt_kprintf>
    30001f9c:	50006417          	auipc	s0,0x50006
    30001fa0:	5c440413          	addi	s0,s0,1476 # 80008560 <idle>
    30001fa4:	00810593          	addi	a1,sp,8
    30001fa8:	02000893          	li	a7,32
    30001fac:	01f00813          	li	a6,31
    30001fb0:	000047b7          	lui	a5,0x4
    30001fb4:	50006717          	auipc	a4,0x50006
    30001fb8:	6b470713          	addi	a4,a4,1716 # 80008668 <rt_thread_stack>
    30001fbc:	00000693          	li	a3,0
    30001fc0:	00000617          	auipc	a2,0x0
    30001fc4:	e8060613          	addi	a2,a2,-384 # 30001e40 <rt_thread_idle_entry>
    30001fc8:	00040513          	mv	a0,s0
    30001fcc:	305010ef          	jal	ra,30003ad0 <rt_thread_init>
    30001fd0:	00040513          	mv	a0,s0
    30001fd4:	11c020ef          	jal	ra,300040f0 <rt_thread_startup>
    30001fd8:	4ffff517          	auipc	a0,0x4ffff
    30001fdc:	e2850513          	addi	a0,a0,-472 # 80000e00 <__fsym_list_mem_name+0x28>
    30001fe0:	4d5000ef          	jal	ra,30002cb4 <rt_kprintf>
    30001fe4:	02813083          	ld	ra,40(sp)
    30001fe8:	02013403          	ld	s0,32(sp)
    30001fec:	03010113          	addi	sp,sp,48
    30001ff0:	00008067          	ret

0000000030001ff4 <print_number>:
    30001ff4:	f7010113          	addi	sp,sp,-144
    30001ff8:	08813023          	sd	s0,128(sp)
    30001ffc:	06913c23          	sd	s1,120(sp)
    30002000:	07313423          	sd	s3,104(sp)
    30002004:	07413023          	sd	s4,96(sp)
    30002008:	05713423          	sd	s7,72(sp)
    3000200c:	05813023          	sd	s8,64(sp)
    30002010:	03b13423          	sd	s11,40(sp)
    30002014:	00078c13          	mv	s8,a5
    30002018:	08113423          	sd	ra,136(sp)
    3000201c:	07213823          	sd	s2,112(sp)
    30002020:	05513c23          	sd	s5,88(sp)
    30002024:	05613823          	sd	s6,80(sp)
    30002028:	03913c23          	sd	s9,56(sp)
    3000202c:	03a13823          	sd	s10,48(sp)
    30002030:	04087793          	andi	a5,a6,64
    30002034:	00070b93          	mv	s7,a4
    30002038:	00050413          	mv	s0,a0
    3000203c:	00058a13          	mv	s4,a1
    30002040:	00060493          	mv	s1,a2
    30002044:	00068d93          	mv	s11,a3
    30002048:	00080993          	mv	s3,a6
    3000204c:	4ffff717          	auipc	a4,0x4ffff
    30002050:	01c70713          	addi	a4,a4,28 # 80001068 <small_digits.1>
    30002054:	00078663          	beqz	a5,30002060 <print_number+0x6c>
    30002058:	4ffff717          	auipc	a4,0x4ffff
    3000205c:	ff870713          	addi	a4,a4,-8 # 80001050 <large_digits.2>
    30002060:	0109f613          	andi	a2,s3,16
    30002064:	08060063          	beqz	a2,300020e4 <print_number+0xf0>
    30002068:	ffe9f993          	andi	s3,s3,-2
    3000206c:	02000c93          	li	s9,32
    30002070:	0029f793          	andi	a5,s3,2
    30002074:	0e078063          	beqz	a5,30002154 <print_number+0x160>
    30002078:	0804d063          	bgez	s1,300020f8 <print_number+0x104>
    3000207c:	409004b3          	neg	s1,s1
    30002080:	02d00a93          	li	s5,45
    30002084:	01010d13          	addi	s10,sp,16
    30002088:	00000913          	li	s2,0
    3000208c:	00a00693          	li	a3,10
    30002090:	0cdd9663          	bne	s11,a3,3000215c <print_number+0x168>
    30002094:	00a00593          	li	a1,10
    30002098:	00048513          	mv	a0,s1
    3000209c:	00e13423          	sd	a4,8(sp)
    300020a0:	00c13023          	sd	a2,0(sp)
    300020a4:	114030ef          	jal	ra,300051b8 <__umoddi3>
    300020a8:	00050b1b          	sext.w	s6,a0
    300020ac:	00a00593          	li	a1,10
    300020b0:	00048513          	mv	a0,s1
    300020b4:	0bc030ef          	jal	ra,30005170 <__udivdi3>
    300020b8:	00013603          	ld	a2,0(sp)
    300020bc:	00813703          	ld	a4,8(sp)
    300020c0:	00050493          	mv	s1,a0
    300020c4:	00a00693          	li	a3,10
    300020c8:	01670b33          	add	s6,a4,s6
    300020cc:	000b4783          	lbu	a5,0(s6)
    300020d0:	0019091b          	addiw	s2,s2,1
    300020d4:	001d0d13          	addi	s10,s10,1
    300020d8:	fefd0fa3          	sb	a5,-1(s10)
    300020dc:	fa049ae3          	bnez	s1,30002090 <print_number+0x9c>
    300020e0:	03c0006f          	j	3000211c <print_number+0x128>
    300020e4:	0019f793          	andi	a5,s3,1
    300020e8:	02000c93          	li	s9,32
    300020ec:	f80782e3          	beqz	a5,30002070 <print_number+0x7c>
    300020f0:	03000c93          	li	s9,48
    300020f4:	f7dff06f          	j	30002070 <print_number+0x7c>
    300020f8:	0049f793          	andi	a5,s3,4
    300020fc:	02b00a93          	li	s5,43
    30002100:	00079663          	bnez	a5,3000210c <print_number+0x118>
    30002104:	00299a93          	slli	s5,s3,0x2
    30002108:	020afa93          	andi	s5,s5,32
    3000210c:	f6049ce3          	bnez	s1,30002084 <print_number+0x90>
    30002110:	03000793          	li	a5,48
    30002114:	00f10823          	sb	a5,16(sp)
    30002118:	00100913          	li	s2,1
    3000211c:	00090793          	mv	a5,s2
    30002120:	01895463          	bge	s2,s8,30002128 <print_number+0x134>
    30002124:	000c0793          	mv	a5,s8
    30002128:	0119f993          	andi	s3,s3,17
    3000212c:	0007859b          	sext.w	a1,a5
    30002130:	40fb86bb          	subw	a3,s7,a5
    30002134:	06099263          	bnez	s3,30002198 <print_number+0x1a4>
    30002138:	000a8663          	beqz	s5,30002144 <print_number+0x150>
    3000213c:	00d05463          	blez	a3,30002144 <print_number+0x150>
    30002140:	fff6869b          	addiw	a3,a3,-1
    30002144:	00040713          	mv	a4,s0
    30002148:	00d4053b          	addw	a0,s0,a3
    3000214c:	02000813          	li	a6,32
    30002150:	0240006f          	j	30002174 <print_number+0x180>
    30002154:	00000a93          	li	s5,0
    30002158:	fb5ff06f          	j	3000210c <print_number+0x118>
    3000215c:	00f4fb13          	andi	s6,s1,15
    30002160:	0044d493          	srli	s1,s1,0x4
    30002164:	f65ff06f          	j	300020c8 <print_number+0xd4>
    30002168:	01477463          	bgeu	a4,s4,30002170 <print_number+0x17c>
    3000216c:	01070023          	sb	a6,0(a4)
    30002170:	00170713          	addi	a4,a4,1
    30002174:	40e507bb          	subw	a5,a0,a4
    30002178:	fef048e3          	bgtz	a5,30002168 <print_number+0x174>
    3000217c:	00068793          	mv	a5,a3
    30002180:	0006d463          	bgez	a3,30002188 <print_number+0x194>
    30002184:	00000793          	li	a5,0
    30002188:	0007871b          	sext.w	a4,a5
    3000218c:	fff6869b          	addiw	a3,a3,-1
    30002190:	00e40433          	add	s0,s0,a4
    30002194:	40f686bb          	subw	a3,a3,a5
    30002198:	000a8a63          	beqz	s5,300021ac <print_number+0x1b8>
    3000219c:	01447463          	bgeu	s0,s4,300021a4 <print_number+0x1b0>
    300021a0:	01540023          	sb	s5,0(s0)
    300021a4:	fff6869b          	addiw	a3,a3,-1
    300021a8:	00140413          	addi	s0,s0,1
    300021ac:	04060663          	beqz	a2,300021f8 <print_number+0x204>
    300021b0:	0005871b          	sext.w	a4,a1
    300021b4:	00040613          	mv	a2,s0
    300021b8:	00b405bb          	addw	a1,s0,a1
    300021bc:	03000513          	li	a0,48
    300021c0:	0500006f          	j	30002210 <print_number+0x21c>
    300021c4:	01477463          	bgeu	a4,s4,300021cc <print_number+0x1d8>
    300021c8:	01970023          	sb	s9,0(a4)
    300021cc:	00170713          	addi	a4,a4,1
    300021d0:	40e607bb          	subw	a5,a2,a4
    300021d4:	fef048e3          	bgtz	a5,300021c4 <print_number+0x1d0>
    300021d8:	00068793          	mv	a5,a3
    300021dc:	0006d463          	bgez	a3,300021e4 <print_number+0x1f0>
    300021e0:	00000793          	li	a5,0
    300021e4:	0007871b          	sext.w	a4,a5
    300021e8:	fff6869b          	addiw	a3,a3,-1
    300021ec:	00e40433          	add	s0,s0,a4
    300021f0:	40f686bb          	subw	a3,a3,a5
    300021f4:	fbdff06f          	j	300021b0 <print_number+0x1bc>
    300021f8:	00040713          	mv	a4,s0
    300021fc:	00d4063b          	addw	a2,s0,a3
    30002200:	fd1ff06f          	j	300021d0 <print_number+0x1dc>
    30002204:	01467463          	bgeu	a2,s4,3000220c <print_number+0x218>
    30002208:	00a60023          	sb	a0,0(a2)
    3000220c:	00160613          	addi	a2,a2,1
    30002210:	40c587bb          	subw	a5,a1,a2
    30002214:	fef948e3          	blt	s2,a5,30002204 <print_number+0x210>
    30002218:	4127073b          	subw	a4,a4,s2
    3000221c:	02071713          	slli	a4,a4,0x20
    30002220:	02075713          	srli	a4,a4,0x20
    30002224:	00e40433          	add	s0,s0,a4
    30002228:	0009079b          	sext.w	a5,s2
    3000222c:	00f05463          	blez	a5,30002234 <print_number+0x240>
    30002230:	000c1a63          	bnez	s8,30002244 <print_number+0x250>
    30002234:	00040793          	mv	a5,s0
    30002238:	0086863b          	addw	a2,a3,s0
    3000223c:	02000593          	li	a1,32
    30002240:	0300006f          	j	30002270 <print_number+0x27c>
    30002244:	01447a63          	bgeu	s0,s4,30002258 <print_number+0x264>
    30002248:	01090793          	addi	a5,s2,16
    3000224c:	002787b3          	add	a5,a5,sp
    30002250:	fff7c783          	lbu	a5,-1(a5) # 3fff <__stack_size+0x37ff>
    30002254:	00f40023          	sb	a5,0(s0)
    30002258:	00140413          	addi	s0,s0,1
    3000225c:	fff90913          	addi	s2,s2,-1
    30002260:	fc9ff06f          	j	30002228 <print_number+0x234>
    30002264:	0147f463          	bgeu	a5,s4,3000226c <print_number+0x278>
    30002268:	00b78023          	sb	a1,0(a5)
    3000226c:	00178793          	addi	a5,a5,1
    30002270:	40f6073b          	subw	a4,a2,a5
    30002274:	fee048e3          	bgtz	a4,30002264 <print_number+0x270>
    30002278:	0006851b          	sext.w	a0,a3
    3000227c:	0006d463          	bgez	a3,30002284 <print_number+0x290>
    30002280:	00000513          	li	a0,0
    30002284:	08813083          	ld	ra,136(sp)
    30002288:	00a40533          	add	a0,s0,a0
    3000228c:	08013403          	ld	s0,128(sp)
    30002290:	07813483          	ld	s1,120(sp)
    30002294:	07013903          	ld	s2,112(sp)
    30002298:	06813983          	ld	s3,104(sp)
    3000229c:	06013a03          	ld	s4,96(sp)
    300022a0:	05813a83          	ld	s5,88(sp)
    300022a4:	05013b03          	ld	s6,80(sp)
    300022a8:	04813b83          	ld	s7,72(sp)
    300022ac:	04013c03          	ld	s8,64(sp)
    300022b0:	03813c83          	ld	s9,56(sp)
    300022b4:	03013d03          	ld	s10,48(sp)
    300022b8:	02813d83          	ld	s11,40(sp)
    300022bc:	09010113          	addi	sp,sp,144
    300022c0:	00008067          	ret

00000000300022c4 <rt_set_errno>:
    300022c4:	ff010113          	addi	sp,sp,-16
    300022c8:	00813023          	sd	s0,0(sp)
    300022cc:	00113423          	sd	ra,8(sp)
    300022d0:	00050413          	mv	s0,a0
    300022d4:	2a5020ef          	jal	ra,30004d78 <rt_interrupt_get_nest>
    300022d8:	00050c63          	beqz	a0,300022f0 <rt_set_errno+0x2c>
    300022dc:	8681ac23          	sw	s0,-1928(gp) # 80004270 <__rt_errno>
    300022e0:	00813083          	ld	ra,8(sp)
    300022e4:	00013403          	ld	s0,0(sp)
    300022e8:	01010113          	addi	sp,sp,16
    300022ec:	00008067          	ret
    300022f0:	0b9010ef          	jal	ra,30003ba8 <rt_thread_self>
    300022f4:	fe0504e3          	beqz	a0,300022dc <rt_set_errno+0x18>
    300022f8:	06853023          	sd	s0,96(a0)
    300022fc:	fe5ff06f          	j	300022e0 <rt_set_errno+0x1c>

0000000030002300 <rt_memset>:
    30002300:	00700713          	li	a4,7
    30002304:	00050793          	mv	a5,a0
    30002308:	00c77663          	bgeu	a4,a2,30002314 <rt_memset+0x14>
    3000230c:	00757713          	andi	a4,a0,7
    30002310:	00070863          	beqz	a4,30002320 <rt_memset+0x20>
    30002314:	00c78633          	add	a2,a5,a2
    30002318:	08c79463          	bne	a5,a2,300023a0 <rt_memset+0xa0>
    3000231c:	00008067          	ret
    30002320:	00800793          	li	a5,8
    30002324:	0ff5f693          	zext.b	a3,a1
    30002328:	00871713          	slli	a4,a4,0x8
    3000232c:	fff7879b          	addiw	a5,a5,-1
    30002330:	00e6e733          	or	a4,a3,a4
    30002334:	fe079ae3          	bnez	a5,30002328 <rt_memset+0x28>
    30002338:	00050793          	mv	a5,a0
    3000233c:	00c508b3          	add	a7,a0,a2
    30002340:	01f00693          	li	a3,31
    30002344:	40f88833          	sub	a6,a7,a5
    30002348:	0306ea63          	bltu	a3,a6,3000237c <rt_memset+0x7c>
    3000234c:	fe067793          	andi	a5,a2,-32
    30002350:	00f507b3          	add	a5,a0,a5
    30002354:	01f67613          	andi	a2,a2,31
    30002358:	00078693          	mv	a3,a5
    3000235c:	00c78333          	add	t1,a5,a2
    30002360:	00700813          	li	a6,7
    30002364:	40d308b3          	sub	a7,t1,a3
    30002368:	03186663          	bltu	a6,a7,30002394 <rt_memset+0x94>
    3000236c:	01867713          	andi	a4,a2,24
    30002370:	00e787b3          	add	a5,a5,a4
    30002374:	00767613          	andi	a2,a2,7
    30002378:	f9dff06f          	j	30002314 <rt_memset+0x14>
    3000237c:	00e7b023          	sd	a4,0(a5)
    30002380:	00e7b423          	sd	a4,8(a5)
    30002384:	00e7b823          	sd	a4,16(a5)
    30002388:	00e7bc23          	sd	a4,24(a5)
    3000238c:	02078793          	addi	a5,a5,32
    30002390:	fb5ff06f          	j	30002344 <rt_memset+0x44>
    30002394:	00868693          	addi	a3,a3,8
    30002398:	fee6bc23          	sd	a4,-8(a3)
    3000239c:	fc9ff06f          	j	30002364 <rt_memset+0x64>
    300023a0:	00178793          	addi	a5,a5,1
    300023a4:	feb78fa3          	sb	a1,-1(a5)
    300023a8:	f71ff06f          	j	30002318 <rt_memset+0x18>

00000000300023ac <rt_memcpy>:
    300023ac:	0006061b          	sext.w	a2,a2
    300023b0:	01f00793          	li	a5,31
    300023b4:	00050693          	mv	a3,a0
    300023b8:	00c7f863          	bgeu	a5,a2,300023c8 <rt_memcpy+0x1c>
    300023bc:	00b567b3          	or	a5,a0,a1
    300023c0:	0077f793          	andi	a5,a5,7
    300023c4:	08078463          	beqz	a5,3000244c <rt_memcpy+0xa0>
    300023c8:	00000793          	li	a5,0
    300023cc:	0007871b          	sext.w	a4,a5
    300023d0:	0ae61263          	bne	a2,a4,30002474 <rt_memcpy+0xc8>
    300023d4:	00008067          	ret
    300023d8:	00073883          	ld	a7,0(a4)
    300023dc:	02070713          	addi	a4,a4,32
    300023e0:	02068693          	addi	a3,a3,32
    300023e4:	ff16b023          	sd	a7,-32(a3)
    300023e8:	fe873883          	ld	a7,-24(a4)
    300023ec:	ff16b423          	sd	a7,-24(a3)
    300023f0:	ff073883          	ld	a7,-16(a4)
    300023f4:	ff16b823          	sd	a7,-16(a3)
    300023f8:	ff873883          	ld	a7,-8(a4)
    300023fc:	ff16bc23          	sd	a7,-8(a3)
    30002400:	40e308bb          	subw	a7,t1,a4
    30002404:	fd186ae3          	bltu	a6,a7,300023d8 <rt_memcpy+0x2c>
    30002408:	0056571b          	srliw	a4,a2,0x5
    3000240c:	00571713          	slli	a4,a4,0x5
    30002410:	00e506b3          	add	a3,a0,a4
    30002414:	01f67813          	andi	a6,a2,31
    30002418:	00e58733          	add	a4,a1,a4
    3000241c:	01f67613          	andi	a2,a2,31
    30002420:	00700593          	li	a1,7
    30002424:	40f608bb          	subw	a7,a2,a5
    30002428:	0315ca63          	blt	a1,a7,3000245c <rt_memcpy+0xb0>
    3000242c:	0038561b          	srliw	a2,a6,0x3
    30002430:	02061593          	slli	a1,a2,0x20
    30002434:	01d5d593          	srli	a1,a1,0x1d
    30002438:	0036161b          	slliw	a2,a2,0x3
    3000243c:	00b686b3          	add	a3,a3,a1
    30002440:	40c8063b          	subw	a2,a6,a2
    30002444:	00b705b3          	add	a1,a4,a1
    30002448:	f81ff06f          	j	300023c8 <rt_memcpy+0x1c>
    3000244c:	00058713          	mv	a4,a1
    30002450:	00c5833b          	addw	t1,a1,a2
    30002454:	01f00813          	li	a6,31
    30002458:	fa9ff06f          	j	30002400 <rt_memcpy+0x54>
    3000245c:	00f708b3          	add	a7,a4,a5
    30002460:	0008b303          	ld	t1,0(a7)
    30002464:	00f688b3          	add	a7,a3,a5
    30002468:	00878793          	addi	a5,a5,8
    3000246c:	0068b023          	sd	t1,0(a7)
    30002470:	fb5ff06f          	j	30002424 <rt_memcpy+0x78>
    30002474:	00f58733          	add	a4,a1,a5
    30002478:	00074803          	lbu	a6,0(a4)
    3000247c:	00f68733          	add	a4,a3,a5
    30002480:	00178793          	addi	a5,a5,1
    30002484:	01070023          	sb	a6,0(a4)
    30002488:	f45ff06f          	j	300023cc <rt_memcpy+0x20>

000000003000248c <rt_memmove>:
    3000248c:	04a5fa63          	bgeu	a1,a0,300024e0 <rt_memmove+0x54>
    30002490:	00c586b3          	add	a3,a1,a2
    30002494:	04d57663          	bgeu	a0,a3,300024e0 <rt_memmove+0x54>
    30002498:	fff64593          	not	a1,a2
    3000249c:	00000793          	li	a5,0
    300024a0:	fff78793          	addi	a5,a5,-1
    300024a4:	00f59463          	bne	a1,a5,300024ac <rt_memmove+0x20>
    300024a8:	00008067          	ret
    300024ac:	00f68733          	add	a4,a3,a5
    300024b0:	00074803          	lbu	a6,0(a4)
    300024b4:	00f60733          	add	a4,a2,a5
    300024b8:	00e50733          	add	a4,a0,a4
    300024bc:	01070023          	sb	a6,0(a4)
    300024c0:	fe1ff06f          	j	300024a0 <rt_memmove+0x14>
    300024c4:	00f58733          	add	a4,a1,a5
    300024c8:	00074683          	lbu	a3,0(a4)
    300024cc:	00f50733          	add	a4,a0,a5
    300024d0:	00178793          	addi	a5,a5,1
    300024d4:	00d70023          	sb	a3,0(a4)
    300024d8:	fef616e3          	bne	a2,a5,300024c4 <rt_memmove+0x38>
    300024dc:	00008067          	ret
    300024e0:	00000793          	li	a5,0
    300024e4:	ff5ff06f          	j	300024d8 <rt_memmove+0x4c>

00000000300024e8 <rt_memcmp>:
    300024e8:	00050693          	mv	a3,a0
    300024ec:	00000713          	li	a4,0
    300024f0:	00e61663          	bne	a2,a4,300024fc <rt_memcmp+0x14>
    300024f4:	00000513          	li	a0,0
    300024f8:	0200006f          	j	30002518 <rt_memcmp+0x30>
    300024fc:	00e687b3          	add	a5,a3,a4
    30002500:	00e58533          	add	a0,a1,a4
    30002504:	0007c783          	lbu	a5,0(a5)
    30002508:	00054503          	lbu	a0,0(a0)
    3000250c:	00170713          	addi	a4,a4,1
    30002510:	40a7853b          	subw	a0,a5,a0
    30002514:	fc050ee3          	beqz	a0,300024f0 <rt_memcmp+0x8>
    30002518:	00008067          	ret

000000003000251c <rt_strncpy>:
    3000251c:	04060063          	beqz	a2,3000255c <rt_strncpy+0x40>
    30002520:	00050793          	mv	a5,a0
    30002524:	0005c683          	lbu	a3,0(a1)
    30002528:	00158593          	addi	a1,a1,1
    3000252c:	00178793          	addi	a5,a5,1
    30002530:	fed78fa3          	sb	a3,-1(a5)
    30002534:	00060713          	mv	a4,a2
    30002538:	fff60613          	addi	a2,a2,-1
    3000253c:	00069e63          	bnez	a3,30002558 <rt_strncpy+0x3c>
    30002540:	00e78733          	add	a4,a5,a4
    30002544:	00178793          	addi	a5,a5,1
    30002548:	00e79463          	bne	a5,a4,30002550 <rt_strncpy+0x34>
    3000254c:	00008067          	ret
    30002550:	fe078fa3          	sb	zero,-1(a5)
    30002554:	ff1ff06f          	j	30002544 <rt_strncpy+0x28>
    30002558:	fc0616e3          	bnez	a2,30002524 <rt_strncpy+0x8>
    3000255c:	00008067          	ret

0000000030002560 <rt_strncmp>:
    30002560:	00050693          	mv	a3,a0
    30002564:	00000713          	li	a4,0
    30002568:	00e61663          	bne	a2,a4,30002574 <rt_strncmp+0x14>
    3000256c:	00000513          	li	a0,0
    30002570:	02c0006f          	j	3000259c <rt_strncmp+0x3c>
    30002574:	00e687b3          	add	a5,a3,a4
    30002578:	0007c803          	lbu	a6,0(a5)
    3000257c:	00e587b3          	add	a5,a1,a4
    30002580:	0007c783          	lbu	a5,0(a5)
    30002584:	40f807bb          	subw	a5,a6,a5
    30002588:	0187951b          	slliw	a0,a5,0x18
    3000258c:	4185551b          	sraiw	a0,a0,0x18
    30002590:	00051663          	bnez	a0,3000259c <rt_strncmp+0x3c>
    30002594:	00170713          	addi	a4,a4,1
    30002598:	fc0818e3          	bnez	a6,30002568 <rt_strncmp+0x8>
    3000259c:	00008067          	ret

00000000300025a0 <rt_strcmp>:
    300025a0:	00054783          	lbu	a5,0(a0)
    300025a4:	0005c703          	lbu	a4,0(a1)
    300025a8:	00078463          	beqz	a5,300025b0 <rt_strcmp+0x10>
    300025ac:	00e78663          	beq	a5,a4,300025b8 <rt_strcmp+0x18>
    300025b0:	40e7853b          	subw	a0,a5,a4
    300025b4:	00008067          	ret
    300025b8:	00150513          	addi	a0,a0,1
    300025bc:	00158593          	addi	a1,a1,1
    300025c0:	fe1ff06f          	j	300025a0 <rt_strcmp>

00000000300025c4 <rt_strlen>:
    300025c4:	00050793          	mv	a5,a0
    300025c8:	0007c703          	lbu	a4,0(a5)
    300025cc:	00071663          	bnez	a4,300025d8 <rt_strlen+0x14>
    300025d0:	40a78533          	sub	a0,a5,a0
    300025d4:	00008067          	ret
    300025d8:	00178793          	addi	a5,a5,1
    300025dc:	fedff06f          	j	300025c8 <rt_strlen+0x4>

00000000300025e0 <rt_strstr>:
    300025e0:	fd010113          	addi	sp,sp,-48
    300025e4:	02813023          	sd	s0,32(sp)
    300025e8:	00050413          	mv	s0,a0
    300025ec:	00058513          	mv	a0,a1
    300025f0:	00913c23          	sd	s1,24(sp)
    300025f4:	01213823          	sd	s2,16(sp)
    300025f8:	02113423          	sd	ra,40(sp)
    300025fc:	01313423          	sd	s3,8(sp)
    30002600:	00058913          	mv	s2,a1
    30002604:	fc1ff0ef          	jal	ra,300025c4 <rt_strlen>
    30002608:	0005049b          	sext.w	s1,a0
    3000260c:	00048e63          	beqz	s1,30002628 <rt_strstr+0x48>
    30002610:	00040513          	mv	a0,s0
    30002614:	fb1ff0ef          	jal	ra,300025c4 <rt_strlen>
    30002618:	008509bb          	addw	s3,a0,s0
    3000261c:	408987bb          	subw	a5,s3,s0
    30002620:	0297d463          	bge	a5,s1,30002648 <rt_strstr+0x68>
    30002624:	00000413          	li	s0,0
    30002628:	02813083          	ld	ra,40(sp)
    3000262c:	00040513          	mv	a0,s0
    30002630:	02013403          	ld	s0,32(sp)
    30002634:	01813483          	ld	s1,24(sp)
    30002638:	01013903          	ld	s2,16(sp)
    3000263c:	00813983          	ld	s3,8(sp)
    30002640:	03010113          	addi	sp,sp,48
    30002644:	00008067          	ret
    30002648:	00048613          	mv	a2,s1
    3000264c:	00090593          	mv	a1,s2
    30002650:	00040513          	mv	a0,s0
    30002654:	e95ff0ef          	jal	ra,300024e8 <rt_memcmp>
    30002658:	fc0508e3          	beqz	a0,30002628 <rt_strstr+0x48>
    3000265c:	00140413          	addi	s0,s0,1
    30002660:	fbdff06f          	j	3000261c <rt_strstr+0x3c>

0000000030002664 <rt_strdup>:
    30002664:	fe010113          	addi	sp,sp,-32
    30002668:	00113c23          	sd	ra,24(sp)
    3000266c:	00813823          	sd	s0,16(sp)
    30002670:	00a13423          	sd	a0,8(sp)
    30002674:	f51ff0ef          	jal	ra,300025c4 <rt_strlen>
    30002678:	00150613          	addi	a2,a0,1
    3000267c:	00060513          	mv	a0,a2
    30002680:	00c13023          	sd	a2,0(sp)
    30002684:	87cff0ef          	jal	ra,30001700 <rt_malloc>
    30002688:	00050413          	mv	s0,a0
    3000268c:	00050863          	beqz	a0,3000269c <rt_strdup+0x38>
    30002690:	00013603          	ld	a2,0(sp)
    30002694:	00813583          	ld	a1,8(sp)
    30002698:	d15ff0ef          	jal	ra,300023ac <rt_memcpy>
    3000269c:	01813083          	ld	ra,24(sp)
    300026a0:	00040513          	mv	a0,s0
    300026a4:	01013403          	ld	s0,16(sp)
    300026a8:	02010113          	addi	sp,sp,32
    300026ac:	00008067          	ret

00000000300026b0 <rt_vsnprintf>:
    300026b0:	fa010113          	addi	sp,sp,-96
    300026b4:	04813823          	sd	s0,80(sp)
    300026b8:	03513423          	sd	s5,40(sp)
    300026bc:	03613023          	sd	s6,32(sp)
    300026c0:	01713c23          	sd	s7,24(sp)
    300026c4:	04113c23          	sd	ra,88(sp)
    300026c8:	04913423          	sd	s1,72(sp)
    300026cc:	05213023          	sd	s2,64(sp)
    300026d0:	03313c23          	sd	s3,56(sp)
    300026d4:	03413823          	sd	s4,48(sp)
    300026d8:	01813823          	sd	s8,16(sp)
    300026dc:	01913423          	sd	s9,8(sp)
    300026e0:	00b50ab3          	add	s5,a0,a1
    300026e4:	00050b13          	mv	s6,a0
    300026e8:	00068413          	mv	s0,a3
    300026ec:	00058b93          	mv	s7,a1
    300026f0:	00aaf663          	bgeu	s5,a0,300026fc <rt_vsnprintf+0x4c>
    300026f4:	fff54b93          	not	s7,a0
    300026f8:	fff00a93          	li	s5,-1
    300026fc:	000104b7          	lui	s1,0x10
    30002700:	000b0513          	mv	a0,s6
    30002704:	02b00913          	li	s2,43
    30002708:	02000c13          	li	s8,32
    3000270c:	02300993          	li	s3,35
    30002710:	fff48493          	addi	s1,s1,-1 # ffff <__stack_size+0xf7ff>
    30002714:	0240006f          	j	30002738 <rt_vsnprintf+0x88>
    30002718:	02500713          	li	a4,37
    3000271c:	06e78463          	beq	a5,a4,30002784 <rt_vsnprintf+0xd4>
    30002720:	01557463          	bgeu	a0,s5,30002728 <rt_vsnprintf+0x78>
    30002724:	00f50023          	sb	a5,0(a0)
    30002728:	00150793          	addi	a5,a0,1
    3000272c:	00060a13          	mv	s4,a2
    30002730:	001a0613          	addi	a2,s4,1
    30002734:	00078513          	mv	a0,a5
    30002738:	00064783          	lbu	a5,0(a2)
    3000273c:	fc079ee3          	bnez	a5,30002718 <rt_vsnprintf+0x68>
    30002740:	000b8663          	beqz	s7,3000274c <rt_vsnprintf+0x9c>
    30002744:	47557a63          	bgeu	a0,s5,30002bb8 <rt_vsnprintf+0x508>
    30002748:	00050023          	sb	zero,0(a0)
    3000274c:	05813083          	ld	ra,88(sp)
    30002750:	05013403          	ld	s0,80(sp)
    30002754:	04813483          	ld	s1,72(sp)
    30002758:	04013903          	ld	s2,64(sp)
    3000275c:	03813983          	ld	s3,56(sp)
    30002760:	03013a03          	ld	s4,48(sp)
    30002764:	02813a83          	ld	s5,40(sp)
    30002768:	01813b83          	ld	s7,24(sp)
    3000276c:	01013c03          	ld	s8,16(sp)
    30002770:	00813c83          	ld	s9,8(sp)
    30002774:	4165053b          	subw	a0,a0,s6
    30002778:	02013b03          	ld	s6,32(sp)
    3000277c:	06010113          	addi	sp,sp,96
    30002780:	00008067          	ret
    30002784:	00000813          	li	a6,0
    30002788:	02d00713          	li	a4,45
    3000278c:	03000693          	li	a3,48
    30002790:	0100006f          	j	300027a0 <rt_vsnprintf+0xf0>
    30002794:	03279063          	bne	a5,s2,300027b4 <rt_vsnprintf+0x104>
    30002798:	00486813          	ori	a6,a6,4
    3000279c:	000a0613          	mv	a2,s4
    300027a0:	00164783          	lbu	a5,1(a2)
    300027a4:	00160a13          	addi	s4,a2,1
    300027a8:	fee796e3          	bne	a5,a4,30002794 <rt_vsnprintf+0xe4>
    300027ac:	01086813          	ori	a6,a6,16
    300027b0:	fedff06f          	j	3000279c <rt_vsnprintf+0xec>
    300027b4:	01879663          	bne	a5,s8,300027c0 <rt_vsnprintf+0x110>
    300027b8:	00886813          	ori	a6,a6,8
    300027bc:	fe1ff06f          	j	3000279c <rt_vsnprintf+0xec>
    300027c0:	01379663          	bne	a5,s3,300027cc <rt_vsnprintf+0x11c>
    300027c4:	02086813          	ori	a6,a6,32
    300027c8:	fd5ff06f          	j	3000279c <rt_vsnprintf+0xec>
    300027cc:	00d79663          	bne	a5,a3,300027d8 <rt_vsnprintf+0x128>
    300027d0:	00186813          	ori	a6,a6,1
    300027d4:	fc9ff06f          	j	3000279c <rt_vsnprintf+0xec>
    300027d8:	fd07871b          	addiw	a4,a5,-48
    300027dc:	00900693          	li	a3,9
    300027e0:	06e6e263          	bltu	a3,a4,30002844 <rt_vsnprintf+0x194>
    300027e4:	00000713          	li	a4,0
    300027e8:	00900613          	li	a2,9
    300027ec:	01c0006f          	j	30002808 <rt_vsnprintf+0x158>
    300027f0:	0027179b          	slliw	a5,a4,0x2
    300027f4:	00e787bb          	addw	a5,a5,a4
    300027f8:	0017979b          	slliw	a5,a5,0x1
    300027fc:	00d787bb          	addw	a5,a5,a3
    30002800:	001a0a13          	addi	s4,s4,1
    30002804:	fd07871b          	addiw	a4,a5,-48
    30002808:	000a4683          	lbu	a3,0(s4)
    3000280c:	fd06879b          	addiw	a5,a3,-48
    30002810:	fef670e3          	bgeu	a2,a5,300027f0 <rt_vsnprintf+0x140>
    30002814:	000a4603          	lbu	a2,0(s4)
    30002818:	02e00693          	li	a3,46
    3000281c:	fff00793          	li	a5,-1
    30002820:	08d61063          	bne	a2,a3,300028a0 <rt_vsnprintf+0x1f0>
    30002824:	001a4783          	lbu	a5,1(s4)
    30002828:	00900613          	li	a2,9
    3000282c:	001a0693          	addi	a3,s4,1
    30002830:	fd07859b          	addiw	a1,a5,-48
    30002834:	0cb66863          	bltu	a2,a1,30002904 <rt_vsnprintf+0x254>
    30002838:	00000613          	li	a2,0
    3000283c:	00900893          	li	a7,9
    30002840:	0440006f          	j	30002884 <rt_vsnprintf+0x1d4>
    30002844:	02a00693          	li	a3,42
    30002848:	fff00713          	li	a4,-1
    3000284c:	fcd794e3          	bne	a5,a3,30002814 <rt_vsnprintf+0x164>
    30002850:	00042703          	lw	a4,0(s0)
    30002854:	00260a13          	addi	s4,a2,2
    30002858:	00840413          	addi	s0,s0,8
    3000285c:	fa075ce3          	bgez	a4,30002814 <rt_vsnprintf+0x164>
    30002860:	40e0073b          	negw	a4,a4
    30002864:	01086813          	ori	a6,a6,16
    30002868:	fadff06f          	j	30002814 <rt_vsnprintf+0x164>
    3000286c:	0026179b          	slliw	a5,a2,0x2
    30002870:	00c787bb          	addw	a5,a5,a2
    30002874:	0017979b          	slliw	a5,a5,0x1
    30002878:	00b787bb          	addw	a5,a5,a1
    3000287c:	00168693          	addi	a3,a3,1
    30002880:	fd07861b          	addiw	a2,a5,-48
    30002884:	0006c583          	lbu	a1,0(a3)
    30002888:	fd05879b          	addiw	a5,a1,-48
    3000288c:	fef8f0e3          	bgeu	a7,a5,3000286c <rt_vsnprintf+0x1bc>
    30002890:	0006079b          	sext.w	a5,a2
    30002894:	00065463          	bgez	a2,3000289c <rt_vsnprintf+0x1ec>
    30002898:	00000793          	li	a5,0
    3000289c:	00068a13          	mv	s4,a3
    300028a0:	000a4583          	lbu	a1,0(s4)
    300028a4:	06800693          	li	a3,104
    300028a8:	0fb5f613          	andi	a2,a1,251
    300028ac:	06d61e63          	bne	a2,a3,30002928 <rt_vsnprintf+0x278>
    300028b0:	001a0a13          	addi	s4,s4,1
    300028b4:	000a4683          	lbu	a3,0(s4)
    300028b8:	07800613          	li	a2,120
    300028bc:	02d66063          	bltu	a2,a3,300028dc <rt_vsnprintf+0x22c>
    300028c0:	06200613          	li	a2,98
    300028c4:	06d66663          	bltu	a2,a3,30002930 <rt_vsnprintf+0x280>
    300028c8:	02500613          	li	a2,37
    300028cc:	26c68c63          	beq	a3,a2,30002b44 <rt_vsnprintf+0x494>
    300028d0:	05800613          	li	a2,88
    300028d4:	04086813          	ori	a6,a6,64
    300028d8:	26c68e63          	beq	a3,a2,30002b54 <rt_vsnprintf+0x4a4>
    300028dc:	01557663          	bgeu	a0,s5,300028e8 <rt_vsnprintf+0x238>
    300028e0:	02500793          	li	a5,37
    300028e4:	00f50023          	sb	a5,0(a0)
    300028e8:	000a4703          	lbu	a4,0(s4)
    300028ec:	00150793          	addi	a5,a0,1
    300028f0:	2a070663          	beqz	a4,30002b9c <rt_vsnprintf+0x4ec>
    300028f4:	0157f463          	bgeu	a5,s5,300028fc <rt_vsnprintf+0x24c>
    300028f8:	00e500a3          	sb	a4,1(a0)
    300028fc:	00250793          	addi	a5,a0,2
    30002900:	e31ff06f          	j	30002730 <rt_vsnprintf+0x80>
    30002904:	02a00613          	li	a2,42
    30002908:	00c79a63          	bne	a5,a2,3000291c <rt_vsnprintf+0x26c>
    3000290c:	00042603          	lw	a2,0(s0)
    30002910:	002a0693          	addi	a3,s4,2
    30002914:	00840413          	addi	s0,s0,8
    30002918:	f79ff06f          	j	30002890 <rt_vsnprintf+0x1e0>
    3000291c:	00068a13          	mv	s4,a3
    30002920:	00000793          	li	a5,0
    30002924:	f7dff06f          	j	300028a0 <rt_vsnprintf+0x1f0>
    30002928:	00000593          	li	a1,0
    3000292c:	f89ff06f          	j	300028b4 <rt_vsnprintf+0x204>
    30002930:	f9d6869b          	addiw	a3,a3,-99
    30002934:	0ff6f693          	zext.b	a3,a3
    30002938:	01500613          	li	a2,21
    3000293c:	fad660e3          	bltu	a2,a3,300028dc <rt_vsnprintf+0x22c>
    30002940:	4fffe617          	auipc	a2,0x4fffe
    30002944:	4e860613          	addi	a2,a2,1256 # 80000e28 <__FUNCTION__.0+0x20>
    30002948:	00269693          	slli	a3,a3,0x2
    3000294c:	00c686b3          	add	a3,a3,a2
    30002950:	0006a683          	lw	a3,0(a3)
    30002954:	00c686b3          	add	a3,a3,a2
    30002958:	00068067          	jr	a3
    3000295c:	01087813          	andi	a6,a6,16
    30002960:	04081863          	bnez	a6,300029b0 <rt_vsnprintf+0x300>
    30002964:	00070693          	mv	a3,a4
    30002968:	00050793          	mv	a5,a0
    3000296c:	0100006f          	j	3000297c <rt_vsnprintf+0x2cc>
    30002970:	0157f463          	bgeu	a5,s5,30002978 <rt_vsnprintf+0x2c8>
    30002974:	01878023          	sb	s8,0(a5)
    30002978:	00178793          	addi	a5,a5,1
    3000297c:	fff6869b          	addiw	a3,a3,-1
    30002980:	fed048e3          	bgtz	a3,30002970 <rt_vsnprintf+0x2c0>
    30002984:	fff7079b          	addiw	a5,a4,-1
    30002988:	00000693          	li	a3,0
    3000298c:	00e05663          	blez	a4,30002998 <rt_vsnprintf+0x2e8>
    30002990:	02079693          	slli	a3,a5,0x20
    30002994:	0206d693          	srli	a3,a3,0x20
    30002998:	00d50533          	add	a0,a0,a3
    3000299c:	00070693          	mv	a3,a4
    300029a0:	00e04463          	bgtz	a4,300029a8 <rt_vsnprintf+0x2f8>
    300029a4:	00100693          	li	a3,1
    300029a8:	40d787bb          	subw	a5,a5,a3
    300029ac:	0017871b          	addiw	a4,a5,1
    300029b0:	00840593          	addi	a1,s0,8
    300029b4:	01557663          	bgeu	a0,s5,300029c0 <rt_vsnprintf+0x310>
    300029b8:	00042783          	lw	a5,0(s0)
    300029bc:	00f50023          	sb	a5,0(a0)
    300029c0:	00150793          	addi	a5,a0,1
    300029c4:	00070613          	mv	a2,a4
    300029c8:	00078693          	mv	a3,a5
    300029cc:	fff6061b          	addiw	a2,a2,-1
    300029d0:	02c04263          	bgtz	a2,300029f4 <rt_vsnprintf+0x344>
    300029d4:	00000693          	li	a3,0
    300029d8:	00e05863          	blez	a4,300029e8 <rt_vsnprintf+0x338>
    300029dc:	fff7069b          	addiw	a3,a4,-1
    300029e0:	02069693          	slli	a3,a3,0x20
    300029e4:	0206d693          	srli	a3,a3,0x20
    300029e8:	00d787b3          	add	a5,a5,a3
    300029ec:	00058413          	mv	s0,a1
    300029f0:	d41ff06f          	j	30002730 <rt_vsnprintf+0x80>
    300029f4:	0156f463          	bgeu	a3,s5,300029fc <rt_vsnprintf+0x34c>
    300029f8:	01868023          	sb	s8,0(a3)
    300029fc:	00168693          	addi	a3,a3,1
    30002a00:	fcdff06f          	j	300029cc <rt_vsnprintf+0x31c>
    30002a04:	00043603          	ld	a2,0(s0)
    30002a08:	00840893          	addi	a7,s0,8
    30002a0c:	00061663          	bnez	a2,30002a18 <rt_vsnprintf+0x368>
    30002a10:	4fffe617          	auipc	a2,0x4fffe
    30002a14:	41060613          	addi	a2,a2,1040 # 80000e20 <__FUNCTION__.0+0x18>
    30002a18:	00000593          	li	a1,0
    30002a1c:	0005869b          	sext.w	a3,a1
    30002a20:	00d70a63          	beq	a4,a3,30002a34 <rt_vsnprintf+0x384>
    30002a24:	00158593          	addi	a1,a1,1
    30002a28:	00b60333          	add	t1,a2,a1
    30002a2c:	fff34303          	lbu	t1,-1(t1)
    30002a30:	fe0316e3          	bnez	t1,30002a1c <rt_vsnprintf+0x36c>
    30002a34:	00f05a63          	blez	a5,30002a48 <rt_vsnprintf+0x398>
    30002a38:	00068593          	mv	a1,a3
    30002a3c:	00d7d463          	bge	a5,a3,30002a44 <rt_vsnprintf+0x394>
    30002a40:	00078593          	mv	a1,a5
    30002a44:	0005869b          	sext.w	a3,a1
    30002a48:	01087813          	andi	a6,a6,16
    30002a4c:	04081a63          	bnez	a6,30002aa0 <rt_vsnprintf+0x3f0>
    30002a50:	00050793          	mv	a5,a0
    30002a54:	0007059b          	sext.w	a1,a4
    30002a58:	00e5033b          	addw	t1,a0,a4
    30002a5c:	0100006f          	j	30002a6c <rt_vsnprintf+0x3bc>
    30002a60:	0157f463          	bgeu	a5,s5,30002a68 <rt_vsnprintf+0x3b8>
    30002a64:	01878023          	sb	s8,0(a5)
    30002a68:	00178793          	addi	a5,a5,1
    30002a6c:	40f3083b          	subw	a6,t1,a5
    30002a70:	ff06c8e3          	blt	a3,a6,30002a60 <rt_vsnprintf+0x3b0>
    30002a74:	40d587bb          	subw	a5,a1,a3
    30002a78:	00000593          	li	a1,0
    30002a7c:	00d74663          	blt	a4,a3,30002a88 <rt_vsnprintf+0x3d8>
    30002a80:	02079593          	slli	a1,a5,0x20
    30002a84:	0205d593          	srli	a1,a1,0x20
    30002a88:	00b50533          	add	a0,a0,a1
    30002a8c:	fff7081b          	addiw	a6,a4,-1
    30002a90:	00000593          	li	a1,0
    30002a94:	00d74463          	blt	a4,a3,30002a9c <rt_vsnprintf+0x3ec>
    30002a98:	40f005bb          	negw	a1,a5
    30002a9c:	00b8073b          	addw	a4,a6,a1
    30002aa0:	00000793          	li	a5,0
    30002aa4:	0007859b          	sext.w	a1,a5
    30002aa8:	04d5c063          	blt	a1,a3,30002ae8 <rt_vsnprintf+0x438>
    30002aac:	00d507b3          	add	a5,a0,a3
    30002ab0:	0006881b          	sext.w	a6,a3
    30002ab4:	00078613          	mv	a2,a5
    30002ab8:	0007059b          	sext.w	a1,a4
    30002abc:	00e7833b          	addw	t1,a5,a4
    30002ac0:	40c3053b          	subw	a0,t1,a2
    30002ac4:	04a6c063          	blt	a3,a0,30002b04 <rt_vsnprintf+0x454>
    30002ac8:	00000613          	li	a2,0
    30002acc:	00d74863          	blt	a4,a3,30002adc <rt_vsnprintf+0x42c>
    30002ad0:	410585bb          	subw	a1,a1,a6
    30002ad4:	02059613          	slli	a2,a1,0x20
    30002ad8:	02065613          	srli	a2,a2,0x20
    30002adc:	00c787b3          	add	a5,a5,a2
    30002ae0:	00088413          	mv	s0,a7
    30002ae4:	c4dff06f          	j	30002730 <rt_vsnprintf+0x80>
    30002ae8:	00f505b3          	add	a1,a0,a5
    30002aec:	0155f863          	bgeu	a1,s5,30002afc <rt_vsnprintf+0x44c>
    30002af0:	00f60833          	add	a6,a2,a5
    30002af4:	00084803          	lbu	a6,0(a6)
    30002af8:	01058023          	sb	a6,0(a1)
    30002afc:	00178793          	addi	a5,a5,1
    30002b00:	fa5ff06f          	j	30002aa4 <rt_vsnprintf+0x3f4>
    30002b04:	01567463          	bgeu	a2,s5,30002b0c <rt_vsnprintf+0x45c>
    30002b08:	01860023          	sb	s8,0(a2)
    30002b0c:	00160613          	addi	a2,a2,1
    30002b10:	fb1ff06f          	j	30002ac0 <rt_vsnprintf+0x410>
    30002b14:	fff00693          	li	a3,-1
    30002b18:	00d71663          	bne	a4,a3,30002b24 <rt_vsnprintf+0x474>
    30002b1c:	00186813          	ori	a6,a6,1
    30002b20:	01000713          	li	a4,16
    30002b24:	00043603          	ld	a2,0(s0)
    30002b28:	01000693          	li	a3,16
    30002b2c:	000a8593          	mv	a1,s5
    30002b30:	00840c93          	addi	s9,s0,8
    30002b34:	cc0ff0ef          	jal	ra,30001ff4 <print_number>
    30002b38:	00050793          	mv	a5,a0
    30002b3c:	000c8413          	mv	s0,s9
    30002b40:	bf1ff06f          	j	30002730 <rt_vsnprintf+0x80>
    30002b44:	01557463          	bgeu	a0,s5,30002b4c <rt_vsnprintf+0x49c>
    30002b48:	00d50023          	sb	a3,0(a0)
    30002b4c:	00150793          	addi	a5,a0,1
    30002b50:	be1ff06f          	j	30002730 <rt_vsnprintf+0x80>
    30002b54:	01000693          	li	a3,16
    30002b58:	06800893          	li	a7,104
    30002b5c:	00042603          	lw	a2,0(s0)
    30002b60:	00840413          	addi	s0,s0,8
    30002b64:	01159a63          	bne	a1,a7,30002b78 <rt_vsnprintf+0x4c8>
    30002b68:	00287893          	andi	a7,a6,2
    30002b6c:	0006059b          	sext.w	a1,a2
    30002b70:	02089e63          	bnez	a7,30002bac <rt_vsnprintf+0x4fc>
    30002b74:	0095f633          	and	a2,a1,s1
    30002b78:	02061613          	slli	a2,a2,0x20
    30002b7c:	02065613          	srli	a2,a2,0x20
    30002b80:	000a8593          	mv	a1,s5
    30002b84:	c70ff0ef          	jal	ra,30001ff4 <print_number>
    30002b88:	00050793          	mv	a5,a0
    30002b8c:	ba5ff06f          	j	30002730 <rt_vsnprintf+0x80>
    30002b90:	00286813          	ori	a6,a6,2
    30002b94:	00a00693          	li	a3,10
    30002b98:	fc1ff06f          	j	30002b58 <rt_vsnprintf+0x4a8>
    30002b9c:	fffa0a13          	addi	s4,s4,-1
    30002ba0:	b91ff06f          	j	30002730 <rt_vsnprintf+0x80>
    30002ba4:	00800693          	li	a3,8
    30002ba8:	fb1ff06f          	j	30002b58 <rt_vsnprintf+0x4a8>
    30002bac:	0106161b          	slliw	a2,a2,0x10
    30002bb0:	4106561b          	sraiw	a2,a2,0x10
    30002bb4:	fc5ff06f          	j	30002b78 <rt_vsnprintf+0x4c8>
    30002bb8:	fe0a8fa3          	sb	zero,-1(s5)
    30002bbc:	b91ff06f          	j	3000274c <rt_vsnprintf+0x9c>

0000000030002bc0 <rt_snprintf>:
    30002bc0:	fb010113          	addi	sp,sp,-80
    30002bc4:	02d13423          	sd	a3,40(sp)
    30002bc8:	02810693          	addi	a3,sp,40
    30002bcc:	00113c23          	sd	ra,24(sp)
    30002bd0:	02e13823          	sd	a4,48(sp)
    30002bd4:	02f13c23          	sd	a5,56(sp)
    30002bd8:	05013023          	sd	a6,64(sp)
    30002bdc:	05113423          	sd	a7,72(sp)
    30002be0:	00d13423          	sd	a3,8(sp)
    30002be4:	acdff0ef          	jal	ra,300026b0 <rt_vsnprintf>
    30002be8:	01813083          	ld	ra,24(sp)
    30002bec:	05010113          	addi	sp,sp,80
    30002bf0:	00008067          	ret

0000000030002bf4 <rt_vsprintf>:
    30002bf4:	00060693          	mv	a3,a2
    30002bf8:	00058613          	mv	a2,a1
    30002bfc:	fff00593          	li	a1,-1
    30002c00:	ab1ff06f          	j	300026b0 <rt_vsnprintf>

0000000030002c04 <rt_sprintf>:
    30002c04:	fb010113          	addi	sp,sp,-80
    30002c08:	02c13023          	sd	a2,32(sp)
    30002c0c:	02010613          	addi	a2,sp,32
    30002c10:	00113c23          	sd	ra,24(sp)
    30002c14:	02d13423          	sd	a3,40(sp)
    30002c18:	02e13823          	sd	a4,48(sp)
    30002c1c:	02f13c23          	sd	a5,56(sp)
    30002c20:	05013023          	sd	a6,64(sp)
    30002c24:	05113423          	sd	a7,72(sp)
    30002c28:	00c13423          	sd	a2,8(sp)
    30002c2c:	fc9ff0ef          	jal	ra,30002bf4 <rt_vsprintf>
    30002c30:	01813083          	ld	ra,24(sp)
    30002c34:	05010113          	addi	sp,sp,80
    30002c38:	00008067          	ret

0000000030002c3c <rt_console_get_device>:
    30002c3c:	8801b503          	ld	a0,-1920(gp) # 80004278 <_console_device>
    30002c40:	00008067          	ret

0000000030002c44 <rt_console_set_device>:
    30002c44:	fe010113          	addi	sp,sp,-32
    30002c48:	01213023          	sd	s2,0(sp)
    30002c4c:	88018913          	addi	s2,gp,-1920 # 80004278 <_console_device>
    30002c50:	00913423          	sd	s1,8(sp)
    30002c54:	00093483          	ld	s1,0(s2)
    30002c58:	00113c23          	sd	ra,24(sp)
    30002c5c:	00813823          	sd	s0,16(sp)
    30002c60:	fddfd0ef          	jal	ra,30000c3c <rt_device_find>
    30002c64:	04a48263          	beq	s1,a0,30002ca8 <rt_console_set_device+0x64>
    30002c68:	00050413          	mv	s0,a0
    30002c6c:	02050063          	beqz	a0,30002c8c <rt_console_set_device+0x48>
    30002c70:	00093503          	ld	a0,0(s2)
    30002c74:	00050463          	beqz	a0,30002c7c <rt_console_set_device+0x38>
    30002c78:	99cfe0ef          	jal	ra,30000e14 <rt_device_close>
    30002c7c:	04300593          	li	a1,67
    30002c80:	00040513          	mv	a0,s0
    30002c84:	838fe0ef          	jal	ra,30000cbc <rt_device_open>
    30002c88:	00893023          	sd	s0,0(s2)
    30002c8c:	01813083          	ld	ra,24(sp)
    30002c90:	01013403          	ld	s0,16(sp)
    30002c94:	00013903          	ld	s2,0(sp)
    30002c98:	00048513          	mv	a0,s1
    30002c9c:	00813483          	ld	s1,8(sp)
    30002ca0:	02010113          	addi	sp,sp,32
    30002ca4:	00008067          	ret
    30002ca8:	00000493          	li	s1,0
    30002cac:	fe1ff06f          	j	30002c8c <rt_console_set_device+0x48>

0000000030002cb0 <rt_hw_console_output>:
    30002cb0:	00008067          	ret

0000000030002cb4 <rt_kprintf>:
    30002cb4:	f9010113          	addi	sp,sp,-112
    30002cb8:	02b13c23          	sd	a1,56(sp)
    30002cbc:	04c13023          	sd	a2,64(sp)
    30002cc0:	04d13423          	sd	a3,72(sp)
    30002cc4:	00050613          	mv	a2,a0
    30002cc8:	03810693          	addi	a3,sp,56
    30002ccc:	0ff00593          	li	a1,255
    30002cd0:	5000a517          	auipc	a0,0x5000a
    30002cd4:	99850513          	addi	a0,a0,-1640 # 8000c668 <rt_log_buf.0>
    30002cd8:	00913c23          	sd	s1,24(sp)
    30002cdc:	00d13423          	sd	a3,8(sp)
    30002ce0:	02113423          	sd	ra,40(sp)
    30002ce4:	02813023          	sd	s0,32(sp)
    30002ce8:	04e13823          	sd	a4,80(sp)
    30002cec:	04f13c23          	sd	a5,88(sp)
    30002cf0:	07013023          	sd	a6,96(sp)
    30002cf4:	07113423          	sd	a7,104(sp)
    30002cf8:	88018493          	addi	s1,gp,-1920 # 80004278 <_console_device>
    30002cfc:	9b5ff0ef          	jal	ra,300026b0 <rt_vsnprintf>
    30002d00:	00050693          	mv	a3,a0
    30002d04:	0004b503          	ld	a0,0(s1)
    30002d08:	02051263          	bnez	a0,30002d2c <rt_kprintf+0x78>
    30002d0c:	5000a517          	auipc	a0,0x5000a
    30002d10:	95c50513          	addi	a0,a0,-1700 # 8000c668 <rt_log_buf.0>
    30002d14:	f9dff0ef          	jal	ra,30002cb0 <rt_hw_console_output>
    30002d18:	02813083          	ld	ra,40(sp)
    30002d1c:	02013403          	ld	s0,32(sp)
    30002d20:	01813483          	ld	s1,24(sp)
    30002d24:	07010113          	addi	sp,sp,112
    30002d28:	00008067          	ret
    30002d2c:	02e55403          	lhu	s0,46(a0)
    30002d30:	04046793          	ori	a5,s0,64
    30002d34:	02f51723          	sh	a5,46(a0)
    30002d38:	0ff00793          	li	a5,255
    30002d3c:	00d7f463          	bgeu	a5,a3,30002d44 <rt_kprintf+0x90>
    30002d40:	0ff00693          	li	a3,255
    30002d44:	5000a617          	auipc	a2,0x5000a
    30002d48:	92460613          	addi	a2,a2,-1756 # 8000c668 <rt_log_buf.0>
    30002d4c:	00000593          	li	a1,0
    30002d50:	a44fe0ef          	jal	ra,30000f94 <rt_device_write>
    30002d54:	0004b783          	ld	a5,0(s1)
    30002d58:	02879723          	sh	s0,46(a5)
    30002d5c:	fbdff06f          	j	30002d18 <rt_kprintf+0x64>

0000000030002d60 <rt_show_version>:
    30002d60:	ff010113          	addi	sp,sp,-16
    30002d64:	4fffe517          	auipc	a0,0x4fffe
    30002d68:	11c50513          	addi	a0,a0,284 # 80000e80 <__FUNCTION__.0+0x78>
    30002d6c:	00113423          	sd	ra,8(sp)
    30002d70:	f45ff0ef          	jal	ra,30002cb4 <rt_kprintf>
    30002d74:	4fffe517          	auipc	a0,0x4fffe
    30002d78:	11c50513          	addi	a0,a0,284 # 80000e90 <__FUNCTION__.0+0x88>
    30002d7c:	f39ff0ef          	jal	ra,30002cb4 <rt_kprintf>
    30002d80:	4fffe517          	auipc	a0,0x4fffe
    30002d84:	14850513          	addi	a0,a0,328 # 80000ec8 <__FUNCTION__.0+0xc0>
    30002d88:	4fffe717          	auipc	a4,0x4fffe
    30002d8c:	13070713          	addi	a4,a4,304 # 80000eb8 <__FUNCTION__.0+0xb0>
    30002d90:	00400693          	li	a3,4
    30002d94:	00000613          	li	a2,0
    30002d98:	00400593          	li	a1,4
    30002d9c:	f19ff0ef          	jal	ra,30002cb4 <rt_kprintf>
    30002da0:	00813083          	ld	ra,8(sp)
    30002da4:	4fffe517          	auipc	a0,0x4fffe
    30002da8:	14450513          	addi	a0,a0,324 # 80000ee8 <__FUNCTION__.0+0xe0>
    30002dac:	01010113          	addi	sp,sp,16
    30002db0:	f05ff06f          	j	30002cb4 <rt_kprintf>

0000000030002db4 <__rt_ffs>:
    30002db4:	08050063          	beqz	a0,30002e34 <__rt_ffs+0x80>
    30002db8:	0ff57713          	zext.b	a4,a0
    30002dbc:	4fffe797          	auipc	a5,0x4fffe
    30002dc0:	19478793          	addi	a5,a5,404 # 80000f50 <__lowest_bit_bitmap>
    30002dc4:	00070a63          	beqz	a4,30002dd8 <__rt_ffs+0x24>
    30002dc8:	00e787b3          	add	a5,a5,a4
    30002dcc:	0007c503          	lbu	a0,0(a5)
    30002dd0:	0015051b          	addiw	a0,a0,1
    30002dd4:	00008067          	ret
    30002dd8:	00010737          	lui	a4,0x10
    30002ddc:	f0070713          	addi	a4,a4,-256 # ff00 <__stack_size+0xf700>
    30002de0:	00e57733          	and	a4,a0,a4
    30002de4:	00070e63          	beqz	a4,30002e00 <__rt_ffs+0x4c>
    30002de8:	4085551b          	sraiw	a0,a0,0x8
    30002dec:	0ff57513          	zext.b	a0,a0
    30002df0:	00a787b3          	add	a5,a5,a0
    30002df4:	0007c503          	lbu	a0,0(a5)
    30002df8:	0095051b          	addiw	a0,a0,9
    30002dfc:	00008067          	ret
    30002e00:	00ff0737          	lui	a4,0xff0
    30002e04:	00e57733          	and	a4,a0,a4
    30002e08:	00070e63          	beqz	a4,30002e24 <__rt_ffs+0x70>
    30002e0c:	4105551b          	sraiw	a0,a0,0x10
    30002e10:	0ff57513          	zext.b	a0,a0
    30002e14:	00a787b3          	add	a5,a5,a0
    30002e18:	0007c503          	lbu	a0,0(a5)
    30002e1c:	0115051b          	addiw	a0,a0,17
    30002e20:	00008067          	ret
    30002e24:	0185551b          	srliw	a0,a0,0x18
    30002e28:	00a787b3          	add	a5,a5,a0
    30002e2c:	0007c503          	lbu	a0,0(a5)
    30002e30:	0195051b          	addiw	a0,a0,25
    30002e34:	00008067          	ret

0000000030002e38 <rt_assert_handler>:
    30002e38:	fe010113          	addi	sp,sp,-32
    30002e3c:	00113c23          	sd	ra,24(sp)
    30002e40:	000107a3          	sb	zero,15(sp)
    30002e44:	8881b803          	ld	a6,-1912(gp) # 80004280 <rt_assert_hook>
    30002e48:	02081863          	bnez	a6,30002e78 <rt_assert_handler+0x40>
    30002e4c:	00060693          	mv	a3,a2
    30002e50:	00058613          	mv	a2,a1
    30002e54:	00050593          	mv	a1,a0
    30002e58:	4fffe517          	auipc	a0,0x4fffe
    30002e5c:	0c050513          	addi	a0,a0,192 # 80000f18 <__FUNCTION__.0+0x110>
    30002e60:	e55ff0ef          	jal	ra,30002cb4 <rt_kprintf>
    30002e64:	00f14783          	lbu	a5,15(sp)
    30002e68:	fe078ee3          	beqz	a5,30002e64 <rt_assert_handler+0x2c>
    30002e6c:	01813083          	ld	ra,24(sp)
    30002e70:	02010113          	addi	sp,sp,32
    30002e74:	00008067          	ret
    30002e78:	01813083          	ld	ra,24(sp)
    30002e7c:	02010113          	addi	sp,sp,32
    30002e80:	00080067          	jr	a6

0000000030002e84 <rt_ipc_list_resume.isra.0>:
    30002e84:	fd850513          	addi	a0,a0,-40
    30002e88:	1940106f          	j	3000401c <rt_thread_resume>

0000000030002e8c <rt_ipc_list_suspend.isra.0>:
    30002e8c:	fe010113          	addi	sp,sp,-32
    30002e90:	00913423          	sd	s1,8(sp)
    30002e94:	01213023          	sd	s2,0(sp)
    30002e98:	00050493          	mv	s1,a0
    30002e9c:	00060913          	mv	s2,a2
    30002ea0:	00058513          	mv	a0,a1
    30002ea4:	00813823          	sd	s0,16(sp)
    30002ea8:	00113c23          	sd	ra,24(sp)
    30002eac:	00058413          	mv	s0,a1
    30002eb0:	78d000ef          	jal	ra,30003e3c <rt_thread_suspend>
    30002eb4:	04090063          	beqz	s2,30002ef4 <rt_ipc_list_suspend.isra.0+0x68>
    30002eb8:	00100793          	li	a5,1
    30002ebc:	02f90863          	beq	s2,a5,30002eec <rt_ipc_list_suspend.isra.0+0x60>
    30002ec0:	01013403          	ld	s0,16(sp)
    30002ec4:	01813083          	ld	ra,24(sp)
    30002ec8:	00813483          	ld	s1,8(sp)
    30002ecc:	00013903          	ld	s2,0(sp)
    30002ed0:	07f00613          	li	a2,127
    30002ed4:	4fffe597          	auipc	a1,0x4fffe
    30002ed8:	36458593          	addi	a1,a1,868 # 80001238 <__FUNCTION__.32>
    30002edc:	4fffe517          	auipc	a0,0x4fffe
    30002ee0:	bfc50513          	addi	a0,a0,-1028 # 80000ad8 <__FUNCTION__.6+0x210>
    30002ee4:	02010113          	addi	sp,sp,32
    30002ee8:	f51ff06f          	j	30002e38 <rt_assert_handler>
    30002eec:	0004b783          	ld	a5,0(s1)
    30002ef0:	02f49063          	bne	s1,a5,30002f10 <rt_ipc_list_suspend.isra.0+0x84>
    30002ef4:	0084b703          	ld	a4,8(s1)
    30002ef8:	02840793          	addi	a5,s0,40
    30002efc:	00f73023          	sd	a5,0(a4) # ff0000 <__stack_size+0xfef800>
    30002f00:	02e43823          	sd	a4,48(s0)
    30002f04:	00f4b423          	sd	a5,8(s1)
    30002f08:	02943423          	sd	s1,40(s0)
    30002f0c:	0280006f          	j	30002f34 <rt_ipc_list_suspend.isra.0+0xa8>
    30002f10:	06944683          	lbu	a3,105(s0)
    30002f14:	0417c703          	lbu	a4,65(a5)
    30002f18:	02e6fa63          	bgeu	a3,a4,30002f4c <rt_ipc_list_suspend.isra.0+0xc0>
    30002f1c:	0087b683          	ld	a3,8(a5)
    30002f20:	02840713          	addi	a4,s0,40
    30002f24:	00e6b023          	sd	a4,0(a3)
    30002f28:	02d43823          	sd	a3,48(s0)
    30002f2c:	00e7b423          	sd	a4,8(a5)
    30002f30:	02f43423          	sd	a5,40(s0)
    30002f34:	01813083          	ld	ra,24(sp)
    30002f38:	01013403          	ld	s0,16(sp)
    30002f3c:	00813483          	ld	s1,8(sp)
    30002f40:	00013903          	ld	s2,0(sp)
    30002f44:	02010113          	addi	sp,sp,32
    30002f48:	00008067          	ret
    30002f4c:	0007b783          	ld	a5,0(a5)
    30002f50:	fa1ff06f          	j	30002ef0 <rt_ipc_list_suspend.isra.0+0x64>

0000000030002f54 <rt_sem_init>:
    30002f54:	fd010113          	addi	sp,sp,-48
    30002f58:	02813023          	sd	s0,32(sp)
    30002f5c:	00913c23          	sd	s1,24(sp)
    30002f60:	01213823          	sd	s2,16(sp)
    30002f64:	01313423          	sd	s3,8(sp)
    30002f68:	02113423          	sd	ra,40(sp)
    30002f6c:	00050413          	mv	s0,a0
    30002f70:	00058993          	mv	s3,a1
    30002f74:	00060493          	mv	s1,a2
    30002f78:	00068913          	mv	s2,a3
    30002f7c:	00051e63          	bnez	a0,30002f98 <rt_sem_init+0x44>
    30002f80:	0d500613          	li	a2,213
    30002f84:	4fffe597          	auipc	a1,0x4fffe
    30002f88:	2dc58593          	addi	a1,a1,732 # 80001260 <__FUNCTION__.37>
    30002f8c:	4fffe517          	auipc	a0,0x4fffe
    30002f90:	0f450513          	addi	a0,a0,244 # 80001080 <small_digits.1+0x18>
    30002f94:	ea5ff0ef          	jal	ra,30002e38 <rt_assert_handler>
    30002f98:	000107b7          	lui	a5,0x10
    30002f9c:	00f4ee63          	bltu	s1,a5,30002fb8 <rt_sem_init+0x64>
    30002fa0:	0d600613          	li	a2,214
    30002fa4:	4fffe597          	auipc	a1,0x4fffe
    30002fa8:	2bc58593          	addi	a1,a1,700 # 80001260 <__FUNCTION__.37>
    30002fac:	4fffe517          	auipc	a0,0x4fffe
    30002fb0:	0e450513          	addi	a0,a0,228 # 80001090 <small_digits.1+0x28>
    30002fb4:	e85ff0ef          	jal	ra,30002e38 <rt_assert_handler>
    30002fb8:	00040513          	mv	a0,s0
    30002fbc:	00098613          	mv	a2,s3
    30002fc0:	00200593          	li	a1,2
    30002fc4:	36c010ef          	jal	ra,30004330 <rt_object_init>
    30002fc8:	02840793          	addi	a5,s0,40
    30002fcc:	02941c23          	sh	s1,56(s0)
    30002fd0:	01240aa3          	sb	s2,21(s0)
    30002fd4:	02813083          	ld	ra,40(sp)
    30002fd8:	02f43823          	sd	a5,48(s0)
    30002fdc:	02f43423          	sd	a5,40(s0)
    30002fe0:	02013403          	ld	s0,32(sp)
    30002fe4:	01813483          	ld	s1,24(sp)
    30002fe8:	01013903          	ld	s2,16(sp)
    30002fec:	00813983          	ld	s3,8(sp)
    30002ff0:	00000513          	li	a0,0
    30002ff4:	03010113          	addi	sp,sp,48
    30002ff8:	00008067          	ret

0000000030002ffc <rt_sem_take>:
    30002ffc:	fc010113          	addi	sp,sp,-64
    30003000:	02813823          	sd	s0,48(sp)
    30003004:	02113c23          	sd	ra,56(sp)
    30003008:	02913423          	sd	s1,40(sp)
    3000300c:	03213023          	sd	s2,32(sp)
    30003010:	01313c23          	sd	s3,24(sp)
    30003014:	00b12623          	sw	a1,12(sp)
    30003018:	00050413          	mv	s0,a0
    3000301c:	00051e63          	bnez	a0,30003038 <rt_sem_take+0x3c>
    30003020:	15300613          	li	a2,339
    30003024:	4fffe597          	auipc	a1,0x4fffe
    30003028:	22c58593          	addi	a1,a1,556 # 80001250 <__FUNCTION__.33>
    3000302c:	4fffe517          	auipc	a0,0x4fffe
    30003030:	05450513          	addi	a0,a0,84 # 80001080 <small_digits.1+0x18>
    30003034:	e05ff0ef          	jal	ra,30002e38 <rt_assert_handler>
    30003038:	00040513          	mv	a0,s0
    3000303c:	664010ef          	jal	ra,300046a0 <rt_object_get_type>
    30003040:	00200793          	li	a5,2
    30003044:	00f50e63          	beq	a0,a5,30003060 <rt_sem_take+0x64>
    30003048:	15400613          	li	a2,340
    3000304c:	4fffe597          	auipc	a1,0x4fffe
    30003050:	20458593          	addi	a1,a1,516 # 80001250 <__FUNCTION__.33>
    30003054:	4fffe517          	auipc	a0,0x4fffe
    30003058:	05450513          	addi	a0,a0,84 # 800010a8 <small_digits.1+0x40>
    3000305c:	dddff0ef          	jal	ra,30002e38 <rt_assert_handler>
    30003060:	8d01b783          	ld	a5,-1840(gp) # 800042c8 <rt_object_trytake_hook>
    30003064:	00078663          	beqz	a5,30003070 <rt_sem_take+0x74>
    30003068:	00040513          	mv	a0,s0
    3000306c:	000780e7          	jalr	a5 # 10000 <__stack_size+0xf800>
    30003070:	535010ef          	jal	ra,30004da4 <rt_hw_interrupt_disable>
    30003074:	03845783          	lhu	a5,56(s0)
    30003078:	00050993          	mv	s3,a0
    3000307c:	02078663          	beqz	a5,300030a8 <rt_sem_take+0xac>
    30003080:	fff7879b          	addiw	a5,a5,-1
    30003084:	02f41c23          	sh	a5,56(s0)
    30003088:	525010ef          	jal	ra,30004dac <rt_hw_interrupt_enable>
    3000308c:	8c81b783          	ld	a5,-1848(gp) # 800042c0 <rt_object_take_hook>
    30003090:	00000513          	li	a0,0
    30003094:	02078263          	beqz	a5,300030b8 <rt_sem_take+0xbc>
    30003098:	00040513          	mv	a0,s0
    3000309c:	000780e7          	jalr	a5
    300030a0:	00000513          	li	a0,0
    300030a4:	0140006f          	j	300030b8 <rt_sem_take+0xbc>
    300030a8:	00c12783          	lw	a5,12(sp)
    300030ac:	02079463          	bnez	a5,300030d4 <rt_sem_take+0xd8>
    300030b0:	4fd010ef          	jal	ra,30004dac <rt_hw_interrupt_enable>
    300030b4:	ffe00513          	li	a0,-2
    300030b8:	03813083          	ld	ra,56(sp)
    300030bc:	03013403          	ld	s0,48(sp)
    300030c0:	02813483          	ld	s1,40(sp)
    300030c4:	02013903          	ld	s2,32(sp)
    300030c8:	01813983          	ld	s3,24(sp)
    300030cc:	04010113          	addi	sp,sp,64
    300030d0:	00008067          	ret
    300030d4:	4d1010ef          	jal	ra,30004da4 <rt_hw_interrupt_disable>
    300030d8:	00050493          	mv	s1,a0
    300030dc:	2cd000ef          	jal	ra,30003ba8 <rt_thread_self>
    300030e0:	02051863          	bnez	a0,30003110 <rt_sem_take+0x114>
    300030e4:	4fffe597          	auipc	a1,0x4fffe
    300030e8:	16c58593          	addi	a1,a1,364 # 80001250 <__FUNCTION__.33>
    300030ec:	4fffe517          	auipc	a0,0x4fffe
    300030f0:	03450513          	addi	a0,a0,52 # 80001120 <small_digits.1+0xb8>
    300030f4:	bc1ff0ef          	jal	ra,30002cb4 <rt_kprintf>
    300030f8:	17400613          	li	a2,372
    300030fc:	4fffe597          	auipc	a1,0x4fffe
    30003100:	15458593          	addi	a1,a1,340 # 80001250 <__FUNCTION__.33>
    30003104:	4fffe517          	auipc	a0,0x4fffe
    30003108:	9d450513          	addi	a0,a0,-1580 # 80000ad8 <__FUNCTION__.6+0x210>
    3000310c:	d2dff0ef          	jal	ra,30002e38 <rt_assert_handler>
    30003110:	495010ef          	jal	ra,30004da4 <rt_hw_interrupt_disable>
    30003114:	00050913          	mv	s2,a0
    30003118:	461010ef          	jal	ra,30004d78 <rt_interrupt_get_nest>
    3000311c:	02050863          	beqz	a0,3000314c <rt_sem_take+0x150>
    30003120:	4fffe597          	auipc	a1,0x4fffe
    30003124:	13058593          	addi	a1,a1,304 # 80001250 <__FUNCTION__.33>
    30003128:	4fffe517          	auipc	a0,0x4fffe
    3000312c:	98850513          	addi	a0,a0,-1656 # 80000ab0 <__FUNCTION__.6+0x1e8>
    30003130:	b85ff0ef          	jal	ra,30002cb4 <rt_kprintf>
    30003134:	17400613          	li	a2,372
    30003138:	4fffe597          	auipc	a1,0x4fffe
    3000313c:	11858593          	addi	a1,a1,280 # 80001250 <__FUNCTION__.33>
    30003140:	4fffe517          	auipc	a0,0x4fffe
    30003144:	99850513          	addi	a0,a0,-1640 # 80000ad8 <__FUNCTION__.6+0x210>
    30003148:	cf1ff0ef          	jal	ra,30002e38 <rt_assert_handler>
    3000314c:	00090513          	mv	a0,s2
    30003150:	45d010ef          	jal	ra,30004dac <rt_hw_interrupt_enable>
    30003154:	00048513          	mv	a0,s1
    30003158:	455010ef          	jal	ra,30004dac <rt_hw_interrupt_enable>
    3000315c:	24d000ef          	jal	ra,30003ba8 <rt_thread_self>
    30003160:	06053023          	sd	zero,96(a0)
    30003164:	01544603          	lbu	a2,21(s0)
    30003168:	00050593          	mv	a1,a0
    3000316c:	00050493          	mv	s1,a0
    30003170:	02840513          	addi	a0,s0,40
    30003174:	d19ff0ef          	jal	ra,30002e8c <rt_ipc_list_suspend.isra.0>
    30003178:	00c12783          	lw	a5,12(sp)
    3000317c:	02f05063          	blez	a5,3000319c <rt_sem_take+0x1a0>
    30003180:	08848913          	addi	s2,s1,136
    30003184:	00c10613          	addi	a2,sp,12
    30003188:	00000593          	li	a1,0
    3000318c:	00090513          	mv	a0,s2
    30003190:	dfcfd0ef          	jal	ra,3000078c <rt_timer_control>
    30003194:	00090513          	mv	a0,s2
    30003198:	bc4fd0ef          	jal	ra,3000055c <rt_timer_start>
    3000319c:	00098513          	mv	a0,s3
    300031a0:	40d010ef          	jal	ra,30004dac <rt_hw_interrupt_enable>
    300031a4:	17d010ef          	jal	ra,30004b20 <rt_schedule>
    300031a8:	0604b503          	ld	a0,96(s1)
    300031ac:	ee0500e3          	beqz	a0,3000308c <rt_sem_take+0x90>
    300031b0:	f09ff06f          	j	300030b8 <rt_sem_take+0xbc>

00000000300031b4 <rt_sem_release>:
    300031b4:	fd010113          	addi	sp,sp,-48
    300031b8:	02813023          	sd	s0,32(sp)
    300031bc:	02113423          	sd	ra,40(sp)
    300031c0:	00913c23          	sd	s1,24(sp)
    300031c4:	00050413          	mv	s0,a0
    300031c8:	00051e63          	bnez	a0,300031e4 <rt_sem_release+0x30>
    300031cc:	1c000613          	li	a2,448
    300031d0:	4fffe597          	auipc	a1,0x4fffe
    300031d4:	05858593          	addi	a1,a1,88 # 80001228 <__FUNCTION__.31>
    300031d8:	4fffe517          	auipc	a0,0x4fffe
    300031dc:	ea850513          	addi	a0,a0,-344 # 80001080 <small_digits.1+0x18>
    300031e0:	c59ff0ef          	jal	ra,30002e38 <rt_assert_handler>
    300031e4:	00040513          	mv	a0,s0
    300031e8:	4b8010ef          	jal	ra,300046a0 <rt_object_get_type>
    300031ec:	00200793          	li	a5,2
    300031f0:	00f50e63          	beq	a0,a5,3000320c <rt_sem_release+0x58>
    300031f4:	1c100613          	li	a2,449
    300031f8:	4fffe597          	auipc	a1,0x4fffe
    300031fc:	03058593          	addi	a1,a1,48 # 80001228 <__FUNCTION__.31>
    30003200:	4fffe517          	auipc	a0,0x4fffe
    30003204:	ea850513          	addi	a0,a0,-344 # 800010a8 <small_digits.1+0x40>
    30003208:	c31ff0ef          	jal	ra,30002e38 <rt_assert_handler>
    3000320c:	8c01b783          	ld	a5,-1856(gp) # 800042b8 <rt_object_put_hook>
    30003210:	00078663          	beqz	a5,3000321c <rt_sem_release+0x68>
    30003214:	00040513          	mv	a0,s0
    30003218:	000780e7          	jalr	a5
    3000321c:	389010ef          	jal	ra,30004da4 <rt_hw_interrupt_disable>
    30003220:	02843783          	ld	a5,40(s0)
    30003224:	02840713          	addi	a4,s0,40
    30003228:	00050493          	mv	s1,a0
    3000322c:	02e78863          	beq	a5,a4,3000325c <rt_sem_release+0xa8>
    30003230:	00078513          	mv	a0,a5
    30003234:	c51ff0ef          	jal	ra,30002e84 <rt_ipc_list_resume.isra.0>
    30003238:	00100413          	li	s0,1
    3000323c:	00048513          	mv	a0,s1
    30003240:	36d010ef          	jal	ra,30004dac <rt_hw_interrupt_enable>
    30003244:	00000513          	li	a0,0
    30003248:	02040e63          	beqz	s0,30003284 <rt_sem_release+0xd0>
    3000324c:	00a13423          	sd	a0,8(sp)
    30003250:	0d1010ef          	jal	ra,30004b20 <rt_schedule>
    30003254:	00813503          	ld	a0,8(sp)
    30003258:	02c0006f          	j	30003284 <rt_sem_release+0xd0>
    3000325c:	03845783          	lhu	a5,56(s0)
    30003260:	00010737          	lui	a4,0x10
    30003264:	fff70713          	addi	a4,a4,-1 # ffff <__stack_size+0xf7ff>
    30003268:	00e78a63          	beq	a5,a4,3000327c <rt_sem_release+0xc8>
    3000326c:	0017879b          	addiw	a5,a5,1
    30003270:	02f41c23          	sh	a5,56(s0)
    30003274:	00000413          	li	s0,0
    30003278:	fc5ff06f          	j	3000323c <rt_sem_release+0x88>
    3000327c:	331010ef          	jal	ra,30004dac <rt_hw_interrupt_enable>
    30003280:	ffd00513          	li	a0,-3
    30003284:	02813083          	ld	ra,40(sp)
    30003288:	02013403          	ld	s0,32(sp)
    3000328c:	01813483          	ld	s1,24(sp)
    30003290:	03010113          	addi	sp,sp,48
    30003294:	00008067          	ret

0000000030003298 <rt_mutex_init>:
    30003298:	fe010113          	addi	sp,sp,-32
    3000329c:	00813823          	sd	s0,16(sp)
    300032a0:	00913423          	sd	s1,8(sp)
    300032a4:	00113c23          	sd	ra,24(sp)
    300032a8:	00050413          	mv	s0,a0
    300032ac:	00058493          	mv	s1,a1
    300032b0:	00051e63          	bnez	a0,300032cc <rt_mutex_init+0x34>
    300032b4:	22a00613          	li	a2,554
    300032b8:	4fffe597          	auipc	a1,0x4fffe
    300032bc:	f6058593          	addi	a1,a1,-160 # 80001218 <__FUNCTION__.29>
    300032c0:	4fffe517          	auipc	a0,0x4fffe
    300032c4:	e9850513          	addi	a0,a0,-360 # 80001158 <small_digits.1+0xf0>
    300032c8:	b71ff0ef          	jal	ra,30002e38 <rt_assert_handler>
    300032cc:	00040513          	mv	a0,s0
    300032d0:	00048613          	mv	a2,s1
    300032d4:	00300593          	li	a1,3
    300032d8:	058010ef          	jal	ra,30004330 <rt_object_init>
    300032dc:	02840793          	addi	a5,s0,40
    300032e0:	02f43823          	sd	a5,48(s0)
    300032e4:	02f43423          	sd	a5,40(s0)
    300032e8:	00ff07b7          	lui	a5,0xff0
    300032ec:	00178793          	addi	a5,a5,1 # ff0001 <__stack_size+0xfef801>
    300032f0:	02f42c23          	sw	a5,56(s0)
    300032f4:	00100793          	li	a5,1
    300032f8:	01813083          	ld	ra,24(sp)
    300032fc:	04043023          	sd	zero,64(s0)
    30003300:	00f40aa3          	sb	a5,21(s0)
    30003304:	01013403          	ld	s0,16(sp)
    30003308:	00813483          	ld	s1,8(sp)
    3000330c:	00000513          	li	a0,0
    30003310:	02010113          	addi	sp,sp,32
    30003314:	00008067          	ret

0000000030003318 <rt_mutex_take>:
    30003318:	fc010113          	addi	sp,sp,-64
    3000331c:	02813823          	sd	s0,48(sp)
    30003320:	02913423          	sd	s1,40(sp)
    30003324:	02113c23          	sd	ra,56(sp)
    30003328:	03213023          	sd	s2,32(sp)
    3000332c:	01313c23          	sd	s3,24(sp)
    30003330:	00050413          	mv	s0,a0
    30003334:	00b12623          	sw	a1,12(sp)
    30003338:	26d010ef          	jal	ra,30004da4 <rt_hw_interrupt_disable>
    3000333c:	00050493          	mv	s1,a0
    30003340:	069000ef          	jal	ra,30003ba8 <rt_thread_self>
    30003344:	02051863          	bnez	a0,30003374 <rt_mutex_take+0x5c>
    30003348:	4fffe597          	auipc	a1,0x4fffe
    3000334c:	ec058593          	addi	a1,a1,-320 # 80001208 <__FUNCTION__.25>
    30003350:	4fffe517          	auipc	a0,0x4fffe
    30003354:	dd050513          	addi	a0,a0,-560 # 80001120 <small_digits.1+0xb8>
    30003358:	95dff0ef          	jal	ra,30002cb4 <rt_kprintf>
    3000335c:	2aa00613          	li	a2,682
    30003360:	4fffe597          	auipc	a1,0x4fffe
    30003364:	ea858593          	addi	a1,a1,-344 # 80001208 <__FUNCTION__.25>
    30003368:	4fffd517          	auipc	a0,0x4fffd
    3000336c:	77050513          	addi	a0,a0,1904 # 80000ad8 <__FUNCTION__.6+0x210>
    30003370:	ac9ff0ef          	jal	ra,30002e38 <rt_assert_handler>
    30003374:	231010ef          	jal	ra,30004da4 <rt_hw_interrupt_disable>
    30003378:	00050913          	mv	s2,a0
    3000337c:	1fd010ef          	jal	ra,30004d78 <rt_interrupt_get_nest>
    30003380:	02050863          	beqz	a0,300033b0 <rt_mutex_take+0x98>
    30003384:	4fffe597          	auipc	a1,0x4fffe
    30003388:	e8458593          	addi	a1,a1,-380 # 80001208 <__FUNCTION__.25>
    3000338c:	4fffd517          	auipc	a0,0x4fffd
    30003390:	72450513          	addi	a0,a0,1828 # 80000ab0 <__FUNCTION__.6+0x1e8>
    30003394:	921ff0ef          	jal	ra,30002cb4 <rt_kprintf>
    30003398:	2aa00613          	li	a2,682
    3000339c:	4fffe597          	auipc	a1,0x4fffe
    300033a0:	e6c58593          	addi	a1,a1,-404 # 80001208 <__FUNCTION__.25>
    300033a4:	4fffd517          	auipc	a0,0x4fffd
    300033a8:	73450513          	addi	a0,a0,1844 # 80000ad8 <__FUNCTION__.6+0x210>
    300033ac:	a8dff0ef          	jal	ra,30002e38 <rt_assert_handler>
    300033b0:	00090513          	mv	a0,s2
    300033b4:	1f9010ef          	jal	ra,30004dac <rt_hw_interrupt_enable>
    300033b8:	00048513          	mv	a0,s1
    300033bc:	1f1010ef          	jal	ra,30004dac <rt_hw_interrupt_enable>
    300033c0:	00041e63          	bnez	s0,300033dc <rt_mutex_take+0xc4>
    300033c4:	2ad00613          	li	a2,685
    300033c8:	4fffe597          	auipc	a1,0x4fffe
    300033cc:	e4058593          	addi	a1,a1,-448 # 80001208 <__FUNCTION__.25>
    300033d0:	4fffe517          	auipc	a0,0x4fffe
    300033d4:	d8850513          	addi	a0,a0,-632 # 80001158 <small_digits.1+0xf0>
    300033d8:	a61ff0ef          	jal	ra,30002e38 <rt_assert_handler>
    300033dc:	00040513          	mv	a0,s0
    300033e0:	2c0010ef          	jal	ra,300046a0 <rt_object_get_type>
    300033e4:	00300793          	li	a5,3
    300033e8:	00f50e63          	beq	a0,a5,30003404 <rt_mutex_take+0xec>
    300033ec:	2ae00613          	li	a2,686
    300033f0:	4fffe597          	auipc	a1,0x4fffe
    300033f4:	e1858593          	addi	a1,a1,-488 # 80001208 <__FUNCTION__.25>
    300033f8:	4fffe517          	auipc	a0,0x4fffe
    300033fc:	d7850513          	addi	a0,a0,-648 # 80001170 <small_digits.1+0x108>
    30003400:	a39ff0ef          	jal	ra,30002e38 <rt_assert_handler>
    30003404:	7a4000ef          	jal	ra,30003ba8 <rt_thread_self>
    30003408:	00050493          	mv	s1,a0
    3000340c:	199010ef          	jal	ra,30004da4 <rt_hw_interrupt_disable>
    30003410:	8d01b783          	ld	a5,-1840(gp) # 800042c8 <rt_object_trytake_hook>
    30003414:	00050913          	mv	s2,a0
    30003418:	00078663          	beqz	a5,30003424 <rt_mutex_take+0x10c>
    3000341c:	00040513          	mv	a0,s0
    30003420:	000780e7          	jalr	a5
    30003424:	04043503          	ld	a0,64(s0)
    30003428:	0604b023          	sd	zero,96(s1)
    3000342c:	02951e63          	bne	a0,s1,30003468 <rt_mutex_take+0x150>
    30003430:	03b44783          	lbu	a5,59(s0)
    30003434:	0ff00713          	li	a4,255
    30003438:	04e78863          	beq	a5,a4,30003488 <rt_mutex_take+0x170>
    3000343c:	0017879b          	addiw	a5,a5,1
    30003440:	02f40da3          	sb	a5,59(s0)
    30003444:	00090513          	mv	a0,s2
    30003448:	165010ef          	jal	ra,30004dac <rt_hw_interrupt_enable>
    3000344c:	8c81b783          	ld	a5,-1848(gp) # 800042c0 <rt_object_take_hook>
    30003450:	00000513          	li	a0,0
    30003454:	04078063          	beqz	a5,30003494 <rt_mutex_take+0x17c>
    30003458:	00040513          	mv	a0,s0
    3000345c:	000780e7          	jalr	a5
    30003460:	00000513          	li	a0,0
    30003464:	0300006f          	j	30003494 <rt_mutex_take+0x17c>
    30003468:	03845783          	lhu	a5,56(s0)
    3000346c:	04078263          	beqz	a5,300034b0 <rt_mutex_take+0x198>
    30003470:	fff7879b          	addiw	a5,a5,-1
    30003474:	02f41c23          	sh	a5,56(s0)
    30003478:	04943023          	sd	s1,64(s0)
    3000347c:	0694c783          	lbu	a5,105(s1)
    30003480:	02f40d23          	sb	a5,58(s0)
    30003484:	fadff06f          	j	30003430 <rt_mutex_take+0x118>
    30003488:	00090513          	mv	a0,s2
    3000348c:	121010ef          	jal	ra,30004dac <rt_hw_interrupt_enable>
    30003490:	ffd00513          	li	a0,-3
    30003494:	03813083          	ld	ra,56(sp)
    30003498:	03013403          	ld	s0,48(sp)
    3000349c:	02813483          	ld	s1,40(sp)
    300034a0:	02013903          	ld	s2,32(sp)
    300034a4:	01813983          	ld	s3,24(sp)
    300034a8:	04010113          	addi	sp,sp,64
    300034ac:	00008067          	ret
    300034b0:	00c12783          	lw	a5,12(sp)
    300034b4:	00079e63          	bnez	a5,300034d0 <rt_mutex_take+0x1b8>
    300034b8:	ffe00793          	li	a5,-2
    300034bc:	00090513          	mv	a0,s2
    300034c0:	06f4b023          	sd	a5,96(s1)
    300034c4:	0e9010ef          	jal	ra,30004dac <rt_hw_interrupt_enable>
    300034c8:	ffe00513          	li	a0,-2
    300034cc:	fc9ff06f          	j	30003494 <rt_mutex_take+0x17c>
    300034d0:	0694c703          	lbu	a4,105(s1)
    300034d4:	06954783          	lbu	a5,105(a0)
    300034d8:	00f77863          	bgeu	a4,a5,300034e8 <rt_mutex_take+0x1d0>
    300034dc:	06948613          	addi	a2,s1,105
    300034e0:	00200593          	li	a1,2
    300034e4:	4c9000ef          	jal	ra,300041ac <rt_thread_control>
    300034e8:	01544603          	lbu	a2,21(s0)
    300034ec:	00048593          	mv	a1,s1
    300034f0:	02840513          	addi	a0,s0,40
    300034f4:	999ff0ef          	jal	ra,30002e8c <rt_ipc_list_suspend.isra.0>
    300034f8:	00c12783          	lw	a5,12(sp)
    300034fc:	02f05063          	blez	a5,3000351c <rt_mutex_take+0x204>
    30003500:	08848993          	addi	s3,s1,136
    30003504:	00c10613          	addi	a2,sp,12
    30003508:	00000593          	li	a1,0
    3000350c:	00098513          	mv	a0,s3
    30003510:	a7cfd0ef          	jal	ra,3000078c <rt_timer_control>
    30003514:	00098513          	mv	a0,s3
    30003518:	844fd0ef          	jal	ra,3000055c <rt_timer_start>
    3000351c:	00090513          	mv	a0,s2
    30003520:	08d010ef          	jal	ra,30004dac <rt_hw_interrupt_enable>
    30003524:	5fc010ef          	jal	ra,30004b20 <rt_schedule>
    30003528:	0604b503          	ld	a0,96(s1)
    3000352c:	f60514e3          	bnez	a0,30003494 <rt_mutex_take+0x17c>
    30003530:	075010ef          	jal	ra,30004da4 <rt_hw_interrupt_disable>
    30003534:	00050913          	mv	s2,a0
    30003538:	f0dff06f          	j	30003444 <rt_mutex_take+0x12c>

000000003000353c <rt_mutex_release>:
    3000353c:	fd010113          	addi	sp,sp,-48
    30003540:	02813023          	sd	s0,32(sp)
    30003544:	02113423          	sd	ra,40(sp)
    30003548:	00913c23          	sd	s1,24(sp)
    3000354c:	01213823          	sd	s2,16(sp)
    30003550:	00050413          	mv	s0,a0
    30003554:	00051e63          	bnez	a0,30003570 <rt_mutex_release+0x34>
    30003558:	35400613          	li	a2,852
    3000355c:	4fffe597          	auipc	a1,0x4fffe
    30003560:	c9458593          	addi	a1,a1,-876 # 800011f0 <__FUNCTION__.24>
    30003564:	4fffe517          	auipc	a0,0x4fffe
    30003568:	bf450513          	addi	a0,a0,-1036 # 80001158 <small_digits.1+0xf0>
    3000356c:	8cdff0ef          	jal	ra,30002e38 <rt_assert_handler>
    30003570:	00040513          	mv	a0,s0
    30003574:	12c010ef          	jal	ra,300046a0 <rt_object_get_type>
    30003578:	00300793          	li	a5,3
    3000357c:	00f50e63          	beq	a0,a5,30003598 <rt_mutex_release+0x5c>
    30003580:	35500613          	li	a2,853
    30003584:	4fffe597          	auipc	a1,0x4fffe
    30003588:	c6c58593          	addi	a1,a1,-916 # 800011f0 <__FUNCTION__.24>
    3000358c:	4fffe517          	auipc	a0,0x4fffe
    30003590:	be450513          	addi	a0,a0,-1052 # 80001170 <small_digits.1+0x108>
    30003594:	8a5ff0ef          	jal	ra,30002e38 <rt_assert_handler>
    30003598:	00d010ef          	jal	ra,30004da4 <rt_hw_interrupt_disable>
    3000359c:	00050493          	mv	s1,a0
    300035a0:	608000ef          	jal	ra,30003ba8 <rt_thread_self>
    300035a4:	02051863          	bnez	a0,300035d4 <rt_mutex_release+0x98>
    300035a8:	4fffe597          	auipc	a1,0x4fffe
    300035ac:	c4858593          	addi	a1,a1,-952 # 800011f0 <__FUNCTION__.24>
    300035b0:	4fffe517          	auipc	a0,0x4fffe
    300035b4:	b7050513          	addi	a0,a0,-1168 # 80001120 <small_digits.1+0xb8>
    300035b8:	efcff0ef          	jal	ra,30002cb4 <rt_kprintf>
    300035bc:	35a00613          	li	a2,858
    300035c0:	4fffe597          	auipc	a1,0x4fffe
    300035c4:	c3058593          	addi	a1,a1,-976 # 800011f0 <__FUNCTION__.24>
    300035c8:	4fffd517          	auipc	a0,0x4fffd
    300035cc:	51050513          	addi	a0,a0,1296 # 80000ad8 <__FUNCTION__.6+0x210>
    300035d0:	869ff0ef          	jal	ra,30002e38 <rt_assert_handler>
    300035d4:	7d0010ef          	jal	ra,30004da4 <rt_hw_interrupt_disable>
    300035d8:	00050913          	mv	s2,a0
    300035dc:	79c010ef          	jal	ra,30004d78 <rt_interrupt_get_nest>
    300035e0:	02050863          	beqz	a0,30003610 <rt_mutex_release+0xd4>
    300035e4:	4fffe597          	auipc	a1,0x4fffe
    300035e8:	c0c58593          	addi	a1,a1,-1012 # 800011f0 <__FUNCTION__.24>
    300035ec:	4fffd517          	auipc	a0,0x4fffd
    300035f0:	4c450513          	addi	a0,a0,1220 # 80000ab0 <__FUNCTION__.6+0x1e8>
    300035f4:	ec0ff0ef          	jal	ra,30002cb4 <rt_kprintf>
    300035f8:	35a00613          	li	a2,858
    300035fc:	4fffe597          	auipc	a1,0x4fffe
    30003600:	bf458593          	addi	a1,a1,-1036 # 800011f0 <__FUNCTION__.24>
    30003604:	4fffd517          	auipc	a0,0x4fffd
    30003608:	4d450513          	addi	a0,a0,1236 # 80000ad8 <__FUNCTION__.6+0x210>
    3000360c:	82dff0ef          	jal	ra,30002e38 <rt_assert_handler>
    30003610:	00090513          	mv	a0,s2
    30003614:	798010ef          	jal	ra,30004dac <rt_hw_interrupt_enable>
    30003618:	00048513          	mv	a0,s1
    3000361c:	790010ef          	jal	ra,30004dac <rt_hw_interrupt_enable>
    30003620:	588000ef          	jal	ra,30003ba8 <rt_thread_self>
    30003624:	00050913          	mv	s2,a0
    30003628:	77c010ef          	jal	ra,30004da4 <rt_hw_interrupt_disable>
    3000362c:	8c01b783          	ld	a5,-1856(gp) # 800042b8 <rt_object_put_hook>
    30003630:	00050493          	mv	s1,a0
    30003634:	00078663          	beqz	a5,30003640 <rt_mutex_release+0x104>
    30003638:	00040513          	mv	a0,s0
    3000363c:	000780e7          	jalr	a5
    30003640:	04043783          	ld	a5,64(s0)
    30003644:	03278863          	beq	a5,s2,30003674 <rt_mutex_release+0x138>
    30003648:	fff00793          	li	a5,-1
    3000364c:	00048513          	mv	a0,s1
    30003650:	06f93023          	sd	a5,96(s2)
    30003654:	758010ef          	jal	ra,30004dac <rt_hw_interrupt_enable>
    30003658:	fff00513          	li	a0,-1
    3000365c:	02813083          	ld	ra,40(sp)
    30003660:	02013403          	ld	s0,32(sp)
    30003664:	01813483          	ld	s1,24(sp)
    30003668:	01013903          	ld	s2,16(sp)
    3000366c:	03010113          	addi	sp,sp,48
    30003670:	00008067          	ret
    30003674:	03b44783          	lbu	a5,59(s0)
    30003678:	fff7879b          	addiw	a5,a5,-1
    3000367c:	0ff7f793          	zext.b	a5,a5
    30003680:	02f40da3          	sb	a5,59(s0)
    30003684:	08079e63          	bnez	a5,30003720 <rt_mutex_release+0x1e4>
    30003688:	03a44703          	lbu	a4,58(s0)
    3000368c:	06994783          	lbu	a5,105(s2)
    30003690:	00f70a63          	beq	a4,a5,300036a4 <rt_mutex_release+0x168>
    30003694:	03a40613          	addi	a2,s0,58
    30003698:	00200593          	li	a1,2
    3000369c:	00090513          	mv	a0,s2
    300036a0:	30d000ef          	jal	ra,300041ac <rt_thread_control>
    300036a4:	02843503          	ld	a0,40(s0)
    300036a8:	02840793          	addi	a5,s0,40
    300036ac:	04f50863          	beq	a0,a5,300036fc <rt_mutex_release+0x1c0>
    300036b0:	fd850793          	addi	a5,a0,-40
    300036b4:	04f43023          	sd	a5,64(s0)
    300036b8:	04154783          	lbu	a5,65(a0)
    300036bc:	0ff00713          	li	a4,255
    300036c0:	02f40d23          	sb	a5,58(s0)
    300036c4:	03b44783          	lbu	a5,59(s0)
    300036c8:	06e78063          	beq	a5,a4,30003728 <rt_mutex_release+0x1ec>
    300036cc:	0017879b          	addiw	a5,a5,1
    300036d0:	02f40da3          	sb	a5,59(s0)
    300036d4:	fb0ff0ef          	jal	ra,30002e84 <rt_ipc_list_resume.isra.0>
    300036d8:	00100413          	li	s0,1
    300036dc:	00048513          	mv	a0,s1
    300036e0:	6cc010ef          	jal	ra,30004dac <rt_hw_interrupt_enable>
    300036e4:	00000513          	li	a0,0
    300036e8:	f6040ae3          	beqz	s0,3000365c <rt_mutex_release+0x120>
    300036ec:	00a13423          	sd	a0,8(sp)
    300036f0:	430010ef          	jal	ra,30004b20 <rt_schedule>
    300036f4:	00813503          	ld	a0,8(sp)
    300036f8:	f65ff06f          	j	3000365c <rt_mutex_release+0x120>
    300036fc:	03845783          	lhu	a5,56(s0)
    30003700:	00010737          	lui	a4,0x10
    30003704:	fff70713          	addi	a4,a4,-1 # ffff <__stack_size+0xf7ff>
    30003708:	02e78063          	beq	a5,a4,30003728 <rt_mutex_release+0x1ec>
    3000370c:	0017879b          	addiw	a5,a5,1
    30003710:	02f41c23          	sh	a5,56(s0)
    30003714:	fff00793          	li	a5,-1
    30003718:	04043023          	sd	zero,64(s0)
    3000371c:	02f40d23          	sb	a5,58(s0)
    30003720:	00000413          	li	s0,0
    30003724:	fb9ff06f          	j	300036dc <rt_mutex_release+0x1a0>
    30003728:	00048513          	mv	a0,s1
    3000372c:	680010ef          	jal	ra,30004dac <rt_hw_interrupt_enable>
    30003730:	ffd00513          	li	a0,-3
    30003734:	f29ff06f          	j	3000365c <rt_mutex_release+0x120>

0000000030003738 <rt_tick_get>:
    30003738:	8901a503          	lw	a0,-1904(gp) # 80004288 <rt_tick>
    3000373c:	00008067          	ret

0000000030003740 <rt_tick_increase>:
    30003740:	ff010113          	addi	sp,sp,-16
    30003744:	00113423          	sd	ra,8(sp)
    30003748:	00813023          	sd	s0,0(sp)
    3000374c:	658010ef          	jal	ra,30004da4 <rt_hw_interrupt_disable>
    30003750:	8901a783          	lw	a5,-1904(gp) # 80004288 <rt_tick>
    30003754:	0017879b          	addiw	a5,a5,1
    30003758:	88f1a823          	sw	a5,-1904(gp) # 80004288 <rt_tick>
    3000375c:	00050413          	mv	s0,a0
    30003760:	448000ef          	jal	ra,30003ba8 <rt_thread_self>
    30003764:	08053783          	ld	a5,128(a0)
    30003768:	fff78793          	addi	a5,a5,-1
    3000376c:	08f53023          	sd	a5,128(a0)
    30003770:	02079a63          	bnez	a5,300037a4 <rt_tick_increase+0x64>
    30003774:	07853783          	ld	a5,120(a0)
    30003778:	08f53023          	sd	a5,128(a0)
    3000377c:	06854783          	lbu	a5,104(a0)
    30003780:	0087e793          	ori	a5,a5,8
    30003784:	06f50423          	sb	a5,104(a0)
    30003788:	00040513          	mv	a0,s0
    3000378c:	620010ef          	jal	ra,30004dac <rt_hw_interrupt_enable>
    30003790:	390010ef          	jal	ra,30004b20 <rt_schedule>
    30003794:	00013403          	ld	s0,0(sp)
    30003798:	00813083          	ld	ra,8(sp)
    3000379c:	01010113          	addi	sp,sp,16
    300037a0:	8e4fd06f          	j	30000884 <rt_timer_check>
    300037a4:	00040513          	mv	a0,s0
    300037a8:	604010ef          	jal	ra,30004dac <rt_hw_interrupt_enable>
    300037ac:	fe9ff06f          	j	30003794 <rt_tick_increase+0x54>

00000000300037b0 <rt_tick_from_millisecond>:
    300037b0:	06054c63          	bltz	a0,30003828 <rt_tick_from_millisecond+0x78>
    300037b4:	fe010113          	addi	sp,sp,-32
    300037b8:	3e800593          	li	a1,1000
    300037bc:	00113c23          	sd	ra,24(sp)
    300037c0:	00813823          	sd	s0,16(sp)
    300037c4:	00913423          	sd	s1,8(sp)
    300037c8:	00050493          	mv	s1,a0
    300037cc:	19d010ef          	jal	ra,30005168 <__divdi3>
    300037d0:	0015141b          	slliw	s0,a0,0x1
    300037d4:	00a4043b          	addw	s0,s0,a0
    300037d8:	0034141b          	slliw	s0,s0,0x3
    300037dc:	00a4043b          	addw	s0,s0,a0
    300037e0:	3e800593          	li	a1,1000
    300037e4:	00048513          	mv	a0,s1
    300037e8:	205010ef          	jal	ra,300051ec <__moddi3>
    300037ec:	0015179b          	slliw	a5,a0,0x1
    300037f0:	00a787bb          	addw	a5,a5,a0
    300037f4:	0037979b          	slliw	a5,a5,0x3
    300037f8:	00a7853b          	addw	a0,a5,a0
    300037fc:	0025151b          	slliw	a0,a0,0x2
    30003800:	3e800593          	li	a1,1000
    30003804:	3e75051b          	addiw	a0,a0,999
    30003808:	161010ef          	jal	ra,30005168 <__divdi3>
    3000380c:	0024141b          	slliw	s0,s0,0x2
    30003810:	01813083          	ld	ra,24(sp)
    30003814:	00a4053b          	addw	a0,s0,a0
    30003818:	01013403          	ld	s0,16(sp)
    3000381c:	00813483          	ld	s1,8(sp)
    30003820:	02010113          	addi	sp,sp,32
    30003824:	00008067          	ret
    30003828:	fff00513          	li	a0,-1
    3000382c:	00008067          	ret

0000000030003830 <_rt_thread_cleanup_execute>:
    30003830:	fe010113          	addi	sp,sp,-32
    30003834:	00813823          	sd	s0,16(sp)
    30003838:	00913423          	sd	s1,8(sp)
    3000383c:	00050413          	mv	s0,a0
    30003840:	00113c23          	sd	ra,24(sp)
    30003844:	560010ef          	jal	ra,30004da4 <rt_hw_interrupt_disable>
    30003848:	0d843783          	ld	a5,216(s0)
    3000384c:	00050493          	mv	s1,a0
    30003850:	00078663          	beqz	a5,3000385c <_rt_thread_cleanup_execute+0x2c>
    30003854:	00040513          	mv	a0,s0
    30003858:	000780e7          	jalr	a5
    3000385c:	01013403          	ld	s0,16(sp)
    30003860:	01813083          	ld	ra,24(sp)
    30003864:	00048513          	mv	a0,s1
    30003868:	00813483          	ld	s1,8(sp)
    3000386c:	02010113          	addi	sp,sp,32
    30003870:	53c0106f          	j	30004dac <rt_hw_interrupt_enable>

0000000030003874 <_rt_thread_exit>:
    30003874:	fe010113          	addi	sp,sp,-32
    30003878:	00113c23          	sd	ra,24(sp)
    3000387c:	00813823          	sd	s0,16(sp)
    30003880:	00913423          	sd	s1,8(sp)
    30003884:	8e01b403          	ld	s0,-1824(gp) # 800042d8 <rt_current_thread>
    30003888:	51c010ef          	jal	ra,30004da4 <rt_hw_interrupt_disable>
    3000388c:	00050493          	mv	s1,a0
    30003890:	00040513          	mv	a0,s0
    30003894:	f9dff0ef          	jal	ra,30003830 <_rt_thread_cleanup_execute>
    30003898:	00040513          	mv	a0,s0
    3000389c:	17c010ef          	jal	ra,30004a18 <rt_schedule_remove_thread>
    300038a0:	00400793          	li	a5,4
    300038a4:	06f40423          	sb	a5,104(s0)
    300038a8:	08840513          	addi	a0,s0,136
    300038ac:	bf1fc0ef          	jal	ra,3000049c <rt_timer_detach>
    300038b0:	00040513          	mv	a0,s0
    300038b4:	5a9000ef          	jal	ra,3000465c <rt_object_is_systemobject>
    300038b8:	00100793          	li	a5,1
    300038bc:	02f51463          	bne	a0,a5,300038e4 <_rt_thread_exit+0x70>
    300038c0:	00040513          	mv	a0,s0
    300038c4:	37d000ef          	jal	ra,30004440 <rt_object_detach>
    300038c8:	258010ef          	jal	ra,30004b20 <rt_schedule>
    300038cc:	01013403          	ld	s0,16(sp)
    300038d0:	01813083          	ld	ra,24(sp)
    300038d4:	00048513          	mv	a0,s1
    300038d8:	00813483          	ld	s1,8(sp)
    300038dc:	02010113          	addi	sp,sp,32
    300038e0:	4cc0106f          	j	30004dac <rt_hw_interrupt_enable>
    300038e4:	00040513          	mv	a0,s0
    300038e8:	d00fe0ef          	jal	ra,30001de8 <rt_thread_defunct_enqueue>
    300038ec:	fddff06f          	j	300038c8 <_rt_thread_exit+0x54>

00000000300038f0 <_rt_thread_init.constprop.0>:
    300038f0:	fe010113          	addi	sp,sp,-32
    300038f4:	00813823          	sd	s0,16(sp)
    300038f8:	00050413          	mv	s0,a0
    300038fc:	00913423          	sd	s1,8(sp)
    30003900:	04c43423          	sd	a2,72(s0)
    30003904:	00078493          	mv	s1,a5
    30003908:	02071613          	slli	a2,a4,0x20
    3000390c:	02840793          	addi	a5,s0,40
    30003910:	00068513          	mv	a0,a3
    30003914:	02f43823          	sd	a5,48(s0)
    30003918:	02f43423          	sd	a5,40(s0)
    3000391c:	04b43023          	sd	a1,64(s0)
    30003920:	04d43823          	sd	a3,80(s0)
    30003924:	04e42c23          	sw	a4,88(s0)
    30003928:	02065613          	srli	a2,a2,0x20
    3000392c:	02300593          	li	a1,35
    30003930:	00113c23          	sd	ra,24(sp)
    30003934:	01213023          	sd	s2,0(sp)
    30003938:	00080913          	mv	s2,a6
    3000393c:	9c5fe0ef          	jal	ra,30002300 <rt_memset>
    30003940:	05846783          	lwu	a5,88(s0)
    30003944:	05043603          	ld	a2,80(s0)
    30003948:	04843583          	ld	a1,72(s0)
    3000394c:	04043503          	ld	a0,64(s0)
    30003950:	ff878793          	addi	a5,a5,-8
    30003954:	00f60633          	add	a2,a2,a5
    30003958:	00000697          	auipc	a3,0x0
    3000395c:	f1c68693          	addi	a3,a3,-228 # 30003874 <_rt_thread_exit>
    30003960:	62c010ef          	jal	ra,30004f8c <rt_hw_stack_init>
    30003964:	02a43c23          	sd	a0,56(s0)
    30003968:	01f00793          	li	a5,31
    3000396c:	0097fe63          	bgeu	a5,s1,30003988 <_rt_thread_init.constprop.0+0x98>
    30003970:	0ae00613          	li	a2,174
    30003974:	4fffe597          	auipc	a1,0x4fffe
    30003978:	b6c58593          	addi	a1,a1,-1172 # 800014e0 <__FUNCTION__.9>
    3000397c:	4fffe517          	auipc	a0,0x4fffe
    30003980:	8f450513          	addi	a0,a0,-1804 # 80001270 <__FUNCTION__.37+0x10>
    30003984:	cb4ff0ef          	jal	ra,30002e38 <rt_assert_handler>
    30003988:	02091813          	slli	a6,s2,0x20
    3000398c:	02085813          	srli	a6,a6,0x20
    30003990:	00000793          	li	a5,0
    30003994:	06940523          	sb	s1,106(s0)
    30003998:	069404a3          	sb	s1,105(s0)
    3000399c:	06042623          	sw	zero,108(s0)
    300039a0:	07043c23          	sd	a6,120(s0)
    300039a4:	09043023          	sd	a6,128(s0)
    300039a8:	06043023          	sd	zero,96(s0)
    300039ac:	06040423          	sb	zero,104(s0)
    300039b0:	0c043c23          	sd	zero,216(s0)
    300039b4:	0e043023          	sd	zero,224(s0)
    300039b8:	00000713          	li	a4,0
    300039bc:	00040693          	mv	a3,s0
    300039c0:	00000617          	auipc	a2,0x0
    300039c4:	04060613          	addi	a2,a2,64 # 30003a00 <rt_thread_timeout>
    300039c8:	00040593          	mv	a1,s0
    300039cc:	08840513          	addi	a0,s0,136
    300039d0:	a21fc0ef          	jal	ra,300003f0 <rt_timer_init>
    300039d4:	8981b783          	ld	a5,-1896(gp) # 80004290 <rt_thread_inited_hook>
    300039d8:	00078663          	beqz	a5,300039e4 <_rt_thread_init.constprop.0+0xf4>
    300039dc:	00040513          	mv	a0,s0
    300039e0:	000780e7          	jalr	a5
    300039e4:	01813083          	ld	ra,24(sp)
    300039e8:	01013403          	ld	s0,16(sp)
    300039ec:	00813483          	ld	s1,8(sp)
    300039f0:	00013903          	ld	s2,0(sp)
    300039f4:	00000513          	li	a0,0
    300039f8:	02010113          	addi	sp,sp,32
    300039fc:	00008067          	ret

0000000030003a00 <rt_thread_timeout>:
    30003a00:	fe010113          	addi	sp,sp,-32
    30003a04:	00813823          	sd	s0,16(sp)
    30003a08:	00113c23          	sd	ra,24(sp)
    30003a0c:	00913423          	sd	s1,8(sp)
    30003a10:	00050413          	mv	s0,a0
    30003a14:	00051e63          	bnez	a0,30003a30 <rt_thread_timeout+0x30>
    30003a18:	37600613          	li	a2,886
    30003a1c:	4fffe597          	auipc	a1,0x4fffe
    30003a20:	9fc58593          	addi	a1,a1,-1540 # 80001418 <__FUNCTION__.0>
    30003a24:	4fffe517          	auipc	a0,0x4fffe
    30003a28:	87450513          	addi	a0,a0,-1932 # 80001298 <__FUNCTION__.37+0x38>
    30003a2c:	c0cff0ef          	jal	ra,30002e38 <rt_assert_handler>
    30003a30:	06844783          	lbu	a5,104(s0)
    30003a34:	00200713          	li	a4,2
    30003a38:	0077f793          	andi	a5,a5,7
    30003a3c:	00e78e63          	beq	a5,a4,30003a58 <rt_thread_timeout+0x58>
    30003a40:	37700613          	li	a2,887
    30003a44:	4fffe597          	auipc	a1,0x4fffe
    30003a48:	9d458593          	addi	a1,a1,-1580 # 80001418 <__FUNCTION__.0>
    30003a4c:	4fffe517          	auipc	a0,0x4fffe
    30003a50:	86450513          	addi	a0,a0,-1948 # 800012b0 <__FUNCTION__.37+0x50>
    30003a54:	be4ff0ef          	jal	ra,30002e38 <rt_assert_handler>
    30003a58:	00040513          	mv	a0,s0
    30003a5c:	445000ef          	jal	ra,300046a0 <rt_object_get_type>
    30003a60:	00100793          	li	a5,1
    30003a64:	00f50e63          	beq	a0,a5,30003a80 <rt_thread_timeout+0x80>
    30003a68:	37800613          	li	a2,888
    30003a6c:	4fffe597          	auipc	a1,0x4fffe
    30003a70:	9ac58593          	addi	a1,a1,-1620 # 80001418 <__FUNCTION__.0>
    30003a74:	4fffe517          	auipc	a0,0x4fffe
    30003a78:	87c50513          	addi	a0,a0,-1924 # 800012f0 <__FUNCTION__.37+0x90>
    30003a7c:	bbcff0ef          	jal	ra,30002e38 <rt_assert_handler>
    30003a80:	324010ef          	jal	ra,30004da4 <rt_hw_interrupt_disable>
    30003a84:	02843683          	ld	a3,40(s0)
    30003a88:	03043703          	ld	a4,48(s0)
    30003a8c:	ffe00793          	li	a5,-2
    30003a90:	06f43023          	sd	a5,96(s0)
    30003a94:	00e6b423          	sd	a4,8(a3)
    30003a98:	02840793          	addi	a5,s0,40
    30003a9c:	00d73023          	sd	a3,0(a4)
    30003aa0:	00050493          	mv	s1,a0
    30003aa4:	02f43823          	sd	a5,48(s0)
    30003aa8:	02f43423          	sd	a5,40(s0)
    30003aac:	00040513          	mv	a0,s0
    30003ab0:	6c5000ef          	jal	ra,30004974 <rt_schedule_insert_thread>
    30003ab4:	00048513          	mv	a0,s1
    30003ab8:	2f4010ef          	jal	ra,30004dac <rt_hw_interrupt_enable>
    30003abc:	01013403          	ld	s0,16(sp)
    30003ac0:	01813083          	ld	ra,24(sp)
    30003ac4:	00813483          	ld	s1,8(sp)
    30003ac8:	02010113          	addi	sp,sp,32
    30003acc:	0540106f          	j	30004b20 <rt_schedule>

0000000030003ad0 <rt_thread_init>:
    30003ad0:	fb010113          	addi	sp,sp,-80
    30003ad4:	04813023          	sd	s0,64(sp)
    30003ad8:	02913c23          	sd	s1,56(sp)
    30003adc:	03213823          	sd	s2,48(sp)
    30003ae0:	03313423          	sd	s3,40(sp)
    30003ae4:	03413023          	sd	s4,32(sp)
    30003ae8:	01513c23          	sd	s5,24(sp)
    30003aec:	01613823          	sd	s6,16(sp)
    30003af0:	01713423          	sd	s7,8(sp)
    30003af4:	04113423          	sd	ra,72(sp)
    30003af8:	00050413          	mv	s0,a0
    30003afc:	00058b93          	mv	s7,a1
    30003b00:	00060913          	mv	s2,a2
    30003b04:	00068993          	mv	s3,a3
    30003b08:	00070493          	mv	s1,a4
    30003b0c:	00078a13          	mv	s4,a5
    30003b10:	00080a93          	mv	s5,a6
    30003b14:	00088b13          	mv	s6,a7
    30003b18:	00051e63          	bnez	a0,30003b34 <rt_thread_init+0x64>
    30003b1c:	10f00613          	li	a2,271
    30003b20:	4fffe597          	auipc	a1,0x4fffe
    30003b24:	92858593          	addi	a1,a1,-1752 # 80001448 <__FUNCTION__.10>
    30003b28:	4fffd517          	auipc	a0,0x4fffd
    30003b2c:	77050513          	addi	a0,a0,1904 # 80001298 <__FUNCTION__.37+0x38>
    30003b30:	b08ff0ef          	jal	ra,30002e38 <rt_assert_handler>
    30003b34:	00049e63          	bnez	s1,30003b50 <rt_thread_init+0x80>
    30003b38:	11000613          	li	a2,272
    30003b3c:	4fffe597          	auipc	a1,0x4fffe
    30003b40:	90c58593          	addi	a1,a1,-1780 # 80001448 <__FUNCTION__.10>
    30003b44:	4fffd517          	auipc	a0,0x4fffd
    30003b48:	7f450513          	addi	a0,a0,2036 # 80001338 <__FUNCTION__.37+0xd8>
    30003b4c:	aecff0ef          	jal	ra,30002e38 <rt_assert_handler>
    30003b50:	000b8613          	mv	a2,s7
    30003b54:	00040513          	mv	a0,s0
    30003b58:	00100593          	li	a1,1
    30003b5c:	7d4000ef          	jal	ra,30004330 <rt_object_init>
    30003b60:	00040513          	mv	a0,s0
    30003b64:	04013403          	ld	s0,64(sp)
    30003b68:	04813083          	ld	ra,72(sp)
    30003b6c:	00813b83          	ld	s7,8(sp)
    30003b70:	000b0813          	mv	a6,s6
    30003b74:	000a8793          	mv	a5,s5
    30003b78:	01013b03          	ld	s6,16(sp)
    30003b7c:	01813a83          	ld	s5,24(sp)
    30003b80:	000a0713          	mv	a4,s4
    30003b84:	00048693          	mv	a3,s1
    30003b88:	02013a03          	ld	s4,32(sp)
    30003b8c:	03813483          	ld	s1,56(sp)
    30003b90:	00098613          	mv	a2,s3
    30003b94:	00090593          	mv	a1,s2
    30003b98:	02813983          	ld	s3,40(sp)
    30003b9c:	03013903          	ld	s2,48(sp)
    30003ba0:	05010113          	addi	sp,sp,80
    30003ba4:	d4dff06f          	j	300038f0 <_rt_thread_init.constprop.0>

0000000030003ba8 <rt_thread_self>:
    30003ba8:	8e01b503          	ld	a0,-1824(gp) # 800042d8 <rt_current_thread>
    30003bac:	00008067          	ret

0000000030003bb0 <rt_thread_detach>:
    30003bb0:	fe010113          	addi	sp,sp,-32
    30003bb4:	00813823          	sd	s0,16(sp)
    30003bb8:	00113c23          	sd	ra,24(sp)
    30003bbc:	00913423          	sd	s1,8(sp)
    30003bc0:	00050413          	mv	s0,a0
    30003bc4:	00051e63          	bnez	a0,30003be0 <rt_thread_detach+0x30>
    30003bc8:	17200613          	li	a2,370
    30003bcc:	4fffe597          	auipc	a1,0x4fffe
    30003bd0:	8e458593          	addi	a1,a1,-1820 # 800014b0 <__FUNCTION__.7>
    30003bd4:	4fffd517          	auipc	a0,0x4fffd
    30003bd8:	6c450513          	addi	a0,a0,1732 # 80001298 <__FUNCTION__.37+0x38>
    30003bdc:	a5cff0ef          	jal	ra,30002e38 <rt_assert_handler>
    30003be0:	00040513          	mv	a0,s0
    30003be4:	2bd000ef          	jal	ra,300046a0 <rt_object_get_type>
    30003be8:	00100793          	li	a5,1
    30003bec:	00f50e63          	beq	a0,a5,30003c08 <rt_thread_detach+0x58>
    30003bf0:	17300613          	li	a2,371
    30003bf4:	4fffe597          	auipc	a1,0x4fffe
    30003bf8:	8bc58593          	addi	a1,a1,-1860 # 800014b0 <__FUNCTION__.7>
    30003bfc:	4fffd517          	auipc	a0,0x4fffd
    30003c00:	6f450513          	addi	a0,a0,1780 # 800012f0 <__FUNCTION__.37+0x90>
    30003c04:	a34ff0ef          	jal	ra,30002e38 <rt_assert_handler>
    30003c08:	00040513          	mv	a0,s0
    30003c0c:	251000ef          	jal	ra,3000465c <rt_object_is_systemobject>
    30003c10:	00051e63          	bnez	a0,30003c2c <rt_thread_detach+0x7c>
    30003c14:	17400613          	li	a2,372
    30003c18:	4fffe597          	auipc	a1,0x4fffe
    30003c1c:	89858593          	addi	a1,a1,-1896 # 800014b0 <__FUNCTION__.7>
    30003c20:	4fffd517          	auipc	a0,0x4fffd
    30003c24:	73050513          	addi	a0,a0,1840 # 80001350 <__FUNCTION__.37+0xf0>
    30003c28:	a10ff0ef          	jal	ra,30002e38 <rt_assert_handler>
    30003c2c:	06844783          	lbu	a5,104(s0)
    30003c30:	00400713          	li	a4,4
    30003c34:	0077f793          	andi	a5,a5,7
    30003c38:	04e78063          	beq	a5,a4,30003c78 <rt_thread_detach+0xc8>
    30003c3c:	00078663          	beqz	a5,30003c48 <rt_thread_detach+0x98>
    30003c40:	00040513          	mv	a0,s0
    30003c44:	5d5000ef          	jal	ra,30004a18 <rt_schedule_remove_thread>
    30003c48:	00040513          	mv	a0,s0
    30003c4c:	be5ff0ef          	jal	ra,30003830 <_rt_thread_cleanup_execute>
    30003c50:	08840513          	addi	a0,s0,136
    30003c54:	849fc0ef          	jal	ra,3000049c <rt_timer_detach>
    30003c58:	00400793          	li	a5,4
    30003c5c:	06f40423          	sb	a5,104(s0)
    30003c60:	00040513          	mv	a0,s0
    30003c64:	1f9000ef          	jal	ra,3000465c <rt_object_is_systemobject>
    30003c68:	00100793          	li	a5,1
    30003c6c:	02f51263          	bne	a0,a5,30003c90 <rt_thread_detach+0xe0>
    30003c70:	00040513          	mv	a0,s0
    30003c74:	7cc000ef          	jal	ra,30004440 <rt_object_detach>
    30003c78:	01813083          	ld	ra,24(sp)
    30003c7c:	01013403          	ld	s0,16(sp)
    30003c80:	00813483          	ld	s1,8(sp)
    30003c84:	00000513          	li	a0,0
    30003c88:	02010113          	addi	sp,sp,32
    30003c8c:	00008067          	ret
    30003c90:	114010ef          	jal	ra,30004da4 <rt_hw_interrupt_disable>
    30003c94:	00050493          	mv	s1,a0
    30003c98:	00040513          	mv	a0,s0
    30003c9c:	94cfe0ef          	jal	ra,30001de8 <rt_thread_defunct_enqueue>
    30003ca0:	00048513          	mv	a0,s1
    30003ca4:	108010ef          	jal	ra,30004dac <rt_hw_interrupt_enable>
    30003ca8:	fd1ff06f          	j	30003c78 <rt_thread_detach+0xc8>

0000000030003cac <rt_thread_create>:
    30003cac:	fc010113          	addi	sp,sp,-64
    30003cb0:	03213023          	sd	s2,32(sp)
    30003cb4:	00058913          	mv	s2,a1
    30003cb8:	00050593          	mv	a1,a0
    30003cbc:	00100513          	li	a0,1
    30003cc0:	02813823          	sd	s0,48(sp)
    30003cc4:	02913423          	sd	s1,40(sp)
    30003cc8:	01313c23          	sd	s3,24(sp)
    30003ccc:	01413823          	sd	s4,16(sp)
    30003cd0:	01513423          	sd	s5,8(sp)
    30003cd4:	02113c23          	sd	ra,56(sp)
    30003cd8:	00060993          	mv	s3,a2
    30003cdc:	00068493          	mv	s1,a3
    30003ce0:	00070a13          	mv	s4,a4
    30003ce4:	00078a93          	mv	s5,a5
    30003ce8:	7c8000ef          	jal	ra,300044b0 <rt_object_allocate>
    30003cec:	00050413          	mv	s0,a0
    30003cf0:	02050263          	beqz	a0,30003d14 <rt_thread_create+0x68>
    30003cf4:	02049513          	slli	a0,s1,0x20
    30003cf8:	02055513          	srli	a0,a0,0x20
    30003cfc:	a05fd0ef          	jal	ra,30001700 <rt_malloc>
    30003d00:	00050693          	mv	a3,a0
    30003d04:	02051c63          	bnez	a0,30003d3c <rt_thread_create+0x90>
    30003d08:	00040513          	mv	a0,s0
    30003d0c:	0b9000ef          	jal	ra,300045c4 <rt_object_delete>
    30003d10:	00000413          	li	s0,0
    30003d14:	03813083          	ld	ra,56(sp)
    30003d18:	00040513          	mv	a0,s0
    30003d1c:	03013403          	ld	s0,48(sp)
    30003d20:	02813483          	ld	s1,40(sp)
    30003d24:	02013903          	ld	s2,32(sp)
    30003d28:	01813983          	ld	s3,24(sp)
    30003d2c:	01013a03          	ld	s4,16(sp)
    30003d30:	00813a83          	ld	s5,8(sp)
    30003d34:	04010113          	addi	sp,sp,64
    30003d38:	00008067          	ret
    30003d3c:	000a8813          	mv	a6,s5
    30003d40:	000a0793          	mv	a5,s4
    30003d44:	00048713          	mv	a4,s1
    30003d48:	00098613          	mv	a2,s3
    30003d4c:	00090593          	mv	a1,s2
    30003d50:	00040513          	mv	a0,s0
    30003d54:	b9dff0ef          	jal	ra,300038f0 <_rt_thread_init.constprop.0>
    30003d58:	fbdff06f          	j	30003d14 <rt_thread_create+0x68>

0000000030003d5c <rt_thread_delete>:
    30003d5c:	fe010113          	addi	sp,sp,-32
    30003d60:	00813823          	sd	s0,16(sp)
    30003d64:	00113c23          	sd	ra,24(sp)
    30003d68:	00913423          	sd	s1,8(sp)
    30003d6c:	00050413          	mv	s0,a0
    30003d70:	00051e63          	bnez	a0,30003d8c <rt_thread_delete+0x30>
    30003d74:	1d900613          	li	a2,473
    30003d78:	4fffd597          	auipc	a1,0x4fffd
    30003d7c:	72058593          	addi	a1,a1,1824 # 80001498 <__FUNCTION__.6>
    30003d80:	4fffd517          	auipc	a0,0x4fffd
    30003d84:	51850513          	addi	a0,a0,1304 # 80001298 <__FUNCTION__.37+0x38>
    30003d88:	8b0ff0ef          	jal	ra,30002e38 <rt_assert_handler>
    30003d8c:	00040513          	mv	a0,s0
    30003d90:	111000ef          	jal	ra,300046a0 <rt_object_get_type>
    30003d94:	00100793          	li	a5,1
    30003d98:	00f50e63          	beq	a0,a5,30003db4 <rt_thread_delete+0x58>
    30003d9c:	1da00613          	li	a2,474
    30003da0:	4fffd597          	auipc	a1,0x4fffd
    30003da4:	6f858593          	addi	a1,a1,1784 # 80001498 <__FUNCTION__.6>
    30003da8:	4fffd517          	auipc	a0,0x4fffd
    30003dac:	54850513          	addi	a0,a0,1352 # 800012f0 <__FUNCTION__.37+0x90>
    30003db0:	888ff0ef          	jal	ra,30002e38 <rt_assert_handler>
    30003db4:	00040513          	mv	a0,s0
    30003db8:	0a5000ef          	jal	ra,3000465c <rt_object_is_systemobject>
    30003dbc:	00050e63          	beqz	a0,30003dd8 <rt_thread_delete+0x7c>
    30003dc0:	1db00613          	li	a2,475
    30003dc4:	4fffd597          	auipc	a1,0x4fffd
    30003dc8:	6d458593          	addi	a1,a1,1748 # 80001498 <__FUNCTION__.6>
    30003dcc:	4fffd517          	auipc	a0,0x4fffd
    30003dd0:	5b450513          	addi	a0,a0,1460 # 80001380 <__FUNCTION__.37+0x120>
    30003dd4:	864ff0ef          	jal	ra,30002e38 <rt_assert_handler>
    30003dd8:	06844783          	lbu	a5,104(s0)
    30003ddc:	00400713          	li	a4,4
    30003de0:	0077f793          	andi	a5,a5,7
    30003de4:	04e78063          	beq	a5,a4,30003e24 <rt_thread_delete+0xc8>
    30003de8:	00078663          	beqz	a5,30003df4 <rt_thread_delete+0x98>
    30003dec:	00040513          	mv	a0,s0
    30003df0:	429000ef          	jal	ra,30004a18 <rt_schedule_remove_thread>
    30003df4:	00040513          	mv	a0,s0
    30003df8:	a39ff0ef          	jal	ra,30003830 <_rt_thread_cleanup_execute>
    30003dfc:	08840513          	addi	a0,s0,136
    30003e00:	e9cfc0ef          	jal	ra,3000049c <rt_timer_detach>
    30003e04:	7a1000ef          	jal	ra,30004da4 <rt_hw_interrupt_disable>
    30003e08:	00400793          	li	a5,4
    30003e0c:	00050493          	mv	s1,a0
    30003e10:	06f40423          	sb	a5,104(s0)
    30003e14:	00040513          	mv	a0,s0
    30003e18:	fd1fd0ef          	jal	ra,30001de8 <rt_thread_defunct_enqueue>
    30003e1c:	00048513          	mv	a0,s1
    30003e20:	78d000ef          	jal	ra,30004dac <rt_hw_interrupt_enable>
    30003e24:	01813083          	ld	ra,24(sp)
    30003e28:	01013403          	ld	s0,16(sp)
    30003e2c:	00813483          	ld	s1,8(sp)
    30003e30:	00000513          	li	a0,0
    30003e34:	02010113          	addi	sp,sp,32
    30003e38:	00008067          	ret

0000000030003e3c <rt_thread_suspend>:
    30003e3c:	fe010113          	addi	sp,sp,-32
    30003e40:	00813823          	sd	s0,16(sp)
    30003e44:	00113c23          	sd	ra,24(sp)
    30003e48:	00913423          	sd	s1,8(sp)
    30003e4c:	01213023          	sd	s2,0(sp)
    30003e50:	00050413          	mv	s0,a0
    30003e54:	00051e63          	bnez	a0,30003e70 <rt_thread_suspend+0x34>
    30003e58:	31800613          	li	a2,792
    30003e5c:	4fffd597          	auipc	a1,0x4fffd
    30003e60:	5fc58593          	addi	a1,a1,1532 # 80001458 <__FUNCTION__.2>
    30003e64:	4fffd517          	auipc	a0,0x4fffd
    30003e68:	43450513          	addi	a0,a0,1076 # 80001298 <__FUNCTION__.37+0x38>
    30003e6c:	fcdfe0ef          	jal	ra,30002e38 <rt_assert_handler>
    30003e70:	00040513          	mv	a0,s0
    30003e74:	02d000ef          	jal	ra,300046a0 <rt_object_get_type>
    30003e78:	00100793          	li	a5,1
    30003e7c:	00f50e63          	beq	a0,a5,30003e98 <rt_thread_suspend+0x5c>
    30003e80:	31900613          	li	a2,793
    30003e84:	4fffd597          	auipc	a1,0x4fffd
    30003e88:	5d458593          	addi	a1,a1,1492 # 80001458 <__FUNCTION__.2>
    30003e8c:	4fffd517          	auipc	a0,0x4fffd
    30003e90:	46450513          	addi	a0,a0,1124 # 800012f0 <__FUNCTION__.37+0x90>
    30003e94:	fa5fe0ef          	jal	ra,30002e38 <rt_assert_handler>
    30003e98:	06844783          	lbu	a5,104(s0)
    30003e9c:	00100713          	li	a4,1
    30003ea0:	fff00513          	li	a0,-1
    30003ea4:	0077f913          	andi	s2,a5,7
    30003ea8:	0057f793          	andi	a5,a5,5
    30003eac:	06e79a63          	bne	a5,a4,30003f20 <rt_thread_suspend+0xe4>
    30003eb0:	6f5000ef          	jal	ra,30004da4 <rt_hw_interrupt_disable>
    30003eb4:	00300793          	li	a5,3
    30003eb8:	00050493          	mv	s1,a0
    30003ebc:	02f91263          	bne	s2,a5,30003ee0 <rt_thread_suspend+0xa4>
    30003ec0:	8e01b783          	ld	a5,-1824(gp) # 800042d8 <rt_current_thread>
    30003ec4:	00f40e63          	beq	s0,a5,30003ee0 <rt_thread_suspend+0xa4>
    30003ec8:	32a00613          	li	a2,810
    30003ecc:	4fffd597          	auipc	a1,0x4fffd
    30003ed0:	58c58593          	addi	a1,a1,1420 # 80001458 <__FUNCTION__.2>
    30003ed4:	4fffd517          	auipc	a0,0x4fffd
    30003ed8:	4ec50513          	addi	a0,a0,1260 # 800013c0 <__FUNCTION__.37+0x160>
    30003edc:	f5dfe0ef          	jal	ra,30002e38 <rt_assert_handler>
    30003ee0:	00040513          	mv	a0,s0
    30003ee4:	335000ef          	jal	ra,30004a18 <rt_schedule_remove_thread>
    30003ee8:	06844783          	lbu	a5,104(s0)
    30003eec:	08840513          	addi	a0,s0,136
    30003ef0:	ff87f793          	andi	a5,a5,-8
    30003ef4:	0027e793          	ori	a5,a5,2
    30003ef8:	06f40423          	sb	a5,104(s0)
    30003efc:	fdcfc0ef          	jal	ra,300006d8 <rt_timer_stop>
    30003f00:	00048513          	mv	a0,s1
    30003f04:	6a9000ef          	jal	ra,30004dac <rt_hw_interrupt_enable>
    30003f08:	8a81b783          	ld	a5,-1880(gp) # 800042a0 <rt_thread_suspend_hook>
    30003f0c:	00000513          	li	a0,0
    30003f10:	00078863          	beqz	a5,30003f20 <rt_thread_suspend+0xe4>
    30003f14:	00040513          	mv	a0,s0
    30003f18:	000780e7          	jalr	a5
    30003f1c:	00000513          	li	a0,0
    30003f20:	01813083          	ld	ra,24(sp)
    30003f24:	01013403          	ld	s0,16(sp)
    30003f28:	00813483          	ld	s1,8(sp)
    30003f2c:	00013903          	ld	s2,0(sp)
    30003f30:	02010113          	addi	sp,sp,32
    30003f34:	00008067          	ret

0000000030003f38 <rt_thread_sleep>:
    30003f38:	fd010113          	addi	sp,sp,-48
    30003f3c:	02813023          	sd	s0,32(sp)
    30003f40:	02113423          	sd	ra,40(sp)
    30003f44:	00913c23          	sd	s1,24(sp)
    30003f48:	01213823          	sd	s2,16(sp)
    30003f4c:	00a12623          	sw	a0,12(sp)
    30003f50:	8e01b403          	ld	s0,-1824(gp) # 800042d8 <rt_current_thread>
    30003f54:	00041e63          	bnez	s0,30003f70 <rt_thread_sleep+0x38>
    30003f58:	22100613          	li	a2,545
    30003f5c:	4fffd597          	auipc	a1,0x4fffd
    30003f60:	52c58593          	addi	a1,a1,1324 # 80001488 <__FUNCTION__.5>
    30003f64:	4fffd517          	auipc	a0,0x4fffd
    30003f68:	33450513          	addi	a0,a0,820 # 80001298 <__FUNCTION__.37+0x38>
    30003f6c:	ecdfe0ef          	jal	ra,30002e38 <rt_assert_handler>
    30003f70:	00040513          	mv	a0,s0
    30003f74:	72c000ef          	jal	ra,300046a0 <rt_object_get_type>
    30003f78:	00100793          	li	a5,1
    30003f7c:	00f50e63          	beq	a0,a5,30003f98 <rt_thread_sleep+0x60>
    30003f80:	22200613          	li	a2,546
    30003f84:	4fffd597          	auipc	a1,0x4fffd
    30003f88:	50458593          	addi	a1,a1,1284 # 80001488 <__FUNCTION__.5>
    30003f8c:	4fffd517          	auipc	a0,0x4fffd
    30003f90:	36450513          	addi	a0,a0,868 # 800012f0 <__FUNCTION__.37+0x90>
    30003f94:	ea5fe0ef          	jal	ra,30002e38 <rt_assert_handler>
    30003f98:	60d000ef          	jal	ra,30004da4 <rt_hw_interrupt_disable>
    30003f9c:	00050913          	mv	s2,a0
    30003fa0:	00040513          	mv	a0,s0
    30003fa4:	e99ff0ef          	jal	ra,30003e3c <rt_thread_suspend>
    30003fa8:	08840493          	addi	s1,s0,136
    30003fac:	00c10613          	addi	a2,sp,12
    30003fb0:	00000593          	li	a1,0
    30003fb4:	00048513          	mv	a0,s1
    30003fb8:	fd4fc0ef          	jal	ra,3000078c <rt_timer_control>
    30003fbc:	00048513          	mv	a0,s1
    30003fc0:	d9cfc0ef          	jal	ra,3000055c <rt_timer_start>
    30003fc4:	00090513          	mv	a0,s2
    30003fc8:	5e5000ef          	jal	ra,30004dac <rt_hw_interrupt_enable>
    30003fcc:	355000ef          	jal	ra,30004b20 <rt_schedule>
    30003fd0:	06043703          	ld	a4,96(s0)
    30003fd4:	ffe00793          	li	a5,-2
    30003fd8:	00f71463          	bne	a4,a5,30003fe0 <rt_thread_sleep+0xa8>
    30003fdc:	06043023          	sd	zero,96(s0)
    30003fe0:	02813083          	ld	ra,40(sp)
    30003fe4:	02013403          	ld	s0,32(sp)
    30003fe8:	01813483          	ld	s1,24(sp)
    30003fec:	01013903          	ld	s2,16(sp)
    30003ff0:	00000513          	li	a0,0
    30003ff4:	03010113          	addi	sp,sp,48
    30003ff8:	00008067          	ret

0000000030003ffc <rt_thread_delay>:
    30003ffc:	f3dff06f          	j	30003f38 <rt_thread_sleep>

0000000030004000 <rt_thread_mdelay>:
    30004000:	ff010113          	addi	sp,sp,-16
    30004004:	00113423          	sd	ra,8(sp)
    30004008:	fa8ff0ef          	jal	ra,300037b0 <rt_tick_from_millisecond>
    3000400c:	00813083          	ld	ra,8(sp)
    30004010:	0005051b          	sext.w	a0,a0
    30004014:	01010113          	addi	sp,sp,16
    30004018:	f21ff06f          	j	30003f38 <rt_thread_sleep>

000000003000401c <rt_thread_resume>:
    3000401c:	fe010113          	addi	sp,sp,-32
    30004020:	00813823          	sd	s0,16(sp)
    30004024:	00113c23          	sd	ra,24(sp)
    30004028:	00913423          	sd	s1,8(sp)
    3000402c:	00050413          	mv	s0,a0
    30004030:	00051e63          	bnez	a0,3000404c <rt_thread_resume+0x30>
    30004034:	34800613          	li	a2,840
    30004038:	4fffd597          	auipc	a1,0x4fffd
    3000403c:	3f858593          	addi	a1,a1,1016 # 80001430 <__FUNCTION__.1>
    30004040:	4fffd517          	auipc	a0,0x4fffd
    30004044:	25850513          	addi	a0,a0,600 # 80001298 <__FUNCTION__.37+0x38>
    30004048:	df1fe0ef          	jal	ra,30002e38 <rt_assert_handler>
    3000404c:	00040513          	mv	a0,s0
    30004050:	650000ef          	jal	ra,300046a0 <rt_object_get_type>
    30004054:	00100793          	li	a5,1
    30004058:	00f50e63          	beq	a0,a5,30004074 <rt_thread_resume+0x58>
    3000405c:	34900613          	li	a2,841
    30004060:	4fffd597          	auipc	a1,0x4fffd
    30004064:	3d058593          	addi	a1,a1,976 # 80001430 <__FUNCTION__.1>
    30004068:	4fffd517          	auipc	a0,0x4fffd
    3000406c:	28850513          	addi	a0,a0,648 # 800012f0 <__FUNCTION__.37+0x90>
    30004070:	dc9fe0ef          	jal	ra,30002e38 <rt_assert_handler>
    30004074:	06844783          	lbu	a5,104(s0)
    30004078:	00200713          	li	a4,2
    3000407c:	fff00513          	li	a0,-1
    30004080:	0077f793          	andi	a5,a5,7
    30004084:	04e79c63          	bne	a5,a4,300040dc <rt_thread_resume+0xc0>
    30004088:	51d000ef          	jal	ra,30004da4 <rt_hw_interrupt_disable>
    3000408c:	02843683          	ld	a3,40(s0)
    30004090:	03043703          	ld	a4,48(s0)
    30004094:	02840793          	addi	a5,s0,40
    30004098:	00050493          	mv	s1,a0
    3000409c:	00e6b423          	sd	a4,8(a3)
    300040a0:	00d73023          	sd	a3,0(a4)
    300040a4:	02f43823          	sd	a5,48(s0)
    300040a8:	02f43423          	sd	a5,40(s0)
    300040ac:	08840513          	addi	a0,s0,136
    300040b0:	e28fc0ef          	jal	ra,300006d8 <rt_timer_stop>
    300040b4:	00040513          	mv	a0,s0
    300040b8:	0bd000ef          	jal	ra,30004974 <rt_schedule_insert_thread>
    300040bc:	00048513          	mv	a0,s1
    300040c0:	4ed000ef          	jal	ra,30004dac <rt_hw_interrupt_enable>
    300040c4:	8a01b783          	ld	a5,-1888(gp) # 80004298 <rt_thread_resume_hook>
    300040c8:	00000513          	li	a0,0
    300040cc:	00078863          	beqz	a5,300040dc <rt_thread_resume+0xc0>
    300040d0:	00040513          	mv	a0,s0
    300040d4:	000780e7          	jalr	a5
    300040d8:	00000513          	li	a0,0
    300040dc:	01813083          	ld	ra,24(sp)
    300040e0:	01013403          	ld	s0,16(sp)
    300040e4:	00813483          	ld	s1,8(sp)
    300040e8:	02010113          	addi	sp,sp,32
    300040ec:	00008067          	ret

00000000300040f0 <rt_thread_startup>:
    300040f0:	ff010113          	addi	sp,sp,-16
    300040f4:	00813023          	sd	s0,0(sp)
    300040f8:	00113423          	sd	ra,8(sp)
    300040fc:	00050413          	mv	s0,a0
    30004100:	00051e63          	bnez	a0,3000411c <rt_thread_startup+0x2c>
    30004104:	14100613          	li	a2,321
    30004108:	4fffd597          	auipc	a1,0x4fffd
    3000410c:	3c058593          	addi	a1,a1,960 # 800014c8 <__FUNCTION__.8>
    30004110:	4fffd517          	auipc	a0,0x4fffd
    30004114:	18850513          	addi	a0,a0,392 # 80001298 <__FUNCTION__.37+0x38>
    30004118:	d21fe0ef          	jal	ra,30002e38 <rt_assert_handler>
    3000411c:	06844783          	lbu	a5,104(s0)
    30004120:	0077f793          	andi	a5,a5,7
    30004124:	00078e63          	beqz	a5,30004140 <rt_thread_startup+0x50>
    30004128:	14200613          	li	a2,322
    3000412c:	4fffd597          	auipc	a1,0x4fffd
    30004130:	39c58593          	addi	a1,a1,924 # 800014c8 <__FUNCTION__.8>
    30004134:	4fffd517          	auipc	a0,0x4fffd
    30004138:	2ac50513          	addi	a0,a0,684 # 800013e0 <__FUNCTION__.37+0x180>
    3000413c:	cfdfe0ef          	jal	ra,30002e38 <rt_assert_handler>
    30004140:	00040513          	mv	a0,s0
    30004144:	55c000ef          	jal	ra,300046a0 <rt_object_get_type>
    30004148:	00100793          	li	a5,1
    3000414c:	00f50e63          	beq	a0,a5,30004168 <rt_thread_startup+0x78>
    30004150:	14300613          	li	a2,323
    30004154:	4fffd597          	auipc	a1,0x4fffd
    30004158:	37458593          	addi	a1,a1,884 # 800014c8 <__FUNCTION__.8>
    3000415c:	4fffd517          	auipc	a0,0x4fffd
    30004160:	19450513          	addi	a0,a0,404 # 800012f0 <__FUNCTION__.37+0x90>
    30004164:	cd5fe0ef          	jal	ra,30002e38 <rt_assert_handler>
    30004168:	06a44703          	lbu	a4,106(s0)
    3000416c:	00100793          	li	a5,1
    30004170:	00040513          	mv	a0,s0
    30004174:	00e797b3          	sll	a5,a5,a4
    30004178:	06f42623          	sw	a5,108(s0)
    3000417c:	00200793          	li	a5,2
    30004180:	06f40423          	sb	a5,104(s0)
    30004184:	06e404a3          	sb	a4,105(s0)
    30004188:	e95ff0ef          	jal	ra,3000401c <rt_thread_resume>
    3000418c:	8e01b783          	ld	a5,-1824(gp) # 800042d8 <rt_current_thread>
    30004190:	00078463          	beqz	a5,30004198 <rt_thread_startup+0xa8>
    30004194:	18d000ef          	jal	ra,30004b20 <rt_schedule>
    30004198:	00813083          	ld	ra,8(sp)
    3000419c:	00013403          	ld	s0,0(sp)
    300041a0:	00000513          	li	a0,0
    300041a4:	01010113          	addi	sp,sp,16
    300041a8:	00008067          	ret

00000000300041ac <rt_thread_control>:
    300041ac:	fc010113          	addi	sp,sp,-64
    300041b0:	02813823          	sd	s0,48(sp)
    300041b4:	02913423          	sd	s1,40(sp)
    300041b8:	03213023          	sd	s2,32(sp)
    300041bc:	02113c23          	sd	ra,56(sp)
    300041c0:	01313c23          	sd	s3,24(sp)
    300041c4:	00050413          	mv	s0,a0
    300041c8:	00058493          	mv	s1,a1
    300041cc:	00060913          	mv	s2,a2
    300041d0:	00051e63          	bnez	a0,300041ec <rt_thread_control+0x40>
    300041d4:	2a600613          	li	a2,678
    300041d8:	4fffd597          	auipc	a1,0x4fffd
    300041dc:	29858593          	addi	a1,a1,664 # 80001470 <__FUNCTION__.3>
    300041e0:	4fffd517          	auipc	a0,0x4fffd
    300041e4:	0b850513          	addi	a0,a0,184 # 80001298 <__FUNCTION__.37+0x38>
    300041e8:	c51fe0ef          	jal	ra,30002e38 <rt_assert_handler>
    300041ec:	00040513          	mv	a0,s0
    300041f0:	4b0000ef          	jal	ra,300046a0 <rt_object_get_type>
    300041f4:	00100793          	li	a5,1
    300041f8:	00f50e63          	beq	a0,a5,30004214 <rt_thread_control+0x68>
    300041fc:	2a700613          	li	a2,679
    30004200:	4fffd597          	auipc	a1,0x4fffd
    30004204:	27058593          	addi	a1,a1,624 # 80001470 <__FUNCTION__.3>
    30004208:	4fffd517          	auipc	a0,0x4fffd
    3000420c:	0e850513          	addi	a0,a0,232 # 800012f0 <__FUNCTION__.37+0x90>
    30004210:	c29fe0ef          	jal	ra,30002e38 <rt_assert_handler>
    30004214:	00100993          	li	s3,1
    30004218:	0b348663          	beq	s1,s3,300042c4 <rt_thread_control+0x118>
    3000421c:	00200793          	li	a5,2
    30004220:	02f48463          	beq	s1,a5,30004248 <rt_thread_control+0x9c>
    30004224:	08048063          	beqz	s1,300042a4 <rt_thread_control+0xf8>
    30004228:	00000513          	li	a0,0
    3000422c:	03813083          	ld	ra,56(sp)
    30004230:	03013403          	ld	s0,48(sp)
    30004234:	02813483          	ld	s1,40(sp)
    30004238:	02013903          	ld	s2,32(sp)
    3000423c:	01813983          	ld	s3,24(sp)
    30004240:	04010113          	addi	sp,sp,64
    30004244:	00008067          	ret
    30004248:	35d000ef          	jal	ra,30004da4 <rt_hw_interrupt_disable>
    3000424c:	06844783          	lbu	a5,104(s0)
    30004250:	00050493          	mv	s1,a0
    30004254:	0077f793          	andi	a5,a5,7
    30004258:	03379a63          	bne	a5,s3,3000428c <rt_thread_control+0xe0>
    3000425c:	00040513          	mv	a0,s0
    30004260:	7b8000ef          	jal	ra,30004a18 <rt_schedule_remove_thread>
    30004264:	00094703          	lbu	a4,0(s2)
    30004268:	00100793          	li	a5,1
    3000426c:	00040513          	mv	a0,s0
    30004270:	00e797bb          	sllw	a5,a5,a4
    30004274:	06e404a3          	sb	a4,105(s0)
    30004278:	06f42623          	sw	a5,108(s0)
    3000427c:	6f8000ef          	jal	ra,30004974 <rt_schedule_insert_thread>
    30004280:	00048513          	mv	a0,s1
    30004284:	329000ef          	jal	ra,30004dac <rt_hw_interrupt_enable>
    30004288:	fa1ff06f          	j	30004228 <rt_thread_control+0x7c>
    3000428c:	00094703          	lbu	a4,0(s2)
    30004290:	00100793          	li	a5,1
    30004294:	00e797bb          	sllw	a5,a5,a4
    30004298:	06e404a3          	sb	a4,105(s0)
    3000429c:	06f42623          	sw	a5,108(s0)
    300042a0:	fe1ff06f          	j	30004280 <rt_thread_control+0xd4>
    300042a4:	00040513          	mv	a0,s0
    300042a8:	03013403          	ld	s0,48(sp)
    300042ac:	03813083          	ld	ra,56(sp)
    300042b0:	02813483          	ld	s1,40(sp)
    300042b4:	02013903          	ld	s2,32(sp)
    300042b8:	01813983          	ld	s3,24(sp)
    300042bc:	04010113          	addi	sp,sp,64
    300042c0:	e31ff06f          	j	300040f0 <rt_thread_startup>
    300042c4:	00040513          	mv	a0,s0
    300042c8:	394000ef          	jal	ra,3000465c <rt_object_is_systemobject>
    300042cc:	00951e63          	bne	a0,s1,300042e8 <rt_thread_control+0x13c>
    300042d0:	00040513          	mv	a0,s0
    300042d4:	8ddff0ef          	jal	ra,30003bb0 <rt_thread_detach>
    300042d8:	00a13423          	sd	a0,8(sp)
    300042dc:	045000ef          	jal	ra,30004b20 <rt_schedule>
    300042e0:	00813503          	ld	a0,8(sp)
    300042e4:	f49ff06f          	j	3000422c <rt_thread_control+0x80>
    300042e8:	00040513          	mv	a0,s0
    300042ec:	a71ff0ef          	jal	ra,30003d5c <rt_thread_delete>
    300042f0:	fe9ff06f          	j	300042d8 <rt_thread_control+0x12c>

00000000300042f4 <rt_object_get_information>:
    300042f4:	50000697          	auipc	a3,0x50000
    300042f8:	ce468693          	addi	a3,a3,-796 # 80003fd8 <rt_object_container>
    300042fc:	00000793          	li	a5,0
    30004300:	00068713          	mv	a4,a3
    30004304:	00900613          	li	a2,9
    30004308:	0006a583          	lw	a1,0(a3)
    3000430c:	00a59863          	bne	a1,a0,3000431c <rt_object_get_information+0x28>
    30004310:	00579793          	slli	a5,a5,0x5
    30004314:	00f70533          	add	a0,a4,a5
    30004318:	00008067          	ret
    3000431c:	0017879b          	addiw	a5,a5,1
    30004320:	02068693          	addi	a3,a3,32
    30004324:	fec792e3          	bne	a5,a2,30004308 <rt_object_get_information+0x14>
    30004328:	00000513          	li	a0,0
    3000432c:	00008067          	ret

0000000030004330 <rt_object_init>:
    30004330:	fb010113          	addi	sp,sp,-80
    30004334:	04813023          	sd	s0,64(sp)
    30004338:	00050413          	mv	s0,a0
    3000433c:	00058513          	mv	a0,a1
    30004340:	02913c23          	sd	s1,56(sp)
    30004344:	03213823          	sd	s2,48(sp)
    30004348:	03413023          	sd	s4,32(sp)
    3000434c:	04113423          	sd	ra,72(sp)
    30004350:	03313423          	sd	s3,40(sp)
    30004354:	01513c23          	sd	s5,24(sp)
    30004358:	01613823          	sd	s6,16(sp)
    3000435c:	01713423          	sd	s7,8(sp)
    30004360:	00058913          	mv	s2,a1
    30004364:	00060a13          	mv	s4,a2
    30004368:	f8dff0ef          	jal	ra,300042f4 <rt_object_get_information>
    3000436c:	00050493          	mv	s1,a0
    30004370:	00051e63          	bnez	a0,3000438c <rt_object_init+0x5c>
    30004374:	13800613          	li	a2,312
    30004378:	4fffd597          	auipc	a1,0x4fffd
    3000437c:	27858593          	addi	a1,a1,632 # 800015f0 <__FUNCTION__.6>
    30004380:	4fffd517          	auipc	a0,0x4fffd
    30004384:	17050513          	addi	a0,a0,368 # 800014f0 <__FUNCTION__.9+0x10>
    30004388:	ab1fe0ef          	jal	ra,30002e38 <rt_assert_handler>
    3000438c:	0f9000ef          	jal	ra,30004c84 <rt_enter_critical>
    30004390:	0084b983          	ld	s3,8(s1)
    30004394:	00848a93          	addi	s5,s1,8
    30004398:	4fffdb17          	auipc	s6,0x4fffd
    3000439c:	258b0b13          	addi	s6,s6,600 # 800015f0 <__FUNCTION__.6>
    300043a0:	4fffdb97          	auipc	s7,0x4fffd
    300043a4:	168b8b93          	addi	s7,s7,360 # 80001508 <__FUNCTION__.9+0x28>
    300043a8:	073a9c63          	bne	s5,s3,30004420 <rt_object_init+0xf0>
    300043ac:	101000ef          	jal	ra,30004cac <rt_exit_critical>
    300043b0:	f8096913          	ori	s2,s2,-128
    300043b4:	01240a23          	sb	s2,20(s0)
    300043b8:	01400613          	li	a2,20
    300043bc:	000a0593          	mv	a1,s4
    300043c0:	00040513          	mv	a0,s0
    300043c4:	958fe0ef          	jal	ra,3000251c <rt_strncpy>
    300043c8:	8b01b783          	ld	a5,-1872(gp) # 800042a8 <rt_object_attach_hook>
    300043cc:	00078663          	beqz	a5,300043d8 <rt_object_init+0xa8>
    300043d0:	00040513          	mv	a0,s0
    300043d4:	000780e7          	jalr	a5
    300043d8:	1cd000ef          	jal	ra,30004da4 <rt_hw_interrupt_disable>
    300043dc:	0084b703          	ld	a4,8(s1)
    300043e0:	01840793          	addi	a5,s0,24
    300043e4:	04813083          	ld	ra,72(sp)
    300043e8:	00f73423          	sd	a5,8(a4)
    300043ec:	00e43c23          	sd	a4,24(s0)
    300043f0:	00f4b423          	sd	a5,8(s1)
    300043f4:	03543023          	sd	s5,32(s0)
    300043f8:	04013403          	ld	s0,64(sp)
    300043fc:	03813483          	ld	s1,56(sp)
    30004400:	03013903          	ld	s2,48(sp)
    30004404:	02813983          	ld	s3,40(sp)
    30004408:	02013a03          	ld	s4,32(sp)
    3000440c:	01813a83          	ld	s5,24(sp)
    30004410:	01013b03          	ld	s6,16(sp)
    30004414:	00813b83          	ld	s7,8(sp)
    30004418:	05010113          	addi	sp,sp,80
    3000441c:	1910006f          	j	30004dac <rt_hw_interrupt_enable>
    30004420:	fe898793          	addi	a5,s3,-24
    30004424:	00f41a63          	bne	s0,a5,30004438 <rt_object_init+0x108>
    30004428:	14800613          	li	a2,328
    3000442c:	000b0593          	mv	a1,s6
    30004430:	000b8513          	mv	a0,s7
    30004434:	a05fe0ef          	jal	ra,30002e38 <rt_assert_handler>
    30004438:	0009b983          	ld	s3,0(s3)
    3000443c:	f6dff06f          	j	300043a8 <rt_object_init+0x78>

0000000030004440 <rt_object_detach>:
    30004440:	ff010113          	addi	sp,sp,-16
    30004444:	00813023          	sd	s0,0(sp)
    30004448:	00113423          	sd	ra,8(sp)
    3000444c:	00050413          	mv	s0,a0
    30004450:	00051e63          	bnez	a0,3000446c <rt_object_detach+0x2c>
    30004454:	17500613          	li	a2,373
    30004458:	4fffd597          	auipc	a1,0x4fffd
    3000445c:	18058593          	addi	a1,a1,384 # 800015d8 <__FUNCTION__.5>
    30004460:	4fffd517          	auipc	a0,0x4fffd
    30004464:	0b850513          	addi	a0,a0,184 # 80001518 <__FUNCTION__.9+0x38>
    30004468:	9d1fe0ef          	jal	ra,30002e38 <rt_assert_handler>
    3000446c:	8b81b783          	ld	a5,-1864(gp) # 800042b0 <rt_object_detach_hook>
    30004470:	00078663          	beqz	a5,3000447c <rt_object_detach+0x3c>
    30004474:	00040513          	mv	a0,s0
    30004478:	000780e7          	jalr	a5
    3000447c:	00040a23          	sb	zero,20(s0)
    30004480:	125000ef          	jal	ra,30004da4 <rt_hw_interrupt_disable>
    30004484:	01843683          	ld	a3,24(s0)
    30004488:	02043703          	ld	a4,32(s0)
    3000448c:	01840793          	addi	a5,s0,24
    30004490:	00813083          	ld	ra,8(sp)
    30004494:	00e6b423          	sd	a4,8(a3)
    30004498:	00d73023          	sd	a3,0(a4)
    3000449c:	02f43023          	sd	a5,32(s0)
    300044a0:	00f43c23          	sd	a5,24(s0)
    300044a4:	00013403          	ld	s0,0(sp)
    300044a8:	01010113          	addi	sp,sp,16
    300044ac:	1010006f          	j	30004dac <rt_hw_interrupt_enable>

00000000300044b0 <rt_object_allocate>:
    300044b0:	fd010113          	addi	sp,sp,-48
    300044b4:	02813023          	sd	s0,32(sp)
    300044b8:	01213823          	sd	s2,16(sp)
    300044bc:	01313423          	sd	s3,8(sp)
    300044c0:	02113423          	sd	ra,40(sp)
    300044c4:	00913c23          	sd	s1,24(sp)
    300044c8:	00050913          	mv	s2,a0
    300044cc:	00058993          	mv	s3,a1
    300044d0:	0d5000ef          	jal	ra,30004da4 <rt_hw_interrupt_disable>
    300044d4:	00050413          	mv	s0,a0
    300044d8:	0a1000ef          	jal	ra,30004d78 <rt_interrupt_get_nest>
    300044dc:	02050863          	beqz	a0,3000450c <rt_object_allocate+0x5c>
    300044e0:	4fffd597          	auipc	a1,0x4fffd
    300044e4:	0e058593          	addi	a1,a1,224 # 800015c0 <__FUNCTION__.4>
    300044e8:	4fffc517          	auipc	a0,0x4fffc
    300044ec:	5c850513          	addi	a0,a0,1480 # 80000ab0 <__FUNCTION__.6+0x1e8>
    300044f0:	fc4fe0ef          	jal	ra,30002cb4 <rt_kprintf>
    300044f4:	19800613          	li	a2,408
    300044f8:	4fffd597          	auipc	a1,0x4fffd
    300044fc:	0c858593          	addi	a1,a1,200 # 800015c0 <__FUNCTION__.4>
    30004500:	4fffc517          	auipc	a0,0x4fffc
    30004504:	5d850513          	addi	a0,a0,1496 # 80000ad8 <__FUNCTION__.6+0x210>
    30004508:	931fe0ef          	jal	ra,30002e38 <rt_assert_handler>
    3000450c:	00040513          	mv	a0,s0
    30004510:	09d000ef          	jal	ra,30004dac <rt_hw_interrupt_enable>
    30004514:	00090513          	mv	a0,s2
    30004518:	dddff0ef          	jal	ra,300042f4 <rt_object_get_information>
    3000451c:	00050493          	mv	s1,a0
    30004520:	00051e63          	bnez	a0,3000453c <rt_object_allocate+0x8c>
    30004524:	19c00613          	li	a2,412
    30004528:	4fffd597          	auipc	a1,0x4fffd
    3000452c:	09858593          	addi	a1,a1,152 # 800015c0 <__FUNCTION__.4>
    30004530:	4fffd517          	auipc	a0,0x4fffd
    30004534:	fc050513          	addi	a0,a0,-64 # 800014f0 <__FUNCTION__.9+0x10>
    30004538:	901fe0ef          	jal	ra,30002e38 <rt_assert_handler>
    3000453c:	0184b503          	ld	a0,24(s1)
    30004540:	9c0fd0ef          	jal	ra,30001700 <rt_malloc>
    30004544:	00050413          	mv	s0,a0
    30004548:	04050e63          	beqz	a0,300045a4 <rt_object_allocate+0xf4>
    3000454c:	0184b603          	ld	a2,24(s1)
    30004550:	00000593          	li	a1,0
    30004554:	dadfd0ef          	jal	ra,30002300 <rt_memset>
    30004558:	01400613          	li	a2,20
    3000455c:	01240a23          	sb	s2,20(s0)
    30004560:	00040aa3          	sb	zero,21(s0)
    30004564:	00098593          	mv	a1,s3
    30004568:	00040513          	mv	a0,s0
    3000456c:	fb1fd0ef          	jal	ra,3000251c <rt_strncpy>
    30004570:	8b01b783          	ld	a5,-1872(gp) # 800042a8 <rt_object_attach_hook>
    30004574:	00078663          	beqz	a5,30004580 <rt_object_allocate+0xd0>
    30004578:	00040513          	mv	a0,s0
    3000457c:	000780e7          	jalr	a5
    30004580:	025000ef          	jal	ra,30004da4 <rt_hw_interrupt_disable>
    30004584:	0084b703          	ld	a4,8(s1)
    30004588:	01840793          	addi	a5,s0,24
    3000458c:	00848493          	addi	s1,s1,8
    30004590:	00f73423          	sd	a5,8(a4)
    30004594:	00e43c23          	sd	a4,24(s0)
    30004598:	00f4b023          	sd	a5,0(s1)
    3000459c:	02943023          	sd	s1,32(s0)
    300045a0:	00d000ef          	jal	ra,30004dac <rt_hw_interrupt_enable>
    300045a4:	02813083          	ld	ra,40(sp)
    300045a8:	00040513          	mv	a0,s0
    300045ac:	02013403          	ld	s0,32(sp)
    300045b0:	01813483          	ld	s1,24(sp)
    300045b4:	01013903          	ld	s2,16(sp)
    300045b8:	00813983          	ld	s3,8(sp)
    300045bc:	03010113          	addi	sp,sp,48
    300045c0:	00008067          	ret

00000000300045c4 <rt_object_delete>:
    300045c4:	ff010113          	addi	sp,sp,-16
    300045c8:	00813023          	sd	s0,0(sp)
    300045cc:	00113423          	sd	ra,8(sp)
    300045d0:	00050413          	mv	s0,a0
    300045d4:	00051e63          	bnez	a0,300045f0 <rt_object_delete+0x2c>
    300045d8:	1d600613          	li	a2,470
    300045dc:	4fffd597          	auipc	a1,0x4fffd
    300045e0:	fcc58593          	addi	a1,a1,-52 # 800015a8 <__FUNCTION__.3>
    300045e4:	4fffd517          	auipc	a0,0x4fffd
    300045e8:	f3450513          	addi	a0,a0,-204 # 80001518 <__FUNCTION__.9+0x38>
    300045ec:	84dfe0ef          	jal	ra,30002e38 <rt_assert_handler>
    300045f0:	01440783          	lb	a5,20(s0)
    300045f4:	0007de63          	bgez	a5,30004610 <rt_object_delete+0x4c>
    300045f8:	1d700613          	li	a2,471
    300045fc:	4fffd597          	auipc	a1,0x4fffd
    30004600:	fac58593          	addi	a1,a1,-84 # 800015a8 <__FUNCTION__.3>
    30004604:	4fffd517          	auipc	a0,0x4fffd
    30004608:	f2c50513          	addi	a0,a0,-212 # 80001530 <__FUNCTION__.9+0x50>
    3000460c:	82dfe0ef          	jal	ra,30002e38 <rt_assert_handler>
    30004610:	8b81b783          	ld	a5,-1864(gp) # 800042b0 <rt_object_detach_hook>
    30004614:	00078663          	beqz	a5,30004620 <rt_object_delete+0x5c>
    30004618:	00040513          	mv	a0,s0
    3000461c:	000780e7          	jalr	a5
    30004620:	00040a23          	sb	zero,20(s0)
    30004624:	780000ef          	jal	ra,30004da4 <rt_hw_interrupt_disable>
    30004628:	01843683          	ld	a3,24(s0)
    3000462c:	02043703          	ld	a4,32(s0)
    30004630:	01840793          	addi	a5,s0,24
    30004634:	00e6b423          	sd	a4,8(a3)
    30004638:	00d73023          	sd	a3,0(a4)
    3000463c:	02f43023          	sd	a5,32(s0)
    30004640:	00f43c23          	sd	a5,24(s0)
    30004644:	768000ef          	jal	ra,30004dac <rt_hw_interrupt_enable>
    30004648:	00040513          	mv	a0,s0
    3000464c:	00013403          	ld	s0,0(sp)
    30004650:	00813083          	ld	ra,8(sp)
    30004654:	01010113          	addi	sp,sp,16
    30004658:	bc8fd06f          	j	30001a20 <rt_free>

000000003000465c <rt_object_is_systemobject>:
    3000465c:	ff010113          	addi	sp,sp,-16
    30004660:	00813023          	sd	s0,0(sp)
    30004664:	00113423          	sd	ra,8(sp)
    30004668:	00050413          	mv	s0,a0
    3000466c:	00051e63          	bnez	a0,30004688 <rt_object_is_systemobject+0x2c>
    30004670:	1f800613          	li	a2,504
    30004674:	4fffd597          	auipc	a1,0x4fffd
    30004678:	f1458593          	addi	a1,a1,-236 # 80001588 <__FUNCTION__.2>
    3000467c:	4fffd517          	auipc	a0,0x4fffd
    30004680:	e9c50513          	addi	a0,a0,-356 # 80001518 <__FUNCTION__.9+0x38>
    30004684:	fb4fe0ef          	jal	ra,30002e38 <rt_assert_handler>
    30004688:	01440503          	lb	a0,20(s0)
    3000468c:	00813083          	ld	ra,8(sp)
    30004690:	00013403          	ld	s0,0(sp)
    30004694:	01f5551b          	srliw	a0,a0,0x1f
    30004698:	01010113          	addi	sp,sp,16
    3000469c:	00008067          	ret

00000000300046a0 <rt_object_get_type>:
    300046a0:	ff010113          	addi	sp,sp,-16
    300046a4:	00813023          	sd	s0,0(sp)
    300046a8:	00113423          	sd	ra,8(sp)
    300046ac:	00050413          	mv	s0,a0
    300046b0:	00051e63          	bnez	a0,300046cc <rt_object_get_type+0x2c>
    300046b4:	20b00613          	li	a2,523
    300046b8:	4fffd597          	auipc	a1,0x4fffd
    300046bc:	eb858593          	addi	a1,a1,-328 # 80001570 <__FUNCTION__.1>
    300046c0:	4fffd517          	auipc	a0,0x4fffd
    300046c4:	e5850513          	addi	a0,a0,-424 # 80001518 <__FUNCTION__.9+0x38>
    300046c8:	f70fe0ef          	jal	ra,30002e38 <rt_assert_handler>
    300046cc:	01444503          	lbu	a0,20(s0)
    300046d0:	00813083          	ld	ra,8(sp)
    300046d4:	00013403          	ld	s0,0(sp)
    300046d8:	07f57513          	andi	a0,a0,127
    300046dc:	01010113          	addi	sp,sp,16
    300046e0:	00008067          	ret

00000000300046e4 <rt_object_find>:
    300046e4:	fd010113          	addi	sp,sp,-48
    300046e8:	01213823          	sd	s2,16(sp)
    300046ec:	00050913          	mv	s2,a0
    300046f0:	00058513          	mv	a0,a1
    300046f4:	02113423          	sd	ra,40(sp)
    300046f8:	02813023          	sd	s0,32(sp)
    300046fc:	00913c23          	sd	s1,24(sp)
    30004700:	01313423          	sd	s3,8(sp)
    30004704:	bf1ff0ef          	jal	ra,300042f4 <rt_object_get_information>
    30004708:	06090263          	beqz	s2,3000476c <rt_object_find+0x88>
    3000470c:	00050413          	mv	s0,a0
    30004710:	08050063          	beqz	a0,30004790 <rt_object_find+0xac>
    30004714:	690000ef          	jal	ra,30004da4 <rt_hw_interrupt_disable>
    30004718:	00050493          	mv	s1,a0
    3000471c:	65c000ef          	jal	ra,30004d78 <rt_interrupt_get_nest>
    30004720:	02050863          	beqz	a0,30004750 <rt_object_find+0x6c>
    30004724:	4fffd597          	auipc	a1,0x4fffd
    30004728:	e3c58593          	addi	a1,a1,-452 # 80001560 <__FUNCTION__.0>
    3000472c:	4fffc517          	auipc	a0,0x4fffc
    30004730:	38450513          	addi	a0,a0,900 # 80000ab0 <__FUNCTION__.6+0x1e8>
    30004734:	d80fe0ef          	jal	ra,30002cb4 <rt_kprintf>
    30004738:	22800613          	li	a2,552
    3000473c:	4fffd597          	auipc	a1,0x4fffd
    30004740:	e2458593          	addi	a1,a1,-476 # 80001560 <__FUNCTION__.0>
    30004744:	4fffc517          	auipc	a0,0x4fffc
    30004748:	39450513          	addi	a0,a0,916 # 80000ad8 <__FUNCTION__.6+0x210>
    3000474c:	eecfe0ef          	jal	ra,30002e38 <rt_assert_handler>
    30004750:	00048513          	mv	a0,s1
    30004754:	658000ef          	jal	ra,30004dac <rt_hw_interrupt_enable>
    30004758:	52c000ef          	jal	ra,30004c84 <rt_enter_critical>
    3000475c:	00843483          	ld	s1,8(s0)
    30004760:	00840993          	addi	s3,s0,8
    30004764:	01349863          	bne	s1,s3,30004774 <rt_object_find+0x90>
    30004768:	544000ef          	jal	ra,30004cac <rt_exit_critical>
    3000476c:	00000413          	li	s0,0
    30004770:	0200006f          	j	30004790 <rt_object_find+0xac>
    30004774:	fe848413          	addi	s0,s1,-24
    30004778:	01400613          	li	a2,20
    3000477c:	00090593          	mv	a1,s2
    30004780:	00040513          	mv	a0,s0
    30004784:	dddfd0ef          	jal	ra,30002560 <rt_strncmp>
    30004788:	02051463          	bnez	a0,300047b0 <rt_object_find+0xcc>
    3000478c:	520000ef          	jal	ra,30004cac <rt_exit_critical>
    30004790:	02813083          	ld	ra,40(sp)
    30004794:	00040513          	mv	a0,s0
    30004798:	02013403          	ld	s0,32(sp)
    3000479c:	01813483          	ld	s1,24(sp)
    300047a0:	01013903          	ld	s2,16(sp)
    300047a4:	00813983          	ld	s3,8(sp)
    300047a8:	03010113          	addi	sp,sp,48
    300047ac:	00008067          	ret
    300047b0:	0004b483          	ld	s1,0(s1)
    300047b4:	fb1ff06f          	j	30004764 <rt_object_find+0x80>

00000000300047b8 <rti_start>:
    300047b8:	00000513          	li	a0,0
    300047bc:	00008067          	ret

00000000300047c0 <rti_end>:
    300047c0:	00000513          	li	a0,0
    300047c4:	00008067          	ret

00000000300047c8 <rti_board_start>:
    300047c8:	00000513          	li	a0,0
    300047cc:	00008067          	ret

00000000300047d0 <rti_board_end>:
    300047d0:	00000513          	li	a0,0
    300047d4:	00008067          	ret

00000000300047d8 <rt_components_board_init>:
    300047d8:	fe010113          	addi	sp,sp,-32
    300047dc:	00813823          	sd	s0,16(sp)
    300047e0:	00913423          	sd	s1,8(sp)
    300047e4:	00113c23          	sd	ra,24(sp)
    300047e8:	4fffc417          	auipc	s0,0x4fffc
    300047ec:	d9040413          	addi	s0,s0,-624 # 80000578 <__rt_init_rti_board_start>
    300047f0:	4fffc497          	auipc	s1,0x4fffc
    300047f4:	d9048493          	addi	s1,s1,-624 # 80000580 <__rt_init_rti_board_end>
    300047f8:	00946c63          	bltu	s0,s1,30004810 <rt_components_board_init+0x38>
    300047fc:	01813083          	ld	ra,24(sp)
    30004800:	01013403          	ld	s0,16(sp)
    30004804:	00813483          	ld	s1,8(sp)
    30004808:	02010113          	addi	sp,sp,32
    3000480c:	00008067          	ret
    30004810:	00043783          	ld	a5,0(s0)
    30004814:	00840413          	addi	s0,s0,8
    30004818:	000780e7          	jalr	a5
    3000481c:	fddff06f          	j	300047f8 <rt_components_board_init+0x20>

0000000030004820 <rt_components_init>:
    30004820:	fe010113          	addi	sp,sp,-32
    30004824:	00813823          	sd	s0,16(sp)
    30004828:	00913423          	sd	s1,8(sp)
    3000482c:	00113c23          	sd	ra,24(sp)
    30004830:	4fffc417          	auipc	s0,0x4fffc
    30004834:	d5040413          	addi	s0,s0,-688 # 80000580 <__rt_init_rti_board_end>
    30004838:	4fffc497          	auipc	s1,0x4fffc
    3000483c:	d6848493          	addi	s1,s1,-664 # 800005a0 <__rt_init_rti_end>
    30004840:	00946c63          	bltu	s0,s1,30004858 <rt_components_init+0x38>
    30004844:	01813083          	ld	ra,24(sp)
    30004848:	01013403          	ld	s0,16(sp)
    3000484c:	00813483          	ld	s1,8(sp)
    30004850:	02010113          	addi	sp,sp,32
    30004854:	00008067          	ret
    30004858:	00043783          	ld	a5,0(s0)
    3000485c:	00840413          	addi	s0,s0,8
    30004860:	000780e7          	jalr	a5
    30004864:	fddff06f          	j	30004840 <rt_components_init+0x20>

0000000030004868 <main_thread_entry>:
    30004868:	ff010113          	addi	sp,sp,-16
    3000486c:	00113423          	sd	ra,8(sp)
    30004870:	fb1ff0ef          	jal	ra,30004820 <rt_components_init>
    30004874:	00813083          	ld	ra,8(sp)
    30004878:	01010113          	addi	sp,sp,16
    3000487c:	80dfb06f          	j	30000088 <main>

0000000030004880 <rt_application_init>:
    30004880:	ff010113          	addi	sp,sp,-16
    30004884:	01400793          	li	a5,20
    30004888:	00a00713          	li	a4,10
    3000488c:	000046b7          	lui	a3,0x4
    30004890:	00000613          	li	a2,0
    30004894:	00000597          	auipc	a1,0x0
    30004898:	fd458593          	addi	a1,a1,-44 # 30004868 <main_thread_entry>
    3000489c:	4fffd517          	auipc	a0,0x4fffd
    300048a0:	d6450513          	addi	a0,a0,-668 # 80001600 <__FUNCTION__.6+0x10>
    300048a4:	00813023          	sd	s0,0(sp)
    300048a8:	00113423          	sd	ra,8(sp)
    300048ac:	c00ff0ef          	jal	ra,30003cac <rt_thread_create>
    300048b0:	00050413          	mv	s0,a0
    300048b4:	00051e63          	bnez	a0,300048d0 <rt_application_init+0x50>
    300048b8:	0cb00613          	li	a2,203
    300048bc:	4fffd597          	auipc	a1,0x4fffd
    300048c0:	d7c58593          	addi	a1,a1,-644 # 80001638 <__FUNCTION__.0>
    300048c4:	4fffd517          	auipc	a0,0x4fffd
    300048c8:	d4450513          	addi	a0,a0,-700 # 80001608 <__FUNCTION__.6+0x18>
    300048cc:	d6cfe0ef          	jal	ra,30002e38 <rt_assert_handler>
    300048d0:	00040513          	mv	a0,s0
    300048d4:	00013403          	ld	s0,0(sp)
    300048d8:	00813083          	ld	ra,8(sp)
    300048dc:	01010113          	addi	sp,sp,16
    300048e0:	811ff06f          	j	300040f0 <rt_thread_startup>

00000000300048e4 <rtthread_startup>:
    300048e4:	ff010113          	addi	sp,sp,-16
    300048e8:	00113423          	sd	ra,8(sp)
    300048ec:	4b8000ef          	jal	ra,30004da4 <rt_hw_interrupt_disable>
    300048f0:	981fb0ef          	jal	ra,30000270 <rt_hw_board_init>
    300048f4:	c6cfe0ef          	jal	ra,30002d60 <rt_show_version>
    300048f8:	ad4fc0ef          	jal	ra,30000bcc <rt_system_timer_init>
    300048fc:	04c000ef          	jal	ra,30004948 <rt_system_scheduler_init>
    30004900:	f81ff0ef          	jal	ra,30004880 <rt_application_init>
    30004904:	ad8fc0ef          	jal	ra,30000bdc <rt_system_timer_thread_init>
    30004908:	e64fd0ef          	jal	ra,30001f6c <rt_thread_idle_init>
    3000490c:	4fffd517          	auipc	a0,0x4fffd
    30004910:	d0c50513          	addi	a0,a0,-756 # 80001618 <__FUNCTION__.6+0x28>
    30004914:	ba0fe0ef          	jal	ra,30002cb4 <rt_kprintf>
    30004918:	190000ef          	jal	ra,30004aa8 <rt_system_scheduler_start>
    3000491c:	00813083          	ld	ra,8(sp)
    30004920:	00000513          	li	a0,0
    30004924:	01010113          	addi	sp,sp,16
    30004928:	00008067          	ret

000000003000492c <entry>:
    3000492c:	ff010113          	addi	sp,sp,-16
    30004930:	00113423          	sd	ra,8(sp)
    30004934:	fb1ff0ef          	jal	ra,300048e4 <rtthread_startup>
    30004938:	00813083          	ld	ra,8(sp)
    3000493c:	00000513          	li	a0,0
    30004940:	01010113          	addi	sp,sp,16
    30004944:	00008067          	ret

0000000030004948 <rt_system_scheduler_init>:
    30004948:	8e019823          	sh	zero,-1808(gp) # 800042e8 <rt_scheduler_lock_nest>
    3000494c:	50008797          	auipc	a5,0x50008
    30004950:	e1c78793          	addi	a5,a5,-484 # 8000c768 <rt_thread_priority_table>
    30004954:	50008717          	auipc	a4,0x50008
    30004958:	01470713          	addi	a4,a4,20 # 8000c968 <irq_desc>
    3000495c:	00f7b423          	sd	a5,8(a5)
    30004960:	00f7b023          	sd	a5,0(a5)
    30004964:	01078793          	addi	a5,a5,16
    30004968:	fee79ae3          	bne	a5,a4,3000495c <rt_system_scheduler_init+0x14>
    3000496c:	9001a023          	sw	zero,-1792(gp) # 800042f8 <rt_thread_ready_priority_group>
    30004970:	00008067          	ret

0000000030004974 <rt_schedule_insert_thread>:
    30004974:	ff010113          	addi	sp,sp,-16
    30004978:	00813023          	sd	s0,0(sp)
    3000497c:	00113423          	sd	ra,8(sp)
    30004980:	00050413          	mv	s0,a0
    30004984:	00051e63          	bnez	a0,300049a0 <rt_schedule_insert_thread+0x2c>
    30004988:	2cb00613          	li	a2,715
    3000498c:	4fffd597          	auipc	a1,0x4fffd
    30004990:	d1458593          	addi	a1,a1,-748 # 800016a0 <__FUNCTION__.1>
    30004994:	4fffd517          	auipc	a0,0x4fffd
    30004998:	90450513          	addi	a0,a0,-1788 # 80001298 <__FUNCTION__.37+0x38>
    3000499c:	c9cfe0ef          	jal	ra,30002e38 <rt_assert_handler>
    300049a0:	404000ef          	jal	ra,30004da4 <rt_hw_interrupt_disable>
    300049a4:	06844783          	lbu	a5,104(s0)
    300049a8:	8e01b703          	ld	a4,-1824(gp) # 800042d8 <rt_current_thread>
    300049ac:	ff87f793          	andi	a5,a5,-8
    300049b0:	00871e63          	bne	a4,s0,300049cc <rt_schedule_insert_thread+0x58>
    300049b4:	0037e793          	ori	a5,a5,3
    300049b8:	06f40423          	sb	a5,104(s0)
    300049bc:	00013403          	ld	s0,0(sp)
    300049c0:	00813083          	ld	ra,8(sp)
    300049c4:	01010113          	addi	sp,sp,16
    300049c8:	3e40006f          	j	30004dac <rt_hw_interrupt_enable>
    300049cc:	06944703          	lbu	a4,105(s0)
    300049d0:	0017e793          	ori	a5,a5,1
    300049d4:	06f40423          	sb	a5,104(s0)
    300049d8:	00471693          	slli	a3,a4,0x4
    300049dc:	50008797          	auipc	a5,0x50008
    300049e0:	d8c78793          	addi	a5,a5,-628 # 8000c768 <rt_thread_priority_table>
    300049e4:	00d786b3          	add	a3,a5,a3
    300049e8:	0086b583          	ld	a1,8(a3) # 4008 <__stack_size+0x3808>
    300049ec:	02840613          	addi	a2,s0,40
    300049f0:	90018713          	addi	a4,gp,-1792 # 800042f8 <rt_thread_ready_priority_group>
    300049f4:	00c5b023          	sd	a2,0(a1)
    300049f8:	02b43823          	sd	a1,48(s0)
    300049fc:	00c6b423          	sd	a2,8(a3)
    30004a00:	06c42783          	lw	a5,108(s0)
    30004a04:	02d43423          	sd	a3,40(s0)
    30004a08:	00072683          	lw	a3,0(a4)
    30004a0c:	00d7e7b3          	or	a5,a5,a3
    30004a10:	00f72023          	sw	a5,0(a4)
    30004a14:	fa9ff06f          	j	300049bc <rt_schedule_insert_thread+0x48>

0000000030004a18 <rt_schedule_remove_thread>:
    30004a18:	ff010113          	addi	sp,sp,-16
    30004a1c:	00813023          	sd	s0,0(sp)
    30004a20:	00113423          	sd	ra,8(sp)
    30004a24:	00050413          	mv	s0,a0
    30004a28:	00051e63          	bnez	a0,30004a44 <rt_schedule_remove_thread+0x2c>
    30004a2c:	32c00613          	li	a2,812
    30004a30:	4fffd597          	auipc	a1,0x4fffd
    30004a34:	c5058593          	addi	a1,a1,-944 # 80001680 <__FUNCTION__.0>
    30004a38:	4fffd517          	auipc	a0,0x4fffd
    30004a3c:	86050513          	addi	a0,a0,-1952 # 80001298 <__FUNCTION__.37+0x38>
    30004a40:	bf8fe0ef          	jal	ra,30002e38 <rt_assert_handler>
    30004a44:	360000ef          	jal	ra,30004da4 <rt_hw_interrupt_disable>
    30004a48:	02843683          	ld	a3,40(s0)
    30004a4c:	03043703          	ld	a4,48(s0)
    30004a50:	02840793          	addi	a5,s0,40
    30004a54:	00e6b423          	sd	a4,8(a3)
    30004a58:	00d73023          	sd	a3,0(a4)
    30004a5c:	06944703          	lbu	a4,105(s0)
    30004a60:	02f43823          	sd	a5,48(s0)
    30004a64:	02f43423          	sd	a5,40(s0)
    30004a68:	00471693          	slli	a3,a4,0x4
    30004a6c:	50008797          	auipc	a5,0x50008
    30004a70:	cfc78793          	addi	a5,a5,-772 # 8000c768 <rt_thread_priority_table>
    30004a74:	00d786b3          	add	a3,a5,a3
    30004a78:	0006b783          	ld	a5,0(a3)
    30004a7c:	00d79e63          	bne	a5,a3,30004a98 <rt_schedule_remove_thread+0x80>
    30004a80:	90018713          	addi	a4,gp,-1792 # 800042f8 <rt_thread_ready_priority_group>
    30004a84:	06c42783          	lw	a5,108(s0)
    30004a88:	00072683          	lw	a3,0(a4)
    30004a8c:	fff7c793          	not	a5,a5
    30004a90:	00d7f7b3          	and	a5,a5,a3
    30004a94:	00f72023          	sw	a5,0(a4)
    30004a98:	00013403          	ld	s0,0(sp)
    30004a9c:	00813083          	ld	ra,8(sp)
    30004aa0:	01010113          	addi	sp,sp,16
    30004aa4:	3080006f          	j	30004dac <rt_hw_interrupt_enable>

0000000030004aa8 <rt_system_scheduler_start>:
    30004aa8:	fe010113          	addi	sp,sp,-32
    30004aac:	9001a503          	lw	a0,-1792(gp) # 800042f8 <rt_thread_ready_priority_group>
    30004ab0:	00113c23          	sd	ra,24(sp)
    30004ab4:	00813823          	sd	s0,16(sp)
    30004ab8:	afcfe0ef          	jal	ra,30002db4 <__rt_ffs>
    30004abc:	fff5051b          	addiw	a0,a0,-1
    30004ac0:	00451513          	slli	a0,a0,0x4
    30004ac4:	50008797          	auipc	a5,0x50008
    30004ac8:	ca478793          	addi	a5,a5,-860 # 8000c768 <rt_thread_priority_table>
    30004acc:	00a787b3          	add	a5,a5,a0
    30004ad0:	0007b403          	ld	s0,0(a5)
    30004ad4:	fd840593          	addi	a1,s0,-40
    30004ad8:	00058513          	mv	a0,a1
    30004adc:	8eb1b023          	sd	a1,-1824(gp) # 800042d8 <rt_current_thread>
    30004ae0:	00b13423          	sd	a1,8(sp)
    30004ae4:	f35ff0ef          	jal	ra,30004a18 <rt_schedule_remove_thread>
    30004ae8:	00813583          	ld	a1,8(sp)
    30004aec:	00300793          	li	a5,3
    30004af0:	04f40023          	sb	a5,64(s0)
    30004af4:	4fffd517          	auipc	a0,0x4fffd
    30004af8:	b5c50513          	addi	a0,a0,-1188 # 80001650 <__FUNCTION__.0+0x18>
    30004afc:	9b8fe0ef          	jal	ra,30002cb4 <rt_kprintf>
    30004b00:	01040513          	addi	a0,s0,16
    30004b04:	2b0000ef          	jal	ra,30004db4 <rt_hw_context_switch_to>
    30004b08:	01013403          	ld	s0,16(sp)
    30004b0c:	01813083          	ld	ra,24(sp)
    30004b10:	4fffd517          	auipc	a0,0x4fffd
    30004b14:	b6050513          	addi	a0,a0,-1184 # 80001670 <__FUNCTION__.0+0x38>
    30004b18:	02010113          	addi	sp,sp,32
    30004b1c:	998fe06f          	j	30002cb4 <rt_kprintf>

0000000030004b20 <rt_schedule>:
    30004b20:	fc010113          	addi	sp,sp,-64
    30004b24:	03213023          	sd	s2,32(sp)
    30004b28:	02113c23          	sd	ra,56(sp)
    30004b2c:	02813823          	sd	s0,48(sp)
    30004b30:	02913423          	sd	s1,40(sp)
    30004b34:	01313c23          	sd	s3,24(sp)
    30004b38:	01413823          	sd	s4,16(sp)
    30004b3c:	268000ef          	jal	ra,30004da4 <rt_hw_interrupt_disable>
    30004b40:	8f019783          	lh	a5,-1808(gp) # 800042e8 <rt_scheduler_lock_nest>
    30004b44:	00050913          	mv	s2,a0
    30004b48:	0e079263          	bnez	a5,30004c2c <rt_schedule+0x10c>
    30004b4c:	9001a503          	lw	a0,-1792(gp) # 800042f8 <rt_thread_ready_priority_group>
    30004b50:	0c050e63          	beqz	a0,30004c2c <rt_schedule+0x10c>
    30004b54:	a60fe0ef          	jal	ra,30002db4 <__rt_ffs>
    30004b58:	8e018993          	addi	s3,gp,-1824 # 800042d8 <rt_current_thread>
    30004b5c:	0009b483          	ld	s1,0(s3)
    30004b60:	fff5079b          	addiw	a5,a0,-1
    30004b64:	00479693          	slli	a3,a5,0x4
    30004b68:	50008717          	auipc	a4,0x50008
    30004b6c:	c0070713          	addi	a4,a4,-1024 # 8000c768 <rt_thread_priority_table>
    30004b70:	00d70733          	add	a4,a4,a3
    30004b74:	00073403          	ld	s0,0(a4)
    30004b78:	0684c703          	lbu	a4,104(s1)
    30004b7c:	00300693          	li	a3,3
    30004b80:	fd840413          	addi	s0,s0,-40
    30004b84:	00777613          	andi	a2,a4,7
    30004b88:	00000a13          	li	s4,0
    30004b8c:	02d61663          	bne	a2,a3,30004bb8 <rt_schedule+0x98>
    30004b90:	0694c683          	lbu	a3,105(s1)
    30004b94:	0af6ee63          	bltu	a3,a5,30004c50 <rt_schedule+0x130>
    30004b98:	00100a13          	li	s4,1
    30004b9c:	00f69a63          	bne	a3,a5,30004bb0 <rt_schedule+0x90>
    30004ba0:	00877693          	andi	a3,a4,8
    30004ba4:	00069663          	bnez	a3,30004bb0 <rt_schedule+0x90>
    30004ba8:	00048413          	mv	s0,s1
    30004bac:	00000a13          	li	s4,0
    30004bb0:	ff777713          	andi	a4,a4,-9
    30004bb4:	06e48423          	sb	a4,104(s1)
    30004bb8:	0a848663          	beq	s1,s0,30004c64 <rt_schedule+0x144>
    30004bbc:	8cf18c23          	sb	a5,-1832(gp) # 800042d0 <rt_current_priority>
    30004bc0:	0089b023          	sd	s0,0(s3)
    30004bc4:	8e81b783          	ld	a5,-1816(gp) # 800042e0 <rt_scheduler_hook>
    30004bc8:	00078863          	beqz	a5,30004bd8 <rt_schedule+0xb8>
    30004bcc:	00040593          	mv	a1,s0
    30004bd0:	00048513          	mv	a0,s1
    30004bd4:	000780e7          	jalr	a5
    30004bd8:	000a0663          	beqz	s4,30004be4 <rt_schedule+0xc4>
    30004bdc:	00048513          	mv	a0,s1
    30004be0:	d95ff0ef          	jal	ra,30004974 <rt_schedule_insert_thread>
    30004be4:	00040513          	mv	a0,s0
    30004be8:	e31ff0ef          	jal	ra,30004a18 <rt_schedule_remove_thread>
    30004bec:	06844783          	lbu	a5,104(s0)
    30004bf0:	03848993          	addi	s3,s1,56
    30004bf4:	03840593          	addi	a1,s0,56
    30004bf8:	ff87f793          	andi	a5,a5,-8
    30004bfc:	0037e793          	ori	a5,a5,3
    30004c00:	06f40423          	sb	a5,104(s0)
    30004c04:	9181c783          	lbu	a5,-1768(gp) # 80004310 <rt_interrupt_nest>
    30004c08:	04079863          	bnez	a5,30004c58 <rt_schedule+0x138>
    30004c0c:	8f81b783          	ld	a5,-1800(gp) # 800042f0 <rt_scheduler_switch_hook>
    30004c10:	00078a63          	beqz	a5,30004c24 <rt_schedule+0x104>
    30004c14:	00048513          	mv	a0,s1
    30004c18:	00b13423          	sd	a1,8(sp)
    30004c1c:	000780e7          	jalr	a5
    30004c20:	00813583          	ld	a1,8(sp)
    30004c24:	00098513          	mv	a0,s3
    30004c28:	19c000ef          	jal	ra,30004dc4 <rt_hw_context_switch>
    30004c2c:	03013403          	ld	s0,48(sp)
    30004c30:	03813083          	ld	ra,56(sp)
    30004c34:	02813483          	ld	s1,40(sp)
    30004c38:	01813983          	ld	s3,24(sp)
    30004c3c:	01013a03          	ld	s4,16(sp)
    30004c40:	00090513          	mv	a0,s2
    30004c44:	02013903          	ld	s2,32(sp)
    30004c48:	04010113          	addi	sp,sp,64
    30004c4c:	1600006f          	j	30004dac <rt_hw_interrupt_enable>
    30004c50:	00048413          	mv	s0,s1
    30004c54:	f5dff06f          	j	30004bb0 <rt_schedule+0x90>
    30004c58:	00098513          	mv	a0,s3
    30004c5c:	388000ef          	jal	ra,30004fe4 <rt_hw_context_switch_interrupt>
    30004c60:	fcdff06f          	j	30004c2c <rt_schedule+0x10c>
    30004c64:	00048513          	mv	a0,s1
    30004c68:	db1ff0ef          	jal	ra,30004a18 <rt_schedule_remove_thread>
    30004c6c:	0009b703          	ld	a4,0(s3)
    30004c70:	06874783          	lbu	a5,104(a4)
    30004c74:	ff87f793          	andi	a5,a5,-8
    30004c78:	0037e793          	ori	a5,a5,3
    30004c7c:	06f70423          	sb	a5,104(a4)
    30004c80:	fadff06f          	j	30004c2c <rt_schedule+0x10c>

0000000030004c84 <rt_enter_critical>:
    30004c84:	ff010113          	addi	sp,sp,-16
    30004c88:	00113423          	sd	ra,8(sp)
    30004c8c:	118000ef          	jal	ra,30004da4 <rt_hw_interrupt_disable>
    30004c90:	8f018713          	addi	a4,gp,-1808 # 800042e8 <rt_scheduler_lock_nest>
    30004c94:	00075783          	lhu	a5,0(a4)
    30004c98:	00813083          	ld	ra,8(sp)
    30004c9c:	0017879b          	addiw	a5,a5,1
    30004ca0:	00f71023          	sh	a5,0(a4)
    30004ca4:	01010113          	addi	sp,sp,16
    30004ca8:	1040006f          	j	30004dac <rt_hw_interrupt_enable>

0000000030004cac <rt_exit_critical>:
    30004cac:	ff010113          	addi	sp,sp,-16
    30004cb0:	00113423          	sd	ra,8(sp)
    30004cb4:	0f0000ef          	jal	ra,30004da4 <rt_hw_interrupt_disable>
    30004cb8:	8f018713          	addi	a4,gp,-1808 # 800042e8 <rt_scheduler_lock_nest>
    30004cbc:	00075783          	lhu	a5,0(a4)
    30004cc0:	fff7879b          	addiw	a5,a5,-1
    30004cc4:	0107979b          	slliw	a5,a5,0x10
    30004cc8:	4107d79b          	sraiw	a5,a5,0x10
    30004ccc:	00f71023          	sh	a5,0(a4)
    30004cd0:	02f04063          	bgtz	a5,30004cf0 <rt_exit_critical+0x44>
    30004cd4:	8e019823          	sh	zero,-1808(gp) # 800042e8 <rt_scheduler_lock_nest>
    30004cd8:	0d4000ef          	jal	ra,30004dac <rt_hw_interrupt_enable>
    30004cdc:	8e01b783          	ld	a5,-1824(gp) # 800042d8 <rt_current_thread>
    30004ce0:	00078e63          	beqz	a5,30004cfc <rt_exit_critical+0x50>
    30004ce4:	00813083          	ld	ra,8(sp)
    30004ce8:	01010113          	addi	sp,sp,16
    30004cec:	e35ff06f          	j	30004b20 <rt_schedule>
    30004cf0:	00813083          	ld	ra,8(sp)
    30004cf4:	01010113          	addi	sp,sp,16
    30004cf8:	0b40006f          	j	30004dac <rt_hw_interrupt_enable>
    30004cfc:	00813083          	ld	ra,8(sp)
    30004d00:	01010113          	addi	sp,sp,16
    30004d04:	00008067          	ret

0000000030004d08 <rt_interrupt_enter>:
    30004d08:	fe010113          	addi	sp,sp,-32
    30004d0c:	00113c23          	sd	ra,24(sp)
    30004d10:	094000ef          	jal	ra,30004da4 <rt_hw_interrupt_disable>
    30004d14:	9181c783          	lbu	a5,-1768(gp) # 80004310 <rt_interrupt_nest>
    30004d18:	0017879b          	addiw	a5,a5,1
    30004d1c:	90f18c23          	sb	a5,-1768(gp) # 80004310 <rt_interrupt_nest>
    30004d20:	9081b783          	ld	a5,-1784(gp) # 80004300 <rt_interrupt_enter_hook>
    30004d24:	00078863          	beqz	a5,30004d34 <rt_interrupt_enter+0x2c>
    30004d28:	00a13423          	sd	a0,8(sp)
    30004d2c:	000780e7          	jalr	a5
    30004d30:	00813503          	ld	a0,8(sp)
    30004d34:	01813083          	ld	ra,24(sp)
    30004d38:	02010113          	addi	sp,sp,32
    30004d3c:	0700006f          	j	30004dac <rt_hw_interrupt_enable>

0000000030004d40 <rt_interrupt_leave>:
    30004d40:	fe010113          	addi	sp,sp,-32
    30004d44:	00113c23          	sd	ra,24(sp)
    30004d48:	05c000ef          	jal	ra,30004da4 <rt_hw_interrupt_disable>
    30004d4c:	9101b783          	ld	a5,-1776(gp) # 80004308 <rt_interrupt_leave_hook>
    30004d50:	00078863          	beqz	a5,30004d60 <rt_interrupt_leave+0x20>
    30004d54:	00a13423          	sd	a0,8(sp)
    30004d58:	000780e7          	jalr	a5
    30004d5c:	00813503          	ld	a0,8(sp)
    30004d60:	9181c783          	lbu	a5,-1768(gp) # 80004310 <rt_interrupt_nest>
    30004d64:	01813083          	ld	ra,24(sp)
    30004d68:	fff7879b          	addiw	a5,a5,-1
    30004d6c:	90f18c23          	sb	a5,-1768(gp) # 80004310 <rt_interrupt_nest>
    30004d70:	02010113          	addi	sp,sp,32
    30004d74:	0380006f          	j	30004dac <rt_hw_interrupt_enable>

0000000030004d78 <rt_interrupt_get_nest>:
    30004d78:	ff010113          	addi	sp,sp,-16
    30004d7c:	00113423          	sd	ra,8(sp)
    30004d80:	00813023          	sd	s0,0(sp)
    30004d84:	020000ef          	jal	ra,30004da4 <rt_hw_interrupt_disable>
    30004d88:	9181c403          	lbu	s0,-1768(gp) # 80004310 <rt_interrupt_nest>
    30004d8c:	020000ef          	jal	ra,30004dac <rt_hw_interrupt_enable>
    30004d90:	00813083          	ld	ra,8(sp)
    30004d94:	00040513          	mv	a0,s0
    30004d98:	00013403          	ld	s0,0(sp)
    30004d9c:	01010113          	addi	sp,sp,16
    30004da0:	00008067          	ret

0000000030004da4 <rt_hw_interrupt_disable>:
    30004da4:	30047573          	csrrci	a0,mstatus,8
    30004da8:	00008067          	ret

0000000030004dac <rt_hw_interrupt_enable>:
    30004dac:	30051073          	csrw	mstatus,a0
    30004db0:	00008067          	ret

0000000030004db4 <rt_hw_context_switch_to>:
    30004db4:	00053103          	ld	sp,0(a0)
    30004db8:	01013503          	ld	a0,16(sp)
    30004dbc:	30051073          	csrw	mstatus,a0
    30004dc0:	0a00006f          	j	30004e60 <rt_hw_context_switch_exit>

0000000030004dc4 <rt_hw_context_switch>:
    30004dc4:	f0010113          	addi	sp,sp,-256
    30004dc8:	00253023          	sd	sp,0(a0)
    30004dcc:	00113023          	sd	ra,0(sp)
    30004dd0:	00113423          	sd	ra,8(sp)
    30004dd4:	30002573          	csrr	a0,mstatus
    30004dd8:	00857513          	andi	a0,a0,8
    30004ddc:	00050463          	beqz	a0,30004de4 <save_mpie>
    30004de0:	08000513          	li	a0,128

0000000030004de4 <save_mpie>:
    30004de4:	00a13823          	sd	a0,16(sp)
    30004de8:	02413023          	sd	tp,32(sp)
    30004dec:	02513423          	sd	t0,40(sp)
    30004df0:	02613823          	sd	t1,48(sp)
    30004df4:	02713c23          	sd	t2,56(sp)
    30004df8:	04813023          	sd	s0,64(sp)
    30004dfc:	04913423          	sd	s1,72(sp)
    30004e00:	04a13823          	sd	a0,80(sp)
    30004e04:	04b13c23          	sd	a1,88(sp)
    30004e08:	06c13023          	sd	a2,96(sp)
    30004e0c:	06d13423          	sd	a3,104(sp)
    30004e10:	06e13823          	sd	a4,112(sp)
    30004e14:	06f13c23          	sd	a5,120(sp)
    30004e18:	09013023          	sd	a6,128(sp)
    30004e1c:	09113423          	sd	a7,136(sp)
    30004e20:	09213823          	sd	s2,144(sp)
    30004e24:	09313c23          	sd	s3,152(sp)
    30004e28:	0b413023          	sd	s4,160(sp)
    30004e2c:	0b513423          	sd	s5,168(sp)
    30004e30:	0b613823          	sd	s6,176(sp)
    30004e34:	0b713c23          	sd	s7,184(sp)
    30004e38:	0d813023          	sd	s8,192(sp)
    30004e3c:	0d913423          	sd	s9,200(sp)
    30004e40:	0da13823          	sd	s10,208(sp)
    30004e44:	0db13c23          	sd	s11,216(sp)
    30004e48:	0fc13023          	sd	t3,224(sp)
    30004e4c:	0fd13423          	sd	t4,232(sp)
    30004e50:	0fe13823          	sd	t5,240(sp)
    30004e54:	0ff13c23          	sd	t6,248(sp)
    30004e58:	0005b103          	ld	sp,0(a1)
    30004e5c:	0040006f          	j	30004e60 <rt_hw_context_switch_exit>

0000000030004e60 <rt_hw_context_switch_exit>:
    30004e60:	00013503          	ld	a0,0(sp)
    30004e64:	34151073          	csrw	mepc,a0
    30004e68:	00813083          	ld	ra,8(sp)
    30004e6c:	000082b7          	lui	t0,0x8
    30004e70:	8002829b          	addiw	t0,t0,-2048 # 7800 <__stack_size+0x7000>
    30004e74:	30029073          	csrw	mstatus,t0
    30004e78:	01013503          	ld	a0,16(sp)
    30004e7c:	30052073          	csrs	mstatus,a0
    30004e80:	02013203          	ld	tp,32(sp)
    30004e84:	02813283          	ld	t0,40(sp)
    30004e88:	03013303          	ld	t1,48(sp)
    30004e8c:	03813383          	ld	t2,56(sp)
    30004e90:	04013403          	ld	s0,64(sp)
    30004e94:	04813483          	ld	s1,72(sp)
    30004e98:	05013503          	ld	a0,80(sp)
    30004e9c:	05813583          	ld	a1,88(sp)
    30004ea0:	06013603          	ld	a2,96(sp)
    30004ea4:	06813683          	ld	a3,104(sp)
    30004ea8:	07013703          	ld	a4,112(sp)
    30004eac:	07813783          	ld	a5,120(sp)
    30004eb0:	08013803          	ld	a6,128(sp)
    30004eb4:	08813883          	ld	a7,136(sp)
    30004eb8:	09013903          	ld	s2,144(sp)
    30004ebc:	09813983          	ld	s3,152(sp)
    30004ec0:	0a013a03          	ld	s4,160(sp)
    30004ec4:	0a813a83          	ld	s5,168(sp)
    30004ec8:	0b013b03          	ld	s6,176(sp)
    30004ecc:	0b813b83          	ld	s7,184(sp)
    30004ed0:	0c013c03          	ld	s8,192(sp)
    30004ed4:	0c813c83          	ld	s9,200(sp)
    30004ed8:	0d013d03          	ld	s10,208(sp)
    30004edc:	0d813d83          	ld	s11,216(sp)
    30004ee0:	0e013e03          	ld	t3,224(sp)
    30004ee4:	0e813e83          	ld	t4,232(sp)
    30004ee8:	0f013f03          	ld	t5,240(sp)
    30004eec:	0f813f83          	ld	t6,248(sp)
    30004ef0:	10010113          	addi	sp,sp,256
    30004ef4:	30200073          	mret

0000000030004ef8 <tick_isr>:
    30004ef8:	ff010113          	addi	sp,sp,-16
    30004efc:	00113423          	sd	ra,8(sp)
    30004f00:	841fe0ef          	jal	ra,30003740 <rt_tick_increase>
    30004f04:	f14027f3          	csrr	a5,mhartid
    30004f08:	0027979b          	slliw	a5,a5,0x2
    30004f0c:	02079793          	slli	a5,a5,0x20
    30004f10:	02004737          	lui	a4,0x2004
    30004f14:	0207d793          	srli	a5,a5,0x20
    30004f18:	00f707b3          	add	a5,a4,a5
    30004f1c:	0200c737          	lui	a4,0x200c
    30004f20:	ff873703          	ld	a4,-8(a4) # 200bff8 <__stack_size+0x200b7f8>
    30004f24:	000186b7          	lui	a3,0x18
    30004f28:	00813083          	ld	ra,8(sp)
    30004f2c:	6a068693          	addi	a3,a3,1696 # 186a0 <__stack_size+0x17ea0>
    30004f30:	00d70733          	add	a4,a4,a3
    30004f34:	00e7b023          	sd	a4,0(a5)
    30004f38:	00000513          	li	a0,0
    30004f3c:	01010113          	addi	sp,sp,16
    30004f40:	00008067          	ret

0000000030004f44 <rt_hw_tick_init>:
    30004f44:	08000713          	li	a4,128
    30004f48:	304737f3          	csrrc	a5,mie,a4
    30004f4c:	344737f3          	csrrc	a5,mip,a4
    30004f50:	f14027f3          	csrr	a5,mhartid
    30004f54:	0027979b          	slliw	a5,a5,0x2
    30004f58:	02079793          	slli	a5,a5,0x20
    30004f5c:	020046b7          	lui	a3,0x2004
    30004f60:	0207d793          	srli	a5,a5,0x20
    30004f64:	00f687b3          	add	a5,a3,a5
    30004f68:	0200c6b7          	lui	a3,0x200c
    30004f6c:	ff86b683          	ld	a3,-8(a3) # 200bff8 <__stack_size+0x200b7f8>
    30004f70:	00018637          	lui	a2,0x18
    30004f74:	6a060613          	addi	a2,a2,1696 # 186a0 <__stack_size+0x17ea0>
    30004f78:	00c686b3          	add	a3,a3,a2
    30004f7c:	00d7b023          	sd	a3,0(a5)
    30004f80:	30472773          	csrrs	a4,mie,a4
    30004f84:	00000513          	li	a0,0
    30004f88:	00008067          	ret

0000000030004f8c <rt_hw_stack_init>:
    30004f8c:	00860613          	addi	a2,a2,8
    30004f90:	ff867613          	andi	a2,a2,-8
    30004f94:	37ab77b7          	lui	a5,0x37ab7
    30004f98:	00050813          	mv	a6,a0
    30004f9c:	00279793          	slli	a5,a5,0x2
    30004fa0:	ef860513          	addi	a0,a2,-264
    30004fa4:	00050713          	mv	a4,a0
    30004fa8:	eef78793          	addi	a5,a5,-273 # 37ab6eef <_data_lma+0x7aaa17f>
    30004fac:	00f73023          	sd	a5,0(a4)
    30004fb0:	00870713          	addi	a4,a4,8
    30004fb4:	fee61ce3          	bne	a2,a4,30004fac <rt_hw_stack_init+0x20>
    30004fb8:	00018793          	mv	a5,gp
    30004fbc:	f0f63823          	sd	a5,-240(a2)
    30004fc0:	10850793          	addi	a5,a0,264
    30004fc4:	fef63c23          	sd	a5,-8(a2)
    30004fc8:	000087b7          	lui	a5,0x8
    30004fcc:	88078793          	addi	a5,a5,-1920 # 7880 <__stack_size+0x7080>
    30004fd0:	f0d63023          	sd	a3,-256(a2)
    30004fd4:	f4b63423          	sd	a1,-184(a2)
    30004fd8:	ef063c23          	sd	a6,-264(a2)
    30004fdc:	f0f63423          	sd	a5,-248(a2)
    30004fe0:	00008067          	ret

0000000030004fe4 <rt_hw_context_switch_interrupt>:
    30004fe4:	93018793          	addi	a5,gp,-1744 # 80004328 <rt_thread_switch_interrupt_flag>
    30004fe8:	0007b703          	ld	a4,0(a5)
    30004fec:	00071463          	bnez	a4,30004ff4 <rt_hw_context_switch_interrupt+0x10>
    30004ff0:	92a1b023          	sd	a0,-1760(gp) # 80004318 <rt_interrupt_from_thread>
    30004ff4:	92b1b423          	sd	a1,-1752(gp) # 80004320 <rt_interrupt_to_thread>
    30004ff8:	00100713          	li	a4,1
    30004ffc:	00e7b023          	sd	a4,0(a5)
    30005000:	00008067          	ret

0000000030005004 <__muldi3>:
    30005004:	00050613          	mv	a2,a0
    30005008:	00000513          	li	a0,0
    3000500c:	0015f693          	andi	a3,a1,1
    30005010:	00068463          	beqz	a3,30005018 <__muldi3+0x14>
    30005014:	00c50533          	add	a0,a0,a2
    30005018:	0015d593          	srli	a1,a1,0x1
    3000501c:	00161613          	slli	a2,a2,0x1
    30005020:	fe0596e3          	bnez	a1,3000500c <__muldi3+0x8>
    30005024:	00008067          	ret

0000000030005028 <trap_entry>:
    30005028:	f0010113          	addi	sp,sp,-256
    3000502c:	00113423          	sd	ra,8(sp)
    30005030:	300020f3          	csrr	ra,mstatus
    30005034:	00113823          	sd	ra,16(sp)
    30005038:	341020f3          	csrr	ra,mepc
    3000503c:	00113023          	sd	ra,0(sp)
    30005040:	02413023          	sd	tp,32(sp)
    30005044:	02513423          	sd	t0,40(sp)
    30005048:	02613823          	sd	t1,48(sp)
    3000504c:	02713c23          	sd	t2,56(sp)
    30005050:	04813023          	sd	s0,64(sp)
    30005054:	04913423          	sd	s1,72(sp)
    30005058:	04a13823          	sd	a0,80(sp)
    3000505c:	04b13c23          	sd	a1,88(sp)
    30005060:	06c13023          	sd	a2,96(sp)
    30005064:	06d13423          	sd	a3,104(sp)
    30005068:	06e13823          	sd	a4,112(sp)
    3000506c:	06f13c23          	sd	a5,120(sp)
    30005070:	09013023          	sd	a6,128(sp)
    30005074:	09113423          	sd	a7,136(sp)
    30005078:	09213823          	sd	s2,144(sp)
    3000507c:	09313c23          	sd	s3,152(sp)
    30005080:	0b413023          	sd	s4,160(sp)
    30005084:	0b513423          	sd	s5,168(sp)
    30005088:	0b613823          	sd	s6,176(sp)
    3000508c:	0b713c23          	sd	s7,184(sp)
    30005090:	0d813023          	sd	s8,192(sp)
    30005094:	0d913423          	sd	s9,200(sp)
    30005098:	0da13823          	sd	s10,208(sp)
    3000509c:	0db13c23          	sd	s11,216(sp)
    300050a0:	0fc13023          	sd	t3,224(sp)
    300050a4:	0fd13423          	sd	t4,232(sp)
    300050a8:	0fe13823          	sd	t5,240(sp)
    300050ac:	0ff13c23          	sd	t6,248(sp)
    300050b0:	00010413          	mv	s0,sp
    300050b4:	f14022f3          	csrr	t0,mhartid
    300050b8:	50ffb117          	auipc	sp,0x50ffb
    300050bc:	f4810113          	addi	sp,sp,-184 # 81000000 <__stack_start__>
    300050c0:	00128313          	addi	t1,t0,1
    300050c4:	000043b7          	lui	t2,0x4
    300050c8:	00000e13          	li	t3,0

00000000300050cc <mul_begin>:
    300050cc:	007e0e33          	add	t3,t3,t2
    300050d0:	fff30313          	addi	t1,t1,-1
    300050d4:	fe031ce3          	bnez	t1,300050cc <mul_begin>
    300050d8:	000e0313          	mv	t1,t3
    300050dc:	00610133          	add	sp,sp,t1
    300050e0:	c29ff0ef          	jal	ra,30004d08 <rt_interrupt_enter>
    300050e4:	34202573          	csrr	a0,mcause
    300050e8:	341025f3          	csrr	a1,mepc
    300050ec:	00040613          	mv	a2,s0
    300050f0:	454000ef          	jal	ra,30005544 <handle_trap>
    300050f4:	c4dff0ef          	jal	ra,30004d40 <rt_interrupt_leave>
    300050f8:	00040113          	mv	sp,s0
    300050fc:	93018413          	addi	s0,gp,-1744 # 80004328 <rt_thread_switch_interrupt_flag>
    30005100:	00042903          	lw	s2,0(s0)
    30005104:	02090063          	beqz	s2,30005124 <spurious_interrupt>
    30005108:	00042023          	sw	zero,0(s0)
    3000510c:	92018413          	addi	s0,gp,-1760 # 80004318 <rt_interrupt_from_thread>
    30005110:	00043483          	ld	s1,0(s0)
    30005114:	0024b023          	sd	sp,0(s1)
    30005118:	92818413          	addi	s0,gp,-1752 # 80004320 <rt_interrupt_to_thread>
    3000511c:	00043483          	ld	s1,0(s0)
    30005120:	0004b103          	ld	sp,0(s1)

0000000030005124 <spurious_interrupt>:
    30005124:	d3dff06f          	j	30004e60 <rt_hw_context_switch_exit>

0000000030005128 <__udivsi3>:
    30005128:	02051513          	slli	a0,a0,0x20
    3000512c:	02059593          	slli	a1,a1,0x20
    30005130:	00008293          	mv	t0,ra
    30005134:	03c000ef          	jal	ra,30005170 <__udivdi3>
    30005138:	0005051b          	sext.w	a0,a0
    3000513c:	00028067          	jr	t0

0000000030005140 <__umodsi3>:
    30005140:	02051513          	slli	a0,a0,0x20
    30005144:	02059593          	slli	a1,a1,0x20
    30005148:	02055513          	srli	a0,a0,0x20
    3000514c:	0205d593          	srli	a1,a1,0x20
    30005150:	00008293          	mv	t0,ra
    30005154:	01c000ef          	jal	ra,30005170 <__udivdi3>
    30005158:	0005851b          	sext.w	a0,a1
    3000515c:	00028067          	jr	t0

0000000030005160 <__divsi3>:
    30005160:	fff00293          	li	t0,-1
    30005164:	0a558c63          	beq	a1,t0,3000521c <__moddi3+0x30>

0000000030005168 <__divdi3>:
    30005168:	06054063          	bltz	a0,300051c8 <__umoddi3+0x10>
    3000516c:	0605c663          	bltz	a1,300051d8 <__umoddi3+0x20>

0000000030005170 <__udivdi3>:
    30005170:	00058613          	mv	a2,a1
    30005174:	00050593          	mv	a1,a0
    30005178:	fff00513          	li	a0,-1
    3000517c:	02060c63          	beqz	a2,300051b4 <__udivdi3+0x44>
    30005180:	00100693          	li	a3,1
    30005184:	00b67a63          	bgeu	a2,a1,30005198 <__udivdi3+0x28>
    30005188:	00c05863          	blez	a2,30005198 <__udivdi3+0x28>
    3000518c:	00161613          	slli	a2,a2,0x1
    30005190:	00169693          	slli	a3,a3,0x1
    30005194:	feb66ae3          	bltu	a2,a1,30005188 <__udivdi3+0x18>
    30005198:	00000513          	li	a0,0
    3000519c:	00c5e663          	bltu	a1,a2,300051a8 <__udivdi3+0x38>
    300051a0:	40c585b3          	sub	a1,a1,a2
    300051a4:	00d56533          	or	a0,a0,a3
    300051a8:	0016d693          	srli	a3,a3,0x1
    300051ac:	00165613          	srli	a2,a2,0x1
    300051b0:	fe0696e3          	bnez	a3,3000519c <__udivdi3+0x2c>
    300051b4:	00008067          	ret

00000000300051b8 <__umoddi3>:
    300051b8:	00008293          	mv	t0,ra
    300051bc:	fb5ff0ef          	jal	ra,30005170 <__udivdi3>
    300051c0:	00058513          	mv	a0,a1
    300051c4:	00028067          	jr	t0
    300051c8:	40a00533          	neg	a0,a0
    300051cc:	00b04863          	bgtz	a1,300051dc <__umoddi3+0x24>
    300051d0:	40b005b3          	neg	a1,a1
    300051d4:	f9dff06f          	j	30005170 <__udivdi3>
    300051d8:	40b005b3          	neg	a1,a1
    300051dc:	00008293          	mv	t0,ra
    300051e0:	f91ff0ef          	jal	ra,30005170 <__udivdi3>
    300051e4:	40a00533          	neg	a0,a0
    300051e8:	00028067          	jr	t0

00000000300051ec <__moddi3>:
    300051ec:	00008293          	mv	t0,ra
    300051f0:	0005ca63          	bltz	a1,30005204 <__moddi3+0x18>
    300051f4:	00054c63          	bltz	a0,3000520c <__moddi3+0x20>
    300051f8:	f79ff0ef          	jal	ra,30005170 <__udivdi3>
    300051fc:	00058513          	mv	a0,a1
    30005200:	00028067          	jr	t0
    30005204:	40b005b3          	neg	a1,a1
    30005208:	fe0558e3          	bgez	a0,300051f8 <__moddi3+0xc>
    3000520c:	40a00533          	neg	a0,a0
    30005210:	f61ff0ef          	jal	ra,30005170 <__udivdi3>
    30005214:	40b00533          	neg	a0,a1
    30005218:	00028067          	jr	t0
    3000521c:	01f29293          	slli	t0,t0,0x1f
    30005220:	f45514e3          	bne	a0,t0,30005168 <__divdi3>
    30005224:	00008067          	ret

0000000030005228 <rt_hw_interrupt_handle>:
    30005228:	ff010113          	addi	sp,sp,-16
    3000522c:	00050593          	mv	a1,a0
    30005230:	4fffc517          	auipc	a0,0x4fffc
    30005234:	49050513          	addi	a0,a0,1168 # 800016c0 <__FUNCTION__.1+0x20>
    30005238:	00113423          	sd	ra,8(sp)
    3000523c:	a79fd0ef          	jal	ra,30002cb4 <rt_kprintf>
    30005240:	00813083          	ld	ra,8(sp)
    30005244:	00000513          	li	a0,0
    30005248:	01010113          	addi	sp,sp,16
    3000524c:	00008067          	ret

0000000030005250 <rt_hw_interrupt_init>:
    30005250:	50007797          	auipc	a5,0x50007
    30005254:	71878793          	addi	a5,a5,1816 # 8000c968 <irq_desc>
    30005258:	50008717          	auipc	a4,0x50008
    3000525c:	f1070713          	addi	a4,a4,-240 # 8000d168 <_fdtab>
    30005260:	00000697          	auipc	a3,0x0
    30005264:	fc868693          	addi	a3,a3,-56 # 30005228 <rt_hw_interrupt_handle>
    30005268:	00d7b023          	sd	a3,0(a5)
    3000526c:	0007b423          	sd	zero,8(a5)
    30005270:	01078793          	addi	a5,a5,16
    30005274:	fee79ae3          	bne	a5,a4,30005268 <rt_hw_interrupt_init+0x18>
    30005278:	00008067          	ret

000000003000527c <dump_regs>:
    3000527c:	ff010113          	addi	sp,sp,-16
    30005280:	00813023          	sd	s0,0(sp)
    30005284:	00050413          	mv	s0,a0
    30005288:	4fffc517          	auipc	a0,0x4fffc
    3000528c:	5f850513          	addi	a0,a0,1528 # 80001880 <__FUNCTION__.1+0x1e0>
    30005290:	00113423          	sd	ra,8(sp)
    30005294:	a21fd0ef          	jal	ra,30002cb4 <rt_kprintf>
    30005298:	4fffc517          	auipc	a0,0x4fffc
    3000529c:	61850513          	addi	a0,a0,1560 # 800018b0 <__FUNCTION__.1+0x210>
    300052a0:	a15fd0ef          	jal	ra,30002cb4 <rt_kprintf>
    300052a4:	10043603          	ld	a2,256(s0)
    300052a8:	00843583          	ld	a1,8(s0)
    300052ac:	4fffc517          	auipc	a0,0x4fffc
    300052b0:	61c50513          	addi	a0,a0,1564 # 800018c8 <__FUNCTION__.1+0x228>
    300052b4:	a01fd0ef          	jal	ra,30002cb4 <rt_kprintf>
    300052b8:	02043603          	ld	a2,32(s0)
    300052bc:	01843583          	ld	a1,24(s0)
    300052c0:	4fffc517          	auipc	a0,0x4fffc
    300052c4:	62850513          	addi	a0,a0,1576 # 800018e8 <__FUNCTION__.1+0x248>
    300052c8:	9edfd0ef          	jal	ra,30002cb4 <rt_kprintf>
    300052cc:	4fffc517          	auipc	a0,0x4fffc
    300052d0:	63c50513          	addi	a0,a0,1596 # 80001908 <__FUNCTION__.1+0x268>
    300052d4:	9e1fd0ef          	jal	ra,30002cb4 <rt_kprintf>
    300052d8:	03043603          	ld	a2,48(s0)
    300052dc:	02843583          	ld	a1,40(s0)
    300052e0:	4fffc517          	auipc	a0,0x4fffc
    300052e4:	64050513          	addi	a0,a0,1600 # 80001920 <__FUNCTION__.1+0x280>
    300052e8:	9cdfd0ef          	jal	ra,30002cb4 <rt_kprintf>
    300052ec:	03843583          	ld	a1,56(s0)
    300052f0:	4fffc517          	auipc	a0,0x4fffc
    300052f4:	65050513          	addi	a0,a0,1616 # 80001940 <__FUNCTION__.1+0x2a0>
    300052f8:	9bdfd0ef          	jal	ra,30002cb4 <rt_kprintf>
    300052fc:	0e843603          	ld	a2,232(s0)
    30005300:	0e043583          	ld	a1,224(s0)
    30005304:	4fffc517          	auipc	a0,0x4fffc
    30005308:	64c50513          	addi	a0,a0,1612 # 80001950 <__FUNCTION__.1+0x2b0>
    3000530c:	9a9fd0ef          	jal	ra,30002cb4 <rt_kprintf>
    30005310:	0f843603          	ld	a2,248(s0)
    30005314:	0f043583          	ld	a1,240(s0)
    30005318:	4fffc517          	auipc	a0,0x4fffc
    3000531c:	65850513          	addi	a0,a0,1624 # 80001970 <__FUNCTION__.1+0x2d0>
    30005320:	995fd0ef          	jal	ra,30002cb4 <rt_kprintf>
    30005324:	4fffc517          	auipc	a0,0x4fffc
    30005328:	66c50513          	addi	a0,a0,1644 # 80001990 <__FUNCTION__.1+0x2f0>
    3000532c:	989fd0ef          	jal	ra,30002cb4 <rt_kprintf>
    30005330:	04843603          	ld	a2,72(s0)
    30005334:	04043583          	ld	a1,64(s0)
    30005338:	4fffc517          	auipc	a0,0x4fffc
    3000533c:	67050513          	addi	a0,a0,1648 # 800019a8 <__FUNCTION__.1+0x308>
    30005340:	975fd0ef          	jal	ra,30002cb4 <rt_kprintf>
    30005344:	09843603          	ld	a2,152(s0)
    30005348:	09043583          	ld	a1,144(s0)
    3000534c:	4fffc517          	auipc	a0,0x4fffc
    30005350:	68450513          	addi	a0,a0,1668 # 800019d0 <__FUNCTION__.1+0x330>
    30005354:	961fd0ef          	jal	ra,30002cb4 <rt_kprintf>
    30005358:	0a843603          	ld	a2,168(s0)
    3000535c:	0a043583          	ld	a1,160(s0)
    30005360:	4fffc517          	auipc	a0,0x4fffc
    30005364:	69050513          	addi	a0,a0,1680 # 800019f0 <__FUNCTION__.1+0x350>
    30005368:	94dfd0ef          	jal	ra,30002cb4 <rt_kprintf>
    3000536c:	0b843603          	ld	a2,184(s0)
    30005370:	0b043583          	ld	a1,176(s0)
    30005374:	4fffc517          	auipc	a0,0x4fffc
    30005378:	69c50513          	addi	a0,a0,1692 # 80001a10 <__FUNCTION__.1+0x370>
    3000537c:	939fd0ef          	jal	ra,30002cb4 <rt_kprintf>
    30005380:	0c843603          	ld	a2,200(s0)
    30005384:	0c043583          	ld	a1,192(s0)
    30005388:	4fffc517          	auipc	a0,0x4fffc
    3000538c:	6a850513          	addi	a0,a0,1704 # 80001a30 <__FUNCTION__.1+0x390>
    30005390:	925fd0ef          	jal	ra,30002cb4 <rt_kprintf>
    30005394:	0d843603          	ld	a2,216(s0)
    30005398:	0d043583          	ld	a1,208(s0)
    3000539c:	4fffc517          	auipc	a0,0x4fffc
    300053a0:	6b450513          	addi	a0,a0,1716 # 80001a50 <__FUNCTION__.1+0x3b0>
    300053a4:	911fd0ef          	jal	ra,30002cb4 <rt_kprintf>
    300053a8:	4fffc517          	auipc	a0,0x4fffc
    300053ac:	6d050513          	addi	a0,a0,1744 # 80001a78 <__FUNCTION__.1+0x3d8>
    300053b0:	905fd0ef          	jal	ra,30002cb4 <rt_kprintf>
    300053b4:	05843603          	ld	a2,88(s0)
    300053b8:	05043583          	ld	a1,80(s0)
    300053bc:	4fffc517          	auipc	a0,0x4fffc
    300053c0:	6dc50513          	addi	a0,a0,1756 # 80001a98 <__FUNCTION__.1+0x3f8>
    300053c4:	8f1fd0ef          	jal	ra,30002cb4 <rt_kprintf>
    300053c8:	06843603          	ld	a2,104(s0)
    300053cc:	06043583          	ld	a1,96(s0)
    300053d0:	4fffc517          	auipc	a0,0x4fffc
    300053d4:	6e850513          	addi	a0,a0,1768 # 80001ab8 <__FUNCTION__.1+0x418>
    300053d8:	8ddfd0ef          	jal	ra,30002cb4 <rt_kprintf>
    300053dc:	07843603          	ld	a2,120(s0)
    300053e0:	07043583          	ld	a1,112(s0)
    300053e4:	4fffc517          	auipc	a0,0x4fffc
    300053e8:	6f450513          	addi	a0,a0,1780 # 80001ad8 <__FUNCTION__.1+0x438>
    300053ec:	8c9fd0ef          	jal	ra,30002cb4 <rt_kprintf>
    300053f0:	08843603          	ld	a2,136(s0)
    300053f4:	08043583          	ld	a1,128(s0)
    300053f8:	4fffc517          	auipc	a0,0x4fffc
    300053fc:	70050513          	addi	a0,a0,1792 # 80001af8 <__FUNCTION__.1+0x458>
    30005400:	8b5fd0ef          	jal	ra,30002cb4 <rt_kprintf>
    30005404:	01043583          	ld	a1,16(s0)
    30005408:	4fffc517          	auipc	a0,0x4fffc
    3000540c:	71050513          	addi	a0,a0,1808 # 80001b18 <__FUNCTION__.1+0x478>
    30005410:	8a5fd0ef          	jal	ra,30002cb4 <rt_kprintf>
    30005414:	01043783          	ld	a5,16(s0)
    30005418:	4fffc597          	auipc	a1,0x4fffc
    3000541c:	2f058593          	addi	a1,a1,752 # 80001708 <__FUNCTION__.1+0x68>
    30005420:	0027f793          	andi	a5,a5,2
    30005424:	00078663          	beqz	a5,30005430 <dump_regs+0x1b4>
    30005428:	4fffc597          	auipc	a1,0x4fffc
    3000542c:	2c058593          	addi	a1,a1,704 # 800016e8 <__FUNCTION__.1+0x48>
    30005430:	4fffc517          	auipc	a0,0x4fffc
    30005434:	6f850513          	addi	a0,a0,1784 # 80001b28 <__FUNCTION__.1+0x488>
    30005438:	87dfd0ef          	jal	ra,30002cb4 <rt_kprintf>
    3000543c:	01043783          	ld	a5,16(s0)
    30005440:	4fffc597          	auipc	a1,0x4fffc
    30005444:	2e858593          	addi	a1,a1,744 # 80001728 <__FUNCTION__.1+0x88>
    30005448:	0207f793          	andi	a5,a5,32
    3000544c:	00079663          	bnez	a5,30005458 <dump_regs+0x1dc>
    30005450:	4fffc597          	auipc	a1,0x4fffc
    30005454:	30058593          	addi	a1,a1,768 # 80001750 <__FUNCTION__.1+0xb0>
    30005458:	4fffc517          	auipc	a0,0x4fffc
    3000545c:	6d050513          	addi	a0,a0,1744 # 80001b28 <__FUNCTION__.1+0x488>
    30005460:	855fd0ef          	jal	ra,30002cb4 <rt_kprintf>
    30005464:	01043783          	ld	a5,16(s0)
    30005468:	4fffc597          	auipc	a1,0x4fffc
    3000546c:	31058593          	addi	a1,a1,784 # 80001778 <__FUNCTION__.1+0xd8>
    30005470:	1007f793          	andi	a5,a5,256
    30005474:	00079663          	bnez	a5,30005480 <dump_regs+0x204>
    30005478:	4fffc597          	auipc	a1,0x4fffc
    3000547c:	32858593          	addi	a1,a1,808 # 800017a0 <__FUNCTION__.1+0x100>
    30005480:	4fffc517          	auipc	a0,0x4fffc
    30005484:	6a850513          	addi	a0,a0,1704 # 80001b28 <__FUNCTION__.1+0x488>
    30005488:	82dfd0ef          	jal	ra,30002cb4 <rt_kprintf>
    3000548c:	01043703          	ld	a4,16(s0)
    30005490:	000407b7          	lui	a5,0x40
    30005494:	4fffc597          	auipc	a1,0x4fffc
    30005498:	32c58593          	addi	a1,a1,812 # 800017c0 <__FUNCTION__.1+0x120>
    3000549c:	00e7f7b3          	and	a5,a5,a4
    300054a0:	00079663          	bnez	a5,300054ac <dump_regs+0x230>
    300054a4:	4fffc597          	auipc	a1,0x4fffc
    300054a8:	33c58593          	addi	a1,a1,828 # 800017e0 <__FUNCTION__.1+0x140>
    300054ac:	4fffc517          	auipc	a0,0x4fffc
    300054b0:	67c50513          	addi	a0,a0,1660 # 80001b28 <__FUNCTION__.1+0x488>
    300054b4:	801fd0ef          	jal	ra,30002cb4 <rt_kprintf>
    300054b8:	01043703          	ld	a4,16(s0)
    300054bc:	000807b7          	lui	a5,0x80
    300054c0:	4fffc597          	auipc	a1,0x4fffc
    300054c4:	34058593          	addi	a1,a1,832 # 80001800 <__FUNCTION__.1+0x160>
    300054c8:	00e7f7b3          	and	a5,a5,a4
    300054cc:	00079663          	bnez	a5,300054d8 <dump_regs+0x25c>
    300054d0:	4fffc597          	auipc	a1,0x4fffc
    300054d4:	35858593          	addi	a1,a1,856 # 80001828 <__FUNCTION__.1+0x188>
    300054d8:	4fffc517          	auipc	a0,0x4fffc
    300054dc:	65050513          	addi	a0,a0,1616 # 80001b28 <__FUNCTION__.1+0x488>
    300054e0:	fd4fd0ef          	jal	ra,30002cb4 <rt_kprintf>
    300054e4:	18002473          	csrr	s0,satp
    300054e8:	4fffc517          	auipc	a0,0x4fffc
    300054ec:	64850513          	addi	a0,a0,1608 # 80001b30 <__FUNCTION__.1+0x490>
    300054f0:	00040593          	mv	a1,s0
    300054f4:	fc0fd0ef          	jal	ra,30002cb4 <rt_kprintf>
    300054f8:	03c45413          	srli	s0,s0,0x3c
    300054fc:	00900793          	li	a5,9
    30005500:	4fffc597          	auipc	a1,0x4fffc
    30005504:	35058593          	addi	a1,a1,848 # 80001850 <__FUNCTION__.1+0x1b0>
    30005508:	0087ec63          	bltu	a5,s0,30005520 <dump_regs+0x2a4>
    3000550c:	00341413          	slli	s0,s0,0x3
    30005510:	4fffd797          	auipc	a5,0x4fffd
    30005514:	90078793          	addi	a5,a5,-1792 # 80001e10 <CSWTCH.17>
    30005518:	008787b3          	add	a5,a5,s0
    3000551c:	0007b583          	ld	a1,0(a5)
    30005520:	4fffc517          	auipc	a0,0x4fffc
    30005524:	62050513          	addi	a0,a0,1568 # 80001b40 <__FUNCTION__.1+0x4a0>
    30005528:	f8cfd0ef          	jal	ra,30002cb4 <rt_kprintf>
    3000552c:	00013403          	ld	s0,0(sp)
    30005530:	00813083          	ld	ra,8(sp)
    30005534:	4fffc517          	auipc	a0,0x4fffc
    30005538:	61c50513          	addi	a0,a0,1564 # 80001b50 <__FUNCTION__.1+0x4b0>
    3000553c:	01010113          	addi	sp,sp,16
    30005540:	f74fd06f          	j	30002cb4 <rt_kprintf>

0000000030005544 <handle_trap>:
    30005544:	fd010113          	addi	sp,sp,-48
    30005548:	02813023          	sd	s0,32(sp)
    3000554c:	02113423          	sd	ra,40(sp)
    30005550:	00913c23          	sd	s1,24(sp)
    30005554:	01213823          	sd	s2,16(sp)
    30005558:	01313423          	sd	s3,8(sp)
    3000555c:	01413023          	sd	s4,0(sp)
    30005560:	0005041b          	sext.w	s0,a0
    30005564:	08055063          	bgez	a0,300055e4 <handle_trap+0xa0>
    30005568:	00900793          	li	a5,9
    3000556c:	04f40463          	beq	s0,a5,300055b4 <handle_trap+0x70>
    30005570:	0087cc63          	blt	a5,s0,30005588 <handle_trap+0x44>
    30005574:	ffd47413          	andi	s0,s0,-3
    30005578:	00500793          	li	a5,5
    3000557c:	00f41a63          	bne	s0,a5,30005590 <handle_trap+0x4c>
    30005580:	979ff0ef          	jal	ra,30004ef8 <tick_isr>
    30005584:	00c0006f          	j	30005590 <handle_trap+0x4c>
    30005588:	00b00793          	li	a5,11
    3000558c:	02f40463          	beq	s0,a5,300055b4 <handle_trap+0x70>
    30005590:	02013403          	ld	s0,32(sp)
    30005594:	02813083          	ld	ra,40(sp)
    30005598:	01813483          	ld	s1,24(sp)
    3000559c:	01013903          	ld	s2,16(sp)
    300055a0:	00813983          	ld	s3,8(sp)
    300055a4:	00013a03          	ld	s4,0(sp)
    300055a8:	00000513          	li	a0,0
    300055ac:	03010113          	addi	sp,sp,48
    300055b0:	ffcff06f          	j	30004dac <rt_hw_interrupt_enable>
    300055b4:	c69fa0ef          	jal	ra,3000021c <plic_claim>
    300055b8:	00050413          	mv	s0,a0
    300055bc:	c79fa0ef          	jal	ra,30000234 <plic_complete>
    300055c0:	00441713          	slli	a4,s0,0x4
    300055c4:	50007797          	auipc	a5,0x50007
    300055c8:	3a478793          	addi	a5,a5,932 # 8000c968 <irq_desc>
    300055cc:	00e787b3          	add	a5,a5,a4
    300055d0:	0007b703          	ld	a4,0(a5)
    300055d4:	0087b583          	ld	a1,8(a5)
    300055d8:	00040513          	mv	a0,s0
    300055dc:	000700e7          	jalr	a4
    300055e0:	fb1ff06f          	j	30005590 <handle_trap+0x4c>
    300055e4:	00050493          	mv	s1,a0
    300055e8:	00058a13          	mv	s4,a1
    300055ec:	00060913          	mv	s2,a2
    300055f0:	00068993          	mv	s3,a3
    300055f4:	fb0ff0ef          	jal	ra,30004da4 <rt_hw_interrupt_disable>
    300055f8:	00048593          	mv	a1,s1
    300055fc:	00090693          	mv	a3,s2
    30005600:	000a0613          	mv	a2,s4
    30005604:	4fffc517          	auipc	a0,0x4fffc
    30005608:	57c50513          	addi	a0,a0,1404 # 80001b80 <__FUNCTION__.1+0x4e0>
    3000560c:	ea8fd0ef          	jal	ra,30002cb4 <rt_kprintf>
    30005610:	d98fe0ef          	jal	ra,30003ba8 <rt_thread_self>
    30005614:	00050493          	mv	s1,a0
    30005618:	4fffc517          	auipc	a0,0x4fffc
    3000561c:	59050513          	addi	a0,a0,1424 # 80001ba8 <__FUNCTION__.1+0x508>
    30005620:	e94fd0ef          	jal	ra,30002cb4 <rt_kprintf>
    30005624:	00b00793          	li	a5,11
    30005628:	0e87e863          	bltu	a5,s0,30005718 <handle_trap+0x1d4>
    3000562c:	4fffc717          	auipc	a4,0x4fffc
    30005630:	72c70713          	addi	a4,a4,1836 # 80001d58 <__FUNCTION__.1+0x6b8>
    30005634:	00241413          	slli	s0,s0,0x2
    30005638:	00e40433          	add	s0,s0,a4
    3000563c:	00042783          	lw	a5,0(s0)
    30005640:	00e787b3          	add	a5,a5,a4
    30005644:	00078067          	jr	a5
    30005648:	4fffc517          	auipc	a0,0x4fffc
    3000564c:	57050513          	addi	a0,a0,1392 # 80001bb8 <__FUNCTION__.1+0x518>
    30005650:	e64fd0ef          	jal	ra,30002cb4 <rt_kprintf>
    30005654:	4fffc517          	auipc	a0,0x4fffc
    30005658:	fdc50513          	addi	a0,a0,-36 # 80001630 <__FUNCTION__.6+0x40>
    3000565c:	e58fd0ef          	jal	ra,30002cb4 <rt_kprintf>
    30005660:	00098513          	mv	a0,s3
    30005664:	c19ff0ef          	jal	ra,3000527c <dump_regs>
    30005668:	00090593          	mv	a1,s2
    3000566c:	4fffc517          	auipc	a0,0x4fffc
    30005670:	6bc50513          	addi	a0,a0,1724 # 80001d28 <__FUNCTION__.1+0x688>
    30005674:	e40fd0ef          	jal	ra,30002cb4 <rt_kprintf>
    30005678:	00048613          	mv	a2,s1
    3000567c:	01400593          	li	a1,20
    30005680:	4fffc517          	auipc	a0,0x4fffc
    30005684:	6c050513          	addi	a0,a0,1728 # 80001d40 <__FUNCTION__.1+0x6a0>
    30005688:	e2cfd0ef          	jal	ra,30002cb4 <rt_kprintf>
    3000568c:	649030ef          	jal	ra,300094d4 <list_thread>
    30005690:	0000006f          	j	30005690 <handle_trap+0x14c>
    30005694:	4fffc517          	auipc	a0,0x4fffc
    30005698:	54450513          	addi	a0,a0,1348 # 80001bd8 <__FUNCTION__.1+0x538>
    3000569c:	fb5ff06f          	j	30005650 <handle_trap+0x10c>
    300056a0:	4fffc517          	auipc	a0,0x4fffc
    300056a4:	55850513          	addi	a0,a0,1368 # 80001bf8 <__FUNCTION__.1+0x558>
    300056a8:	fa9ff06f          	j	30005650 <handle_trap+0x10c>
    300056ac:	4fffc517          	auipc	a0,0x4fffc
    300056b0:	56450513          	addi	a0,a0,1380 # 80001c10 <__FUNCTION__.1+0x570>
    300056b4:	f9dff06f          	j	30005650 <handle_trap+0x10c>
    300056b8:	4fffc517          	auipc	a0,0x4fffc
    300056bc:	56850513          	addi	a0,a0,1384 # 80001c20 <__FUNCTION__.1+0x580>
    300056c0:	f91ff06f          	j	30005650 <handle_trap+0x10c>
    300056c4:	4fffc517          	auipc	a0,0x4fffc
    300056c8:	57450513          	addi	a0,a0,1396 # 80001c38 <__FUNCTION__.1+0x598>
    300056cc:	f85ff06f          	j	30005650 <handle_trap+0x10c>
    300056d0:	4fffc517          	auipc	a0,0x4fffc
    300056d4:	58050513          	addi	a0,a0,1408 # 80001c50 <__FUNCTION__.1+0x5b0>
    300056d8:	f79ff06f          	j	30005650 <handle_trap+0x10c>
    300056dc:	4fffc517          	auipc	a0,0x4fffc
    300056e0:	59450513          	addi	a0,a0,1428 # 80001c70 <__FUNCTION__.1+0x5d0>
    300056e4:	f6dff06f          	j	30005650 <handle_trap+0x10c>
    300056e8:	4fffc517          	auipc	a0,0x4fffc
    300056ec:	5a050513          	addi	a0,a0,1440 # 80001c88 <__FUNCTION__.1+0x5e8>
    300056f0:	f61ff06f          	j	30005650 <handle_trap+0x10c>
    300056f4:	4fffc517          	auipc	a0,0x4fffc
    300056f8:	5b450513          	addi	a0,a0,1460 # 80001ca8 <__FUNCTION__.1+0x608>
    300056fc:	f55ff06f          	j	30005650 <handle_trap+0x10c>
    30005700:	4fffc517          	auipc	a0,0x4fffc
    30005704:	5c850513          	addi	a0,a0,1480 # 80001cc8 <__FUNCTION__.1+0x628>
    30005708:	f49ff06f          	j	30005650 <handle_trap+0x10c>
    3000570c:	4fffc517          	auipc	a0,0x4fffc
    30005710:	5dc50513          	addi	a0,a0,1500 # 80001ce8 <__FUNCTION__.1+0x648>
    30005714:	f3dff06f          	j	30005650 <handle_trap+0x10c>
    30005718:	00040593          	mv	a1,s0
    3000571c:	4fffc517          	auipc	a0,0x4fffc
    30005720:	5ec50513          	addi	a0,a0,1516 # 80001d08 <__FUNCTION__.1+0x668>
    30005724:	d90fd0ef          	jal	ra,30002cb4 <rt_kprintf>
    30005728:	f2dff06f          	j	30005654 <handle_trap+0x110>

000000003000572c <list_fd>:
    3000572c:	fa010113          	addi	sp,sp,-96
    30005730:	04113c23          	sd	ra,88(sp)
    30005734:	04913423          	sd	s1,72(sp)
    30005738:	05213023          	sd	s2,64(sp)
    3000573c:	03313c23          	sd	s3,56(sp)
    30005740:	03413823          	sd	s4,48(sp)
    30005744:	03513423          	sd	s5,40(sp)
    30005748:	03613023          	sd	s6,32(sp)
    3000574c:	01713c23          	sd	s7,24(sp)
    30005750:	01813823          	sd	s8,16(sp)
    30005754:	01913423          	sd	s9,8(sp)
    30005758:	04813823          	sd	s0,80(sp)
    3000575c:	d28ff0ef          	jal	ra,30004c84 <rt_enter_critical>
    30005760:	4fffc517          	auipc	a0,0x4fffc
    30005764:	70050513          	addi	a0,a0,1792 # 80001e60 <CSWTCH.17+0x50>
    30005768:	d4cfd0ef          	jal	ra,30002cb4 <rt_kprintf>
    3000576c:	4fffc517          	auipc	a0,0x4fffc
    30005770:	71450513          	addi	a0,a0,1812 # 80001e80 <CSWTCH.17+0x70>
    30005774:	d40fd0ef          	jal	ra,30002cb4 <rt_kprintf>
    30005778:	00000493          	li	s1,0
    3000577c:	50008917          	auipc	s2,0x50008
    30005780:	9ec90913          	addi	s2,s2,-1556 # 8000d168 <_fdtab>
    30005784:	4fffc997          	auipc	s3,0x4fffc
    30005788:	71c98993          	addi	s3,s3,1820 # 80001ea0 <CSWTCH.17+0x90>
    3000578c:	00200a13          	li	s4,2
    30005790:	4fffca97          	auipc	s5,0x4fffc
    30005794:	758a8a93          	addi	s5,s5,1880 # 80001ee8 <CSWTCH.17+0xd8>
    30005798:	4fffcb17          	auipc	s6,0x4fffc
    3000579c:	758b0b13          	addi	s6,s6,1880 # 80001ef0 <CSWTCH.17+0xe0>
    300057a0:	4fffcb97          	auipc	s7,0x4fffc
    300057a4:	e90b8b93          	addi	s7,s7,-368 # 80001630 <__FUNCTION__.6+0x40>
    300057a8:	4fffec17          	auipc	s8,0x4fffe
    300057ac:	338c0c13          	addi	s8,s8,824 # 80003ae0 <__fsym___cmd_ls_name+0x40>
    300057b0:	00100c93          	li	s9,1
    300057b4:	00092703          	lw	a4,0(s2)
    300057b8:	0004879b          	sext.w	a5,s1
    300057bc:	04e7c063          	blt	a5,a4,300057fc <list_fd+0xd0>
    300057c0:	cecff0ef          	jal	ra,30004cac <rt_exit_critical>
    300057c4:	05813083          	ld	ra,88(sp)
    300057c8:	05013403          	ld	s0,80(sp)
    300057cc:	04813483          	ld	s1,72(sp)
    300057d0:	04013903          	ld	s2,64(sp)
    300057d4:	03813983          	ld	s3,56(sp)
    300057d8:	03013a03          	ld	s4,48(sp)
    300057dc:	02813a83          	ld	s5,40(sp)
    300057e0:	02013b03          	ld	s6,32(sp)
    300057e4:	01813b83          	ld	s7,24(sp)
    300057e8:	01013c03          	ld	s8,16(sp)
    300057ec:	00813c83          	ld	s9,8(sp)
    300057f0:	00000513          	li	a0,0
    300057f4:	06010113          	addi	sp,sp,96
    300057f8:	00008067          	ret
    300057fc:	00893783          	ld	a5,8(s2)
    30005800:	00349713          	slli	a4,s1,0x3
    30005804:	00e787b3          	add	a5,a5,a4
    30005808:	0007b403          	ld	s0,0(a5)
    3000580c:	08040c63          	beqz	s0,300058a4 <list_fd+0x178>
    30005810:	02043783          	ld	a5,32(s0)
    30005814:	08078863          	beqz	a5,300058a4 <list_fd+0x178>
    30005818:	0034859b          	addiw	a1,s1,3
    3000581c:	00098513          	mv	a0,s3
    30005820:	c94fd0ef          	jal	ra,30002cb4 <rt_kprintf>
    30005824:	00245703          	lhu	a4,2(s0)
    30005828:	4fffc597          	auipc	a1,0x4fffc
    3000582c:	68058593          	addi	a1,a1,1664 # 80001ea8 <CSWTCH.17+0x98>
    30005830:	0007079b          	sext.w	a5,a4
    30005834:	03470e63          	beq	a4,s4,30005870 <list_fd+0x144>
    30005838:	4fffc597          	auipc	a1,0x4fffc
    3000583c:	68058593          	addi	a1,a1,1664 # 80001eb8 <CSWTCH.17+0xa8>
    30005840:	02070863          	beqz	a4,30005870 <list_fd+0x144>
    30005844:	4fffc597          	auipc	a1,0x4fffc
    30005848:	67c58593          	addi	a1,a1,1660 # 80001ec0 <CSWTCH.17+0xb0>
    3000584c:	03978263          	beq	a5,s9,30005870 <list_fd+0x144>
    30005850:	00300713          	li	a4,3
    30005854:	4fffc597          	auipc	a1,0x4fffc
    30005858:	67458593          	addi	a1,a1,1652 # 80001ec8 <CSWTCH.17+0xb8>
    3000585c:	00e78a63          	beq	a5,a4,30005870 <list_fd+0x144>
    30005860:	00400713          	li	a4,4
    30005864:	04e79463          	bne	a5,a4,300058ac <list_fd+0x180>
    30005868:	4fffc597          	auipc	a1,0x4fffc
    3000586c:	66858593          	addi	a1,a1,1640 # 80001ed0 <CSWTCH.17+0xc0>
    30005870:	4fffc517          	auipc	a0,0x4fffc
    30005874:	64050513          	addi	a0,a0,1600 # 80001eb0 <CSWTCH.17+0xa0>
    30005878:	c3cfd0ef          	jal	ra,30002cb4 <rt_kprintf>
    3000587c:	01042583          	lw	a1,16(s0)
    30005880:	000a8513          	mv	a0,s5
    30005884:	c30fd0ef          	jal	ra,30002cb4 <rt_kprintf>
    30005888:	00045583          	lhu	a1,0(s0)
    3000588c:	000b0513          	mv	a0,s6
    30005890:	c24fd0ef          	jal	ra,30002cb4 <rt_kprintf>
    30005894:	00843583          	ld	a1,8(s0)
    30005898:	02058463          	beqz	a1,300058c0 <list_fd+0x194>
    3000589c:	000c0513          	mv	a0,s8
    300058a0:	c14fd0ef          	jal	ra,30002cb4 <rt_kprintf>
    300058a4:	00148493          	addi	s1,s1,1
    300058a8:	f0dff06f          	j	300057b4 <list_fd+0x88>
    300058ac:	4fffc597          	auipc	a1,0x4fffc
    300058b0:	62c58593          	addi	a1,a1,1580 # 80001ed8 <CSWTCH.17+0xc8>
    300058b4:	4fffc517          	auipc	a0,0x4fffc
    300058b8:	62c50513          	addi	a0,a0,1580 # 80001ee0 <CSWTCH.17+0xd0>
    300058bc:	fbdff06f          	j	30005878 <list_fd+0x14c>
    300058c0:	000b8513          	mv	a0,s7
    300058c4:	bf0fd0ef          	jal	ra,30002cb4 <rt_kprintf>
    300058c8:	fddff06f          	j	300058a4 <list_fd+0x178>

00000000300058cc <dfs_init>:
    300058cc:	fe010113          	addi	sp,sp,-32
    300058d0:	00813823          	sd	s0,16(sp)
    300058d4:	93818413          	addi	s0,gp,-1736 # 80004330 <init_ok.3>
    300058d8:	00042783          	lw	a5,0(s0)
    300058dc:	00113c23          	sd	ra,24(sp)
    300058e0:	00913423          	sd	s1,8(sp)
    300058e4:	02078463          	beqz	a5,3000590c <dfs_init+0x40>
    300058e8:	4fffc517          	auipc	a0,0x4fffc
    300058ec:	61050513          	addi	a0,a0,1552 # 80001ef8 <CSWTCH.17+0xe8>
    300058f0:	bc4fd0ef          	jal	ra,30002cb4 <rt_kprintf>
    300058f4:	01813083          	ld	ra,24(sp)
    300058f8:	01013403          	ld	s0,16(sp)
    300058fc:	00813483          	ld	s1,8(sp)
    30005900:	00000513          	li	a0,0
    30005904:	02010113          	addi	sp,sp,32
    30005908:	00008067          	ret
    3000590c:	01000613          	li	a2,16
    30005910:	00000593          	li	a1,0
    30005914:	50008517          	auipc	a0,0x50008
    30005918:	86450513          	addi	a0,a0,-1948 # 8000d178 <filesystem_operation_table>
    3000591c:	a29fa0ef          	jal	ra,30000344 <memset>
    30005920:	04000613          	li	a2,64
    30005924:	00000593          	li	a1,0
    30005928:	50008517          	auipc	a0,0x50008
    3000592c:	86050513          	addi	a0,a0,-1952 # 8000d188 <filesystem_table>
    30005930:	a15fa0ef          	jal	ra,30000344 <memset>
    30005934:	01000613          	li	a2,16
    30005938:	00000593          	li	a1,0
    3000593c:	50008517          	auipc	a0,0x50008
    30005940:	82c50513          	addi	a0,a0,-2004 # 8000d168 <_fdtab>
    30005944:	a01fa0ef          	jal	ra,30000344 <memset>
    30005948:	00000613          	li	a2,0
    3000594c:	4fffc597          	auipc	a1,0x4fffc
    30005950:	5c458593          	addi	a1,a1,1476 # 80001f10 <CSWTCH.17+0x100>
    30005954:	50008517          	auipc	a0,0x50008
    30005958:	87450513          	addi	a0,a0,-1932 # 8000d1c8 <fslock>
    3000595c:	93dfd0ef          	jal	ra,30003298 <rt_mutex_init>
    30005960:	4fffe497          	auipc	s1,0x4fffe
    30005964:	79848493          	addi	s1,s1,1944 # 800040f8 <working_directory>
    30005968:	10000613          	li	a2,256
    3000596c:	00000593          	li	a1,0
    30005970:	00048513          	mv	a0,s1
    30005974:	9d1fa0ef          	jal	ra,30000344 <memset>
    30005978:	02f00793          	li	a5,47
    3000597c:	00f48023          	sb	a5,0(s1)
    30005980:	099020ef          	jal	ra,30008218 <devfs_init>
    30005984:	00000713          	li	a4,0
    30005988:	00000693          	li	a3,0
    3000598c:	4fffc617          	auipc	a2,0x4fffc
    30005990:	58c60613          	addi	a2,a2,1420 # 80001f18 <CSWTCH.17+0x108>
    30005994:	4fffc597          	auipc	a1,0x4fffc
    30005998:	58c58593          	addi	a1,a1,1420 # 80001f20 <CSWTCH.17+0x110>
    3000599c:	00000513          	li	a0,0
    300059a0:	594010ef          	jal	ra,30006f34 <dfs_mount>
    300059a4:	00100793          	li	a5,1
    300059a8:	00f42023          	sw	a5,0(s0)
    300059ac:	f49ff06f          	j	300058f4 <dfs_init+0x28>

00000000300059b0 <dfs_lock>:
    300059b0:	fe010113          	addi	sp,sp,-32
    300059b4:	00813823          	sd	s0,16(sp)
    300059b8:	00913423          	sd	s1,8(sp)
    300059bc:	00113c23          	sd	ra,24(sp)
    300059c0:	50008497          	auipc	s1,0x50008
    300059c4:	80848493          	addi	s1,s1,-2040 # 8000d1c8 <fslock>
    300059c8:	ff900413          	li	s0,-7
    300059cc:	fff00593          	li	a1,-1
    300059d0:	00048513          	mv	a0,s1
    300059d4:	945fd0ef          	jal	ra,30003318 <rt_mutex_take>
    300059d8:	fe850ae3          	beq	a0,s0,300059cc <dfs_lock+0x1c>
    300059dc:	02050663          	beqz	a0,30005a08 <dfs_lock+0x58>
    300059e0:	01013403          	ld	s0,16(sp)
    300059e4:	01813083          	ld	ra,24(sp)
    300059e8:	00813483          	ld	s1,8(sp)
    300059ec:	06b00613          	li	a2,107
    300059f0:	4fffc597          	auipc	a1,0x4fffc
    300059f4:	5d058593          	addi	a1,a1,1488 # 80001fc0 <__FUNCTION__.2>
    300059f8:	4fffb517          	auipc	a0,0x4fffb
    300059fc:	0e050513          	addi	a0,a0,224 # 80000ad8 <__FUNCTION__.6+0x210>
    30005a00:	02010113          	addi	sp,sp,32
    30005a04:	c34fd06f          	j	30002e38 <rt_assert_handler>
    30005a08:	01813083          	ld	ra,24(sp)
    30005a0c:	01013403          	ld	s0,16(sp)
    30005a10:	00813483          	ld	s1,8(sp)
    30005a14:	02010113          	addi	sp,sp,32
    30005a18:	00008067          	ret

0000000030005a1c <dfs_unlock>:
    30005a1c:	50007517          	auipc	a0,0x50007
    30005a20:	7ac50513          	addi	a0,a0,1964 # 8000d1c8 <fslock>
    30005a24:	b19fd06f          	j	3000353c <rt_mutex_release>

0000000030005a28 <fd_new>:
    30005a28:	fd010113          	addi	sp,sp,-48
    30005a2c:	02813023          	sd	s0,32(sp)
    30005a30:	02113423          	sd	ra,40(sp)
    30005a34:	50007417          	auipc	s0,0x50007
    30005a38:	73440413          	addi	s0,s0,1844 # 8000d168 <_fdtab>
    30005a3c:	00913c23          	sd	s1,24(sp)
    30005a40:	01213823          	sd	s2,16(sp)
    30005a44:	01313423          	sd	s3,8(sp)
    30005a48:	f69ff0ef          	jal	ra,300059b0 <dfs_lock>
    30005a4c:	00042683          	lw	a3,0(s0)
    30005a50:	00843503          	ld	a0,8(s0)
    30005a54:	00000793          	li	a5,0
    30005a58:	0006861b          	sext.w	a2,a3
    30005a5c:	0007849b          	sext.w	s1,a5
    30005a60:	00048993          	mv	s3,s1
    30005a64:	02c4d063          	bge	s1,a2,30005a84 <fd_new+0x5c>
    30005a68:	00379713          	slli	a4,a5,0x3
    30005a6c:	00e50733          	add	a4,a0,a4
    30005a70:	00073703          	ld	a4,0(a4)
    30005a74:	00070863          	beqz	a4,30005a84 <fd_new+0x5c>
    30005a78:	01072703          	lw	a4,16(a4)
    30005a7c:	00178793          	addi	a5,a5,1
    30005a80:	fc071ee3          	bnez	a4,30005a5c <fd_new+0x34>
    30005a84:	04969063          	bne	a3,s1,30005ac4 <fd_new+0x9c>
    30005a88:	01f00793          	li	a5,31
    30005a8c:	0697ec63          	bltu	a5,s1,30005b04 <fd_new+0xdc>
    30005a90:	0044871b          	addiw	a4,s1,4
    30005a94:	02000793          	li	a5,32
    30005a98:	00070913          	mv	s2,a4
    30005a9c:	00e7d463          	bge	a5,a4,30005aa4 <fd_new+0x7c>
    30005aa0:	02000913          	li	s2,32
    30005aa4:	00391593          	slli	a1,s2,0x3
    30005aa8:	958fc0ef          	jal	ra,30001c00 <rt_realloc>
    30005aac:	04050c63          	beqz	a0,30005b04 <fd_new+0xdc>
    30005ab0:	00042783          	lw	a5,0(s0)
    30005ab4:	0007871b          	sext.w	a4,a5
    30005ab8:	0b274063          	blt	a4,s2,30005b58 <fd_new+0x130>
    30005abc:	00a43423          	sd	a0,8(s0)
    30005ac0:	01242023          	sw	s2,0(s0)
    30005ac4:	00042783          	lw	a5,0(s0)
    30005ac8:	02f4de63          	bge	s1,a5,30005b04 <fd_new+0xdc>
    30005acc:	00843903          	ld	s2,8(s0)
    30005ad0:	00349493          	slli	s1,s1,0x3
    30005ad4:	00990933          	add	s2,s2,s1
    30005ad8:	00093783          	ld	a5,0(s2)
    30005adc:	02079463          	bnez	a5,30005b04 <fd_new+0xdc>
    30005ae0:	04800593          	li	a1,72
    30005ae4:	00100513          	li	a0,1
    30005ae8:	ef9fb0ef          	jal	ra,300019e0 <rt_calloc>
    30005aec:	00843783          	ld	a5,8(s0)
    30005af0:	00a93023          	sd	a0,0(s2)
    30005af4:	009787b3          	add	a5,a5,s1
    30005af8:	0007b783          	ld	a5,0(a5)
    30005afc:	00079463          	bnez	a5,30005b04 <fd_new+0xdc>
    30005b00:	00042983          	lw	s3,0(s0)
    30005b04:	00042783          	lw	a5,0(s0)
    30005b08:	07379263          	bne	a5,s3,30005b6c <fd_new+0x144>
    30005b0c:	4fffc517          	auipc	a0,0x4fffc
    30005b10:	41c50513          	addi	a0,a0,1052 # 80001f28 <CSWTCH.17+0x118>
    30005b14:	9a0fd0ef          	jal	ra,30002cb4 <rt_kprintf>
    30005b18:	4fffc517          	auipc	a0,0x4fffc
    30005b1c:	42050513          	addi	a0,a0,1056 # 80001f38 <CSWTCH.17+0x128>
    30005b20:	994fd0ef          	jal	ra,30002cb4 <rt_kprintf>
    30005b24:	4fffc517          	auipc	a0,0x4fffc
    30005b28:	b0c50513          	addi	a0,a0,-1268 # 80001630 <__FUNCTION__.6+0x40>
    30005b2c:	988fd0ef          	jal	ra,30002cb4 <rt_kprintf>
    30005b30:	ffc00993          	li	s3,-4
    30005b34:	ee9ff0ef          	jal	ra,30005a1c <dfs_unlock>
    30005b38:	02813083          	ld	ra,40(sp)
    30005b3c:	02013403          	ld	s0,32(sp)
    30005b40:	01813483          	ld	s1,24(sp)
    30005b44:	01013903          	ld	s2,16(sp)
    30005b48:	0039851b          	addiw	a0,s3,3
    30005b4c:	00813983          	ld	s3,8(sp)
    30005b50:	03010113          	addi	sp,sp,48
    30005b54:	00008067          	ret
    30005b58:	00379713          	slli	a4,a5,0x3
    30005b5c:	00e50733          	add	a4,a0,a4
    30005b60:	00073023          	sd	zero,0(a4)
    30005b64:	00178793          	addi	a5,a5,1
    30005b68:	f4dff06f          	j	30005ab4 <fd_new+0x8c>
    30005b6c:	00843783          	ld	a5,8(s0)
    30005b70:	00399713          	slli	a4,s3,0x3
    30005b74:	00e787b3          	add	a5,a5,a4
    30005b78:	0007b783          	ld	a5,0(a5)
    30005b7c:	00100713          	li	a4,1
    30005b80:	00e7a823          	sw	a4,16(a5)
    30005b84:	dfd00713          	li	a4,-515
    30005b88:	00e79023          	sh	a4,0(a5)
    30005b8c:	fa9ff06f          	j	30005b34 <fd_new+0x10c>

0000000030005b90 <fd_get>:
    30005b90:	fe010113          	addi	sp,sp,-32
    30005b94:	00913423          	sd	s1,8(sp)
    30005b98:	00113c23          	sd	ra,24(sp)
    30005b9c:	00813823          	sd	s0,16(sp)
    30005ba0:	01213023          	sd	s2,0(sp)
    30005ba4:	ffd5049b          	addiw	s1,a0,-3
    30005ba8:	0404c263          	bltz	s1,30005bec <fd_get+0x5c>
    30005bac:	50007917          	auipc	s2,0x50007
    30005bb0:	5bc90913          	addi	s2,s2,1468 # 8000d168 <_fdtab>
    30005bb4:	00092783          	lw	a5,0(s2)
    30005bb8:	00000413          	li	s0,0
    30005bbc:	04f4d463          	bge	s1,a5,30005c04 <fd_get+0x74>
    30005bc0:	df1ff0ef          	jal	ra,300059b0 <dfs_lock>
    30005bc4:	00893783          	ld	a5,8(s2)
    30005bc8:	00349493          	slli	s1,s1,0x3
    30005bcc:	009787b3          	add	a5,a5,s1
    30005bd0:	0007b403          	ld	s0,0(a5)
    30005bd4:	00040a63          	beqz	s0,30005be8 <fd_get+0x58>
    30005bd8:	00045703          	lhu	a4,0(s0)
    30005bdc:	000107b7          	lui	a5,0x10
    30005be0:	dfd78793          	addi	a5,a5,-515 # fdfd <__stack_size+0xf5fd>
    30005be4:	00f70863          	beq	a4,a5,30005bf4 <fd_get+0x64>
    30005be8:	e35ff0ef          	jal	ra,30005a1c <dfs_unlock>
    30005bec:	00000413          	li	s0,0
    30005bf0:	0140006f          	j	30005c04 <fd_get+0x74>
    30005bf4:	01042783          	lw	a5,16(s0)
    30005bf8:	0017879b          	addiw	a5,a5,1
    30005bfc:	00f42823          	sw	a5,16(s0)
    30005c00:	e1dff0ef          	jal	ra,30005a1c <dfs_unlock>
    30005c04:	01813083          	ld	ra,24(sp)
    30005c08:	00040513          	mv	a0,s0
    30005c0c:	01013403          	ld	s0,16(sp)
    30005c10:	00813483          	ld	s1,8(sp)
    30005c14:	00013903          	ld	s2,0(sp)
    30005c18:	02010113          	addi	sp,sp,32
    30005c1c:	00008067          	ret

0000000030005c20 <fd_put>:
    30005c20:	fe010113          	addi	sp,sp,-32
    30005c24:	00813823          	sd	s0,16(sp)
    30005c28:	00113c23          	sd	ra,24(sp)
    30005c2c:	00913423          	sd	s1,8(sp)
    30005c30:	01213023          	sd	s2,0(sp)
    30005c34:	00050413          	mv	s0,a0
    30005c38:	00051c63          	bnez	a0,30005c50 <fd_put+0x30>
    30005c3c:	0fd00613          	li	a2,253
    30005c40:	81818593          	addi	a1,gp,-2024 # 80004210 <__FUNCTION__.1>
    30005c44:	4fffc517          	auipc	a0,0x4fffc
    30005c48:	33450513          	addi	a0,a0,820 # 80001f78 <CSWTCH.17+0x168>
    30005c4c:	9ecfd0ef          	jal	ra,30002e38 <rt_assert_handler>
    30005c50:	d61ff0ef          	jal	ra,300059b0 <dfs_lock>
    30005c54:	01042783          	lw	a5,16(s0)
    30005c58:	fff7871b          	addiw	a4,a5,-1
    30005c5c:	00e42823          	sw	a4,16(s0)
    30005c60:	04071663          	bnez	a4,30005cac <fd_put+0x8c>
    30005c64:	50007497          	auipc	s1,0x50007
    30005c68:	50448493          	addi	s1,s1,1284 # 8000d168 <_fdtab>
    30005c6c:	0004a683          	lw	a3,0(s1)
    30005c70:	0084b603          	ld	a2,8(s1)
    30005c74:	00000793          	li	a5,0
    30005c78:	0007871b          	sext.w	a4,a5
    30005c7c:	02d75863          	bge	a4,a3,30005cac <fd_put+0x8c>
    30005c80:	00379913          	slli	s2,a5,0x3
    30005c84:	00890713          	addi	a4,s2,8
    30005c88:	00e60733          	add	a4,a2,a4
    30005c8c:	ff873703          	ld	a4,-8(a4)
    30005c90:	00178793          	addi	a5,a5,1
    30005c94:	fe8712e3          	bne	a4,s0,30005c78 <fd_put+0x58>
    30005c98:	00040513          	mv	a0,s0
    30005c9c:	d85fb0ef          	jal	ra,30001a20 <rt_free>
    30005ca0:	0084b783          	ld	a5,8(s1)
    30005ca4:	012787b3          	add	a5,a5,s2
    30005ca8:	0007b023          	sd	zero,0(a5)
    30005cac:	01013403          	ld	s0,16(sp)
    30005cb0:	01813083          	ld	ra,24(sp)
    30005cb4:	00813483          	ld	s1,8(sp)
    30005cb8:	00013903          	ld	s2,0(sp)
    30005cbc:	02010113          	addi	sp,sp,32
    30005cc0:	d5dff06f          	j	30005a1c <dfs_unlock>

0000000030005cc4 <dfs_subdir>:
    30005cc4:	fe010113          	addi	sp,sp,-32
    30005cc8:	00813823          	sd	s0,16(sp)
    30005ccc:	00913423          	sd	s1,8(sp)
    30005cd0:	00113c23          	sd	ra,24(sp)
    30005cd4:	00058493          	mv	s1,a1
    30005cd8:	e00fa0ef          	jal	ra,300002d8 <strlen>
    30005cdc:	00050413          	mv	s0,a0
    30005ce0:	00048513          	mv	a0,s1
    30005ce4:	df4fa0ef          	jal	ra,300002d8 <strlen>
    30005ce8:	02a40863          	beq	s0,a0,30005d18 <dfs_subdir+0x54>
    30005cec:	00848533          	add	a0,s1,s0
    30005cf0:	00054703          	lbu	a4,0(a0)
    30005cf4:	02f00793          	li	a5,47
    30005cf8:	00f70663          	beq	a4,a5,30005d04 <dfs_subdir+0x40>
    30005cfc:	00a48463          	beq	s1,a0,30005d04 <dfs_subdir+0x40>
    30005d00:	fff50513          	addi	a0,a0,-1
    30005d04:	01813083          	ld	ra,24(sp)
    30005d08:	01013403          	ld	s0,16(sp)
    30005d0c:	00813483          	ld	s1,8(sp)
    30005d10:	02010113          	addi	sp,sp,32
    30005d14:	00008067          	ret
    30005d18:	00000513          	li	a0,0
    30005d1c:	fe9ff06f          	j	30005d04 <dfs_subdir+0x40>

0000000030005d20 <dfs_normalize_path>:
    30005d20:	fd010113          	addi	sp,sp,-48
    30005d24:	00913c23          	sd	s1,24(sp)
    30005d28:	01213823          	sd	s2,16(sp)
    30005d2c:	02113423          	sd	ra,40(sp)
    30005d30:	02813023          	sd	s0,32(sp)
    30005d34:	01313423          	sd	s3,8(sp)
    30005d38:	00050913          	mv	s2,a0
    30005d3c:	00058493          	mv	s1,a1
    30005d40:	00059e63          	bnez	a1,30005d5c <dfs_normalize_path+0x3c>
    30005d44:	17c00613          	li	a2,380
    30005d48:	4fffc597          	auipc	a1,0x4fffc
    30005d4c:	26058593          	addi	a1,a1,608 # 80001fa8 <__FUNCTION__.0>
    30005d50:	4fffc517          	auipc	a0,0x4fffc
    30005d54:	23850513          	addi	a0,a0,568 # 80001f88 <CSWTCH.17+0x178>
    30005d58:	8e0fd0ef          	jal	ra,30002e38 <rt_assert_handler>
    30005d5c:	00091663          	bnez	s2,30005d68 <dfs_normalize_path+0x48>
    30005d60:	4fffe917          	auipc	s2,0x4fffe
    30005d64:	39890913          	addi	s2,s2,920 # 800040f8 <working_directory>
    30005d68:	0004c703          	lbu	a4,0(s1)
    30005d6c:	02f00793          	li	a5,47
    30005d70:	0cf70c63          	beq	a4,a5,30005e48 <dfs_normalize_path+0x128>
    30005d74:	00090513          	mv	a0,s2
    30005d78:	d60fa0ef          	jal	ra,300002d8 <strlen>
    30005d7c:	00050413          	mv	s0,a0
    30005d80:	00048513          	mv	a0,s1
    30005d84:	d54fa0ef          	jal	ra,300002d8 <strlen>
    30005d88:	00a40533          	add	a0,s0,a0
    30005d8c:	00250513          	addi	a0,a0,2
    30005d90:	971fb0ef          	jal	ra,30001700 <rt_malloc>
    30005d94:	00050413          	mv	s0,a0
    30005d98:	02051463          	bnez	a0,30005dc0 <dfs_normalize_path+0xa0>
    30005d9c:	00000413          	li	s0,0
    30005da0:	02813083          	ld	ra,40(sp)
    30005da4:	00040513          	mv	a0,s0
    30005da8:	02013403          	ld	s0,32(sp)
    30005dac:	01813483          	ld	s1,24(sp)
    30005db0:	01013903          	ld	s2,16(sp)
    30005db4:	00813983          	ld	s3,8(sp)
    30005db8:	03010113          	addi	sp,sp,48
    30005dbc:	00008067          	ret
    30005dc0:	00090513          	mv	a0,s2
    30005dc4:	d14fa0ef          	jal	ra,300002d8 <strlen>
    30005dc8:	00050993          	mv	s3,a0
    30005dcc:	00048513          	mv	a0,s1
    30005dd0:	d08fa0ef          	jal	ra,300002d8 <strlen>
    30005dd4:	00a985b3          	add	a1,s3,a0
    30005dd8:	00048713          	mv	a4,s1
    30005ddc:	00090693          	mv	a3,s2
    30005de0:	4fffc617          	auipc	a2,0x4fffc
    30005de4:	1c060613          	addi	a2,a2,448 # 80001fa0 <CSWTCH.17+0x190>
    30005de8:	00258593          	addi	a1,a1,2
    30005dec:	00040513          	mv	a0,s0
    30005df0:	dd1fc0ef          	jal	ra,30002bc0 <rt_snprintf>
    30005df4:	00040713          	mv	a4,s0
    30005df8:	00040793          	mv	a5,s0
    30005dfc:	02e00513          	li	a0,46
    30005e00:	02f00613          	li	a2,47
    30005e04:	00074683          	lbu	a3,0(a4)
    30005e08:	00a69863          	bne	a3,a0,30005e18 <dfs_normalize_path+0xf8>
    30005e0c:	00174683          	lbu	a3,1(a4)
    30005e10:	04069663          	bnez	a3,30005e5c <dfs_normalize_path+0x13c>
    30005e14:	00170713          	addi	a4,a4,1
    30005e18:	00074683          	lbu	a3,0(a4)
    30005e1c:	00170713          	addi	a4,a4,1
    30005e20:	00078593          	mv	a1,a5
    30005e24:	0a068863          	beqz	a3,30005ed4 <dfs_normalize_path+0x1b4>
    30005e28:	00178793          	addi	a5,a5,1
    30005e2c:	08c69663          	bne	a3,a2,30005eb8 <dfs_normalize_path+0x198>
    30005e30:	00c58023          	sb	a2,0(a1)
    30005e34:	00070693          	mv	a3,a4
    30005e38:	00074583          	lbu	a1,0(a4)
    30005e3c:	00170713          	addi	a4,a4,1
    30005e40:	fec58ae3          	beq	a1,a2,30005e34 <dfs_normalize_path+0x114>
    30005e44:	0280006f          	j	30005e6c <dfs_normalize_path+0x14c>
    30005e48:	00048513          	mv	a0,s1
    30005e4c:	819fc0ef          	jal	ra,30002664 <rt_strdup>
    30005e50:	00050413          	mv	s0,a0
    30005e54:	fa0510e3          	bnez	a0,30005df4 <dfs_normalize_path+0xd4>
    30005e58:	f45ff06f          	j	30005d9c <dfs_normalize_path+0x7c>
    30005e5c:	02c69063          	bne	a3,a2,30005e7c <dfs_normalize_path+0x15c>
    30005e60:	00270693          	addi	a3,a4,2
    30005e64:	0006c703          	lbu	a4,0(a3)
    30005e68:	00c70663          	beq	a4,a2,30005e74 <dfs_normalize_path+0x154>
    30005e6c:	00068713          	mv	a4,a3
    30005e70:	f95ff06f          	j	30005e04 <dfs_normalize_path+0xe4>
    30005e74:	00168693          	addi	a3,a3,1
    30005e78:	fedff06f          	j	30005e64 <dfs_normalize_path+0x144>
    30005e7c:	f8a69ee3          	bne	a3,a0,30005e18 <dfs_normalize_path+0xf8>
    30005e80:	00274683          	lbu	a3,2(a4)
    30005e84:	00069e63          	bnez	a3,30005ea0 <dfs_normalize_path+0x180>
    30005e88:	00270693          	addi	a3,a4,2
    30005e8c:	fff78793          	addi	a5,a5,-1
    30005e90:	0287fa63          	bgeu	a5,s0,30005ec4 <dfs_normalize_path+0x1a4>
    30005e94:	00040513          	mv	a0,s0
    30005e98:	b89fb0ef          	jal	ra,30001a20 <rt_free>
    30005e9c:	f01ff06f          	j	30005d9c <dfs_normalize_path+0x7c>
    30005ea0:	f6c69ce3          	bne	a3,a2,30005e18 <dfs_normalize_path+0xf8>
    30005ea4:	00370693          	addi	a3,a4,3
    30005ea8:	0006c703          	lbu	a4,0(a3)
    30005eac:	fec710e3          	bne	a4,a2,30005e8c <dfs_normalize_path+0x16c>
    30005eb0:	00168693          	addi	a3,a3,1
    30005eb4:	ff5ff06f          	j	30005ea8 <dfs_normalize_path+0x188>
    30005eb8:	fed78fa3          	sb	a3,-1(a5)
    30005ebc:	f5dff06f          	j	30005e18 <dfs_normalize_path+0xf8>
    30005ec0:	fff78793          	addi	a5,a5,-1
    30005ec4:	faf404e3          	beq	s0,a5,30005e6c <dfs_normalize_path+0x14c>
    30005ec8:	fff7c703          	lbu	a4,-1(a5)
    30005ecc:	fec71ae3          	bne	a4,a2,30005ec0 <dfs_normalize_path+0x1a0>
    30005ed0:	f9dff06f          	j	30005e6c <dfs_normalize_path+0x14c>
    30005ed4:	00078023          	sb	zero,0(a5)
    30005ed8:	fff78713          	addi	a4,a5,-1
    30005edc:	00e40a63          	beq	s0,a4,30005ef0 <dfs_normalize_path+0x1d0>
    30005ee0:	fff7c683          	lbu	a3,-1(a5)
    30005ee4:	02f00713          	li	a4,47
    30005ee8:	00e69463          	bne	a3,a4,30005ef0 <dfs_normalize_path+0x1d0>
    30005eec:	fe078fa3          	sb	zero,-1(a5)
    30005ef0:	00044783          	lbu	a5,0(s0)
    30005ef4:	ea0796e3          	bnez	a5,30005da0 <dfs_normalize_path+0x80>
    30005ef8:	02f00793          	li	a5,47
    30005efc:	00f40023          	sb	a5,0(s0)
    30005f00:	000400a3          	sb	zero,1(s0)
    30005f04:	e9dff06f          	j	30005da0 <dfs_normalize_path+0x80>

0000000030005f08 <fd_is_open>:
    30005f08:	fc010113          	addi	sp,sp,-64
    30005f0c:	00050593          	mv	a1,a0
    30005f10:	00000513          	li	a0,0
    30005f14:	02113c23          	sd	ra,56(sp)
    30005f18:	02813823          	sd	s0,48(sp)
    30005f1c:	02913423          	sd	s1,40(sp)
    30005f20:	03213023          	sd	s2,32(sp)
    30005f24:	01313c23          	sd	s3,24(sp)
    30005f28:	01413823          	sd	s4,16(sp)
    30005f2c:	01513423          	sd	s5,8(sp)
    30005f30:	01613023          	sd	s6,0(sp)
    30005f34:	dedff0ef          	jal	ra,30005d20 <dfs_normalize_path>
    30005f38:	00050e63          	beqz	a0,30005f54 <fd_is_open+0x4c>
    30005f3c:	00050413          	mv	s0,a0
    30005f40:	6cd000ef          	jal	ra,30006e0c <dfs_filesystem_lookup>
    30005f44:	00050913          	mv	s2,a0
    30005f48:	00051a63          	bnez	a0,30005f5c <fd_is_open+0x54>
    30005f4c:	00040513          	mv	a0,s0
    30005f50:	ad1fb0ef          	jal	ra,30001a20 <rt_free>
    30005f54:	fff00493          	li	s1,-1
    30005f58:	0940006f          	j	30005fec <fd_is_open+0xe4>
    30005f5c:	00853503          	ld	a0,8(a0)
    30005f60:	02f00793          	li	a5,47
    30005f64:	00054703          	lbu	a4,0(a0)
    30005f68:	00f71863          	bne	a4,a5,30005f78 <fd_is_open+0x70>
    30005f6c:	00154783          	lbu	a5,1(a0)
    30005f70:	00040a13          	mv	s4,s0
    30005f74:	00078663          	beqz	a5,30005f80 <fd_is_open+0x78>
    30005f78:	b60fa0ef          	jal	ra,300002d8 <strlen>
    30005f7c:	00a40a33          	add	s4,s0,a0
    30005f80:	a31ff0ef          	jal	ra,300059b0 <dfs_lock>
    30005f84:	50007797          	auipc	a5,0x50007
    30005f88:	1e478793          	addi	a5,a5,484 # 8000d168 <_fdtab>
    30005f8c:	0007aa83          	lw	s5,0(a5)
    30005f90:	0087bb03          	ld	s6,8(a5)
    30005f94:	00000993          	li	s3,0
    30005f98:	0009879b          	sext.w	a5,s3
    30005f9c:	0157e663          	bltu	a5,s5,30005fa8 <fd_is_open+0xa0>
    30005fa0:	a7dff0ef          	jal	ra,30005a1c <dfs_unlock>
    30005fa4:	fa9ff06f          	j	30005f4c <fd_is_open+0x44>
    30005fa8:	00399793          	slli	a5,s3,0x3
    30005fac:	00fb07b3          	add	a5,s6,a5
    30005fb0:	0007b783          	ld	a5,0(a5)
    30005fb4:	06078263          	beqz	a5,30006018 <fd_is_open+0x110>
    30005fb8:	0207b703          	ld	a4,32(a5)
    30005fbc:	04070e63          	beqz	a4,30006018 <fd_is_open+0x110>
    30005fc0:	0087b503          	ld	a0,8(a5)
    30005fc4:	04050a63          	beqz	a0,30006018 <fd_is_open+0x110>
    30005fc8:	0187b783          	ld	a5,24(a5)
    30005fcc:	05279663          	bne	a5,s2,30006018 <fd_is_open+0x110>
    30005fd0:	000a0593          	mv	a1,s4
    30005fd4:	b68fa0ef          	jal	ra,3000033c <strcmp>
    30005fd8:	00050493          	mv	s1,a0
    30005fdc:	02051e63          	bnez	a0,30006018 <fd_is_open+0x110>
    30005fe0:	00040513          	mv	a0,s0
    30005fe4:	a3dfb0ef          	jal	ra,30001a20 <rt_free>
    30005fe8:	a35ff0ef          	jal	ra,30005a1c <dfs_unlock>
    30005fec:	03813083          	ld	ra,56(sp)
    30005ff0:	03013403          	ld	s0,48(sp)
    30005ff4:	02013903          	ld	s2,32(sp)
    30005ff8:	01813983          	ld	s3,24(sp)
    30005ffc:	01013a03          	ld	s4,16(sp)
    30006000:	00813a83          	ld	s5,8(sp)
    30006004:	00013b03          	ld	s6,0(sp)
    30006008:	00048513          	mv	a0,s1
    3000600c:	02813483          	ld	s1,40(sp)
    30006010:	04010113          	addi	sp,sp,64
    30006014:	00008067          	ret
    30006018:	00198993          	addi	s3,s3,1
    3000601c:	f7dff06f          	j	30005f98 <fd_is_open+0x90>

0000000030006020 <dfs_file_open>:
    30006020:	fd010113          	addi	sp,sp,-48
    30006024:	00913c23          	sd	s1,24(sp)
    30006028:	02113423          	sd	ra,40(sp)
    3000602c:	02813023          	sd	s0,32(sp)
    30006030:	01213823          	sd	s2,16(sp)
    30006034:	01313423          	sd	s3,8(sp)
    30006038:	fea00493          	li	s1,-22
    3000603c:	02050c63          	beqz	a0,30006074 <dfs_file_open+0x54>
    30006040:	00050413          	mv	s0,a0
    30006044:	00000513          	li	a0,0
    30006048:	00060993          	mv	s3,a2
    3000604c:	cd5ff0ef          	jal	ra,30005d20 <dfs_normalize_path>
    30006050:	00050913          	mv	s2,a0
    30006054:	ff400493          	li	s1,-12
    30006058:	00050e63          	beqz	a0,30006074 <dfs_file_open+0x54>
    3000605c:	5b1000ef          	jal	ra,30006e0c <dfs_filesystem_lookup>
    30006060:	00050493          	mv	s1,a0
    30006064:	02051863          	bnez	a0,30006094 <dfs_file_open+0x74>
    30006068:	00090513          	mv	a0,s2
    3000606c:	9b5fb0ef          	jal	ra,30001a20 <rt_free>
    30006070:	ffe00493          	li	s1,-2
    30006074:	02813083          	ld	ra,40(sp)
    30006078:	02013403          	ld	s0,32(sp)
    3000607c:	01013903          	ld	s2,16(sp)
    30006080:	00813983          	ld	s3,8(sp)
    30006084:	00048513          	mv	a0,s1
    30006088:	01813483          	ld	s1,24(sp)
    3000608c:	03010113          	addi	sp,sp,48
    30006090:	00008067          	ret
    30006094:	01053783          	ld	a5,16(a0)
    30006098:	00a43c23          	sd	a0,24(s0)
    3000609c:	0107b703          	ld	a4,16(a5)
    300060a0:	0087a783          	lw	a5,8(a5)
    300060a4:	00041123          	sh	zero,2(s0)
    300060a8:	02e43023          	sd	a4,32(s0)
    300060ac:	03342423          	sw	s3,40(s0)
    300060b0:	02043823          	sd	zero,48(s0)
    300060b4:	02043c23          	sd	zero,56(s0)
    300060b8:	04a43023          	sd	a0,64(s0)
    300060bc:	0017f793          	andi	a5,a5,1
    300060c0:	04079e63          	bnez	a5,3000611c <dfs_file_open+0xfc>
    300060c4:	00853503          	ld	a0,8(a0)
    300060c8:	00090593          	mv	a1,s2
    300060cc:	bf9ff0ef          	jal	ra,30005cc4 <dfs_subdir>
    300060d0:	02051e63          	bnez	a0,3000610c <dfs_file_open+0xec>
    300060d4:	4fffc517          	auipc	a0,0x4fffc
    300060d8:	f2450513          	addi	a0,a0,-220 # 80001ff8 <__fsym___cmd_list_fd_name+0x10>
    300060dc:	d88fc0ef          	jal	ra,30002664 <rt_strdup>
    300060e0:	00a43423          	sd	a0,8(s0)
    300060e4:	00090513          	mv	a0,s2
    300060e8:	939fb0ef          	jal	ra,30001a20 <rt_free>
    300060ec:	02043783          	ld	a5,32(s0)
    300060f0:	0007b783          	ld	a5,0(a5)
    300060f4:	02079863          	bnez	a5,30006124 <dfs_file_open+0x104>
    300060f8:	00843503          	ld	a0,8(s0)
    300060fc:	fda00493          	li	s1,-38
    30006100:	921fb0ef          	jal	ra,30001a20 <rt_free>
    30006104:	00043423          	sd	zero,8(s0)
    30006108:	f6dff06f          	j	30006074 <dfs_file_open+0x54>
    3000610c:	0084b503          	ld	a0,8(s1)
    30006110:	00090593          	mv	a1,s2
    30006114:	bb1ff0ef          	jal	ra,30005cc4 <dfs_subdir>
    30006118:	fc5ff06f          	j	300060dc <dfs_file_open+0xbc>
    3000611c:	01243423          	sd	s2,8(s0)
    30006120:	fcdff06f          	j	300060ec <dfs_file_open+0xcc>
    30006124:	00040513          	mv	a0,s0
    30006128:	000780e7          	jalr	a5
    3000612c:	00050493          	mv	s1,a0
    30006130:	00055a63          	bgez	a0,30006144 <dfs_file_open+0x124>
    30006134:	00843503          	ld	a0,8(s0)
    30006138:	8e9fb0ef          	jal	ra,30001a20 <rt_free>
    3000613c:	00043423          	sd	zero,8(s0)
    30006140:	f35ff06f          	j	30006074 <dfs_file_open+0x54>
    30006144:	02842783          	lw	a5,40(s0)
    30006148:	01000737          	lui	a4,0x1000
    3000614c:	000104b7          	lui	s1,0x10
    30006150:	00e7e733          	or	a4,a5,a4
    30006154:	02e42423          	sw	a4,40(s0)
    30006158:	0099f4b3          	and	s1,s3,s1
    3000615c:	f0048ce3          	beqz	s1,30006074 <dfs_file_open+0x54>
    30006160:	00200713          	li	a4,2
    30006164:	00e41123          	sh	a4,2(s0)
    30006168:	03000737          	lui	a4,0x3000
    3000616c:	00e7e7b3          	or	a5,a5,a4
    30006170:	02f42423          	sw	a5,40(s0)
    30006174:	00000493          	li	s1,0
    30006178:	efdff06f          	j	30006074 <dfs_file_open+0x54>

000000003000617c <dfs_file_close>:
    3000617c:	fe010113          	addi	sp,sp,-32
    30006180:	00813823          	sd	s0,16(sp)
    30006184:	00113c23          	sd	ra,24(sp)
    30006188:	00913423          	sd	s1,8(sp)
    3000618c:	ffa00413          	li	s0,-6
    30006190:	02050063          	beqz	a0,300061b0 <dfs_file_close+0x34>
    30006194:	02053783          	ld	a5,32(a0)
    30006198:	00050493          	mv	s1,a0
    3000619c:	0087b783          	ld	a5,8(a5)
    300061a0:	02078463          	beqz	a5,300061c8 <dfs_file_close+0x4c>
    300061a4:	000780e7          	jalr	a5
    300061a8:	00050413          	mv	s0,a0
    300061ac:	02055063          	bgez	a0,300061cc <dfs_file_close+0x50>
    300061b0:	01813083          	ld	ra,24(sp)
    300061b4:	00040513          	mv	a0,s0
    300061b8:	01013403          	ld	s0,16(sp)
    300061bc:	00813483          	ld	s1,8(sp)
    300061c0:	02010113          	addi	sp,sp,32
    300061c4:	00008067          	ret
    300061c8:	00000413          	li	s0,0
    300061cc:	0084b503          	ld	a0,8(s1) # 10008 <__stack_size+0xf808>
    300061d0:	851fb0ef          	jal	ra,30001a20 <rt_free>
    300061d4:	0004b423          	sd	zero,8(s1)
    300061d8:	fd9ff06f          	j	300061b0 <dfs_file_close+0x34>

00000000300061dc <dfs_file_read>:
    300061dc:	04050a63          	beqz	a0,30006230 <dfs_file_read+0x54>
    300061e0:	02053783          	ld	a5,32(a0)
    300061e4:	ff010113          	addi	sp,sp,-16
    300061e8:	00813023          	sd	s0,0(sp)
    300061ec:	0187b703          	ld	a4,24(a5)
    300061f0:	00113423          	sd	ra,8(sp)
    300061f4:	00050413          	mv	s0,a0
    300061f8:	fda00793          	li	a5,-38
    300061fc:	02070063          	beqz	a4,3000621c <dfs_file_read+0x40>
    30006200:	000700e7          	jalr	a4 # 3000000 <__stack_size+0x2fff800>
    30006204:	00050793          	mv	a5,a0
    30006208:	00055a63          	bgez	a0,3000621c <dfs_file_read+0x40>
    3000620c:	02842703          	lw	a4,40(s0)
    30006210:	040006b7          	lui	a3,0x4000
    30006214:	00d76733          	or	a4,a4,a3
    30006218:	02e42423          	sw	a4,40(s0)
    3000621c:	00813083          	ld	ra,8(sp)
    30006220:	00013403          	ld	s0,0(sp)
    30006224:	00078513          	mv	a0,a5
    30006228:	01010113          	addi	sp,sp,16
    3000622c:	00008067          	ret
    30006230:	fea00793          	li	a5,-22
    30006234:	00078513          	mv	a0,a5
    30006238:	00008067          	ret

000000003000623c <cat>:
    3000623c:	f8010113          	addi	sp,sp,-128
    30006240:	00050593          	mv	a1,a0
    30006244:	00a13423          	sd	a0,8(sp)
    30006248:	00000613          	li	a2,0
    3000624c:	50007517          	auipc	a0,0x50007
    30006250:	0cc50513          	addi	a0,a0,204 # 8000d318 <fd>
    30006254:	06813823          	sd	s0,112(sp)
    30006258:	06113c23          	sd	ra,120(sp)
    3000625c:	dc5ff0ef          	jal	ra,30006020 <dfs_file_open>
    30006260:	00813583          	ld	a1,8(sp)
    30006264:	4fffc417          	auipc	s0,0x4fffc
    30006268:	dac40413          	addi	s0,s0,-596 # 80002010 <__fsym___cmd_list_fd_name+0x28>
    3000626c:	00055e63          	bgez	a0,30006288 <cat+0x4c>
    30006270:	07013403          	ld	s0,112(sp)
    30006274:	07813083          	ld	ra,120(sp)
    30006278:	4fffc517          	auipc	a0,0x4fffc
    3000627c:	d8850513          	addi	a0,a0,-632 # 80002000 <__fsym___cmd_list_fd_name+0x18>
    30006280:	08010113          	addi	sp,sp,128
    30006284:	a31fc06f          	j	30002cb4 <rt_kprintf>
    30006288:	05100613          	li	a2,81
    3000628c:	00000593          	li	a1,0
    30006290:	01810513          	addi	a0,sp,24
    30006294:	8b0fa0ef          	jal	ra,30000344 <memset>
    30006298:	05000613          	li	a2,80
    3000629c:	01810593          	addi	a1,sp,24
    300062a0:	50007517          	auipc	a0,0x50007
    300062a4:	07850513          	addi	a0,a0,120 # 8000d318 <fd>
    300062a8:	f35ff0ef          	jal	ra,300061dc <dfs_file_read>
    300062ac:	00050a63          	beqz	a0,300062c0 <cat+0x84>
    300062b0:	01810593          	addi	a1,sp,24
    300062b4:	00040513          	mv	a0,s0
    300062b8:	9fdfc0ef          	jal	ra,30002cb4 <rt_kprintf>
    300062bc:	fcdff06f          	j	30006288 <cat+0x4c>
    300062c0:	4fffb517          	auipc	a0,0x4fffb
    300062c4:	37050513          	addi	a0,a0,880 # 80001630 <__FUNCTION__.6+0x40>
    300062c8:	9edfc0ef          	jal	ra,30002cb4 <rt_kprintf>
    300062cc:	50007517          	auipc	a0,0x50007
    300062d0:	04c50513          	addi	a0,a0,76 # 8000d318 <fd>
    300062d4:	ea9ff0ef          	jal	ra,3000617c <dfs_file_close>
    300062d8:	07813083          	ld	ra,120(sp)
    300062dc:	07013403          	ld	s0,112(sp)
    300062e0:	08010113          	addi	sp,sp,128
    300062e4:	00008067          	ret

00000000300062e8 <dfs_file_getdents>:
    300062e8:	02050263          	beqz	a0,3000630c <dfs_file_getdents+0x24>
    300062ec:	00255683          	lhu	a3,2(a0)
    300062f0:	00200713          	li	a4,2
    300062f4:	00e69c63          	bne	a3,a4,3000630c <dfs_file_getdents+0x24>
    300062f8:	02053783          	ld	a5,32(a0)
    300062fc:	0387b783          	ld	a5,56(a5)
    30006300:	00078a63          	beqz	a5,30006314 <dfs_file_getdents+0x2c>
    30006304:	0006061b          	sext.w	a2,a2
    30006308:	00078067          	jr	a5
    3000630c:	fea00513          	li	a0,-22
    30006310:	00008067          	ret
    30006314:	fda00513          	li	a0,-38
    30006318:	00008067          	ret

000000003000631c <dfs_file_unlink>:
    3000631c:	fe010113          	addi	sp,sp,-32
    30006320:	00050593          	mv	a1,a0
    30006324:	00000513          	li	a0,0
    30006328:	00813823          	sd	s0,16(sp)
    3000632c:	00113c23          	sd	ra,24(sp)
    30006330:	00913423          	sd	s1,8(sp)
    30006334:	01213023          	sd	s2,0(sp)
    30006338:	9e9ff0ef          	jal	ra,30005d20 <dfs_normalize_path>
    3000633c:	fea00413          	li	s0,-22
    30006340:	06050c63          	beqz	a0,300063b8 <dfs_file_unlink+0x9c>
    30006344:	00050913          	mv	s2,a0
    30006348:	2c5000ef          	jal	ra,30006e0c <dfs_filesystem_lookup>
    3000634c:	00050493          	mv	s1,a0
    30006350:	ffe00413          	li	s0,-2
    30006354:	04050e63          	beqz	a0,300063b0 <dfs_file_unlink+0x94>
    30006358:	00090513          	mv	a0,s2
    3000635c:	badff0ef          	jal	ra,30005f08 <fd_is_open>
    30006360:	ff000413          	li	s0,-16
    30006364:	04050663          	beqz	a0,300063b0 <dfs_file_unlink+0x94>
    30006368:	0104b783          	ld	a5,16(s1)
    3000636c:	fda00413          	li	s0,-38
    30006370:	0387b703          	ld	a4,56(a5)
    30006374:	02070e63          	beqz	a4,300063b0 <dfs_file_unlink+0x94>
    30006378:	0087a783          	lw	a5,8(a5)
    3000637c:	00090593          	mv	a1,s2
    30006380:	0017f793          	andi	a5,a5,1
    30006384:	06079863          	bnez	a5,300063f4 <dfs_file_unlink+0xd8>
    30006388:	0084b503          	ld	a0,8(s1)
    3000638c:	939ff0ef          	jal	ra,30005cc4 <dfs_subdir>
    30006390:	0104b783          	ld	a5,16(s1)
    30006394:	04051063          	bnez	a0,300063d4 <dfs_file_unlink+0xb8>
    30006398:	0387b783          	ld	a5,56(a5)
    3000639c:	4fffc597          	auipc	a1,0x4fffc
    300063a0:	c5c58593          	addi	a1,a1,-932 # 80001ff8 <__fsym___cmd_list_fd_name+0x10>
    300063a4:	00048513          	mv	a0,s1
    300063a8:	000780e7          	jalr	a5
    300063ac:	00050413          	mv	s0,a0
    300063b0:	00090513          	mv	a0,s2
    300063b4:	e6cfb0ef          	jal	ra,30001a20 <rt_free>
    300063b8:	01813083          	ld	ra,24(sp)
    300063bc:	00040513          	mv	a0,s0
    300063c0:	01013403          	ld	s0,16(sp)
    300063c4:	00813483          	ld	s1,8(sp)
    300063c8:	00013903          	ld	s2,0(sp)
    300063cc:	02010113          	addi	sp,sp,32
    300063d0:	00008067          	ret
    300063d4:	0084b503          	ld	a0,8(s1)
    300063d8:	00090593          	mv	a1,s2
    300063dc:	0387b403          	ld	s0,56(a5)
    300063e0:	8e5ff0ef          	jal	ra,30005cc4 <dfs_subdir>
    300063e4:	00050593          	mv	a1,a0
    300063e8:	00048513          	mv	a0,s1
    300063ec:	000400e7          	jalr	s0
    300063f0:	fbdff06f          	j	300063ac <dfs_file_unlink+0x90>
    300063f4:	00048513          	mv	a0,s1
    300063f8:	000700e7          	jalr	a4
    300063fc:	fb1ff06f          	j	300063ac <dfs_file_unlink+0x90>

0000000030006400 <rm>:
    30006400:	fe010113          	addi	sp,sp,-32
    30006404:	00113c23          	sd	ra,24(sp)
    30006408:	00a13423          	sd	a0,8(sp)
    3000640c:	f11ff0ef          	jal	ra,3000631c <dfs_file_unlink>
    30006410:	00813583          	ld	a1,8(sp)
    30006414:	00055c63          	bgez	a0,3000642c <rm+0x2c>
    30006418:	01813083          	ld	ra,24(sp)
    3000641c:	4fffc517          	auipc	a0,0x4fffc
    30006420:	bfc50513          	addi	a0,a0,-1028 # 80002018 <__fsym___cmd_list_fd_name+0x30>
    30006424:	02010113          	addi	sp,sp,32
    30006428:	88dfc06f          	j	30002cb4 <rt_kprintf>
    3000642c:	01813083          	ld	ra,24(sp)
    30006430:	02010113          	addi	sp,sp,32
    30006434:	00008067          	ret

0000000030006438 <dfs_file_write>:
    30006438:	00050a63          	beqz	a0,3000644c <dfs_file_write+0x14>
    3000643c:	02053783          	ld	a5,32(a0)
    30006440:	0207b783          	ld	a5,32(a5)
    30006444:	00078863          	beqz	a5,30006454 <dfs_file_write+0x1c>
    30006448:	00078067          	jr	a5
    3000644c:	fea00513          	li	a0,-22
    30006450:	00008067          	ret
    30006454:	fda00513          	li	a0,-38
    30006458:	00008067          	ret

000000003000645c <copyfile>:
    3000645c:	f9010113          	addi	sp,sp,-112
    30006460:	05213823          	sd	s2,80(sp)
    30006464:	00050913          	mv	s2,a0
    30006468:	00001537          	lui	a0,0x1
    3000646c:	04913c23          	sd	s1,88(sp)
    30006470:	06113423          	sd	ra,104(sp)
    30006474:	06813023          	sd	s0,96(sp)
    30006478:	00058493          	mv	s1,a1
    3000647c:	a84fb0ef          	jal	ra,30001700 <rt_malloc>
    30006480:	02051263          	bnez	a0,300064a4 <copyfile+0x48>
    30006484:	06013403          	ld	s0,96(sp)
    30006488:	06813083          	ld	ra,104(sp)
    3000648c:	05813483          	ld	s1,88(sp)
    30006490:	05013903          	ld	s2,80(sp)
    30006494:	4fffc517          	auipc	a0,0x4fffc
    30006498:	b9c50513          	addi	a0,a0,-1124 # 80002030 <__fsym___cmd_list_fd_name+0x48>
    3000649c:	07010113          	addi	sp,sp,112
    300064a0:	815fc06f          	j	30002cb4 <rt_kprintf>
    300064a4:	00050413          	mv	s0,a0
    300064a8:	00000613          	li	a2,0
    300064ac:	00090593          	mv	a1,s2
    300064b0:	00810513          	addi	a0,sp,8
    300064b4:	b6dff0ef          	jal	ra,30006020 <dfs_file_open>
    300064b8:	02055a63          	bgez	a0,300064ec <copyfile+0x90>
    300064bc:	00040513          	mv	a0,s0
    300064c0:	d60fb0ef          	jal	ra,30001a20 <rt_free>
    300064c4:	00090593          	mv	a1,s2
    300064c8:	4fffc517          	auipc	a0,0x4fffc
    300064cc:	b7850513          	addi	a0,a0,-1160 # 80002040 <__fsym___cmd_list_fd_name+0x58>
    300064d0:	fe4fc0ef          	jal	ra,30002cb4 <rt_kprintf>
    300064d4:	06813083          	ld	ra,104(sp)
    300064d8:	06013403          	ld	s0,96(sp)
    300064dc:	05813483          	ld	s1,88(sp)
    300064e0:	05013903          	ld	s2,80(sp)
    300064e4:	07010113          	addi	sp,sp,112
    300064e8:	00008067          	ret
    300064ec:	04100613          	li	a2,65
    300064f0:	00048593          	mv	a1,s1
    300064f4:	50007517          	auipc	a0,0x50007
    300064f8:	e2450513          	addi	a0,a0,-476 # 8000d318 <fd>
    300064fc:	b25ff0ef          	jal	ra,30006020 <dfs_file_open>
    30006500:	50007917          	auipc	s2,0x50007
    30006504:	e1890913          	addi	s2,s2,-488 # 8000d318 <fd>
    30006508:	02055263          	bgez	a0,3000652c <copyfile+0xd0>
    3000650c:	00040513          	mv	a0,s0
    30006510:	d10fb0ef          	jal	ra,30001a20 <rt_free>
    30006514:	00810513          	addi	a0,sp,8
    30006518:	c65ff0ef          	jal	ra,3000617c <dfs_file_close>
    3000651c:	00048593          	mv	a1,s1
    30006520:	4fffc517          	auipc	a0,0x4fffc
    30006524:	b3050513          	addi	a0,a0,-1232 # 80002050 <__fsym___cmd_list_fd_name+0x68>
    30006528:	fa9ff06f          	j	300064d0 <copyfile+0x74>
    3000652c:	00001637          	lui	a2,0x1
    30006530:	00040593          	mv	a1,s0
    30006534:	00810513          	addi	a0,sp,8
    30006538:	ca5ff0ef          	jal	ra,300061dc <dfs_file_read>
    3000653c:	00050493          	mv	s1,a0
    30006540:	02a05463          	blez	a0,30006568 <copyfile+0x10c>
    30006544:	00050613          	mv	a2,a0
    30006548:	00040593          	mv	a1,s0
    3000654c:	00090513          	mv	a0,s2
    30006550:	ee9ff0ef          	jal	ra,30006438 <dfs_file_write>
    30006554:	00050593          	mv	a1,a0
    30006558:	fca48ae3          	beq	s1,a0,3000652c <copyfile+0xd0>
    3000655c:	4fffc517          	auipc	a0,0x4fffc
    30006560:	b0c50513          	addi	a0,a0,-1268 # 80002068 <__fsym___cmd_list_fd_name+0x80>
    30006564:	f50fc0ef          	jal	ra,30002cb4 <rt_kprintf>
    30006568:	00810513          	addi	a0,sp,8
    3000656c:	c11ff0ef          	jal	ra,3000617c <dfs_file_close>
    30006570:	50007517          	auipc	a0,0x50007
    30006574:	da850513          	addi	a0,a0,-600 # 8000d318 <fd>
    30006578:	c05ff0ef          	jal	ra,3000617c <dfs_file_close>
    3000657c:	00040513          	mv	a0,s0
    30006580:	ca0fb0ef          	jal	ra,30001a20 <rt_free>
    30006584:	f51ff06f          	j	300064d4 <copyfile+0x78>

0000000030006588 <dfs_file_lseek>:
    30006588:	04050463          	beqz	a0,300065d0 <dfs_file_lseek+0x48>
    3000658c:	02053783          	ld	a5,32(a0)
    30006590:	ff010113          	addi	sp,sp,-16
    30006594:	00813023          	sd	s0,0(sp)
    30006598:	0307b703          	ld	a4,48(a5)
    3000659c:	00113423          	sd	ra,8(sp)
    300065a0:	00050413          	mv	s0,a0
    300065a4:	fda00793          	li	a5,-38
    300065a8:	00070a63          	beqz	a4,300065bc <dfs_file_lseek+0x34>
    300065ac:	000700e7          	jalr	a4
    300065b0:	00050793          	mv	a5,a0
    300065b4:	00054463          	bltz	a0,300065bc <dfs_file_lseek+0x34>
    300065b8:	02a43c23          	sd	a0,56(s0)
    300065bc:	00813083          	ld	ra,8(sp)
    300065c0:	00013403          	ld	s0,0(sp)
    300065c4:	00078513          	mv	a0,a5
    300065c8:	01010113          	addi	sp,sp,16
    300065cc:	00008067          	ret
    300065d0:	fea00793          	li	a5,-22
    300065d4:	00078513          	mv	a0,a5
    300065d8:	00008067          	ret

00000000300065dc <dfs_file_stat>:
    300065dc:	fd010113          	addi	sp,sp,-48
    300065e0:	01213823          	sd	s2,16(sp)
    300065e4:	00058913          	mv	s2,a1
    300065e8:	00050593          	mv	a1,a0
    300065ec:	00000513          	li	a0,0
    300065f0:	00913c23          	sd	s1,24(sp)
    300065f4:	02113423          	sd	ra,40(sp)
    300065f8:	02813023          	sd	s0,32(sp)
    300065fc:	01313423          	sd	s3,8(sp)
    30006600:	f20ff0ef          	jal	ra,30005d20 <dfs_normalize_path>
    30006604:	fff00493          	li	s1,-1
    30006608:	04050463          	beqz	a0,30006650 <dfs_file_stat+0x74>
    3000660c:	00050413          	mv	s0,a0
    30006610:	7fc000ef          	jal	ra,30006e0c <dfs_filesystem_lookup>
    30006614:	00050493          	mv	s1,a0
    30006618:	04051c63          	bnez	a0,30006670 <dfs_file_stat+0x94>
    3000661c:	4fffc517          	auipc	a0,0x4fffc
    30006620:	90c50513          	addi	a0,a0,-1780 # 80001f28 <CSWTCH.17+0x118>
    30006624:	e90fc0ef          	jal	ra,30002cb4 <rt_kprintf>
    30006628:	00040593          	mv	a1,s0
    3000662c:	4fffc517          	auipc	a0,0x4fffc
    30006630:	a6450513          	addi	a0,a0,-1436 # 80002090 <__fsym___cmd_list_fd_name+0xa8>
    30006634:	e80fc0ef          	jal	ra,30002cb4 <rt_kprintf>
    30006638:	4fffb517          	auipc	a0,0x4fffb
    3000663c:	ff850513          	addi	a0,a0,-8 # 80001630 <__FUNCTION__.6+0x40>
    30006640:	e74fc0ef          	jal	ra,30002cb4 <rt_kprintf>
    30006644:	00040513          	mv	a0,s0
    30006648:	bd8fb0ef          	jal	ra,30001a20 <rt_free>
    3000664c:	ffe00493          	li	s1,-2
    30006650:	02813083          	ld	ra,40(sp)
    30006654:	02013403          	ld	s0,32(sp)
    30006658:	01013903          	ld	s2,16(sp)
    3000665c:	00813983          	ld	s3,8(sp)
    30006660:	00048513          	mv	a0,s1
    30006664:	01813483          	ld	s1,24(sp)
    30006668:	03010113          	addi	sp,sp,48
    3000666c:	00008067          	ret
    30006670:	00044703          	lbu	a4,0(s0)
    30006674:	02f00793          	li	a5,47
    30006678:	02f71a63          	bne	a4,a5,300066ac <dfs_file_stat+0xd0>
    3000667c:	00144783          	lbu	a5,1(s0)
    30006680:	02079663          	bnez	a5,300066ac <dfs_file_stat+0xd0>
    30006684:	000047b7          	lui	a5,0x4
    30006688:	1ff78793          	addi	a5,a5,511 # 41ff <__stack_size+0x39ff>
    3000668c:	00093023          	sd	zero,0(s2)
    30006690:	00f92823          	sw	a5,16(s2)
    30006694:	02093823          	sd	zero,48(s2)
    30006698:	04093c23          	sd	zero,88(s2)
    3000669c:	00040513          	mv	a0,s0
    300066a0:	b80fb0ef          	jal	ra,30001a20 <rt_free>
    300066a4:	00000493          	li	s1,0
    300066a8:	fa9ff06f          	j	30006650 <dfs_file_stat+0x74>
    300066ac:	0084b503          	ld	a0,8(s1)
    300066b0:	00040593          	mv	a1,s0
    300066b4:	e10ff0ef          	jal	ra,30005cc4 <dfs_subdir>
    300066b8:	fc0506e3          	beqz	a0,30006684 <dfs_file_stat+0xa8>
    300066bc:	0104b783          	ld	a5,16(s1)
    300066c0:	0407b983          	ld	s3,64(a5)
    300066c4:	02099c63          	bnez	s3,300066fc <dfs_file_stat+0x120>
    300066c8:	00040513          	mv	a0,s0
    300066cc:	b54fb0ef          	jal	ra,30001a20 <rt_free>
    300066d0:	4fffc517          	auipc	a0,0x4fffc
    300066d4:	85850513          	addi	a0,a0,-1960 # 80001f28 <CSWTCH.17+0x118>
    300066d8:	ddcfc0ef          	jal	ra,30002cb4 <rt_kprintf>
    300066dc:	4fffc517          	auipc	a0,0x4fffc
    300066e0:	9e450513          	addi	a0,a0,-1564 # 800020c0 <__fsym___cmd_list_fd_name+0xd8>
    300066e4:	dd0fc0ef          	jal	ra,30002cb4 <rt_kprintf>
    300066e8:	4fffb517          	auipc	a0,0x4fffb
    300066ec:	f4850513          	addi	a0,a0,-184 # 80001630 <__FUNCTION__.6+0x40>
    300066f0:	dc4fc0ef          	jal	ra,30002cb4 <rt_kprintf>
    300066f4:	fda00493          	li	s1,-38
    300066f8:	f59ff06f          	j	30006650 <dfs_file_stat+0x74>
    300066fc:	0087a783          	lw	a5,8(a5)
    30006700:	0017f793          	andi	a5,a5,1
    30006704:	02078263          	beqz	a5,30006728 <dfs_file_stat+0x14c>
    30006708:	00090613          	mv	a2,s2
    3000670c:	00040593          	mv	a1,s0
    30006710:	00048513          	mv	a0,s1
    30006714:	000980e7          	jalr	s3
    30006718:	00050493          	mv	s1,a0
    3000671c:	00040513          	mv	a0,s0
    30006720:	b00fb0ef          	jal	ra,30001a20 <rt_free>
    30006724:	f2dff06f          	j	30006650 <dfs_file_stat+0x74>
    30006728:	0084b503          	ld	a0,8(s1)
    3000672c:	00040593          	mv	a1,s0
    30006730:	d94ff0ef          	jal	ra,30005cc4 <dfs_subdir>
    30006734:	00050593          	mv	a1,a0
    30006738:	00090613          	mv	a2,s2
    3000673c:	fd5ff06f          	j	30006710 <dfs_file_stat+0x134>

0000000030006740 <ls>:
    30006740:	f2010113          	addi	sp,sp,-224
    30006744:	0c813823          	sd	s0,208(sp)
    30006748:	0c913423          	sd	s1,200(sp)
    3000674c:	0c113c23          	sd	ra,216(sp)
    30006750:	0d213023          	sd	s2,192(sp)
    30006754:	0b313c23          	sd	s3,184(sp)
    30006758:	0b413823          	sd	s4,176(sp)
    3000675c:	0b513423          	sd	s5,168(sp)
    30006760:	0b613023          	sd	s6,160(sp)
    30006764:	09713c23          	sd	s7,152(sp)
    30006768:	09813823          	sd	s8,144(sp)
    3000676c:	09913423          	sd	s9,136(sp)
    30006770:	00050493          	mv	s1,a0
    30006774:	00050413          	mv	s0,a0
    30006778:	00051c63          	bnez	a0,30006790 <ls+0x50>
    3000677c:	4fffe517          	auipc	a0,0x4fffe
    30006780:	97c50513          	addi	a0,a0,-1668 # 800040f8 <working_directory>
    30006784:	ee1fb0ef          	jal	ra,30002664 <rt_strdup>
    30006788:	00050413          	mv	s0,a0
    3000678c:	10050e63          	beqz	a0,300068a8 <ls+0x168>
    30006790:	00010637          	lui	a2,0x10
    30006794:	00040593          	mv	a1,s0
    30006798:	50007517          	auipc	a0,0x50007
    3000679c:	b8050513          	addi	a0,a0,-1152 # 8000d318 <fd>
    300067a0:	881ff0ef          	jal	ra,30006020 <dfs_file_open>
    300067a4:	12051c63          	bnez	a0,300068dc <ls+0x19c>
    300067a8:	00040593          	mv	a1,s0
    300067ac:	4fffc517          	auipc	a0,0x4fffc
    300067b0:	94450513          	addi	a0,a0,-1724 # 800020f0 <__fsym___cmd_list_fd_name+0x108>
    300067b4:	d00fc0ef          	jal	ra,30002cb4 <rt_kprintf>
    300067b8:	50007a17          	auipc	s4,0x50007
    300067bc:	a58a0a13          	addi	s4,s4,-1448 # 8000d210 <dirent>
    300067c0:	50007a97          	auipc	s5,0x50007
    300067c4:	b58a8a93          	addi	s5,s5,-1192 # 8000d318 <fd>
    300067c8:	50007997          	auipc	s3,0x50007
    300067cc:	a4c98993          	addi	s3,s3,-1460 # 8000d214 <dirent+0x4>
    300067d0:	4fffcb17          	auipc	s6,0x4fffc
    300067d4:	950b0b13          	addi	s6,s6,-1712 # 80002120 <__fsym___cmd_list_fd_name+0x138>
    300067d8:	4fffcb97          	auipc	s7,0x4fffc
    300067dc:	928b8b93          	addi	s7,s7,-1752 # 80002100 <__fsym___cmd_list_fd_name+0x118>
    300067e0:	0000fc37          	lui	s8,0xf
    300067e4:	00004cb7          	lui	s9,0x4
    300067e8:	10400613          	li	a2,260
    300067ec:	00000593          	li	a1,0
    300067f0:	000a0513          	mv	a0,s4
    300067f4:	b51f90ef          	jal	ra,30000344 <memset>
    300067f8:	10400613          	li	a2,260
    300067fc:	000a0593          	mv	a1,s4
    30006800:	000a8513          	mv	a0,s5
    30006804:	ae5ff0ef          	jal	ra,300062e8 <dfs_file_getdents>
    30006808:	08a05463          	blez	a0,30006890 <ls+0x150>
    3000680c:	08000613          	li	a2,128
    30006810:	00000593          	li	a1,0
    30006814:	00010513          	mv	a0,sp
    30006818:	b2df90ef          	jal	ra,30000344 <memset>
    3000681c:	00098593          	mv	a1,s3
    30006820:	00040513          	mv	a0,s0
    30006824:	cfcff0ef          	jal	ra,30005d20 <dfs_normalize_path>
    30006828:	00050913          	mv	s2,a0
    3000682c:	06050263          	beqz	a0,30006890 <ls+0x150>
    30006830:	00010593          	mv	a1,sp
    30006834:	da9ff0ef          	jal	ra,300065dc <dfs_file_stat>
    30006838:	00098593          	mv	a1,s3
    3000683c:	04051663          	bnez	a0,30006888 <ls+0x148>
    30006840:	000b8513          	mv	a0,s7
    30006844:	c70fc0ef          	jal	ra,30002cb4 <rt_kprintf>
    30006848:	01012783          	lw	a5,16(sp)
    3000684c:	0187f7b3          	and	a5,a5,s8
    30006850:	0007879b          	sext.w	a5,a5
    30006854:	03979263          	bne	a5,s9,30006878 <ls+0x138>
    30006858:	4fffc597          	auipc	a1,0x4fffc
    3000685c:	8b058593          	addi	a1,a1,-1872 # 80002108 <__fsym___cmd_list_fd_name+0x120>
    30006860:	4fffc517          	auipc	a0,0x4fffc
    30006864:	8b050513          	addi	a0,a0,-1872 # 80002110 <__fsym___cmd_list_fd_name+0x128>
    30006868:	c4cfc0ef          	jal	ra,30002cb4 <rt_kprintf>
    3000686c:	00090513          	mv	a0,s2
    30006870:	9b0fb0ef          	jal	ra,30001a20 <rt_free>
    30006874:	f75ff06f          	j	300067e8 <ls+0xa8>
    30006878:	03013583          	ld	a1,48(sp)
    3000687c:	4fffc517          	auipc	a0,0x4fffc
    30006880:	89c50513          	addi	a0,a0,-1892 # 80002118 <__fsym___cmd_list_fd_name+0x130>
    30006884:	fe5ff06f          	j	30006868 <ls+0x128>
    30006888:	000b0513          	mv	a0,s6
    3000688c:	fddff06f          	j	30006868 <ls+0x128>
    30006890:	50007517          	auipc	a0,0x50007
    30006894:	a8850513          	addi	a0,a0,-1400 # 8000d318 <fd>
    30006898:	8e5ff0ef          	jal	ra,3000617c <dfs_file_close>
    3000689c:	00049663          	bnez	s1,300068a8 <ls+0x168>
    300068a0:	00040513          	mv	a0,s0
    300068a4:	97cfb0ef          	jal	ra,30001a20 <rt_free>
    300068a8:	0d813083          	ld	ra,216(sp)
    300068ac:	0d013403          	ld	s0,208(sp)
    300068b0:	0c813483          	ld	s1,200(sp)
    300068b4:	0c013903          	ld	s2,192(sp)
    300068b8:	0b813983          	ld	s3,184(sp)
    300068bc:	0b013a03          	ld	s4,176(sp)
    300068c0:	0a813a83          	ld	s5,168(sp)
    300068c4:	0a013b03          	ld	s6,160(sp)
    300068c8:	09813b83          	ld	s7,152(sp)
    300068cc:	09013c03          	ld	s8,144(sp)
    300068d0:	08813c83          	ld	s9,136(sp)
    300068d4:	0e010113          	addi	sp,sp,224
    300068d8:	00008067          	ret
    300068dc:	4fffc517          	auipc	a0,0x4fffc
    300068e0:	85450513          	addi	a0,a0,-1964 # 80002130 <__fsym___cmd_list_fd_name+0x148>
    300068e4:	bd0fc0ef          	jal	ra,30002cb4 <rt_kprintf>
    300068e8:	fb5ff06f          	j	3000689c <ls+0x15c>

00000000300068ec <copydir>:
    300068ec:	de010113          	addi	sp,sp,-544
    300068f0:	21213023          	sd	s2,512(sp)
    300068f4:	1f313c23          	sd	s3,504(sp)
    300068f8:	00050913          	mv	s2,a0
    300068fc:	00058993          	mv	s3,a1
    30006900:	00010637          	lui	a2,0x10
    30006904:	00050593          	mv	a1,a0
    30006908:	00010513          	mv	a0,sp
    3000690c:	20113c23          	sd	ra,536(sp)
    30006910:	20813823          	sd	s0,528(sp)
    30006914:	20913423          	sd	s1,520(sp)
    30006918:	1f413823          	sd	s4,496(sp)
    3000691c:	1f513423          	sd	s5,488(sp)
    30006920:	1f613023          	sd	s6,480(sp)
    30006924:	1d713c23          	sd	s7,472(sp)
    30006928:	1d813823          	sd	s8,464(sp)
    3000692c:	ef4ff0ef          	jal	ra,30006020 <dfs_file_open>
    30006930:	08054a63          	bltz	a0,300069c4 <copydir+0xd8>
    30006934:	4fffca17          	auipc	s4,0x4fffc
    30006938:	824a0a13          	addi	s4,s4,-2012 # 80002158 <__fsym___cmd_list_fd_name+0x170>
    3000693c:	4fffca97          	auipc	s5,0x4fffc
    30006940:	984a8a93          	addi	s5,s5,-1660 # 800022c0 <__fsym_ls_name+0x78>
    30006944:	0000fb37          	lui	s6,0xf
    30006948:	00004bb7          	lui	s7,0x4
    3000694c:	4fffcc17          	auipc	s8,0x4fffc
    30006950:	824c0c13          	addi	s8,s8,-2012 # 80002170 <__fsym___cmd_list_fd_name+0x188>
    30006954:	10400613          	li	a2,260
    30006958:	00000593          	li	a1,0
    3000695c:	0c810513          	addi	a0,sp,200
    30006960:	9e5f90ef          	jal	ra,30000344 <memset>
    30006964:	10400613          	li	a2,260
    30006968:	0c810593          	addi	a1,sp,200
    3000696c:	00010513          	mv	a0,sp
    30006970:	979ff0ef          	jal	ra,300062e8 <dfs_file_getdents>
    30006974:	04a05263          	blez	a0,300069b8 <copydir+0xcc>
    30006978:	000a0593          	mv	a1,s4
    3000697c:	0cc10513          	addi	a0,sp,204
    30006980:	9bdf90ef          	jal	ra,3000033c <strcmp>
    30006984:	fc0508e3          	beqz	a0,30006954 <copydir+0x68>
    30006988:	000a8593          	mv	a1,s5
    3000698c:	0cc10513          	addi	a0,sp,204
    30006990:	9adf90ef          	jal	ra,3000033c <strcmp>
    30006994:	fc0500e3          	beqz	a0,30006954 <copydir+0x68>
    30006998:	0cc10593          	addi	a1,sp,204
    3000699c:	00090513          	mv	a0,s2
    300069a0:	b80ff0ef          	jal	ra,30005d20 <dfs_normalize_path>
    300069a4:	00050413          	mv	s0,a0
    300069a8:	04051e63          	bnez	a0,30006a04 <copydir+0x118>
    300069ac:	4fffb517          	auipc	a0,0x4fffb
    300069b0:	7b450513          	addi	a0,a0,1972 # 80002160 <__fsym___cmd_list_fd_name+0x178>
    300069b4:	b00fc0ef          	jal	ra,30002cb4 <rt_kprintf>
    300069b8:	00010513          	mv	a0,sp
    300069bc:	fc0ff0ef          	jal	ra,3000617c <dfs_file_close>
    300069c0:	0140006f          	j	300069d4 <copydir+0xe8>
    300069c4:	00090593          	mv	a1,s2
    300069c8:	4fffb517          	auipc	a0,0x4fffb
    300069cc:	78050513          	addi	a0,a0,1920 # 80002148 <__fsym___cmd_list_fd_name+0x160>
    300069d0:	ae4fc0ef          	jal	ra,30002cb4 <rt_kprintf>
    300069d4:	21813083          	ld	ra,536(sp)
    300069d8:	21013403          	ld	s0,528(sp)
    300069dc:	20813483          	ld	s1,520(sp)
    300069e0:	20013903          	ld	s2,512(sp)
    300069e4:	1f813983          	ld	s3,504(sp)
    300069e8:	1f013a03          	ld	s4,496(sp)
    300069ec:	1e813a83          	ld	s5,488(sp)
    300069f0:	1e013b03          	ld	s6,480(sp)
    300069f4:	1d813b83          	ld	s7,472(sp)
    300069f8:	1d013c03          	ld	s8,464(sp)
    300069fc:	22010113          	addi	sp,sp,544
    30006a00:	00008067          	ret
    30006a04:	0cc10593          	addi	a1,sp,204
    30006a08:	00098513          	mv	a0,s3
    30006a0c:	b14ff0ef          	jal	ra,30005d20 <dfs_normalize_path>
    30006a10:	00050493          	mv	s1,a0
    30006a14:	00051e63          	bnez	a0,30006a30 <copydir+0x144>
    30006a18:	4fffb517          	auipc	a0,0x4fffb
    30006a1c:	74850513          	addi	a0,a0,1864 # 80002160 <__fsym___cmd_list_fd_name+0x178>
    30006a20:	a94fc0ef          	jal	ra,30002cb4 <rt_kprintf>
    30006a24:	00040513          	mv	a0,s0
    30006a28:	ff9fa0ef          	jal	ra,30001a20 <rt_free>
    30006a2c:	f8dff06f          	j	300069b8 <copydir+0xcc>
    30006a30:	00000593          	li	a1,0
    30006a34:	08000613          	li	a2,128
    30006a38:	04810513          	addi	a0,sp,72
    30006a3c:	909f90ef          	jal	ra,30000344 <memset>
    30006a40:	04810593          	addi	a1,sp,72
    30006a44:	00040513          	mv	a0,s0
    30006a48:	b95ff0ef          	jal	ra,300065dc <dfs_file_stat>
    30006a4c:	00050a63          	beqz	a0,30006a60 <copydir+0x174>
    30006a50:	0cc10593          	addi	a1,sp,204
    30006a54:	000c0513          	mv	a0,s8
    30006a58:	a5cfc0ef          	jal	ra,30002cb4 <rt_kprintf>
    30006a5c:	ef9ff06f          	j	30006954 <copydir+0x68>
    30006a60:	05812783          	lw	a5,88(sp)
    30006a64:	0167f7b3          	and	a5,a5,s6
    30006a68:	0007879b          	sext.w	a5,a5
    30006a6c:	03779863          	bne	a5,s7,30006a9c <copydir+0x1b0>
    30006a70:	00000593          	li	a1,0
    30006a74:	00048513          	mv	a0,s1
    30006a78:	2d1000ef          	jal	ra,30007548 <mkdir>
    30006a7c:	00048593          	mv	a1,s1
    30006a80:	00040513          	mv	a0,s0
    30006a84:	e69ff0ef          	jal	ra,300068ec <copydir>
    30006a88:	00040513          	mv	a0,s0
    30006a8c:	f95fa0ef          	jal	ra,30001a20 <rt_free>
    30006a90:	00048513          	mv	a0,s1
    30006a94:	f8dfa0ef          	jal	ra,30001a20 <rt_free>
    30006a98:	ebdff06f          	j	30006954 <copydir+0x68>
    30006a9c:	00048593          	mv	a1,s1
    30006aa0:	00040513          	mv	a0,s0
    30006aa4:	9b9ff0ef          	jal	ra,3000645c <copyfile>
    30006aa8:	fe1ff06f          	j	30006a88 <copydir+0x19c>

0000000030006aac <copy>:
    30006aac:	f6010113          	addi	sp,sp,-160
    30006ab0:	09213023          	sd	s2,128(sp)
    30006ab4:	00058913          	mv	s2,a1
    30006ab8:	00010593          	mv	a1,sp
    30006abc:	08813823          	sd	s0,144(sp)
    30006ac0:	08113c23          	sd	ra,152(sp)
    30006ac4:	08913423          	sd	s1,136(sp)
    30006ac8:	00050413          	mv	s0,a0
    30006acc:	b11ff0ef          	jal	ra,300065dc <dfs_file_stat>
    30006ad0:	02055663          	bgez	a0,30006afc <copy+0x50>
    30006ad4:	00040593          	mv	a1,s0
    30006ad8:	4fffb517          	auipc	a0,0x4fffb
    30006adc:	6b050513          	addi	a0,a0,1712 # 80002188 <__fsym___cmd_list_fd_name+0x1a0>
    30006ae0:	9d4fc0ef          	jal	ra,30002cb4 <rt_kprintf>
    30006ae4:	09813083          	ld	ra,152(sp)
    30006ae8:	09013403          	ld	s0,144(sp)
    30006aec:	08813483          	ld	s1,136(sp)
    30006af0:	08013903          	ld	s2,128(sp)
    30006af4:	0a010113          	addi	sp,sp,160
    30006af8:	00008067          	ret
    30006afc:	01012783          	lw	a5,16(sp)
    30006b00:	0000f737          	lui	a4,0xf
    30006b04:	00100493          	li	s1,1
    30006b08:	00e7f7b3          	and	a5,a5,a4
    30006b0c:	00004737          	lui	a4,0x4
    30006b10:	00e78463          	beq	a5,a4,30006b18 <copy+0x6c>
    30006b14:	00200493          	li	s1,2
    30006b18:	00010593          	mv	a1,sp
    30006b1c:	00090513          	mv	a0,s2
    30006b20:	abdff0ef          	jal	ra,300065dc <dfs_file_stat>
    30006b24:	00054e63          	bltz	a0,30006b40 <copy+0x94>
    30006b28:	01012783          	lw	a5,16(sp)
    30006b2c:	0000f737          	lui	a4,0xf
    30006b30:	00e7f7b3          	and	a5,a5,a4
    30006b34:	00004737          	lui	a4,0x4
    30006b38:	06e79463          	bne	a5,a4,30006ba0 <copy+0xf4>
    30006b3c:	0044e493          	ori	s1,s1,4
    30006b40:	0094f713          	andi	a4,s1,9
    30006b44:	00900693          	li	a3,9
    30006b48:	00048793          	mv	a5,s1
    30006b4c:	4fffb517          	auipc	a0,0x4fffb
    30006b50:	65450513          	addi	a0,a0,1620 # 800021a0 <__fsym___cmd_list_fd_name+0x1b8>
    30006b54:	04d70263          	beq	a4,a3,30006b98 <copy+0xec>
    30006b58:	0044f713          	andi	a4,s1,4
    30006b5c:	0024f493          	andi	s1,s1,2
    30006b60:	06048863          	beqz	s1,30006bd0 <copy+0x124>
    30006b64:	04070e63          	beqz	a4,30006bc0 <copy+0x114>
    30006b68:	02f00593          	li	a1,47
    30006b6c:	00040513          	mv	a0,s0
    30006b70:	fe4f90ef          	jal	ra,30000354 <strrchr>
    30006b74:	00040593          	mv	a1,s0
    30006b78:	00050463          	beqz	a0,30006b80 <copy+0xd4>
    30006b7c:	00150593          	addi	a1,a0,1
    30006b80:	00090513          	mv	a0,s2
    30006b84:	99cff0ef          	jal	ra,30005d20 <dfs_normalize_path>
    30006b88:	00050493          	mv	s1,a0
    30006b8c:	00051e63          	bnez	a0,30006ba8 <copy+0xfc>
    30006b90:	4fffb517          	auipc	a0,0x4fffb
    30006b94:	4a050513          	addi	a0,a0,1184 # 80002030 <__fsym___cmd_list_fd_name+0x48>
    30006b98:	91cfc0ef          	jal	ra,30002cb4 <rt_kprintf>
    30006b9c:	f49ff06f          	j	30006ae4 <copy+0x38>
    30006ba0:	0084e493          	ori	s1,s1,8
    30006ba4:	f9dff06f          	j	30006b40 <copy+0x94>
    30006ba8:	00050593          	mv	a1,a0
    30006bac:	00040513          	mv	a0,s0
    30006bb0:	8adff0ef          	jal	ra,3000645c <copyfile>
    30006bb4:	00048513          	mv	a0,s1
    30006bb8:	e69fa0ef          	jal	ra,30001a20 <rt_free>
    30006bbc:	f29ff06f          	j	30006ae4 <copy+0x38>
    30006bc0:	00090593          	mv	a1,s2
    30006bc4:	00040513          	mv	a0,s0
    30006bc8:	895ff0ef          	jal	ra,3000645c <copyfile>
    30006bcc:	f19ff06f          	j	30006ae4 <copy+0x38>
    30006bd0:	04070263          	beqz	a4,30006c14 <copy+0x168>
    30006bd4:	02f00593          	li	a1,47
    30006bd8:	00040513          	mv	a0,s0
    30006bdc:	f78f90ef          	jal	ra,30000354 <strrchr>
    30006be0:	00040593          	mv	a1,s0
    30006be4:	00050463          	beqz	a0,30006bec <copy+0x140>
    30006be8:	00150593          	addi	a1,a0,1
    30006bec:	00090513          	mv	a0,s2
    30006bf0:	930ff0ef          	jal	ra,30005d20 <dfs_normalize_path>
    30006bf4:	00050493          	mv	s1,a0
    30006bf8:	f8050ce3          	beqz	a0,30006b90 <copy+0xe4>
    30006bfc:	00000593          	li	a1,0
    30006c00:	149000ef          	jal	ra,30007548 <mkdir>
    30006c04:	00048593          	mv	a1,s1
    30006c08:	00040513          	mv	a0,s0
    30006c0c:	ce1ff0ef          	jal	ra,300068ec <copydir>
    30006c10:	fa5ff06f          	j	30006bb4 <copy+0x108>
    30006c14:	00c7f793          	andi	a5,a5,12
    30006c18:	00079863          	bnez	a5,30006c28 <copy+0x17c>
    30006c1c:	00000593          	li	a1,0
    30006c20:	00090513          	mv	a0,s2
    30006c24:	125000ef          	jal	ra,30007548 <mkdir>
    30006c28:	00090593          	mv	a1,s2
    30006c2c:	00040513          	mv	a0,s0
    30006c30:	cbdff0ef          	jal	ra,300068ec <copydir>
    30006c34:	eb1ff06f          	j	30006ae4 <copy+0x38>

0000000030006c38 <dfs_file_rename>:
    30006c38:	fd010113          	addi	sp,sp,-48
    30006c3c:	02813023          	sd	s0,32(sp)
    30006c40:	00058413          	mv	s0,a1
    30006c44:	00050593          	mv	a1,a0
    30006c48:	00000513          	li	a0,0
    30006c4c:	01213823          	sd	s2,16(sp)
    30006c50:	02113423          	sd	ra,40(sp)
    30006c54:	00913c23          	sd	s1,24(sp)
    30006c58:	01313423          	sd	s3,8(sp)
    30006c5c:	01413023          	sd	s4,0(sp)
    30006c60:	8c0ff0ef          	jal	ra,30005d20 <dfs_normalize_path>
    30006c64:	00050913          	mv	s2,a0
    30006c68:	04051063          	bnez	a0,30006ca8 <dfs_file_rename+0x70>
    30006c6c:	00000493          	li	s1,0
    30006c70:	ffe00413          	li	s0,-2
    30006c74:	00090513          	mv	a0,s2
    30006c78:	da9fa0ef          	jal	ra,30001a20 <rt_free>
    30006c7c:	00048513          	mv	a0,s1
    30006c80:	da1fa0ef          	jal	ra,30001a20 <rt_free>
    30006c84:	02813083          	ld	ra,40(sp)
    30006c88:	00040513          	mv	a0,s0
    30006c8c:	02013403          	ld	s0,32(sp)
    30006c90:	01813483          	ld	s1,24(sp)
    30006c94:	01013903          	ld	s2,16(sp)
    30006c98:	00813983          	ld	s3,8(sp)
    30006c9c:	00013a03          	ld	s4,0(sp)
    30006ca0:	03010113          	addi	sp,sp,48
    30006ca4:	00008067          	ret
    30006ca8:	00040593          	mv	a1,s0
    30006cac:	00000513          	li	a0,0
    30006cb0:	870ff0ef          	jal	ra,30005d20 <dfs_normalize_path>
    30006cb4:	00050493          	mv	s1,a0
    30006cb8:	fa050ae3          	beqz	a0,30006c6c <dfs_file_rename+0x34>
    30006cbc:	00090513          	mv	a0,s2
    30006cc0:	14c000ef          	jal	ra,30006e0c <dfs_filesystem_lookup>
    30006cc4:	00050993          	mv	s3,a0
    30006cc8:	00048513          	mv	a0,s1
    30006ccc:	140000ef          	jal	ra,30006e0c <dfs_filesystem_lookup>
    30006cd0:	fee00413          	li	s0,-18
    30006cd4:	faa990e3          	bne	s3,a0,30006c74 <dfs_file_rename+0x3c>
    30006cd8:	0109b783          	ld	a5,16(s3)
    30006cdc:	fda00413          	li	s0,-38
    30006ce0:	0487ba03          	ld	s4,72(a5)
    30006ce4:	f80a08e3          	beqz	s4,30006c74 <dfs_file_rename+0x3c>
    30006ce8:	0087a783          	lw	a5,8(a5)
    30006cec:	0017f793          	andi	a5,a5,1
    30006cf0:	00078c63          	beqz	a5,30006d08 <dfs_file_rename+0xd0>
    30006cf4:	00048613          	mv	a2,s1
    30006cf8:	00090593          	mv	a1,s2
    30006cfc:	000a00e7          	jalr	s4
    30006d00:	00050413          	mv	s0,a0
    30006d04:	f71ff06f          	j	30006c74 <dfs_file_rename+0x3c>
    30006d08:	0089b503          	ld	a0,8(s3)
    30006d0c:	00090593          	mv	a1,s2
    30006d10:	fb5fe0ef          	jal	ra,30005cc4 <dfs_subdir>
    30006d14:	00050413          	mv	s0,a0
    30006d18:	0089b503          	ld	a0,8(s3)
    30006d1c:	00048593          	mv	a1,s1
    30006d20:	fa5fe0ef          	jal	ra,30005cc4 <dfs_subdir>
    30006d24:	00050613          	mv	a2,a0
    30006d28:	00040593          	mv	a1,s0
    30006d2c:	00098513          	mv	a0,s3
    30006d30:	fcdff06f          	j	30006cfc <dfs_file_rename+0xc4>

0000000030006d34 <dfs_register>:
    30006d34:	fc010113          	addi	sp,sp,-64
    30006d38:	02813823          	sd	s0,48(sp)
    30006d3c:	02913423          	sd	s1,40(sp)
    30006d40:	03213023          	sd	s2,32(sp)
    30006d44:	01313c23          	sd	s3,24(sp)
    30006d48:	02113c23          	sd	ra,56(sp)
    30006d4c:	00050413          	mv	s0,a0
    30006d50:	50006917          	auipc	s2,0x50006
    30006d54:	42890913          	addi	s2,s2,1064 # 8000d178 <filesystem_operation_table>
    30006d58:	c59fe0ef          	jal	ra,300059b0 <dfs_lock>
    30006d5c:	00000493          	li	s1,0
    30006d60:	50006997          	auipc	s3,0x50006
    30006d64:	42898993          	addi	s3,s3,1064 # 8000d188 <filesystem_table>
    30006d68:	00093783          	ld	a5,0(s2)
    30006d6c:	04079663          	bnez	a5,30006db8 <dfs_register+0x84>
    30006d70:	00049463          	bnez	s1,30006d78 <dfs_register+0x44>
    30006d74:	00090493          	mv	s1,s2
    30006d78:	00890913          	addi	s2,s2,8
    30006d7c:	ff3916e3          	bne	s2,s3,30006d68 <dfs_register+0x34>
    30006d80:	08049063          	bnez	s1,30006e00 <dfs_register+0xcc>
    30006d84:	fe400513          	li	a0,-28
    30006d88:	d3cfb0ef          	jal	ra,300022c4 <rt_set_errno>
    30006d8c:	4fffb517          	auipc	a0,0x4fffb
    30006d90:	19c50513          	addi	a0,a0,412 # 80001f28 <CSWTCH.17+0x118>
    30006d94:	f21fb0ef          	jal	ra,30002cb4 <rt_kprintf>
    30006d98:	00043583          	ld	a1,0(s0)
    30006d9c:	4fffb517          	auipc	a0,0x4fffb
    30006da0:	4b450513          	addi	a0,a0,1204 # 80002250 <__fsym_ls_name+0x8>
    30006da4:	f11fb0ef          	jal	ra,30002cb4 <rt_kprintf>
    30006da8:	4fffb517          	auipc	a0,0x4fffb
    30006dac:	88850513          	addi	a0,a0,-1912 # 80001630 <__FUNCTION__.6+0x40>
    30006db0:	f05fb0ef          	jal	ra,30002cb4 <rt_kprintf>
    30006db4:	0200006f          	j	30006dd4 <dfs_register+0xa0>
    30006db8:	00043583          	ld	a1,0(s0)
    30006dbc:	0007b503          	ld	a0,0(a5)
    30006dc0:	d7cf90ef          	jal	ra,3000033c <strcmp>
    30006dc4:	fa051ae3          	bnez	a0,30006d78 <dfs_register+0x44>
    30006dc8:	fef00513          	li	a0,-17
    30006dcc:	cf8fb0ef          	jal	ra,300022c4 <rt_set_errno>
    30006dd0:	fa048ae3          	beqz	s1,30006d84 <dfs_register+0x50>
    30006dd4:	fff00513          	li	a0,-1
    30006dd8:	00a13423          	sd	a0,8(sp)
    30006ddc:	c41fe0ef          	jal	ra,30005a1c <dfs_unlock>
    30006de0:	03813083          	ld	ra,56(sp)
    30006de4:	03013403          	ld	s0,48(sp)
    30006de8:	00813503          	ld	a0,8(sp)
    30006dec:	02813483          	ld	s1,40(sp)
    30006df0:	02013903          	ld	s2,32(sp)
    30006df4:	01813983          	ld	s3,24(sp)
    30006df8:	04010113          	addi	sp,sp,64
    30006dfc:	00008067          	ret
    30006e00:	0084b023          	sd	s0,0(s1)
    30006e04:	00000513          	li	a0,0
    30006e08:	fd1ff06f          	j	30006dd8 <dfs_register+0xa4>

0000000030006e0c <dfs_filesystem_lookup>:
    30006e0c:	fa010113          	addi	sp,sp,-96
    30006e10:	05213023          	sd	s2,64(sp)
    30006e14:	04113c23          	sd	ra,88(sp)
    30006e18:	04813823          	sd	s0,80(sp)
    30006e1c:	04913423          	sd	s1,72(sp)
    30006e20:	03313c23          	sd	s3,56(sp)
    30006e24:	03413823          	sd	s4,48(sp)
    30006e28:	03513423          	sd	s5,40(sp)
    30006e2c:	03613023          	sd	s6,32(sp)
    30006e30:	01713c23          	sd	s7,24(sp)
    30006e34:	01813823          	sd	s8,16(sp)
    30006e38:	01913423          	sd	s9,8(sp)
    30006e3c:	01a13023          	sd	s10,0(sp)
    30006e40:	00050913          	mv	s2,a0
    30006e44:	00051e63          	bnez	a0,30006e60 <dfs_filesystem_lookup+0x54>
    30006e48:	05600613          	li	a2,86
    30006e4c:	4fffb597          	auipc	a1,0x4fffb
    30006e50:	55c58593          	addi	a1,a1,1372 # 800023a8 <__FUNCTION__.1>
    30006e54:	4fffb517          	auipc	a0,0x4fffb
    30006e58:	43450513          	addi	a0,a0,1076 # 80002288 <__fsym_ls_name+0x40>
    30006e5c:	fddfb0ef          	jal	ra,30002e38 <rt_assert_handler>
    30006e60:	fff00a93          	li	s5,-1
    30006e64:	b4dfe0ef          	jal	ra,300059b0 <dfs_lock>
    30006e68:	00000a13          	li	s4,0
    30006e6c:	00000993          	li	s3,0
    30006e70:	50006497          	auipc	s1,0x50006
    30006e74:	31848493          	addi	s1,s1,792 # 8000d188 <filesystem_table>
    30006e78:	020ada93          	srli	s5,s5,0x20
    30006e7c:	00100b93          	li	s7,1
    30006e80:	02f00c13          	li	s8,47
    30006e84:	50006b17          	auipc	s6,0x50006
    30006e88:	344b0b13          	addi	s6,s6,836 # 8000d1c8 <fslock>
    30006e8c:	0084bd03          	ld	s10,8(s1)
    30006e90:	040d0863          	beqz	s10,30006ee0 <dfs_filesystem_lookup+0xd4>
    30006e94:	0104b783          	ld	a5,16(s1)
    30006e98:	04078463          	beqz	a5,30006ee0 <dfs_filesystem_lookup+0xd4>
    30006e9c:	000d0513          	mv	a0,s10
    30006ea0:	c38f90ef          	jal	ra,300002d8 <strlen>
    30006ea4:	00050c9b          	sext.w	s9,a0
    30006ea8:	034cec63          	bltu	s9,s4,30006ee0 <dfs_filesystem_lookup+0xd4>
    30006eac:	01557433          	and	s0,a0,s5
    30006eb0:	00040613          	mv	a2,s0
    30006eb4:	00090593          	mv	a1,s2
    30006eb8:	000d0513          	mv	a0,s10
    30006ebc:	c84f90ef          	jal	ra,30000340 <strncmp>
    30006ec0:	02051063          	bnez	a0,30006ee0 <dfs_filesystem_lookup+0xd4>
    30006ec4:	079bf263          	bgeu	s7,s9,30006f28 <dfs_filesystem_lookup+0x11c>
    30006ec8:	00090513          	mv	a0,s2
    30006ecc:	c0cf90ef          	jal	ra,300002d8 <strlen>
    30006ed0:	04a47c63          	bgeu	s0,a0,30006f28 <dfs_filesystem_lookup+0x11c>
    30006ed4:	00890433          	add	s0,s2,s0
    30006ed8:	00044783          	lbu	a5,0(s0)
    30006edc:	05878663          	beq	a5,s8,30006f28 <dfs_filesystem_lookup+0x11c>
    30006ee0:	02048493          	addi	s1,s1,32
    30006ee4:	fb6494e3          	bne	s1,s6,30006e8c <dfs_filesystem_lookup+0x80>
    30006ee8:	b35fe0ef          	jal	ra,30005a1c <dfs_unlock>
    30006eec:	05813083          	ld	ra,88(sp)
    30006ef0:	05013403          	ld	s0,80(sp)
    30006ef4:	04813483          	ld	s1,72(sp)
    30006ef8:	04013903          	ld	s2,64(sp)
    30006efc:	03013a03          	ld	s4,48(sp)
    30006f00:	02813a83          	ld	s5,40(sp)
    30006f04:	02013b03          	ld	s6,32(sp)
    30006f08:	01813b83          	ld	s7,24(sp)
    30006f0c:	01013c03          	ld	s8,16(sp)
    30006f10:	00813c83          	ld	s9,8(sp)
    30006f14:	00013d03          	ld	s10,0(sp)
    30006f18:	00098513          	mv	a0,s3
    30006f1c:	03813983          	ld	s3,56(sp)
    30006f20:	06010113          	addi	sp,sp,96
    30006f24:	00008067          	ret
    30006f28:	000c8a13          	mv	s4,s9
    30006f2c:	00048993          	mv	s3,s1
    30006f30:	fb1ff06f          	j	30006ee0 <dfs_filesystem_lookup+0xd4>

0000000030006f34 <dfs_mount>:
    30006f34:	f5010113          	addi	sp,sp,-176
    30006f38:	07513c23          	sd	s5,120(sp)
    30006f3c:	07613823          	sd	s6,112(sp)
    30006f40:	07713423          	sd	s7,104(sp)
    30006f44:	07813023          	sd	s8,96(sp)
    30006f48:	0a113423          	sd	ra,168(sp)
    30006f4c:	0a813023          	sd	s0,160(sp)
    30006f50:	08913c23          	sd	s1,152(sp)
    30006f54:	09213823          	sd	s2,144(sp)
    30006f58:	09313423          	sd	s3,136(sp)
    30006f5c:	09413023          	sd	s4,128(sp)
    30006f60:	05913c23          	sd	s9,88(sp)
    30006f64:	00058b13          	mv	s6,a1
    30006f68:	00060a93          	mv	s5,a2
    30006f6c:	00068b93          	mv	s7,a3
    30006f70:	00070c13          	mv	s8,a4
    30006f74:	04050a63          	beqz	a0,30006fc8 <dfs_mount+0x94>
    30006f78:	cc5f90ef          	jal	ra,30000c3c <rt_device_find>
    30006f7c:	00050493          	mv	s1,a0
    30006f80:	04051663          	bnez	a0,30006fcc <dfs_mount+0x98>
    30006f84:	fed00513          	li	a0,-19
    30006f88:	b3cfb0ef          	jal	ra,300022c4 <rt_set_errno>
    30006f8c:	fff00793          	li	a5,-1
    30006f90:	0a813083          	ld	ra,168(sp)
    30006f94:	0a013403          	ld	s0,160(sp)
    30006f98:	09813483          	ld	s1,152(sp)
    30006f9c:	09013903          	ld	s2,144(sp)
    30006fa0:	08813983          	ld	s3,136(sp)
    30006fa4:	08013a03          	ld	s4,128(sp)
    30006fa8:	07813a83          	ld	s5,120(sp)
    30006fac:	07013b03          	ld	s6,112(sp)
    30006fb0:	06813b83          	ld	s7,104(sp)
    30006fb4:	06013c03          	ld	s8,96(sp)
    30006fb8:	05813c83          	ld	s9,88(sp)
    30006fbc:	00078513          	mv	a0,a5
    30006fc0:	0b010113          	addi	sp,sp,176
    30006fc4:	00008067          	ret
    30006fc8:	00050493          	mv	s1,a0
    30006fcc:	9e5fe0ef          	jal	ra,300059b0 <dfs_lock>
    30006fd0:	50006417          	auipc	s0,0x50006
    30006fd4:	1a840413          	addi	s0,s0,424 # 8000d178 <filesystem_operation_table>
    30006fd8:	00043783          	ld	a5,0(s0)
    30006fdc:	50006917          	auipc	s2,0x50006
    30006fe0:	1ac90913          	addi	s2,s2,428 # 8000d188 <filesystem_table>
    30006fe4:	00078c63          	beqz	a5,30006ffc <dfs_mount+0xc8>
    30006fe8:	0007b503          	ld	a0,0(a5)
    30006fec:	000a8593          	mv	a1,s5
    30006ff0:	00040993          	mv	s3,s0
    30006ff4:	b48f90ef          	jal	ra,3000033c <strcmp>
    30006ff8:	02050a63          	beqz	a0,3000702c <dfs_mount+0xf8>
    30006ffc:	00843783          	ld	a5,8(s0)
    30007000:	50006997          	auipc	s3,0x50006
    30007004:	18898993          	addi	s3,s3,392 # 8000d188 <filesystem_table>
    30007008:	02078263          	beqz	a5,3000702c <dfs_mount+0xf8>
    3000700c:	0007b503          	ld	a0,0(a5)
    30007010:	000a8593          	mv	a1,s5
    30007014:	50006997          	auipc	s3,0x50006
    30007018:	16c98993          	addi	s3,s3,364 # 8000d180 <filesystem_operation_table+0x8>
    3000701c:	b20f90ef          	jal	ra,3000033c <strcmp>
    30007020:	00050663          	beqz	a0,3000702c <dfs_mount+0xf8>
    30007024:	50006997          	auipc	s3,0x50006
    30007028:	16498993          	addi	s3,s3,356 # 8000d188 <filesystem_table>
    3000702c:	9f1fe0ef          	jal	ra,30005a1c <dfs_unlock>
    30007030:	f5298ae3          	beq	s3,s2,30006f84 <dfs_mount+0x50>
    30007034:	0009b783          	ld	a5,0(s3)
    30007038:	00078663          	beqz	a5,30007044 <dfs_mount+0x110>
    3000703c:	0187b783          	ld	a5,24(a5)
    30007040:	00079663          	bnez	a5,3000704c <dfs_mount+0x118>
    30007044:	fda00513          	li	a0,-38
    30007048:	f41ff06f          	j	30006f88 <dfs_mount+0x54>
    3000704c:	000b0593          	mv	a1,s6
    30007050:	00000513          	li	a0,0
    30007054:	ccdfe0ef          	jal	ra,30005d20 <dfs_normalize_path>
    30007058:	00050913          	mv	s2,a0
    3000705c:	00051663          	bnez	a0,30007068 <dfs_mount+0x134>
    30007060:	fec00513          	li	a0,-20
    30007064:	f25ff06f          	j	30006f88 <dfs_mount+0x54>
    30007068:	4fffb597          	auipc	a1,0x4fffb
    3000706c:	f9058593          	addi	a1,a1,-112 # 80001ff8 <__fsym___cmd_list_fd_name+0x10>
    30007070:	accf90ef          	jal	ra,3000033c <strcmp>
    30007074:	04050063          	beqz	a0,300070b4 <dfs_mount+0x180>
    30007078:	4fffb597          	auipc	a1,0x4fffb
    3000707c:	ea858593          	addi	a1,a1,-344 # 80001f20 <CSWTCH.17+0x110>
    30007080:	00090513          	mv	a0,s2
    30007084:	ab8f90ef          	jal	ra,3000033c <strcmp>
    30007088:	02050663          	beqz	a0,300070b4 <dfs_mount+0x180>
    3000708c:	00010637          	lui	a2,0x10
    30007090:	00090593          	mv	a1,s2
    30007094:	00810513          	addi	a0,sp,8
    30007098:	f89fe0ef          	jal	ra,30006020 <dfs_file_open>
    3000709c:	00055863          	bgez	a0,300070ac <dfs_mount+0x178>
    300070a0:	00090513          	mv	a0,s2
    300070a4:	97dfa0ef          	jal	ra,30001a20 <rt_free>
    300070a8:	fb9ff06f          	j	30007060 <dfs_mount+0x12c>
    300070ac:	00810513          	addi	a0,sp,8
    300070b0:	8ccff0ef          	jal	ra,3000617c <dfs_file_close>
    300070b4:	8fdfe0ef          	jal	ra,300059b0 <dfs_lock>
    300070b8:	00000413          	li	s0,0
    300070bc:	50006a17          	auipc	s4,0x50006
    300070c0:	0cca0a13          	addi	s4,s4,204 # 8000d188 <filesystem_table>
    300070c4:	50006c97          	auipc	s9,0x50006
    300070c8:	104c8c93          	addi	s9,s9,260 # 8000d1c8 <fslock>
    300070cc:	010a3783          	ld	a5,16(s4)
    300070d0:	04079663          	bnez	a5,3000711c <dfs_mount+0x1e8>
    300070d4:	00041463          	bnez	s0,300070dc <dfs_mount+0x1a8>
    300070d8:	000a0413          	mv	s0,s4
    300070dc:	020a0a13          	addi	s4,s4,32
    300070e0:	ff9a16e3          	bne	s4,s9,300070cc <dfs_mount+0x198>
    300070e4:	06041063          	bnez	s0,30007144 <dfs_mount+0x210>
    300070e8:	fe400513          	li	a0,-28
    300070ec:	9d8fb0ef          	jal	ra,300022c4 <rt_set_errno>
    300070f0:	4fffb517          	auipc	a0,0x4fffb
    300070f4:	e3850513          	addi	a0,a0,-456 # 80001f28 <CSWTCH.17+0x118>
    300070f8:	bbdfb0ef          	jal	ra,30002cb4 <rt_kprintf>
    300070fc:	000a8593          	mv	a1,s5
    30007100:	4fffb517          	auipc	a0,0x4fffb
    30007104:	19050513          	addi	a0,a0,400 # 80002290 <__fsym_ls_name+0x48>
    30007108:	badfb0ef          	jal	ra,30002cb4 <rt_kprintf>
    3000710c:	4fffa517          	auipc	a0,0x4fffa
    30007110:	52450513          	addi	a0,a0,1316 # 80001630 <__FUNCTION__.6+0x40>
    30007114:	ba1fb0ef          	jal	ra,30002cb4 <rt_kprintf>
    30007118:	01c0006f          	j	30007134 <dfs_mount+0x200>
    3000711c:	008a3503          	ld	a0,8(s4)
    30007120:	000b0593          	mv	a1,s6
    30007124:	a18f90ef          	jal	ra,3000033c <strcmp>
    30007128:	fa051ae3          	bnez	a0,300070dc <dfs_mount+0x1a8>
    3000712c:	fea00513          	li	a0,-22
    30007130:	994fb0ef          	jal	ra,300022c4 <rt_set_errno>
    30007134:	8e9fe0ef          	jal	ra,30005a1c <dfs_unlock>
    30007138:	00090513          	mv	a0,s2
    3000713c:	8e5fa0ef          	jal	ra,30001a20 <rt_free>
    30007140:	e4dff06f          	j	30006f8c <dfs_mount+0x58>
    30007144:	0009b783          	ld	a5,0(s3)
    30007148:	01243423          	sd	s2,8(s0)
    3000714c:	00943023          	sd	s1,0(s0)
    30007150:	00f43823          	sd	a5,16(s0)
    30007154:	8c9fe0ef          	jal	ra,30005a1c <dfs_unlock>
    30007158:	02048663          	beqz	s1,30007184 <dfs_mount+0x250>
    3000715c:	00043503          	ld	a0,0(s0)
    30007160:	00300593          	li	a1,3
    30007164:	b59f90ef          	jal	ra,30000cbc <rt_device_open>
    30007168:	00050e63          	beqz	a0,30007184 <dfs_mount+0x250>
    3000716c:	845fe0ef          	jal	ra,300059b0 <dfs_lock>
    30007170:	02000613          	li	a2,32
    30007174:	00000593          	li	a1,0
    30007178:	00040513          	mv	a0,s0
    3000717c:	9c8f90ef          	jal	ra,30000344 <memset>
    30007180:	fb5ff06f          	j	30007134 <dfs_mount+0x200>
    30007184:	0009b783          	ld	a5,0(s3)
    30007188:	000c0613          	mv	a2,s8
    3000718c:	000b8593          	mv	a1,s7
    30007190:	0187b783          	ld	a5,24(a5)
    30007194:	00040513          	mv	a0,s0
    30007198:	000780e7          	jalr	a5
    3000719c:	00000793          	li	a5,0
    300071a0:	de0558e3          	bgez	a0,30006f90 <dfs_mount+0x5c>
    300071a4:	fc0484e3          	beqz	s1,3000716c <dfs_mount+0x238>
    300071a8:	00043503          	ld	a0,0(s0)
    300071ac:	c69f90ef          	jal	ra,30000e14 <rt_device_close>
    300071b0:	fbdff06f          	j	3000716c <dfs_mount+0x238>

00000000300071b4 <dfs_unmount>:
    300071b4:	fe010113          	addi	sp,sp,-32
    300071b8:	00050593          	mv	a1,a0
    300071bc:	00000513          	li	a0,0
    300071c0:	00113c23          	sd	ra,24(sp)
    300071c4:	00813823          	sd	s0,16(sp)
    300071c8:	00913423          	sd	s1,8(sp)
    300071cc:	b55fe0ef          	jal	ra,30005d20 <dfs_normalize_path>
    300071d0:	02051263          	bnez	a0,300071f4 <dfs_unmount+0x40>
    300071d4:	fec00513          	li	a0,-20
    300071d8:	8ecfb0ef          	jal	ra,300022c4 <rt_set_errno>
    300071dc:	fff00513          	li	a0,-1
    300071e0:	01813083          	ld	ra,24(sp)
    300071e4:	01013403          	ld	s0,16(sp)
    300071e8:	00813483          	ld	s1,8(sp)
    300071ec:	02010113          	addi	sp,sp,32
    300071f0:	00008067          	ret
    300071f4:	00050493          	mv	s1,a0
    300071f8:	50006417          	auipc	s0,0x50006
    300071fc:	f9040413          	addi	s0,s0,-112 # 8000d188 <filesystem_table>
    30007200:	fb0fe0ef          	jal	ra,300059b0 <dfs_lock>
    30007204:	00843503          	ld	a0,8(s0)
    30007208:	00050863          	beqz	a0,30007218 <dfs_unmount+0x64>
    3000720c:	00048593          	mv	a1,s1
    30007210:	92cf90ef          	jal	ra,3000033c <strcmp>
    30007214:	02050863          	beqz	a0,30007244 <dfs_unmount+0x90>
    30007218:	02843503          	ld	a0,40(s0)
    3000721c:	00050863          	beqz	a0,3000722c <dfs_unmount+0x78>
    30007220:	00048593          	mv	a1,s1
    30007224:	918f90ef          	jal	ra,3000033c <strcmp>
    30007228:	00050a63          	beqz	a0,3000723c <dfs_unmount+0x88>
    3000722c:	ff0fe0ef          	jal	ra,30005a1c <dfs_unlock>
    30007230:	00048513          	mv	a0,s1
    30007234:	fecfa0ef          	jal	ra,30001a20 <rt_free>
    30007238:	fa5ff06f          	j	300071dc <dfs_unmount+0x28>
    3000723c:	50006417          	auipc	s0,0x50006
    30007240:	f6c40413          	addi	s0,s0,-148 # 8000d1a8 <filesystem_table+0x20>
    30007244:	01043783          	ld	a5,16(s0)
    30007248:	0207b783          	ld	a5,32(a5)
    3000724c:	fe0780e3          	beqz	a5,3000722c <dfs_unmount+0x78>
    30007250:	00040513          	mv	a0,s0
    30007254:	000780e7          	jalr	a5
    30007258:	fc054ae3          	bltz	a0,3000722c <dfs_unmount+0x78>
    3000725c:	00043503          	ld	a0,0(s0)
    30007260:	00050463          	beqz	a0,30007268 <dfs_unmount+0xb4>
    30007264:	bb1f90ef          	jal	ra,30000e14 <rt_device_close>
    30007268:	00843503          	ld	a0,8(s0)
    3000726c:	00050463          	beqz	a0,30007274 <dfs_unmount+0xc0>
    30007270:	fb0fa0ef          	jal	ra,30001a20 <rt_free>
    30007274:	02000613          	li	a2,32
    30007278:	00000593          	li	a1,0
    3000727c:	00040513          	mv	a0,s0
    30007280:	8c4f90ef          	jal	ra,30000344 <memset>
    30007284:	f98fe0ef          	jal	ra,30005a1c <dfs_unlock>
    30007288:	00048513          	mv	a0,s1
    3000728c:	f94fa0ef          	jal	ra,30001a20 <rt_free>
    30007290:	00000513          	li	a0,0
    30007294:	f4dff06f          	j	300071e0 <dfs_unmount+0x2c>

0000000030007298 <dfs_mkfs>:
    30007298:	fd010113          	addi	sp,sp,-48
    3000729c:	02813023          	sd	s0,32(sp)
    300072a0:	02113423          	sd	ra,40(sp)
    300072a4:	00913c23          	sd	s1,24(sp)
    300072a8:	01213823          	sd	s2,16(sp)
    300072ac:	01313423          	sd	s3,8(sp)
    300072b0:	00058413          	mv	s0,a1
    300072b4:	04059a63          	bnez	a1,30007308 <dfs_mkfs+0x70>
    300072b8:	fed00513          	li	a0,-19
    300072bc:	808fb0ef          	jal	ra,300022c4 <rt_set_errno>
    300072c0:	4fffb517          	auipc	a0,0x4fffb
    300072c4:	c6850513          	addi	a0,a0,-920 # 80001f28 <CSWTCH.17+0x118>
    300072c8:	9edfb0ef          	jal	ra,30002cb4 <rt_kprintf>
    300072cc:	00040593          	mv	a1,s0
    300072d0:	4fffb517          	auipc	a0,0x4fffb
    300072d4:	ff850513          	addi	a0,a0,-8 # 800022c8 <__fsym_ls_name+0x80>
    300072d8:	9ddfb0ef          	jal	ra,30002cb4 <rt_kprintf>
    300072dc:	4fffa517          	auipc	a0,0x4fffa
    300072e0:	35450513          	addi	a0,a0,852 # 80001630 <__FUNCTION__.6+0x40>
    300072e4:	9d1fb0ef          	jal	ra,30002cb4 <rt_kprintf>
    300072e8:	02813083          	ld	ra,40(sp)
    300072ec:	02013403          	ld	s0,32(sp)
    300072f0:	01813483          	ld	s1,24(sp)
    300072f4:	01013903          	ld	s2,16(sp)
    300072f8:	00813983          	ld	s3,8(sp)
    300072fc:	fff00513          	li	a0,-1
    30007300:	03010113          	addi	sp,sp,48
    30007304:	00008067          	ret
    30007308:	00050493          	mv	s1,a0
    3000730c:	00058513          	mv	a0,a1
    30007310:	92df90ef          	jal	ra,30000c3c <rt_device_find>
    30007314:	00050993          	mv	s3,a0
    30007318:	fa0500e3          	beqz	a0,300072b8 <dfs_mkfs+0x20>
    3000731c:	e94fe0ef          	jal	ra,300059b0 <dfs_lock>
    30007320:	50006917          	auipc	s2,0x50006
    30007324:	e5890913          	addi	s2,s2,-424 # 8000d178 <filesystem_operation_table>
    30007328:	00093783          	ld	a5,0(s2)
    3000732c:	06078263          	beqz	a5,30007390 <dfs_mkfs+0xf8>
    30007330:	0007b503          	ld	a0,0(a5)
    30007334:	00048593          	mv	a1,s1
    30007338:	804f90ef          	jal	ra,3000033c <strcmp>
    3000733c:	00050413          	mv	s0,a0
    30007340:	04051863          	bnez	a0,30007390 <dfs_mkfs+0xf8>
    30007344:	ed8fe0ef          	jal	ra,30005a1c <dfs_unlock>
    30007348:	00341413          	slli	s0,s0,0x3
    3000734c:	00890933          	add	s2,s2,s0
    30007350:	00093783          	ld	a5,0(s2)
    30007354:	0287b783          	ld	a5,40(a5)
    30007358:	06079e63          	bnez	a5,300073d4 <dfs_mkfs+0x13c>
    3000735c:	4fffb517          	auipc	a0,0x4fffb
    30007360:	bcc50513          	addi	a0,a0,-1076 # 80001f28 <CSWTCH.17+0x118>
    30007364:	951fb0ef          	jal	ra,30002cb4 <rt_kprintf>
    30007368:	00048593          	mv	a1,s1
    3000736c:	4fffb517          	auipc	a0,0x4fffb
    30007370:	f9c50513          	addi	a0,a0,-100 # 80002308 <__fsym_ls_name+0xc0>
    30007374:	941fb0ef          	jal	ra,30002cb4 <rt_kprintf>
    30007378:	4fffa517          	auipc	a0,0x4fffa
    3000737c:	2b850513          	addi	a0,a0,696 # 80001630 <__FUNCTION__.6+0x40>
    30007380:	935fb0ef          	jal	ra,30002cb4 <rt_kprintf>
    30007384:	fda00513          	li	a0,-38
    30007388:	f3dfa0ef          	jal	ra,300022c4 <rt_set_errno>
    3000738c:	f5dff06f          	j	300072e8 <dfs_mkfs+0x50>
    30007390:	00893783          	ld	a5,8(s2)
    30007394:	02078063          	beqz	a5,300073b4 <dfs_mkfs+0x11c>
    30007398:	0007b503          	ld	a0,0(a5)
    3000739c:	00048593          	mv	a1,s1
    300073a0:	f9df80ef          	jal	ra,3000033c <strcmp>
    300073a4:	00051863          	bnez	a0,300073b4 <dfs_mkfs+0x11c>
    300073a8:	e74fe0ef          	jal	ra,30005a1c <dfs_unlock>
    300073ac:	00100413          	li	s0,1
    300073b0:	f99ff06f          	j	30007348 <dfs_mkfs+0xb0>
    300073b4:	e68fe0ef          	jal	ra,30005a1c <dfs_unlock>
    300073b8:	4fffb517          	auipc	a0,0x4fffb
    300073bc:	b7050513          	addi	a0,a0,-1168 # 80001f28 <CSWTCH.17+0x118>
    300073c0:	8f5fb0ef          	jal	ra,30002cb4 <rt_kprintf>
    300073c4:	00048593          	mv	a1,s1
    300073c8:	4fffb517          	auipc	a0,0x4fffb
    300073cc:	f2050513          	addi	a0,a0,-224 # 800022e8 <__fsym_ls_name+0xa0>
    300073d0:	f09ff06f          	j	300072d8 <dfs_mkfs+0x40>
    300073d4:	02013403          	ld	s0,32(sp)
    300073d8:	02813083          	ld	ra,40(sp)
    300073dc:	01813483          	ld	s1,24(sp)
    300073e0:	01013903          	ld	s2,16(sp)
    300073e4:	00098513          	mv	a0,s3
    300073e8:	00813983          	ld	s3,8(sp)
    300073ec:	03010113          	addi	sp,sp,48
    300073f0:	00078067          	jr	a5

00000000300073f4 <mkfs>:
    300073f4:	ea5ff06f          	j	30007298 <dfs_mkfs>

00000000300073f8 <dfs_statfs>:
    300073f8:	fe010113          	addi	sp,sp,-32
    300073fc:	00113c23          	sd	ra,24(sp)
    30007400:	00b13423          	sd	a1,8(sp)
    30007404:	a09ff0ef          	jal	ra,30006e0c <dfs_filesystem_lookup>
    30007408:	02050063          	beqz	a0,30007428 <dfs_statfs+0x30>
    3000740c:	01053783          	ld	a5,16(a0)
    30007410:	0307b783          	ld	a5,48(a5)
    30007414:	00078a63          	beqz	a5,30007428 <dfs_statfs+0x30>
    30007418:	00813583          	ld	a1,8(sp)
    3000741c:	01813083          	ld	ra,24(sp)
    30007420:	02010113          	addi	sp,sp,32
    30007424:	00078067          	jr	a5
    30007428:	01813083          	ld	ra,24(sp)
    3000742c:	fff00513          	li	a0,-1
    30007430:	02010113          	addi	sp,sp,32
    30007434:	00008067          	ret

0000000030007438 <df>:
    30007438:	fb010113          	addi	sp,sp,-80
    3000743c:	4fffb797          	auipc	a5,0x4fffb
    30007440:	f0478793          	addi	a5,a5,-252 # 80002340 <__fsym_ls_name+0xf8>
    30007444:	02f13423          	sd	a5,40(sp)
    30007448:	4fffb797          	auipc	a5,0x4fffb
    3000744c:	f0078793          	addi	a5,a5,-256 # 80002348 <__fsym_ls_name+0x100>
    30007450:	02f13823          	sd	a5,48(sp)
    30007454:	01010593          	addi	a1,sp,16
    30007458:	4fffb797          	auipc	a5,0x4fffb
    3000745c:	ef878793          	addi	a5,a5,-264 # 80002350 <__fsym_ls_name+0x108>
    30007460:	04113423          	sd	ra,72(sp)
    30007464:	04813023          	sd	s0,64(sp)
    30007468:	02f13c23          	sd	a5,56(sp)
    3000746c:	f8dff0ef          	jal	ra,300073f8 <dfs_statfs>
    30007470:	02050463          	beqz	a0,30007498 <df+0x60>
    30007474:	4fffb517          	auipc	a0,0x4fffb
    30007478:	ee450513          	addi	a0,a0,-284 # 80002358 <__fsym_ls_name+0x110>
    3000747c:	839fb0ef          	jal	ra,30002cb4 <rt_kprintf>
    30007480:	fff00413          	li	s0,-1
    30007484:	04813083          	ld	ra,72(sp)
    30007488:	00040513          	mv	a0,s0
    3000748c:	04013403          	ld	s0,64(sp)
    30007490:	05010113          	addi	sp,sp,80
    30007494:	00008067          	ret
    30007498:	01013783          	ld	a5,16(sp)
    3000749c:	02013703          	ld	a4,32(sp)
    300074a0:	00050413          	mv	s0,a0
    300074a4:	00078513          	mv	a0,a5
    300074a8:	00070593          	mv	a1,a4
    300074ac:	00e13423          	sd	a4,8(sp)
    300074b0:	00f13023          	sd	a5,0(sp)
    300074b4:	b51fd0ef          	jal	ra,30005004 <__muldi3>
    300074b8:	43f55693          	srai	a3,a0,0x3f
    300074bc:	3ff6f693          	andi	a3,a3,1023
    300074c0:	00a686b3          	add	a3,a3,a0
    300074c4:	00100637          	lui	a2,0x100
    300074c8:	00013783          	ld	a5,0(sp)
    300074cc:	00813703          	ld	a4,8(sp)
    300074d0:	40a6d593          	srai	a1,a3,0xa
    300074d4:	06c54463          	blt	a0,a2,3000753c <df+0x104>
    300074d8:	4146d813          	srai	a6,a3,0x14
    300074dc:	3ff00613          	li	a2,1023
    300074e0:	05064063          	blt	a2,a6,30007520 <df+0xe8>
    300074e4:	3ff5f693          	andi	a3,a1,1023
    300074e8:	00269613          	slli	a2,a3,0x2
    300074ec:	00d60633          	add	a2,a2,a3
    300074f0:	00965613          	srli	a2,a2,0x9
    300074f4:	00080593          	mv	a1,a6
    300074f8:	00100693          	li	a3,1
    300074fc:	00369693          	slli	a3,a3,0x3
    30007500:	01010513          	addi	a0,sp,16
    30007504:	03068693          	addi	a3,a3,48 # 4000030 <__stack_size+0x3fff830>
    30007508:	00a686b3          	add	a3,a3,a0
    3000750c:	fe86b683          	ld	a3,-24(a3)
    30007510:	4fffb517          	auipc	a0,0x4fffb
    30007514:	e6050513          	addi	a0,a0,-416 # 80002370 <__fsym_ls_name+0x128>
    30007518:	f9cfb0ef          	jal	ra,30002cb4 <rt_kprintf>
    3000751c:	f69ff06f          	j	30007484 <df+0x4c>
    30007520:	3ff87813          	andi	a6,a6,1023
    30007524:	00281613          	slli	a2,a6,0x2
    30007528:	01060633          	add	a2,a2,a6
    3000752c:	41e6d593          	srai	a1,a3,0x1e
    30007530:	00965613          	srli	a2,a2,0x9
    30007534:	00200693          	li	a3,2
    30007538:	fc5ff06f          	j	300074fc <df+0xc4>
    3000753c:	00000693          	li	a3,0
    30007540:	00000613          	li	a2,0
    30007544:	fb9ff06f          	j	300074fc <df+0xc4>

0000000030007548 <mkdir>:
    30007548:	fe010113          	addi	sp,sp,-32
    3000754c:	00913423          	sd	s1,8(sp)
    30007550:	00113c23          	sd	ra,24(sp)
    30007554:	00813823          	sd	s0,16(sp)
    30007558:	00050493          	mv	s1,a0
    3000755c:	cccfe0ef          	jal	ra,30005a28 <fd_new>
    30007560:	fff00793          	li	a5,-1
    30007564:	02f51463          	bne	a0,a5,3000758c <mkdir+0x44>
    30007568:	00050413          	mv	s0,a0
    3000756c:	ff400513          	li	a0,-12
    30007570:	d55fa0ef          	jal	ra,300022c4 <rt_set_errno>
    30007574:	01813083          	ld	ra,24(sp)
    30007578:	00040513          	mv	a0,s0
    3000757c:	01013403          	ld	s0,16(sp)
    30007580:	00813483          	ld	s1,8(sp)
    30007584:	02010113          	addi	sp,sp,32
    30007588:	00008067          	ret
    3000758c:	e04fe0ef          	jal	ra,30005b90 <fd_get>
    30007590:	00010637          	lui	a2,0x10
    30007594:	00048593          	mv	a1,s1
    30007598:	04060613          	addi	a2,a2,64 # 10040 <__stack_size+0xf840>
    3000759c:	00050413          	mv	s0,a0
    300075a0:	a81fe0ef          	jal	ra,30006020 <dfs_file_open>
    300075a4:	00050493          	mv	s1,a0
    300075a8:	00040513          	mv	a0,s0
    300075ac:	0204d063          	bgez	s1,300075cc <mkdir+0x84>
    300075b0:	e70fe0ef          	jal	ra,30005c20 <fd_put>
    300075b4:	00040513          	mv	a0,s0
    300075b8:	e68fe0ef          	jal	ra,30005c20 <fd_put>
    300075bc:	00048513          	mv	a0,s1
    300075c0:	d05fa0ef          	jal	ra,300022c4 <rt_set_errno>
    300075c4:	fff00413          	li	s0,-1
    300075c8:	fadff06f          	j	30007574 <mkdir+0x2c>
    300075cc:	bb1fe0ef          	jal	ra,3000617c <dfs_file_close>
    300075d0:	00040513          	mv	a0,s0
    300075d4:	e4cfe0ef          	jal	ra,30005c20 <fd_put>
    300075d8:	00040513          	mv	a0,s0
    300075dc:	e44fe0ef          	jal	ra,30005c20 <fd_put>
    300075e0:	00000413          	li	s0,0
    300075e4:	f91ff06f          	j	30007574 <mkdir+0x2c>

00000000300075e8 <open>:
    300075e8:	fa010113          	addi	sp,sp,-96
    300075ec:	01213823          	sd	s2,16(sp)
    300075f0:	01313423          	sd	s3,8(sp)
    300075f4:	02113423          	sd	ra,40(sp)
    300075f8:	02813023          	sd	s0,32(sp)
    300075fc:	00913c23          	sd	s1,24(sp)
    30007600:	00050913          	mv	s2,a0
    30007604:	00058993          	mv	s3,a1
    30007608:	02c13823          	sd	a2,48(sp)
    3000760c:	02d13c23          	sd	a3,56(sp)
    30007610:	04e13023          	sd	a4,64(sp)
    30007614:	04f13423          	sd	a5,72(sp)
    30007618:	05013823          	sd	a6,80(sp)
    3000761c:	05113c23          	sd	a7,88(sp)
    30007620:	c08fe0ef          	jal	ra,30005a28 <fd_new>
    30007624:	02055863          	bgez	a0,30007654 <open+0x6c>
    30007628:	ff400513          	li	a0,-12
    3000762c:	c99fa0ef          	jal	ra,300022c4 <rt_set_errno>
    30007630:	fff00413          	li	s0,-1
    30007634:	02813083          	ld	ra,40(sp)
    30007638:	00040513          	mv	a0,s0
    3000763c:	02013403          	ld	s0,32(sp)
    30007640:	01813483          	ld	s1,24(sp)
    30007644:	01013903          	ld	s2,16(sp)
    30007648:	00813983          	ld	s3,8(sp)
    3000764c:	06010113          	addi	sp,sp,96
    30007650:	00008067          	ret
    30007654:	00050413          	mv	s0,a0
    30007658:	d38fe0ef          	jal	ra,30005b90 <fd_get>
    3000765c:	00090593          	mv	a1,s2
    30007660:	00098613          	mv	a2,s3
    30007664:	00050493          	mv	s1,a0
    30007668:	9b9fe0ef          	jal	ra,30006020 <dfs_file_open>
    3000766c:	00050913          	mv	s2,a0
    30007670:	00048513          	mv	a0,s1
    30007674:	00095c63          	bgez	s2,3000768c <open+0xa4>
    30007678:	da8fe0ef          	jal	ra,30005c20 <fd_put>
    3000767c:	00048513          	mv	a0,s1
    30007680:	da0fe0ef          	jal	ra,30005c20 <fd_put>
    30007684:	00090513          	mv	a0,s2
    30007688:	fa5ff06f          	j	3000762c <open+0x44>
    3000768c:	d94fe0ef          	jal	ra,30005c20 <fd_put>
    30007690:	fa5ff06f          	j	30007634 <open+0x4c>

0000000030007694 <close>:
    30007694:	fe010113          	addi	sp,sp,-32
    30007698:	00113c23          	sd	ra,24(sp)
    3000769c:	00813823          	sd	s0,16(sp)
    300076a0:	00913423          	sd	s1,8(sp)
    300076a4:	cecfe0ef          	jal	ra,30005b90 <fd_get>
    300076a8:	02051263          	bnez	a0,300076cc <close+0x38>
    300076ac:	ff700513          	li	a0,-9
    300076b0:	c15fa0ef          	jal	ra,300022c4 <rt_set_errno>
    300076b4:	fff00513          	li	a0,-1
    300076b8:	01813083          	ld	ra,24(sp)
    300076bc:	01013403          	ld	s0,16(sp)
    300076c0:	00813483          	ld	s1,8(sp)
    300076c4:	02010113          	addi	sp,sp,32
    300076c8:	00008067          	ret
    300076cc:	00050413          	mv	s0,a0
    300076d0:	aadfe0ef          	jal	ra,3000617c <dfs_file_close>
    300076d4:	00050493          	mv	s1,a0
    300076d8:	00040513          	mv	a0,s0
    300076dc:	d44fe0ef          	jal	ra,30005c20 <fd_put>
    300076e0:	0004d663          	bgez	s1,300076ec <close+0x58>
    300076e4:	00048513          	mv	a0,s1
    300076e8:	fc9ff06f          	j	300076b0 <close+0x1c>
    300076ec:	00040513          	mv	a0,s0
    300076f0:	d30fe0ef          	jal	ra,30005c20 <fd_put>
    300076f4:	00000513          	li	a0,0
    300076f8:	fc1ff06f          	j	300076b8 <close+0x24>

00000000300076fc <read>:
    300076fc:	fd010113          	addi	sp,sp,-48
    30007700:	00b13423          	sd	a1,8(sp)
    30007704:	00c13023          	sd	a2,0(sp)
    30007708:	02113423          	sd	ra,40(sp)
    3000770c:	02813023          	sd	s0,32(sp)
    30007710:	00913c23          	sd	s1,24(sp)
    30007714:	c7cfe0ef          	jal	ra,30005b90 <fd_get>
    30007718:	00013603          	ld	a2,0(sp)
    3000771c:	00813583          	ld	a1,8(sp)
    30007720:	02051463          	bnez	a0,30007748 <read+0x4c>
    30007724:	ff700513          	li	a0,-9
    30007728:	b9dfa0ef          	jal	ra,300022c4 <rt_set_errno>
    3000772c:	fff00413          	li	s0,-1
    30007730:	02813083          	ld	ra,40(sp)
    30007734:	00040513          	mv	a0,s0
    30007738:	02013403          	ld	s0,32(sp)
    3000773c:	01813483          	ld	s1,24(sp)
    30007740:	03010113          	addi	sp,sp,48
    30007744:	00008067          	ret
    30007748:	00050493          	mv	s1,a0
    3000774c:	a91fe0ef          	jal	ra,300061dc <dfs_file_read>
    30007750:	00050413          	mv	s0,a0
    30007754:	00048513          	mv	a0,s1
    30007758:	00045863          	bgez	s0,30007768 <read+0x6c>
    3000775c:	cc4fe0ef          	jal	ra,30005c20 <fd_put>
    30007760:	00040513          	mv	a0,s0
    30007764:	fc5ff06f          	j	30007728 <read+0x2c>
    30007768:	cb8fe0ef          	jal	ra,30005c20 <fd_put>
    3000776c:	fc5ff06f          	j	30007730 <read+0x34>

0000000030007770 <write>:
    30007770:	fd010113          	addi	sp,sp,-48
    30007774:	00b13423          	sd	a1,8(sp)
    30007778:	00c13023          	sd	a2,0(sp)
    3000777c:	02113423          	sd	ra,40(sp)
    30007780:	02813023          	sd	s0,32(sp)
    30007784:	00913c23          	sd	s1,24(sp)
    30007788:	c08fe0ef          	jal	ra,30005b90 <fd_get>
    3000778c:	00013603          	ld	a2,0(sp)
    30007790:	00813583          	ld	a1,8(sp)
    30007794:	02051463          	bnez	a0,300077bc <write+0x4c>
    30007798:	ff700513          	li	a0,-9
    3000779c:	b29fa0ef          	jal	ra,300022c4 <rt_set_errno>
    300077a0:	fff00413          	li	s0,-1
    300077a4:	02813083          	ld	ra,40(sp)
    300077a8:	00040513          	mv	a0,s0
    300077ac:	02013403          	ld	s0,32(sp)
    300077b0:	01813483          	ld	s1,24(sp)
    300077b4:	03010113          	addi	sp,sp,48
    300077b8:	00008067          	ret
    300077bc:	00050493          	mv	s1,a0
    300077c0:	c79fe0ef          	jal	ra,30006438 <dfs_file_write>
    300077c4:	00050413          	mv	s0,a0
    300077c8:	00048513          	mv	a0,s1
    300077cc:	00045863          	bgez	s0,300077dc <write+0x6c>
    300077d0:	c50fe0ef          	jal	ra,30005c20 <fd_put>
    300077d4:	00040513          	mv	a0,s0
    300077d8:	fc5ff06f          	j	3000779c <write+0x2c>
    300077dc:	c44fe0ef          	jal	ra,30005c20 <fd_put>
    300077e0:	fc5ff06f          	j	300077a4 <write+0x34>

00000000300077e4 <lseek>:
    300077e4:	fe010113          	addi	sp,sp,-32
    300077e8:	00813823          	sd	s0,16(sp)
    300077ec:	01213023          	sd	s2,0(sp)
    300077f0:	00113c23          	sd	ra,24(sp)
    300077f4:	00913423          	sd	s1,8(sp)
    300077f8:	00058413          	mv	s0,a1
    300077fc:	00060913          	mv	s2,a2
    30007800:	b90fe0ef          	jal	ra,30005b90 <fd_get>
    30007804:	02051663          	bnez	a0,30007830 <lseek+0x4c>
    30007808:	ff700513          	li	a0,-9
    3000780c:	ab9fa0ef          	jal	ra,300022c4 <rt_set_errno>
    30007810:	fff00413          	li	s0,-1
    30007814:	01813083          	ld	ra,24(sp)
    30007818:	00040513          	mv	a0,s0
    3000781c:	01013403          	ld	s0,16(sp)
    30007820:	00813483          	ld	s1,8(sp)
    30007824:	00013903          	ld	s2,0(sp)
    30007828:	02010113          	addi	sp,sp,32
    3000782c:	00008067          	ret
    30007830:	00100793          	li	a5,1
    30007834:	00050493          	mv	s1,a0
    30007838:	02f90c63          	beq	s2,a5,30007870 <lseek+0x8c>
    3000783c:	00200793          	li	a5,2
    30007840:	02f90e63          	beq	s2,a5,3000787c <lseek+0x98>
    30007844:	04091063          	bnez	s2,30007884 <lseek+0xa0>
    30007848:	00048513          	mv	a0,s1
    3000784c:	02044c63          	bltz	s0,30007884 <lseek+0xa0>
    30007850:	00040593          	mv	a1,s0
    30007854:	d35fe0ef          	jal	ra,30006588 <dfs_file_lseek>
    30007858:	00050913          	mv	s2,a0
    3000785c:	00048513          	mv	a0,s1
    30007860:	02095863          	bgez	s2,30007890 <lseek+0xac>
    30007864:	bbcfe0ef          	jal	ra,30005c20 <fd_put>
    30007868:	00090513          	mv	a0,s2
    3000786c:	fa1ff06f          	j	3000780c <lseek+0x28>
    30007870:	03853783          	ld	a5,56(a0)
    30007874:	00f40433          	add	s0,s0,a5
    30007878:	fd1ff06f          	j	30007848 <lseek+0x64>
    3000787c:	03053783          	ld	a5,48(a0)
    30007880:	ff5ff06f          	j	30007874 <lseek+0x90>
    30007884:	b9cfe0ef          	jal	ra,30005c20 <fd_put>
    30007888:	fea00513          	li	a0,-22
    3000788c:	f81ff06f          	j	3000780c <lseek+0x28>
    30007890:	b90fe0ef          	jal	ra,30005c20 <fd_put>
    30007894:	f81ff06f          	j	30007814 <lseek+0x30>

0000000030007898 <rename>:
    30007898:	ff010113          	addi	sp,sp,-16
    3000789c:	00113423          	sd	ra,8(sp)
    300078a0:	b98ff0ef          	jal	ra,30006c38 <dfs_file_rename>
    300078a4:	00055c63          	bgez	a0,300078bc <rename+0x24>
    300078a8:	a1dfa0ef          	jal	ra,300022c4 <rt_set_errno>
    300078ac:	fff00513          	li	a0,-1
    300078b0:	00813083          	ld	ra,8(sp)
    300078b4:	01010113          	addi	sp,sp,16
    300078b8:	00008067          	ret
    300078bc:	00000513          	li	a0,0
    300078c0:	ff1ff06f          	j	300078b0 <rename+0x18>

00000000300078c4 <unlink>:
    300078c4:	ff010113          	addi	sp,sp,-16
    300078c8:	00113423          	sd	ra,8(sp)
    300078cc:	a51fe0ef          	jal	ra,3000631c <dfs_file_unlink>
    300078d0:	00055c63          	bgez	a0,300078e8 <unlink+0x24>
    300078d4:	9f1fa0ef          	jal	ra,300022c4 <rt_set_errno>
    300078d8:	fff00513          	li	a0,-1
    300078dc:	00813083          	ld	ra,8(sp)
    300078e0:	01010113          	addi	sp,sp,16
    300078e4:	00008067          	ret
    300078e8:	00000513          	li	a0,0
    300078ec:	ff1ff06f          	j	300078dc <unlink+0x18>

00000000300078f0 <stat>:
    300078f0:	ff010113          	addi	sp,sp,-16
    300078f4:	00113423          	sd	ra,8(sp)
    300078f8:	ce5fe0ef          	jal	ra,300065dc <dfs_file_stat>
    300078fc:	00050793          	mv	a5,a0
    30007900:	00055663          	bgez	a0,3000790c <stat+0x1c>
    30007904:	9c1fa0ef          	jal	ra,300022c4 <rt_set_errno>
    30007908:	fff00793          	li	a5,-1
    3000790c:	00813083          	ld	ra,8(sp)
    30007910:	00078513          	mv	a0,a5
    30007914:	01010113          	addi	sp,sp,16
    30007918:	00008067          	ret

000000003000791c <opendir>:
    3000791c:	fe010113          	addi	sp,sp,-32
    30007920:	00813823          	sd	s0,16(sp)
    30007924:	00113c23          	sd	ra,24(sp)
    30007928:	00913423          	sd	s1,8(sp)
    3000792c:	01213023          	sd	s2,0(sp)
    30007930:	00050413          	mv	s0,a0
    30007934:	8f4fe0ef          	jal	ra,30005a28 <fd_new>
    30007938:	fff00793          	li	a5,-1
    3000793c:	00f51a63          	bne	a0,a5,30007950 <opendir+0x34>
    30007940:	ff400513          	li	a0,-12
    30007944:	981fa0ef          	jal	ra,300022c4 <rt_set_errno>
    30007948:	00000413          	li	s0,0
    3000794c:	04c0006f          	j	30007998 <opendir+0x7c>
    30007950:	00050913          	mv	s2,a0
    30007954:	a3cfe0ef          	jal	ra,30005b90 <fd_get>
    30007958:	00040593          	mv	a1,s0
    3000795c:	00010637          	lui	a2,0x10
    30007960:	00050493          	mv	s1,a0
    30007964:	ebcfe0ef          	jal	ra,30006020 <dfs_file_open>
    30007968:	00050413          	mv	s0,a0
    3000796c:	04054e63          	bltz	a0,300079c8 <opendir+0xac>
    30007970:	20c00513          	li	a0,524
    30007974:	d8df90ef          	jal	ra,30001700 <rt_malloc>
    30007978:	00050413          	mv	s0,a0
    3000797c:	02051c63          	bnez	a0,300079b4 <opendir+0x98>
    30007980:	00048513          	mv	a0,s1
    30007984:	ff8fe0ef          	jal	ra,3000617c <dfs_file_close>
    30007988:	00048513          	mv	a0,s1
    3000798c:	a94fe0ef          	jal	ra,30005c20 <fd_put>
    30007990:	00048513          	mv	a0,s1
    30007994:	a8cfe0ef          	jal	ra,30005c20 <fd_put>
    30007998:	01813083          	ld	ra,24(sp)
    3000799c:	00040513          	mv	a0,s0
    300079a0:	01013403          	ld	s0,16(sp)
    300079a4:	00813483          	ld	s1,8(sp)
    300079a8:	00013903          	ld	s2,0(sp)
    300079ac:	02010113          	addi	sp,sp,32
    300079b0:	00008067          	ret
    300079b4:	20c00613          	li	a2,524
    300079b8:	00000593          	li	a1,0
    300079bc:	989f80ef          	jal	ra,30000344 <memset>
    300079c0:	01242023          	sw	s2,0(s0)
    300079c4:	fcdff06f          	j	30007990 <opendir+0x74>
    300079c8:	00048513          	mv	a0,s1
    300079cc:	a54fe0ef          	jal	ra,30005c20 <fd_put>
    300079d0:	00048513          	mv	a0,s1
    300079d4:	a4cfe0ef          	jal	ra,30005c20 <fd_put>
    300079d8:	00040513          	mv	a0,s0
    300079dc:	f69ff06f          	j	30007944 <opendir+0x28>

00000000300079e0 <readdir>:
    300079e0:	fd010113          	addi	sp,sp,-48
    300079e4:	00913c23          	sd	s1,24(sp)
    300079e8:	00050493          	mv	s1,a0
    300079ec:	00052503          	lw	a0,0(a0)
    300079f0:	02813023          	sd	s0,32(sp)
    300079f4:	02113423          	sd	ra,40(sp)
    300079f8:	01213823          	sd	s2,16(sp)
    300079fc:	01313423          	sd	s3,8(sp)
    30007a00:	990fe0ef          	jal	ra,30005b90 <fd_get>
    30007a04:	00050413          	mv	s0,a0
    30007a08:	02051663          	bnez	a0,30007a34 <readdir+0x54>
    30007a0c:	ff700513          	li	a0,-9
    30007a10:	8b5fa0ef          	jal	ra,300022c4 <rt_set_errno>
    30007a14:	02813083          	ld	ra,40(sp)
    30007a18:	00040513          	mv	a0,s0
    30007a1c:	02013403          	ld	s0,32(sp)
    30007a20:	01813483          	ld	s1,24(sp)
    30007a24:	01013903          	ld	s2,16(sp)
    30007a28:	00813983          	ld	s3,8(sp)
    30007a2c:	03010113          	addi	sp,sp,48
    30007a30:	00008067          	ret
    30007a34:	2044a703          	lw	a4,516(s1)
    30007a38:	00448993          	addi	s3,s1,4
    30007a3c:	02071a63          	bnez	a4,30007a70 <readdir+0x90>
    30007a40:	1ff00613          	li	a2,511
    30007a44:	00098593          	mv	a1,s3
    30007a48:	00040513          	mv	a0,s0
    30007a4c:	89dfe0ef          	jal	ra,300062e8 <dfs_file_getdents>
    30007a50:	00050913          	mv	s2,a0
    30007a54:	04a04463          	bgtz	a0,30007a9c <readdir+0xbc>
    30007a58:	00040513          	mv	a0,s0
    30007a5c:	9c4fe0ef          	jal	ra,30005c20 <fd_put>
    30007a60:	00090513          	mv	a0,s2
    30007a64:	861fa0ef          	jal	ra,300022c4 <rt_set_errno>
    30007a68:	00000413          	li	s0,0
    30007a6c:	fa9ff06f          	j	30007a14 <readdir+0x34>
    30007a70:	2084a683          	lw	a3,520(s1)
    30007a74:	00d487b3          	add	a5,s1,a3
    30007a78:	0067d783          	lhu	a5,6(a5)
    30007a7c:	00d786bb          	addw	a3,a5,a3
    30007a80:	20d4a423          	sw	a3,520(s1)
    30007a84:	fae6dee3          	bge	a3,a4,30007a40 <readdir+0x60>
    30007a88:	00040513          	mv	a0,s0
    30007a8c:	994fe0ef          	jal	ra,30005c20 <fd_put>
    30007a90:	2084a403          	lw	s0,520(s1)
    30007a94:	00898433          	add	s0,s3,s0
    30007a98:	f7dff06f          	j	30007a14 <readdir+0x34>
    30007a9c:	20a4a223          	sw	a0,516(s1)
    30007aa0:	2004a423          	sw	zero,520(s1)
    30007aa4:	fe5ff06f          	j	30007a88 <readdir+0xa8>

0000000030007aa8 <rewinddir>:
    30007aa8:	fe010113          	addi	sp,sp,-32
    30007aac:	00813823          	sd	s0,16(sp)
    30007ab0:	00050413          	mv	s0,a0
    30007ab4:	00052503          	lw	a0,0(a0)
    30007ab8:	00113c23          	sd	ra,24(sp)
    30007abc:	00913423          	sd	s1,8(sp)
    30007ac0:	8d0fe0ef          	jal	ra,30005b90 <fd_get>
    30007ac4:	00051e63          	bnez	a0,30007ae0 <rewinddir+0x38>
    30007ac8:	01013403          	ld	s0,16(sp)
    30007acc:	01813083          	ld	ra,24(sp)
    30007ad0:	00813483          	ld	s1,8(sp)
    30007ad4:	ff700513          	li	a0,-9
    30007ad8:	02010113          	addi	sp,sp,32
    30007adc:	fe8fa06f          	j	300022c4 <rt_set_errno>
    30007ae0:	00000593          	li	a1,0
    30007ae4:	00050493          	mv	s1,a0
    30007ae8:	aa1fe0ef          	jal	ra,30006588 <dfs_file_lseek>
    30007aec:	00054663          	bltz	a0,30007af8 <rewinddir+0x50>
    30007af0:	20042423          	sw	zero,520(s0)
    30007af4:	20042223          	sw	zero,516(s0)
    30007af8:	01013403          	ld	s0,16(sp)
    30007afc:	01813083          	ld	ra,24(sp)
    30007b00:	00048513          	mv	a0,s1
    30007b04:	00813483          	ld	s1,8(sp)
    30007b08:	02010113          	addi	sp,sp,32
    30007b0c:	914fe06f          	j	30005c20 <fd_put>

0000000030007b10 <closedir>:
    30007b10:	fe010113          	addi	sp,sp,-32
    30007b14:	01213023          	sd	s2,0(sp)
    30007b18:	00050913          	mv	s2,a0
    30007b1c:	00052503          	lw	a0,0(a0)
    30007b20:	00113c23          	sd	ra,24(sp)
    30007b24:	00813823          	sd	s0,16(sp)
    30007b28:	00913423          	sd	s1,8(sp)
    30007b2c:	864fe0ef          	jal	ra,30005b90 <fd_get>
    30007b30:	02051463          	bnez	a0,30007b58 <closedir+0x48>
    30007b34:	ff700513          	li	a0,-9
    30007b38:	f8cfa0ef          	jal	ra,300022c4 <rt_set_errno>
    30007b3c:	fff00513          	li	a0,-1
    30007b40:	01813083          	ld	ra,24(sp)
    30007b44:	01013403          	ld	s0,16(sp)
    30007b48:	00813483          	ld	s1,8(sp)
    30007b4c:	00013903          	ld	s2,0(sp)
    30007b50:	02010113          	addi	sp,sp,32
    30007b54:	00008067          	ret
    30007b58:	00050413          	mv	s0,a0
    30007b5c:	e20fe0ef          	jal	ra,3000617c <dfs_file_close>
    30007b60:	00050493          	mv	s1,a0
    30007b64:	00040513          	mv	a0,s0
    30007b68:	8b8fe0ef          	jal	ra,30005c20 <fd_put>
    30007b6c:	00040513          	mv	a0,s0
    30007b70:	8b0fe0ef          	jal	ra,30005c20 <fd_put>
    30007b74:	00090513          	mv	a0,s2
    30007b78:	ea9f90ef          	jal	ra,30001a20 <rt_free>
    30007b7c:	00000513          	li	a0,0
    30007b80:	fc04d0e3          	bgez	s1,30007b40 <closedir+0x30>
    30007b84:	00048513          	mv	a0,s1
    30007b88:	fb1ff06f          	j	30007b38 <closedir+0x28>

0000000030007b8c <chdir>:
    30007b8c:	fe010113          	addi	sp,sp,-32
    30007b90:	00113c23          	sd	ra,24(sp)
    30007b94:	00813823          	sd	s0,16(sp)
    30007b98:	02051463          	bnez	a0,30007bc0 <chdir+0x34>
    30007b9c:	e15fd0ef          	jal	ra,300059b0 <dfs_lock>
    30007ba0:	4fffc597          	auipc	a1,0x4fffc
    30007ba4:	55858593          	addi	a1,a1,1368 # 800040f8 <working_directory>
    30007ba8:	4fffc517          	auipc	a0,0x4fffc
    30007bac:	f3850513          	addi	a0,a0,-200 # 80003ae0 <__fsym___cmd_ls_name+0x40>
    30007bb0:	904fb0ef          	jal	ra,30002cb4 <rt_kprintf>
    30007bb4:	e69fd0ef          	jal	ra,30005a1c <dfs_unlock>
    30007bb8:	00000513          	li	a0,0
    30007bbc:	0240006f          	j	30007be0 <chdir+0x54>
    30007bc0:	00a13423          	sd	a0,8(sp)
    30007bc4:	f14f80ef          	jal	ra,300002d8 <strlen>
    30007bc8:	10000793          	li	a5,256
    30007bcc:	00813583          	ld	a1,8(sp)
    30007bd0:	02a7f063          	bgeu	a5,a0,30007bf0 <chdir+0x64>
    30007bd4:	fec00513          	li	a0,-20
    30007bd8:	eecfa0ef          	jal	ra,300022c4 <rt_set_errno>
    30007bdc:	fff00513          	li	a0,-1
    30007be0:	01813083          	ld	ra,24(sp)
    30007be4:	01013403          	ld	s0,16(sp)
    30007be8:	02010113          	addi	sp,sp,32
    30007bec:	00008067          	ret
    30007bf0:	00000513          	li	a0,0
    30007bf4:	92cfe0ef          	jal	ra,30005d20 <dfs_normalize_path>
    30007bf8:	00050413          	mv	s0,a0
    30007bfc:	fc050ce3          	beqz	a0,30007bd4 <chdir+0x48>
    30007c00:	db1fd0ef          	jal	ra,300059b0 <dfs_lock>
    30007c04:	00040513          	mv	a0,s0
    30007c08:	d15ff0ef          	jal	ra,3000791c <opendir>
    30007c0c:	00051a63          	bnez	a0,30007c20 <chdir+0x94>
    30007c10:	00040513          	mv	a0,s0
    30007c14:	e0df90ef          	jal	ra,30001a20 <rt_free>
    30007c18:	e05fd0ef          	jal	ra,30005a1c <dfs_unlock>
    30007c1c:	fc1ff06f          	j	30007bdc <chdir+0x50>
    30007c20:	ef1ff0ef          	jal	ra,30007b10 <closedir>
    30007c24:	10000613          	li	a2,256
    30007c28:	00040593          	mv	a1,s0
    30007c2c:	4fffc517          	auipc	a0,0x4fffc
    30007c30:	4cc50513          	addi	a0,a0,1228 # 800040f8 <working_directory>
    30007c34:	eccf80ef          	jal	ra,30000300 <strncpy>
    30007c38:	00040513          	mv	a0,s0
    30007c3c:	de5f90ef          	jal	ra,30001a20 <rt_free>
    30007c40:	f75ff06f          	j	30007bb4 <chdir+0x28>

0000000030007c44 <getcwd>:
    30007c44:	fe010113          	addi	sp,sp,-32
    30007c48:	00113c23          	sd	ra,24(sp)
    30007c4c:	00813823          	sd	s0,16(sp)
    30007c50:	00b13423          	sd	a1,8(sp)
    30007c54:	00050413          	mv	s0,a0
    30007c58:	d59fd0ef          	jal	ra,300059b0 <dfs_lock>
    30007c5c:	00813603          	ld	a2,8(sp)
    30007c60:	4fffc597          	auipc	a1,0x4fffc
    30007c64:	49858593          	addi	a1,a1,1176 # 800040f8 <working_directory>
    30007c68:	00040513          	mv	a0,s0
    30007c6c:	e94f80ef          	jal	ra,30000300 <strncpy>
    30007c70:	dadfd0ef          	jal	ra,30005a1c <dfs_unlock>
    30007c74:	01813083          	ld	ra,24(sp)
    30007c78:	00040513          	mv	a0,s0
    30007c7c:	01013403          	ld	s0,16(sp)
    30007c80:	02010113          	addi	sp,sp,32
    30007c84:	00008067          	ret

0000000030007c88 <dfs_device_fs_mount>:
    30007c88:	00000513          	li	a0,0
    30007c8c:	00008067          	ret

0000000030007c90 <dfs_device_fs_poll>:
    30007c90:	00000513          	li	a0,0
    30007c94:	00008067          	ret

0000000030007c98 <dfs_device_fs_ioctl>:
    30007c98:	fe010113          	addi	sp,sp,-32
    30007c9c:	00813823          	sd	s0,16(sp)
    30007ca0:	00913423          	sd	s1,8(sp)
    30007ca4:	01213023          	sd	s2,0(sp)
    30007ca8:	00113c23          	sd	ra,24(sp)
    30007cac:	00050413          	mv	s0,a0
    30007cb0:	00058493          	mv	s1,a1
    30007cb4:	00060913          	mv	s2,a2
    30007cb8:	00051e63          	bnez	a0,30007cd4 <dfs_device_fs_ioctl+0x3c>
    30007cbc:	02500613          	li	a2,37
    30007cc0:	4fffb597          	auipc	a1,0x4fffb
    30007cc4:	84058593          	addi	a1,a1,-1984 # 80002500 <__FUNCTION__.5>
    30007cc8:	4fffa517          	auipc	a0,0x4fffa
    30007ccc:	78050513          	addi	a0,a0,1920 # 80002448 <__fsym_mkdir_name+0x8>
    30007cd0:	968fb0ef          	jal	ra,30002e38 <rt_assert_handler>
    30007cd4:	04043403          	ld	s0,64(s0)
    30007cd8:	00041e63          	bnez	s0,30007cf4 <dfs_device_fs_ioctl+0x5c>
    30007cdc:	02900613          	li	a2,41
    30007ce0:	4fffb597          	auipc	a1,0x4fffb
    30007ce4:	82058593          	addi	a1,a1,-2016 # 80002500 <__FUNCTION__.5>
    30007ce8:	4fffa517          	auipc	a0,0x4fffa
    30007cec:	77050513          	addi	a0,a0,1904 # 80002458 <__fsym_mkdir_name+0x18>
    30007cf0:	948fb0ef          	jal	ra,30002e38 <rt_assert_handler>
    30007cf4:	00090613          	mv	a2,s2
    30007cf8:	00048593          	mv	a1,s1
    30007cfc:	00040513          	mv	a0,s0
    30007d00:	b68f90ef          	jal	ra,30001068 <rt_device_control>
    30007d04:	01813083          	ld	ra,24(sp)
    30007d08:	01013403          	ld	s0,16(sp)
    30007d0c:	00813483          	ld	s1,8(sp)
    30007d10:	00013903          	ld	s2,0(sp)
    30007d14:	0005051b          	sext.w	a0,a0
    30007d18:	02010113          	addi	sp,sp,32
    30007d1c:	00008067          	ret

0000000030007d20 <dfs_device_fs_read>:
    30007d20:	fd010113          	addi	sp,sp,-48
    30007d24:	02813023          	sd	s0,32(sp)
    30007d28:	00913c23          	sd	s1,24(sp)
    30007d2c:	01213823          	sd	s2,16(sp)
    30007d30:	02113423          	sd	ra,40(sp)
    30007d34:	01313423          	sd	s3,8(sp)
    30007d38:	00050413          	mv	s0,a0
    30007d3c:	00058493          	mv	s1,a1
    30007d40:	00060913          	mv	s2,a2
    30007d44:	00051e63          	bnez	a0,30007d60 <dfs_device_fs_read+0x40>
    30007d48:	03800613          	li	a2,56
    30007d4c:	4fffa597          	auipc	a1,0x4fffa
    30007d50:	79c58593          	addi	a1,a1,1948 # 800024e8 <__FUNCTION__.4>
    30007d54:	4fffa517          	auipc	a0,0x4fffa
    30007d58:	6f450513          	addi	a0,a0,1780 # 80002448 <__fsym_mkdir_name+0x8>
    30007d5c:	8dcfb0ef          	jal	ra,30002e38 <rt_assert_handler>
    30007d60:	04043983          	ld	s3,64(s0)
    30007d64:	00099e63          	bnez	s3,30007d80 <dfs_device_fs_read+0x60>
    30007d68:	03c00613          	li	a2,60
    30007d6c:	4fffa597          	auipc	a1,0x4fffa
    30007d70:	77c58593          	addi	a1,a1,1916 # 800024e8 <__FUNCTION__.4>
    30007d74:	4fffa517          	auipc	a0,0x4fffa
    30007d78:	6e450513          	addi	a0,a0,1764 # 80002458 <__fsym_mkdir_name+0x18>
    30007d7c:	8bcfb0ef          	jal	ra,30002e38 <rt_assert_handler>
    30007d80:	03843583          	ld	a1,56(s0)
    30007d84:	00090693          	mv	a3,s2
    30007d88:	00048613          	mv	a2,s1
    30007d8c:	00098513          	mv	a0,s3
    30007d90:	930f90ef          	jal	ra,30000ec0 <rt_device_read>
    30007d94:	03843783          	ld	a5,56(s0)
    30007d98:	0005051b          	sext.w	a0,a0
    30007d9c:	02813083          	ld	ra,40(sp)
    30007da0:	00a787b3          	add	a5,a5,a0
    30007da4:	02f43c23          	sd	a5,56(s0)
    30007da8:	02013403          	ld	s0,32(sp)
    30007dac:	01813483          	ld	s1,24(sp)
    30007db0:	01013903          	ld	s2,16(sp)
    30007db4:	00813983          	ld	s3,8(sp)
    30007db8:	03010113          	addi	sp,sp,48
    30007dbc:	00008067          	ret

0000000030007dc0 <dfs_device_fs_write>:
    30007dc0:	fd010113          	addi	sp,sp,-48
    30007dc4:	02813023          	sd	s0,32(sp)
    30007dc8:	00913c23          	sd	s1,24(sp)
    30007dcc:	01213823          	sd	s2,16(sp)
    30007dd0:	02113423          	sd	ra,40(sp)
    30007dd4:	01313423          	sd	s3,8(sp)
    30007dd8:	00050413          	mv	s0,a0
    30007ddc:	00058493          	mv	s1,a1
    30007de0:	00060913          	mv	s2,a2
    30007de4:	00051e63          	bnez	a0,30007e00 <dfs_device_fs_write+0x40>
    30007de8:	04a00613          	li	a2,74
    30007dec:	4fffa597          	auipc	a1,0x4fffa
    30007df0:	6e458593          	addi	a1,a1,1764 # 800024d0 <__FUNCTION__.3>
    30007df4:	4fffa517          	auipc	a0,0x4fffa
    30007df8:	65450513          	addi	a0,a0,1620 # 80002448 <__fsym_mkdir_name+0x8>
    30007dfc:	83cfb0ef          	jal	ra,30002e38 <rt_assert_handler>
    30007e00:	04043983          	ld	s3,64(s0)
    30007e04:	00099e63          	bnez	s3,30007e20 <dfs_device_fs_write+0x60>
    30007e08:	04e00613          	li	a2,78
    30007e0c:	4fffa597          	auipc	a1,0x4fffa
    30007e10:	6c458593          	addi	a1,a1,1732 # 800024d0 <__FUNCTION__.3>
    30007e14:	4fffa517          	auipc	a0,0x4fffa
    30007e18:	64450513          	addi	a0,a0,1604 # 80002458 <__fsym_mkdir_name+0x18>
    30007e1c:	81cfb0ef          	jal	ra,30002e38 <rt_assert_handler>
    30007e20:	03843583          	ld	a1,56(s0)
    30007e24:	00090693          	mv	a3,s2
    30007e28:	00048613          	mv	a2,s1
    30007e2c:	00098513          	mv	a0,s3
    30007e30:	964f90ef          	jal	ra,30000f94 <rt_device_write>
    30007e34:	03843783          	ld	a5,56(s0)
    30007e38:	0005051b          	sext.w	a0,a0
    30007e3c:	02813083          	ld	ra,40(sp)
    30007e40:	00a787b3          	add	a5,a5,a0
    30007e44:	02f43c23          	sd	a5,56(s0)
    30007e48:	02013403          	ld	s0,32(sp)
    30007e4c:	01813483          	ld	s1,24(sp)
    30007e50:	01013903          	ld	s2,16(sp)
    30007e54:	00813983          	ld	s3,8(sp)
    30007e58:	03010113          	addi	sp,sp,48
    30007e5c:	00008067          	ret

0000000030007e60 <dfs_device_fs_close>:
    30007e60:	fe010113          	addi	sp,sp,-32
    30007e64:	00813823          	sd	s0,16(sp)
    30007e68:	00113c23          	sd	ra,24(sp)
    30007e6c:	00913423          	sd	s1,8(sp)
    30007e70:	00050413          	mv	s0,a0
    30007e74:	00051e63          	bnez	a0,30007e90 <dfs_device_fs_close+0x30>
    30007e78:	05c00613          	li	a2,92
    30007e7c:	4fffa597          	auipc	a1,0x4fffa
    30007e80:	63c58593          	addi	a1,a1,1596 # 800024b8 <__FUNCTION__.2>
    30007e84:	4fffa517          	auipc	a0,0x4fffa
    30007e88:	5c450513          	addi	a0,a0,1476 # 80002448 <__fsym_mkdir_name+0x8>
    30007e8c:	fadfa0ef          	jal	ra,30002e38 <rt_assert_handler>
    30007e90:	00245703          	lhu	a4,2(s0)
    30007e94:	00200793          	li	a5,2
    30007e98:	04043483          	ld	s1,64(s0)
    30007e9c:	04f71263          	bne	a4,a5,30007ee0 <dfs_device_fs_close+0x80>
    30007ea0:	00049e63          	bnez	s1,30007ebc <dfs_device_fs_close+0x5c>
    30007ea4:	06300613          	li	a2,99
    30007ea8:	4fffa597          	auipc	a1,0x4fffa
    30007eac:	61058593          	addi	a1,a1,1552 # 800024b8 <__FUNCTION__.2>
    30007eb0:	4fffa517          	auipc	a0,0x4fffa
    30007eb4:	5c050513          	addi	a0,a0,1472 # 80002470 <__fsym_mkdir_name+0x30>
    30007eb8:	f81fa0ef          	jal	ra,30002e38 <rt_assert_handler>
    30007ebc:	00048513          	mv	a0,s1
    30007ec0:	b61f90ef          	jal	ra,30001a20 <rt_free>
    30007ec4:	00000793          	li	a5,0
    30007ec8:	01813083          	ld	ra,24(sp)
    30007ecc:	01013403          	ld	s0,16(sp)
    30007ed0:	00813483          	ld	s1,8(sp)
    30007ed4:	00078513          	mv	a0,a5
    30007ed8:	02010113          	addi	sp,sp,32
    30007edc:	00008067          	ret
    30007ee0:	00049e63          	bnez	s1,30007efc <dfs_device_fs_close+0x9c>
    30007ee4:	06c00613          	li	a2,108
    30007ee8:	4fffa597          	auipc	a1,0x4fffa
    30007eec:	5d058593          	addi	a1,a1,1488 # 800024b8 <__FUNCTION__.2>
    30007ef0:	4fffa517          	auipc	a0,0x4fffa
    30007ef4:	56850513          	addi	a0,a0,1384 # 80002458 <__fsym_mkdir_name+0x18>
    30007ef8:	f41fa0ef          	jal	ra,30002e38 <rt_assert_handler>
    30007efc:	00048513          	mv	a0,s1
    30007f00:	f15f80ef          	jal	ra,30000e14 <rt_device_close>
    30007f04:	ffb00793          	li	a5,-5
    30007f08:	fc0510e3          	bnez	a0,30007ec8 <dfs_device_fs_close+0x68>
    30007f0c:	04043023          	sd	zero,64(s0)
    30007f10:	fb5ff06f          	j	30007ec4 <dfs_device_fs_close+0x64>

0000000030007f14 <dfs_device_fs_stat>:
    30007f14:	0005c703          	lbu	a4,0(a1)
    30007f18:	ff010113          	addi	sp,sp,-16
    30007f1c:	00813023          	sd	s0,0(sp)
    30007f20:	00113423          	sd	ra,8(sp)
    30007f24:	02f00793          	li	a5,47
    30007f28:	00060413          	mv	s0,a2
    30007f2c:	02f71c63          	bne	a4,a5,30007f64 <dfs_device_fs_stat+0x50>
    30007f30:	0015c783          	lbu	a5,1(a1)
    30007f34:	02079863          	bnez	a5,30007f64 <dfs_device_fs_stat+0x50>
    30007f38:	000047b7          	lui	a5,0x4
    30007f3c:	00063023          	sd	zero,0(a2) # 10000 <__stack_size+0xf800>
    30007f40:	1ff78793          	addi	a5,a5,511 # 41ff <__stack_size+0x39ff>
    30007f44:	00f42823          	sw	a5,16(s0)
    30007f48:	02043823          	sd	zero,48(s0)
    30007f4c:	04043c23          	sd	zero,88(s0)
    30007f50:	00000513          	li	a0,0
    30007f54:	00813083          	ld	ra,8(sp)
    30007f58:	00013403          	ld	s0,0(sp)
    30007f5c:	01010113          	addi	sp,sp,16
    30007f60:	00008067          	ret
    30007f64:	00158513          	addi	a0,a1,1
    30007f68:	cd5f80ef          	jal	ra,30000c3c <rt_device_find>
    30007f6c:	00050793          	mv	a5,a0
    30007f70:	ffe00513          	li	a0,-2
    30007f74:	fe0780e3          	beqz	a5,30007f54 <dfs_device_fs_stat+0x40>
    30007f78:	0287a783          	lw	a5,40(a5)
    30007f7c:	00043023          	sd	zero,0(s0)
    30007f80:	02078063          	beqz	a5,30007fa0 <dfs_device_fs_stat+0x8c>
    30007f84:	00100713          	li	a4,1
    30007f88:	02e78063          	beq	a5,a4,30007fa8 <dfs_device_fs_stat+0x94>
    30007f8c:	00f00713          	li	a4,15
    30007f90:	02e79063          	bne	a5,a4,30007fb0 <dfs_device_fs_stat+0x9c>
    30007f94:	000017b7          	lui	a5,0x1
    30007f98:	1b678793          	addi	a5,a5,438 # 11b6 <__stack_size+0x9b6>
    30007f9c:	fa9ff06f          	j	30007f44 <dfs_device_fs_stat+0x30>
    30007fa0:	000027b7          	lui	a5,0x2
    30007fa4:	ff5ff06f          	j	30007f98 <dfs_device_fs_stat+0x84>
    30007fa8:	000067b7          	lui	a5,0x6
    30007fac:	fedff06f          	j	30007f98 <dfs_device_fs_stat+0x84>
    30007fb0:	000087b7          	lui	a5,0x8
    30007fb4:	fe5ff06f          	j	30007f98 <dfs_device_fs_stat+0x84>

0000000030007fb8 <dfs_device_fs_open>:
    30007fb8:	fd010113          	addi	sp,sp,-48
    30007fbc:	02813023          	sd	s0,32(sp)
    30007fc0:	00050413          	mv	s0,a0
    30007fc4:	00853503          	ld	a0,8(a0)
    30007fc8:	02113423          	sd	ra,40(sp)
    30007fcc:	00913c23          	sd	s1,24(sp)
    30007fd0:	01213823          	sd	s2,16(sp)
    30007fd4:	01313423          	sd	s3,8(sp)
    30007fd8:	01413023          	sd	s4,0(sp)
    30007fdc:	00054703          	lbu	a4,0(a0)
    30007fe0:	02f00793          	li	a5,47
    30007fe4:	0ef71463          	bne	a4,a5,300080cc <dfs_device_fs_open+0x114>
    30007fe8:	00154783          	lbu	a5,1(a0)
    30007fec:	0e079063          	bnez	a5,300080cc <dfs_device_fs_open+0x114>
    30007ff0:	02842783          	lw	a5,40(s0)
    30007ff4:	0107d793          	srli	a5,a5,0x10
    30007ff8:	0017f793          	andi	a5,a5,1
    30007ffc:	0c078863          	beqz	a5,300080cc <dfs_device_fs_open+0x114>
    30008000:	c85fc0ef          	jal	ra,30004c84 <rt_enter_critical>
    30008004:	00900513          	li	a0,9
    30008008:	aecfc0ef          	jal	ra,300042f4 <rt_object_get_information>
    3000800c:	00050913          	mv	s2,a0
    30008010:	00051e63          	bnez	a0,3000802c <dfs_device_fs_open+0x74>
    30008014:	08e00613          	li	a2,142
    30008018:	4fffa597          	auipc	a1,0x4fffa
    3000801c:	48858593          	addi	a1,a1,1160 # 800024a0 <__FUNCTION__.1>
    30008020:	4fff9517          	auipc	a0,0x4fff9
    30008024:	4d050513          	addi	a0,a0,1232 # 800014f0 <__FUNCTION__.9+0x10>
    30008028:	e11fa0ef          	jal	ra,30002e38 <rt_assert_handler>
    3000802c:	00893783          	ld	a5,8(s2)
    30008030:	00000993          	li	s3,0
    30008034:	00890a13          	addi	s4,s2,8
    30008038:	04fa1663          	bne	s4,a5,30008084 <dfs_device_fs_open+0xcc>
    3000803c:	02099793          	slli	a5,s3,0x20
    30008040:	01d7d513          	srli	a0,a5,0x1d
    30008044:	01050513          	addi	a0,a0,16
    30008048:	eb8f90ef          	jal	ra,30001700 <rt_malloc>
    3000804c:	00050493          	mv	s1,a0
    30008050:	04051063          	bnez	a0,30008090 <dfs_device_fs_open+0xd8>
    30008054:	c59fc0ef          	jal	ra,30004cac <rt_exit_critical>
    30008058:	04943023          	sd	s1,64(s0)
    3000805c:	00000793          	li	a5,0
    30008060:	02813083          	ld	ra,40(sp)
    30008064:	02013403          	ld	s0,32(sp)
    30008068:	01813483          	ld	s1,24(sp)
    3000806c:	01013903          	ld	s2,16(sp)
    30008070:	00813983          	ld	s3,8(sp)
    30008074:	00013a03          	ld	s4,0(sp)
    30008078:	00078513          	mv	a0,a5
    3000807c:	03010113          	addi	sp,sp,48
    30008080:	00008067          	ret
    30008084:	0007b783          	ld	a5,0(a5) # 8000 <__stack_size+0x7800>
    30008088:	0019899b          	addiw	s3,s3,1
    3000808c:	fadff06f          	j	30008038 <dfs_device_fs_open+0x80>
    30008090:	00893783          	ld	a5,8(s2)
    30008094:	01050613          	addi	a2,a0,16
    30008098:	00c53023          	sd	a2,0(a0)
    3000809c:	00051423          	sh	zero,8(a0)
    300080a0:	01351523          	sh	s3,10(a0)
    300080a4:	00000713          	li	a4,0
    300080a8:	fafa06e3          	beq	s4,a5,30008054 <dfs_device_fs_open+0x9c>
    300080ac:	02071593          	slli	a1,a4,0x20
    300080b0:	01d5d693          	srli	a3,a1,0x1d
    300080b4:	00d606b3          	add	a3,a2,a3
    300080b8:	fe878593          	addi	a1,a5,-24
    300080bc:	00b6b023          	sd	a1,0(a3)
    300080c0:	0007b783          	ld	a5,0(a5)
    300080c4:	0017071b          	addiw	a4,a4,1 # 4001 <__stack_size+0x3801>
    300080c8:	fe1ff06f          	j	300080a8 <dfs_device_fs_open+0xf0>
    300080cc:	00150513          	addi	a0,a0,1
    300080d0:	b6df80ef          	jal	ra,30000c3c <rt_device_find>
    300080d4:	00050493          	mv	s1,a0
    300080d8:	fed00793          	li	a5,-19
    300080dc:	f80502e3          	beqz	a0,30008060 <dfs_device_fs_open+0xa8>
    300080e0:	00300593          	li	a1,3
    300080e4:	bd9f80ef          	jal	ra,30000cbc <rt_device_open>
    300080e8:	00050663          	beqz	a0,300080f4 <dfs_device_fs_open+0x13c>
    300080ec:	ffa00793          	li	a5,-6
    300080f0:	00f51a63          	bne	a0,a5,30008104 <dfs_device_fs_open+0x14c>
    300080f4:	00400793          	li	a5,4
    300080f8:	04943023          	sd	s1,64(s0)
    300080fc:	00f41123          	sh	a5,2(s0)
    30008100:	f5dff06f          	j	3000805c <dfs_device_fs_open+0xa4>
    30008104:	04043023          	sd	zero,64(s0)
    30008108:	ffb00793          	li	a5,-5
    3000810c:	f55ff06f          	j	30008060 <dfs_device_fs_open+0xa8>

0000000030008110 <dfs_device_fs_getdents>:
    30008110:	fc010113          	addi	sp,sp,-64
    30008114:	03213023          	sd	s2,32(sp)
    30008118:	04053903          	ld	s2,64(a0)
    3000811c:	02813823          	sd	s0,48(sp)
    30008120:	02913423          	sd	s1,40(sp)
    30008124:	02113c23          	sd	ra,56(sp)
    30008128:	01313c23          	sd	s3,24(sp)
    3000812c:	01413823          	sd	s4,16(sp)
    30008130:	01513423          	sd	s5,8(sp)
    30008134:	01613023          	sd	s6,0(sp)
    30008138:	00058413          	mv	s0,a1
    3000813c:	00060493          	mv	s1,a2
    30008140:	00091e63          	bnez	s2,3000815c <dfs_device_fs_getdents+0x4c>
    30008144:	10b00613          	li	a2,267
    30008148:	4fffa597          	auipc	a1,0x4fffa
    3000814c:	34058593          	addi	a1,a1,832 # 80002488 <__FUNCTION__.0>
    30008150:	4fffa517          	auipc	a0,0x4fffa
    30008154:	32050513          	addi	a0,a0,800 # 80002470 <__fsym_mkdir_name+0x30>
    30008158:	ce1fa0ef          	jal	ra,30002e38 <rt_assert_handler>
    3000815c:	02049513          	slli	a0,s1,0x20
    30008160:	10400593          	li	a1,260
    30008164:	02055513          	srli	a0,a0,0x20
    30008168:	808fd0ef          	jal	ra,30005170 <__udivdi3>
    3000816c:	10300793          	li	a5,259
    30008170:	0005099b          	sext.w	s3,a0
    30008174:	fea00513          	li	a0,-22
    30008178:	0497f063          	bgeu	a5,s1,300081b8 <dfs_device_fs_getdents+0xa8>
    3000817c:	00440413          	addi	s0,s0,4
    30008180:	00000493          	li	s1,0
    30008184:	00100a13          	li	s4,1
    30008188:	01400a93          	li	s5,20
    3000818c:	10400b13          	li	s6,260
    30008190:	00895783          	lhu	a5,8(s2)
    30008194:	009787bb          	addw	a5,a5,s1
    30008198:	01348863          	beq	s1,s3,300081a8 <dfs_device_fs_getdents+0x98>
    3000819c:	00a95683          	lhu	a3,10(s2)
    300081a0:	0007871b          	sext.w	a4,a5
    300081a4:	02d76e63          	bltu	a4,a3,300081e0 <dfs_device_fs_getdents+0xd0>
    300081a8:	0064951b          	slliw	a0,s1,0x6
    300081ac:	0095053b          	addw	a0,a0,s1
    300081b0:	00f91423          	sh	a5,8(s2)
    300081b4:	0025151b          	slliw	a0,a0,0x2
    300081b8:	03813083          	ld	ra,56(sp)
    300081bc:	03013403          	ld	s0,48(sp)
    300081c0:	02813483          	ld	s1,40(sp)
    300081c4:	02013903          	ld	s2,32(sp)
    300081c8:	01813983          	ld	s3,24(sp)
    300081cc:	01013a03          	ld	s4,16(sp)
    300081d0:	00813a83          	ld	s5,8(sp)
    300081d4:	00013b03          	ld	s6,0(sp)
    300081d8:	04010113          	addi	sp,sp,64
    300081dc:	00008067          	ret
    300081e0:	00093703          	ld	a4,0(s2)
    300081e4:	02079693          	slli	a3,a5,0x20
    300081e8:	01d6d793          	srli	a5,a3,0x1d
    300081ec:	00f707b3          	add	a5,a4,a5
    300081f0:	0007b583          	ld	a1,0(a5)
    300081f4:	00040513          	mv	a0,s0
    300081f8:	ff440e23          	sb	s4,-4(s0)
    300081fc:	ff540ea3          	sb	s5,-3(s0)
    30008200:	ff641f23          	sh	s6,-2(s0)
    30008204:	01400613          	li	a2,20
    30008208:	b14fa0ef          	jal	ra,3000251c <rt_strncpy>
    3000820c:	0014849b          	addiw	s1,s1,1
    30008210:	10440413          	addi	s0,s0,260
    30008214:	f7dff06f          	j	30008190 <dfs_device_fs_getdents+0x80>

0000000030008218 <devfs_init>:
    30008218:	ff010113          	addi	sp,sp,-16
    3000821c:	4fffa517          	auipc	a0,0x4fffa
    30008220:	34450513          	addi	a0,a0,836 # 80002560 <_device_fs>
    30008224:	00113423          	sd	ra,8(sp)
    30008228:	b0dfe0ef          	jal	ra,30006d34 <dfs_register>
    3000822c:	00813083          	ld	ra,8(sp)
    30008230:	00000513          	li	a0,0
    30008234:	01010113          	addi	sp,sp,16
    30008238:	00008067          	ret

000000003000823c <dfs_romfs_mount>:
    3000823c:	00060863          	beqz	a2,3000824c <dfs_romfs_mount+0x10>
    30008240:	00c53c23          	sd	a2,24(a0)
    30008244:	00000513          	li	a0,0
    30008248:	00008067          	ret
    3000824c:	ffb00513          	li	a0,-5
    30008250:	00008067          	ret

0000000030008254 <dfs_romfs_unmount>:
    30008254:	00000513          	li	a0,0
    30008258:	00008067          	ret

000000003000825c <dfs_romfs_ioctl>:
    3000825c:	ffb00513          	li	a0,-5
    30008260:	00008067          	ret

0000000030008264 <check_dirent>:
    30008264:	00052703          	lw	a4,0(a0)
    30008268:	00100793          	li	a5,1
    3000826c:	00e7ec63          	bltu	a5,a4,30008284 <check_dirent+0x20>
    30008270:	01853503          	ld	a0,24(a0)
    30008274:	00150513          	addi	a0,a0,1
    30008278:	00153513          	seqz	a0,a0
    3000827c:	40a00533          	neg	a0,a0
    30008280:	00008067          	ret
    30008284:	fff00513          	li	a0,-1
    30008288:	00008067          	ret

000000003000828c <dfs_romfs_lseek>:
    3000828c:	03053783          	ld	a5,48(a0)
    30008290:	00b7e863          	bltu	a5,a1,300082a0 <dfs_romfs_lseek+0x14>
    30008294:	02b53c23          	sd	a1,56(a0)
    30008298:	0005851b          	sext.w	a0,a1
    3000829c:	00008067          	ret
    300082a0:	ffb00513          	li	a0,-5
    300082a4:	00008067          	ret

00000000300082a8 <dfs_romfs_close>:
    300082a8:	04053023          	sd	zero,64(a0)
    300082ac:	00000513          	li	a0,0
    300082b0:	00008067          	ret

00000000300082b4 <dfs_romfs_read>:
    300082b4:	fd010113          	addi	sp,sp,-48
    300082b8:	01413023          	sd	s4,0(sp)
    300082bc:	04053a03          	ld	s4,64(a0)
    300082c0:	00913c23          	sd	s1,24(sp)
    300082c4:	01213823          	sd	s2,16(sp)
    300082c8:	01313423          	sd	s3,8(sp)
    300082cc:	02113423          	sd	ra,40(sp)
    300082d0:	02813023          	sd	s0,32(sp)
    300082d4:	00050493          	mv	s1,a0
    300082d8:	00058993          	mv	s3,a1
    300082dc:	00060913          	mv	s2,a2
    300082e0:	000a1e63          	bnez	s4,300082fc <dfs_romfs_read+0x48>
    300082e4:	08900613          	li	a2,137
    300082e8:	4fffa597          	auipc	a1,0x4fffa
    300082ec:	32058593          	addi	a1,a1,800 # 80002608 <__FUNCTION__.1>
    300082f0:	4fffa517          	auipc	a0,0x4fffa
    300082f4:	2c050513          	addi	a0,a0,704 # 800025b0 <_device_fs+0x50>
    300082f8:	b41fa0ef          	jal	ra,30002e38 <rt_assert_handler>
    300082fc:	000a0513          	mv	a0,s4
    30008300:	f65ff0ef          	jal	ra,30008264 <check_dirent>
    30008304:	ffb00413          	li	s0,-5
    30008308:	04051063          	bnez	a0,30008348 <dfs_romfs_read+0x94>
    3000830c:	0384b783          	ld	a5,56(s1)
    30008310:	0304b403          	ld	s0,48(s1)
    30008314:	40f40433          	sub	s0,s0,a5
    30008318:	00897463          	bgeu	s2,s0,30008320 <dfs_romfs_read+0x6c>
    3000831c:	00090413          	mv	s0,s2
    30008320:	00040c63          	beqz	s0,30008338 <dfs_romfs_read+0x84>
    30008324:	010a3583          	ld	a1,16(s4)
    30008328:	00040613          	mv	a2,s0
    3000832c:	00098513          	mv	a0,s3
    30008330:	00f585b3          	add	a1,a1,a5
    30008334:	814f80ef          	jal	ra,30000348 <memcpy>
    30008338:	0384b783          	ld	a5,56(s1)
    3000833c:	008787b3          	add	a5,a5,s0
    30008340:	02f4bc23          	sd	a5,56(s1)
    30008344:	0004041b          	sext.w	s0,s0
    30008348:	02813083          	ld	ra,40(sp)
    3000834c:	00040513          	mv	a0,s0
    30008350:	02013403          	ld	s0,32(sp)
    30008354:	01813483          	ld	s1,24(sp)
    30008358:	01013903          	ld	s2,16(sp)
    3000835c:	00813983          	ld	s3,8(sp)
    30008360:	00013a03          	ld	s4,0(sp)
    30008364:	03010113          	addi	sp,sp,48
    30008368:	00008067          	ret

000000003000836c <dfs_romfs_getdents>:
    3000836c:	fb010113          	addi	sp,sp,-80
    30008370:	03313423          	sd	s3,40(sp)
    30008374:	04053983          	ld	s3,64(a0)
    30008378:	02913c23          	sd	s1,56(sp)
    3000837c:	00050493          	mv	s1,a0
    30008380:	00098513          	mv	a0,s3
    30008384:	04813023          	sd	s0,64(sp)
    30008388:	03213823          	sd	s2,48(sp)
    3000838c:	04113423          	sd	ra,72(sp)
    30008390:	03413023          	sd	s4,32(sp)
    30008394:	01513c23          	sd	s5,24(sp)
    30008398:	01613823          	sd	s6,16(sp)
    3000839c:	00058413          	mv	s0,a1
    300083a0:	00060913          	mv	s2,a2
    300083a4:	ec1ff0ef          	jal	ra,30008264 <check_dirent>
    300083a8:	10051263          	bnez	a0,300084ac <dfs_romfs_getdents+0x140>
    300083ac:	0009a703          	lw	a4,0(s3)
    300083b0:	00100793          	li	a5,1
    300083b4:	00f70e63          	beq	a4,a5,300083d0 <dfs_romfs_getdents+0x64>
    300083b8:	0fd00613          	li	a2,253
    300083bc:	4fffa597          	auipc	a1,0x4fffa
    300083c0:	23458593          	addi	a1,a1,564 # 800025f0 <__FUNCTION__.0>
    300083c4:	4fffa517          	auipc	a0,0x4fffa
    300083c8:	1fc50513          	addi	a0,a0,508 # 800025c0 <_device_fs+0x60>
    300083cc:	a6dfa0ef          	jal	ra,30002e38 <rt_assert_handler>
    300083d0:	02091513          	slli	a0,s2,0x20
    300083d4:	10400593          	li	a1,260
    300083d8:	02055513          	srli	a0,a0,0x20
    300083dc:	d95fc0ef          	jal	ra,30005170 <__udivdi3>
    300083e0:	10300793          	li	a5,259
    300083e4:	0109ba03          	ld	s4,16(s3)
    300083e8:	0005099b          	sext.w	s3,a0
    300083ec:	fea00513          	li	a0,-22
    300083f0:	0327f663          	bgeu	a5,s2,3000841c <dfs_romfs_getdents+0xb0>
    300083f4:	02099993          	slli	s3,s3,0x20
    300083f8:	00440413          	addi	s0,s0,4
    300083fc:	00000913          	li	s2,0
    30008400:	0209d993          	srli	s3,s3,0x20
    30008404:	00100b13          	li	s6,1
    30008408:	10400a93          	li	s5,260
    3000840c:	03396c63          	bltu	s2,s3,30008444 <dfs_romfs_getdents+0xd8>
    30008410:	0069151b          	slliw	a0,s2,0x6
    30008414:	0125053b          	addw	a0,a0,s2
    30008418:	0025151b          	slliw	a0,a0,0x2
    3000841c:	04813083          	ld	ra,72(sp)
    30008420:	04013403          	ld	s0,64(sp)
    30008424:	03813483          	ld	s1,56(sp)
    30008428:	03013903          	ld	s2,48(sp)
    3000842c:	02813983          	ld	s3,40(sp)
    30008430:	02013a03          	ld	s4,32(sp)
    30008434:	01813a83          	ld	s5,24(sp)
    30008438:	01013b03          	ld	s6,16(sp)
    3000843c:	05010113          	addi	sp,sp,80
    30008440:	00008067          	ret
    30008444:	0384b783          	ld	a5,56(s1)
    30008448:	0304b703          	ld	a4,48(s1)
    3000844c:	fce7f2e3          	bgeu	a5,a4,30008410 <dfs_romfs_getdents+0xa4>
    30008450:	00579793          	slli	a5,a5,0x5
    30008454:	00fa07b3          	add	a5,s4,a5
    30008458:	0007a703          	lw	a4,0(a5)
    3000845c:	0087b583          	ld	a1,8(a5)
    30008460:	00200793          	li	a5,2
    30008464:	01670463          	beq	a4,s6,3000846c <dfs_romfs_getdents+0x100>
    30008468:	00100793          	li	a5,1
    3000846c:	fef40e23          	sb	a5,-4(s0)
    30008470:	00058513          	mv	a0,a1
    30008474:	00b13423          	sd	a1,8(sp)
    30008478:	94cfa0ef          	jal	ra,300025c4 <rt_strlen>
    3000847c:	00813583          	ld	a1,8(sp)
    30008480:	fea40ea3          	sb	a0,-3(s0)
    30008484:	ff541f23          	sh	s5,-2(s0)
    30008488:	00040513          	mv	a0,s0
    3000848c:	10000613          	li	a2,256
    30008490:	88cfa0ef          	jal	ra,3000251c <rt_strncpy>
    30008494:	0384b783          	ld	a5,56(s1)
    30008498:	00190913          	addi	s2,s2,1
    3000849c:	10440413          	addi	s0,s0,260
    300084a0:	00178793          	addi	a5,a5,1
    300084a4:	02f4bc23          	sd	a5,56(s1)
    300084a8:	f65ff06f          	j	3000840c <dfs_romfs_getdents+0xa0>
    300084ac:	ffb00513          	li	a0,-5
    300084b0:	f6dff06f          	j	3000841c <dfs_romfs_getdents+0xb0>

00000000300084b4 <dfs_romfs_init>:
    300084b4:	ff010113          	addi	sp,sp,-16
    300084b8:	4fffa517          	auipc	a0,0x4fffa
    300084bc:	1a850513          	addi	a0,a0,424 # 80002660 <_romfs>
    300084c0:	00113423          	sd	ra,8(sp)
    300084c4:	871fe0ef          	jal	ra,30006d34 <dfs_register>
    300084c8:	00813083          	ld	ra,8(sp)
    300084cc:	00000513          	li	a0,0
    300084d0:	01010113          	addi	sp,sp,16
    300084d4:	00008067          	ret

00000000300084d8 <dfs_romfs_lookup>:
    300084d8:	fa010113          	addi	sp,sp,-96
    300084dc:	04813823          	sd	s0,80(sp)
    300084e0:	03313c23          	sd	s3,56(sp)
    300084e4:	03513423          	sd	s5,40(sp)
    300084e8:	04113c23          	sd	ra,88(sp)
    300084ec:	04913423          	sd	s1,72(sp)
    300084f0:	05213023          	sd	s2,64(sp)
    300084f4:	03413823          	sd	s4,48(sp)
    300084f8:	03613023          	sd	s6,32(sp)
    300084fc:	01713c23          	sd	s7,24(sp)
    30008500:	01813823          	sd	s8,16(sp)
    30008504:	01913423          	sd	s9,8(sp)
    30008508:	00050993          	mv	s3,a0
    3000850c:	00058413          	mv	s0,a1
    30008510:	00060a93          	mv	s5,a2
    30008514:	d51ff0ef          	jal	ra,30008264 <check_dirent>
    30008518:	04050063          	beqz	a0,30008558 <dfs_romfs_lookup+0x80>
    3000851c:	00000993          	li	s3,0
    30008520:	05813083          	ld	ra,88(sp)
    30008524:	05013403          	ld	s0,80(sp)
    30008528:	04813483          	ld	s1,72(sp)
    3000852c:	04013903          	ld	s2,64(sp)
    30008530:	03013a03          	ld	s4,48(sp)
    30008534:	02813a83          	ld	s5,40(sp)
    30008538:	02013b03          	ld	s6,32(sp)
    3000853c:	01813b83          	ld	s7,24(sp)
    30008540:	01013c03          	ld	s8,16(sp)
    30008544:	00813c83          	ld	s9,8(sp)
    30008548:	00098513          	mv	a0,s3
    3000854c:	03813983          	ld	s3,56(sp)
    30008550:	06010113          	addi	sp,sp,96
    30008554:	00008067          	ret
    30008558:	00044703          	lbu	a4,0(s0)
    3000855c:	02f00793          	li	a5,47
    30008560:	0189ba03          	ld	s4,24(s3)
    30008564:	00f71a63          	bne	a4,a5,30008578 <dfs_romfs_lookup+0xa0>
    30008568:	00144783          	lbu	a5,1(s0)
    3000856c:	00079663          	bnez	a5,30008578 <dfs_romfs_lookup+0xa0>
    30008570:	014ab023          	sd	s4,0(s5)
    30008574:	fadff06f          	j	30008520 <dfs_romfs_lookup+0x48>
    30008578:	0109b483          	ld	s1,16(s3)
    3000857c:	02f00793          	li	a5,47
    30008580:	00044703          	lbu	a4,0(s0)
    30008584:	02f70263          	beq	a4,a5,300085a8 <dfs_romfs_lookup+0xd0>
    30008588:	00040913          	mv	s2,s0
    3000858c:	02f00713          	li	a4,47
    30008590:	00094783          	lbu	a5,0(s2)
    30008594:	00e78463          	beq	a5,a4,3000859c <dfs_romfs_lookup+0xc4>
    30008598:	00079c63          	bnez	a5,300085b0 <dfs_romfs_lookup+0xd8>
    3000859c:	02f00c13          	li	s8,47
    300085a0:	00100c93          	li	s9,1
    300085a4:	0900006f          	j	30008634 <dfs_romfs_lookup+0x15c>
    300085a8:	00140413          	addi	s0,s0,1
    300085ac:	fd5ff06f          	j	30008580 <dfs_romfs_lookup+0xa8>
    300085b0:	00190913          	addi	s2,s2,1
    300085b4:	fddff06f          	j	30008590 <dfs_romfs_lookup+0xb8>
    300085b8:	00140413          	addi	s0,s0,1
    300085bc:	0500006f          	j	3000860c <dfs_romfs_lookup+0x134>
    300085c0:	00190913          	addi	s2,s2,1
    300085c4:	0540006f          	j	30008618 <dfs_romfs_lookup+0x140>
    300085c8:	001b0b13          	addi	s6,s6,1
    300085cc:	02048493          	addi	s1,s1,32
    300085d0:	f54b06e3          	beq	s6,s4,3000851c <dfs_romfs_lookup+0x44>
    300085d4:	00048513          	mv	a0,s1
    300085d8:	00048993          	mv	s3,s1
    300085dc:	c89ff0ef          	jal	ra,30008264 <check_dirent>
    300085e0:	f2051ee3          	bnez	a0,3000851c <dfs_romfs_lookup+0x44>
    300085e4:	0084b503          	ld	a0,8(s1)
    300085e8:	fddf90ef          	jal	ra,300025c4 <rt_strlen>
    300085ec:	fd751ee3          	bne	a0,s7,300085c8 <dfs_romfs_lookup+0xf0>
    300085f0:	0084b503          	ld	a0,8(s1)
    300085f4:	000b8613          	mv	a2,s7
    300085f8:	00040593          	mv	a1,s0
    300085fc:	f65f90ef          	jal	ra,30002560 <rt_strncmp>
    30008600:	fc0514e3          	bnez	a0,300085c8 <dfs_romfs_lookup+0xf0>
    30008604:	0184ba03          	ld	s4,24(s1)
    30008608:	00090413          	mv	s0,s2
    3000860c:	00044783          	lbu	a5,0(s0)
    30008610:	fb8784e3          	beq	a5,s8,300085b8 <dfs_romfs_lookup+0xe0>
    30008614:	00040913          	mv	s2,s0
    30008618:	00094703          	lbu	a4,0(s2)
    3000861c:	01870463          	beq	a4,s8,30008624 <dfs_romfs_lookup+0x14c>
    30008620:	fa0710e3          	bnez	a4,300085c0 <dfs_romfs_lookup+0xe8>
    30008624:	f40786e3          	beqz	a5,30008570 <dfs_romfs_lookup+0x98>
    30008628:	0004a783          	lw	a5,0(s1)
    3000862c:	ef9798e3          	bne	a5,s9,3000851c <dfs_romfs_lookup+0x44>
    30008630:	0104b483          	ld	s1,16(s1)
    30008634:	ee0484e3          	beqz	s1,3000851c <dfs_romfs_lookup+0x44>
    30008638:	00000b13          	li	s6,0
    3000863c:	40890bb3          	sub	s7,s2,s0
    30008640:	f91ff06f          	j	300085d0 <dfs_romfs_lookup+0xf8>

0000000030008644 <dfs_romfs_open>:
    30008644:	04053783          	ld	a5,64(a0)
    30008648:	fd010113          	addi	sp,sp,-48
    3000864c:	01213823          	sd	s2,16(sp)
    30008650:	0187b903          	ld	s2,24(a5)
    30008654:	00913c23          	sd	s1,24(sp)
    30008658:	00050493          	mv	s1,a0
    3000865c:	00090513          	mv	a0,s2
    30008660:	02813023          	sd	s0,32(sp)
    30008664:	02113423          	sd	ra,40(sp)
    30008668:	bfdff0ef          	jal	ra,30008264 <check_dirent>
    3000866c:	ffb00413          	li	s0,-5
    30008670:	06051263          	bnez	a0,300086d4 <dfs_romfs_open+0x90>
    30008674:	0284a783          	lw	a5,40(s1)
    30008678:	fea00413          	li	s0,-22
    3000867c:	6437f793          	andi	a5,a5,1603
    30008680:	04079a63          	bnez	a5,300086d4 <dfs_romfs_open+0x90>
    30008684:	0084b583          	ld	a1,8(s1)
    30008688:	00050413          	mv	s0,a0
    3000868c:	00810613          	addi	a2,sp,8
    30008690:	00090513          	mv	a0,s2
    30008694:	e45ff0ef          	jal	ra,300084d8 <dfs_romfs_lookup>
    30008698:	02050063          	beqz	a0,300086b8 <dfs_romfs_open+0x74>
    3000869c:	0284a783          	lw	a5,40(s1)
    300086a0:	00052683          	lw	a3,0(a0)
    300086a4:	00010737          	lui	a4,0x10
    300086a8:	00e7f7b3          	and	a5,a5,a4
    300086ac:	00100713          	li	a4,1
    300086b0:	00e69863          	bne	a3,a4,300086c0 <dfs_romfs_open+0x7c>
    300086b4:	00079863          	bnez	a5,300086c4 <dfs_romfs_open+0x80>
    300086b8:	ffe00413          	li	s0,-2
    300086bc:	0180006f          	j	300086d4 <dfs_romfs_open+0x90>
    300086c0:	fe079ce3          	bnez	a5,300086b8 <dfs_romfs_open+0x74>
    300086c4:	00813783          	ld	a5,8(sp)
    300086c8:	04a4b023          	sd	a0,64(s1)
    300086cc:	0204bc23          	sd	zero,56(s1)
    300086d0:	02f4b823          	sd	a5,48(s1)
    300086d4:	02813083          	ld	ra,40(sp)
    300086d8:	00040513          	mv	a0,s0
    300086dc:	02013403          	ld	s0,32(sp)
    300086e0:	01813483          	ld	s1,24(sp)
    300086e4:	01013903          	ld	s2,16(sp)
    300086e8:	03010113          	addi	sp,sp,48
    300086ec:	00008067          	ret

00000000300086f0 <dfs_romfs_stat>:
    300086f0:	01853503          	ld	a0,24(a0)
    300086f4:	fe010113          	addi	sp,sp,-32
    300086f8:	00813823          	sd	s0,16(sp)
    300086fc:	00060413          	mv	s0,a2
    30008700:	00810613          	addi	a2,sp,8
    30008704:	00113c23          	sd	ra,24(sp)
    30008708:	dd1ff0ef          	jal	ra,300084d8 <dfs_romfs_lookup>
    3000870c:	04050663          	beqz	a0,30008758 <dfs_romfs_stat+0x68>
    30008710:	00052703          	lw	a4,0(a0)
    30008714:	00043023          	sd	zero,0(s0)
    30008718:	00100793          	li	a5,1
    3000871c:	02f70863          	beq	a4,a5,3000874c <dfs_romfs_stat+0x5c>
    30008720:	000087b7          	lui	a5,0x8
    30008724:	1b678793          	addi	a5,a5,438 # 81b6 <__stack_size+0x79b6>
    30008728:	00f42823          	sw	a5,16(s0)
    3000872c:	01853783          	ld	a5,24(a0)
    30008730:	04043c23          	sd	zero,88(s0)
    30008734:	00000513          	li	a0,0
    30008738:	02f43823          	sd	a5,48(s0)
    3000873c:	01813083          	ld	ra,24(sp)
    30008740:	01013403          	ld	s0,16(sp)
    30008744:	02010113          	addi	sp,sp,32
    30008748:	00008067          	ret
    3000874c:	000047b7          	lui	a5,0x4
    30008750:	1ff78793          	addi	a5,a5,511 # 41ff <__stack_size+0x39ff>
    30008754:	fd5ff06f          	j	30008728 <dfs_romfs_stat+0x38>
    30008758:	ffe00513          	li	a0,-2
    3000875c:	fe1ff06f          	j	3000873c <dfs_romfs_stat+0x4c>

0000000030008760 <finsh_rx_ind>:
    30008760:	ff010113          	addi	sp,sp,-16
    30008764:	00813023          	sd	s0,0(sp)
    30008768:	96818413          	addi	s0,gp,-1688 # 80004360 <shell>
    3000876c:	00043783          	ld	a5,0(s0)
    30008770:	00113423          	sd	ra,8(sp)
    30008774:	00079e63          	bnez	a5,30008790 <finsh_rx_ind+0x30>
    30008778:	0bf00613          	li	a2,191
    3000877c:	4fffa597          	auipc	a1,0x4fffa
    30008780:	fe458593          	addi	a1,a1,-28 # 80002760 <__FUNCTION__.4>
    30008784:	4fffa517          	auipc	a0,0x4fffa
    30008788:	f2c50513          	addi	a0,a0,-212 # 800026b0 <_romfs+0x50>
    3000878c:	eacfa0ef          	jal	ra,30002e38 <rt_assert_handler>
    30008790:	00043503          	ld	a0,0(s0)
    30008794:	a21fa0ef          	jal	ra,300031b4 <rt_sem_release>
    30008798:	00813083          	ld	ra,8(sp)
    3000879c:	00013403          	ld	s0,0(sp)
    300087a0:	00000513          	li	a0,0
    300087a4:	01010113          	addi	sp,sp,16
    300087a8:	00008067          	ret

00000000300087ac <finsh_get_prompt>:
    300087ac:	9681b783          	ld	a5,-1688(gp) # 80004360 <shell>
    300087b0:	0447c783          	lbu	a5,68(a5)
    300087b4:	0027f793          	andi	a5,a5,2
    300087b8:	00079c63          	bnez	a5,300087d0 <finsh_get_prompt+0x24>
    300087bc:	50005797          	auipc	a5,0x50005
    300087c0:	ba078223          	sb	zero,-1116(a5) # 8000d360 <finsh_prompt.8>
    300087c4:	50005517          	auipc	a0,0x50005
    300087c8:	b9c50513          	addi	a0,a0,-1124 # 8000d360 <finsh_prompt.8>
    300087cc:	00008067          	ret
    300087d0:	fe010113          	addi	sp,sp,-32
    300087d4:	00113c23          	sd	ra,24(sp)
    300087d8:	00813823          	sd	s0,16(sp)
    300087dc:	00913423          	sd	s1,8(sp)
    300087e0:	9601b583          	ld	a1,-1696(gp) # 80004358 <finsh_prompt_custom>
    300087e4:	02058863          	beqz	a1,30008814 <finsh_get_prompt+0x68>
    300087e8:	10000613          	li	a2,256
    300087ec:	50005517          	auipc	a0,0x50005
    300087f0:	b7450513          	addi	a0,a0,-1164 # 8000d360 <finsh_prompt.8>
    300087f4:	b0df70ef          	jal	ra,30000300 <strncpy>
    300087f8:	01813083          	ld	ra,24(sp)
    300087fc:	01013403          	ld	s0,16(sp)
    30008800:	00813483          	ld	s1,8(sp)
    30008804:	50005517          	auipc	a0,0x50005
    30008808:	b5c50513          	addi	a0,a0,-1188 # 8000d360 <finsh_prompt.8>
    3000880c:	02010113          	addi	sp,sp,32
    30008810:	00008067          	ret
    30008814:	09d020ef          	jal	ra,3000b0b0 <msh_is_used>
    30008818:	4fffa597          	auipc	a1,0x4fffa
    3000881c:	eb058593          	addi	a1,a1,-336 # 800026c8 <_romfs+0x68>
    30008820:	00051663          	bnez	a0,3000882c <finsh_get_prompt+0x80>
    30008824:	4fffa597          	auipc	a1,0x4fffa
    30008828:	eac58593          	addi	a1,a1,-340 # 800026d0 <_romfs+0x70>
    3000882c:	50005517          	auipc	a0,0x50005
    30008830:	b3450513          	addi	a0,a0,-1228 # 8000d360 <finsh_prompt.8>
    30008834:	aa9f70ef          	jal	ra,300002dc <strcpy>
    30008838:	50005417          	auipc	s0,0x50005
    3000883c:	b2840413          	addi	s0,s0,-1240 # 8000d360 <finsh_prompt.8>
    30008840:	00040513          	mv	a0,s0
    30008844:	d81f90ef          	jal	ra,300025c4 <rt_strlen>
    30008848:	00050493          	mv	s1,a0
    3000884c:	00040513          	mv	a0,s0
    30008850:	d75f90ef          	jal	ra,300025c4 <rt_strlen>
    30008854:	10000593          	li	a1,256
    30008858:	40a585b3          	sub	a1,a1,a0
    3000885c:	00940533          	add	a0,s0,s1
    30008860:	be4ff0ef          	jal	ra,30007c44 <getcwd>
    30008864:	4fffa597          	auipc	a1,0x4fffa
    30008868:	e7458593          	addi	a1,a1,-396 # 800026d8 <_romfs+0x78>
    3000886c:	00040513          	mv	a0,s0
    30008870:	a95f70ef          	jal	ra,30000304 <strcat>
    30008874:	f85ff06f          	j	300087f8 <finsh_get_prompt+0x4c>

0000000030008878 <shell_handle_history.isra.0>:
    30008878:	ff010113          	addi	sp,sp,-16
    3000887c:	00813023          	sd	s0,0(sp)
    30008880:	00050413          	mv	s0,a0
    30008884:	4fffa517          	auipc	a0,0x4fffa
    30008888:	e5c50513          	addi	a0,a0,-420 # 800026e0 <_romfs+0x80>
    3000888c:	00113423          	sd	ra,8(sp)
    30008890:	c24fa0ef          	jal	ra,30002cb4 <rt_kprintf>
    30008894:	f19ff0ef          	jal	ra,300087ac <finsh_get_prompt>
    30008898:	1da40613          	addi	a2,s0,474
    3000889c:	00013403          	ld	s0,0(sp)
    300088a0:	00813083          	ld	ra,8(sp)
    300088a4:	00050593          	mv	a1,a0
    300088a8:	4fffa517          	auipc	a0,0x4fffa
    300088ac:	e4050513          	addi	a0,a0,-448 # 800026e8 <_romfs+0x88>
    300088b0:	01010113          	addi	sp,sp,16
    300088b4:	c00fa06f          	j	30002cb4 <rt_kprintf>

00000000300088b8 <finsh_set_prompt_mode>:
    300088b8:	fe010113          	addi	sp,sp,-32
    300088bc:	00913423          	sd	s1,8(sp)
    300088c0:	96818493          	addi	s1,gp,-1688 # 80004360 <shell>
    300088c4:	0004b783          	ld	a5,0(s1)
    300088c8:	00813823          	sd	s0,16(sp)
    300088cc:	00113c23          	sd	ra,24(sp)
    300088d0:	00050413          	mv	s0,a0
    300088d4:	00079e63          	bnez	a5,300088f0 <finsh_set_prompt_mode+0x38>
    300088d8:	0a300613          	li	a2,163
    300088dc:	4fffa597          	auipc	a1,0x4fffa
    300088e0:	eac58593          	addi	a1,a1,-340 # 80002788 <__FUNCTION__.6>
    300088e4:	4fffa517          	auipc	a0,0x4fffa
    300088e8:	dcc50513          	addi	a0,a0,-564 # 800026b0 <_romfs+0x50>
    300088ec:	d4cfa0ef          	jal	ra,30002e38 <rt_assert_handler>
    300088f0:	0004b703          	ld	a4,0(s1)
    300088f4:	00147413          	andi	s0,s0,1
    300088f8:	0014141b          	slliw	s0,s0,0x1
    300088fc:	04474783          	lbu	a5,68(a4) # 10044 <__stack_size+0xf844>
    30008900:	01813083          	ld	ra,24(sp)
    30008904:	00813483          	ld	s1,8(sp)
    30008908:	ffd7f793          	andi	a5,a5,-3
    3000890c:	0087e7b3          	or	a5,a5,s0
    30008910:	01013403          	ld	s0,16(sp)
    30008914:	04f70223          	sb	a5,68(a4)
    30008918:	02010113          	addi	sp,sp,32
    3000891c:	00008067          	ret

0000000030008920 <finsh_system_init>:
    30008920:	4fff7797          	auipc	a5,0x4fff7
    30008924:	6e078793          	addi	a5,a5,1760 # 80000000 <__fsym___cmd_reboot>
    30008928:	94f1b023          	sd	a5,-1728(gp) # 80004338 <_syscall_table_begin>
    3000892c:	4fff8797          	auipc	a5,0x4fff8
    30008930:	c4478793          	addi	a5,a5,-956 # 80000570 <__rt_init_rti_start>
    30008934:	94f1b423          	sd	a5,-1720(gp) # 80004340 <_syscall_table_end>
    30008938:	4fff8797          	auipc	a5,0x4fff8
    3000893c:	c3878793          	addi	a5,a5,-968 # 80000570 <__rt_init_rti_start>
    30008940:	fe010113          	addi	sp,sp,-32
    30008944:	94f1b823          	sd	a5,-1712(gp) # 80004348 <_sysvar_table_begin>
    30008948:	23800593          	li	a1,568
    3000894c:	4fff8797          	auipc	a5,0x4fff8
    30008950:	c2478793          	addi	a5,a5,-988 # 80000570 <__rt_init_rti_start>
    30008954:	00100513          	li	a0,1
    30008958:	00913423          	sd	s1,8(sp)
    3000895c:	00113c23          	sd	ra,24(sp)
    30008960:	00813823          	sd	s0,16(sp)
    30008964:	94f1bc23          	sd	a5,-1704(gp) # 80004350 <_sysvar_table_end>
    30008968:	96818493          	addi	s1,gp,-1688 # 80004360 <shell>
    3000896c:	874f90ef          	jal	ra,300019e0 <rt_calloc>
    30008970:	00a4b023          	sd	a0,0(s1)
    30008974:	02051663          	bnez	a0,300089a0 <finsh_system_init+0x80>
    30008978:	4fffa517          	auipc	a0,0x4fffa
    3000897c:	d7850513          	addi	a0,a0,-648 # 800026f0 <_romfs+0x90>
    30008980:	b34fa0ef          	jal	ra,30002cb4 <rt_kprintf>
    30008984:	fff00493          	li	s1,-1
    30008988:	01813083          	ld	ra,24(sp)
    3000898c:	01013403          	ld	s0,16(sp)
    30008990:	00048513          	mv	a0,s1
    30008994:	00813483          	ld	s1,8(sp)
    30008998:	02010113          	addi	sp,sp,32
    3000899c:	00008067          	ret
    300089a0:	00a00793          	li	a5,10
    300089a4:	01400713          	li	a4,20
    300089a8:	000016b7          	lui	a3,0x1
    300089ac:	00000613          	li	a2,0
    300089b0:	00000597          	auipc	a1,0x0
    300089b4:	15058593          	addi	a1,a1,336 # 30008b00 <finsh_thread_entry>
    300089b8:	4fffa517          	auipc	a0,0x4fffa
    300089bc:	d5050513          	addi	a0,a0,-688 # 80002708 <_romfs+0xa8>
    300089c0:	aecfb0ef          	jal	ra,30003cac <rt_thread_create>
    300089c4:	00050413          	mv	s0,a0
    300089c8:	0004b503          	ld	a0,0(s1)
    300089cc:	00000693          	li	a3,0
    300089d0:	00000613          	li	a2,0
    300089d4:	4fffa597          	auipc	a1,0x4fffa
    300089d8:	d3c58593          	addi	a1,a1,-708 # 80002710 <_romfs+0xb0>
    300089dc:	d78fa0ef          	jal	ra,30002f54 <rt_sem_init>
    300089e0:	00100513          	li	a0,1
    300089e4:	ed5ff0ef          	jal	ra,300088b8 <finsh_set_prompt_mode>
    300089e8:	00000493          	li	s1,0
    300089ec:	f8040ee3          	beqz	s0,30008988 <finsh_system_init+0x68>
    300089f0:	00040513          	mv	a0,s0
    300089f4:	efcfb0ef          	jal	ra,300040f0 <rt_thread_startup>
    300089f8:	f91ff06f          	j	30008988 <finsh_system_init+0x68>

00000000300089fc <finsh_set_device>:
    300089fc:	fe010113          	addi	sp,sp,-32
    30008a00:	00913423          	sd	s1,8(sp)
    30008a04:	96818493          	addi	s1,gp,-1688 # 80004360 <shell>
    30008a08:	0004b783          	ld	a5,0(s1)
    30008a0c:	01213023          	sd	s2,0(sp)
    30008a10:	00113c23          	sd	ra,24(sp)
    30008a14:	00813823          	sd	s0,16(sp)
    30008a18:	00050913          	mv	s2,a0
    30008a1c:	00079e63          	bnez	a5,30008a38 <finsh_set_device+0x3c>
    30008a20:	0d200613          	li	a2,210
    30008a24:	4fffa597          	auipc	a1,0x4fffa
    30008a28:	d4c58593          	addi	a1,a1,-692 # 80002770 <__FUNCTION__.5>
    30008a2c:	4fffa517          	auipc	a0,0x4fffa
    30008a30:	c8450513          	addi	a0,a0,-892 # 800026b0 <_romfs+0x50>
    30008a34:	c04fa0ef          	jal	ra,30002e38 <rt_assert_handler>
    30008a38:	00090513          	mv	a0,s2
    30008a3c:	a00f80ef          	jal	ra,30000c3c <rt_device_find>
    30008a40:	00050413          	mv	s0,a0
    30008a44:	02051463          	bnez	a0,30008a6c <finsh_set_device+0x70>
    30008a48:	01013403          	ld	s0,16(sp)
    30008a4c:	01813083          	ld	ra,24(sp)
    30008a50:	00813483          	ld	s1,8(sp)
    30008a54:	00090593          	mv	a1,s2
    30008a58:	00013903          	ld	s2,0(sp)
    30008a5c:	4fffa517          	auipc	a0,0x4fffa
    30008a60:	cbc50513          	addi	a0,a0,-836 # 80002718 <_romfs+0xb8>
    30008a64:	02010113          	addi	sp,sp,32
    30008a68:	a4cfa06f          	j	30002cb4 <rt_kprintf>
    30008a6c:	0004b783          	ld	a5,0(s1)
    30008a70:	2307b783          	ld	a5,560(a5)
    30008a74:	06a78a63          	beq	a5,a0,30008ae8 <finsh_set_device+0xec>
    30008a78:	04300593          	li	a1,67
    30008a7c:	a40f80ef          	jal	ra,30000cbc <rt_device_open>
    30008a80:	06051463          	bnez	a0,30008ae8 <finsh_set_device+0xec>
    30008a84:	0004b783          	ld	a5,0(s1)
    30008a88:	2307b503          	ld	a0,560(a5)
    30008a8c:	00050c63          	beqz	a0,30008aa4 <finsh_set_device+0xa8>
    30008a90:	b84f80ef          	jal	ra,30000e14 <rt_device_close>
    30008a94:	0004b783          	ld	a5,0(s1)
    30008a98:	00000593          	li	a1,0
    30008a9c:	2307b503          	ld	a0,560(a5)
    30008aa0:	e74f80ef          	jal	ra,30001114 <rt_device_set_rx_indicate>
    30008aa4:	0004b503          	ld	a0,0(s1)
    30008aa8:	00000593          	li	a1,0
    30008aac:	05100613          	li	a2,81
    30008ab0:	1da50513          	addi	a0,a0,474
    30008ab4:	891f70ef          	jal	ra,30000344 <memset>
    30008ab8:	0004b783          	ld	a5,0(s1)
    30008abc:	00040513          	mv	a0,s0
    30008ac0:	01813083          	ld	ra,24(sp)
    30008ac4:	2287b823          	sd	s0,560(a5)
    30008ac8:	01013403          	ld	s0,16(sp)
    30008acc:	00813483          	ld	s1,8(sp)
    30008ad0:	00013903          	ld	s2,0(sp)
    30008ad4:	2207a623          	sw	zero,556(a5)
    30008ad8:	00000597          	auipc	a1,0x0
    30008adc:	c8858593          	addi	a1,a1,-888 # 30008760 <finsh_rx_ind>
    30008ae0:	02010113          	addi	sp,sp,32
    30008ae4:	e30f806f          	j	30001114 <rt_device_set_rx_indicate>
    30008ae8:	01813083          	ld	ra,24(sp)
    30008aec:	01013403          	ld	s0,16(sp)
    30008af0:	00813483          	ld	s1,8(sp)
    30008af4:	00013903          	ld	s2,0(sp)
    30008af8:	02010113          	addi	sp,sp,32
    30008afc:	00008067          	ret

0000000030008b00 <finsh_thread_entry>:
    30008b00:	f8010113          	addi	sp,sp,-128
    30008b04:	06913423          	sd	s1,104(sp)
    30008b08:	96818493          	addi	s1,gp,-1688 # 80004360 <shell>
    30008b0c:	0004b783          	ld	a5,0(s1)
    30008b10:	06113c23          	sd	ra,120(sp)
    30008b14:	06813823          	sd	s0,112(sp)
    30008b18:	0447c703          	lbu	a4,68(a5)
    30008b1c:	07213023          	sd	s2,96(sp)
    30008b20:	05313c23          	sd	s3,88(sp)
    30008b24:	05413823          	sd	s4,80(sp)
    30008b28:	05513423          	sd	s5,72(sp)
    30008b2c:	05613023          	sd	s6,64(sp)
    30008b30:	03713c23          	sd	s7,56(sp)
    30008b34:	03813823          	sd	s8,48(sp)
    30008b38:	03913423          	sd	s9,40(sp)
    30008b3c:	03a13023          	sd	s10,32(sp)
    30008b40:	01b13c23          	sd	s11,24(sp)
    30008b44:	00176713          	ori	a4,a4,1
    30008b48:	04e78223          	sb	a4,68(a5)
    30008b4c:	2307b783          	ld	a5,560(a5)
    30008b50:	00079863          	bnez	a5,30008b60 <finsh_thread_entry+0x60>
    30008b54:	8e8fa0ef          	jal	ra,30002c3c <rt_console_get_device>
    30008b58:	00050463          	beqz	a0,30008b60 <finsh_thread_entry+0x60>
    30008b5c:	ea1ff0ef          	jal	ra,300089fc <finsh_set_device>
    30008b60:	c4dff0ef          	jal	ra,300087ac <finsh_get_prompt>
    30008b64:	950fa0ef          	jal	ra,30002cb4 <rt_kprintf>
    30008b68:	4fffaa17          	auipc	s4,0x4fffa
    30008b6c:	be8a0a13          	addi	s4,s4,-1048 # 80002750 <__FUNCTION__.0>
    30008b70:	4fffaa97          	auipc	s5,0x4fffa
    30008b74:	b40a8a93          	addi	s5,s5,-1216 # 800026b0 <_romfs+0x50>
    30008b78:	01b00993          	li	s3,27
    30008b7c:	0fd00b13          	li	s6,253
    30008b80:	00900b93          	li	s7,9
    30008b84:	07f00c13          	li	s8,127
    30008b88:	4fffa917          	auipc	s2,0x4fffa
    30008b8c:	bb090913          	addi	s2,s2,-1104 # 80002738 <_romfs+0xd8>
    30008b90:	0004b783          	ld	a5,0(s1)
    30008b94:	000107a3          	sb	zero,15(sp)
    30008b98:	00079a63          	bnez	a5,30008bac <finsh_thread_entry+0xac>
    30008b9c:	0af00613          	li	a2,175
    30008ba0:	000a0593          	mv	a1,s4
    30008ba4:	000a8513          	mv	a0,s5
    30008ba8:	a90fa0ef          	jal	ra,30002e38 <rt_assert_handler>
    30008bac:	0004b783          	ld	a5,0(s1)
    30008bb0:	00100693          	li	a3,1
    30008bb4:	00f10613          	addi	a2,sp,15
    30008bb8:	2307b503          	ld	a0,560(a5)
    30008bbc:	fff00593          	li	a1,-1
    30008bc0:	b00f80ef          	jal	ra,30000ec0 <rt_device_read>
    30008bc4:	00100793          	li	a5,1
    30008bc8:	00f51e63          	bne	a0,a5,30008be4 <finsh_thread_entry+0xe4>
    30008bcc:	00f14c83          	lbu	s9,15(sp)
    30008bd0:	0004b403          	ld	s0,0(s1)
    30008bd4:	000c859b          	sext.w	a1,s9
    30008bd8:	013c9c63          	bne	s9,s3,30008bf0 <finsh_thread_entry+0xf0>
    30008bdc:	04a42023          	sw	a0,64(s0)
    30008be0:	fb1ff06f          	j	30008b90 <finsh_thread_entry+0x90>
    30008be4:	01400513          	li	a0,20
    30008be8:	c18fb0ef          	jal	ra,30004000 <rt_thread_mdelay>
    30008bec:	fc1ff06f          	j	30008bac <finsh_thread_entry+0xac>
    30008bf0:	04042783          	lw	a5,64(s0)
    30008bf4:	02a79a63          	bne	a5,a0,30008c28 <finsh_thread_entry+0x128>
    30008bf8:	05b00793          	li	a5,91
    30008bfc:	00f59863          	bne	a1,a5,30008c0c <finsh_thread_entry+0x10c>
    30008c00:	00200793          	li	a5,2
    30008c04:	04f42023          	sw	a5,64(s0)
    30008c08:	f89ff06f          	j	30008b90 <finsh_thread_entry+0x90>
    30008c0c:	04042023          	sw	zero,64(s0)
    30008c10:	fffc879b          	addiw	a5,s9,-1
    30008c14:	0ff7f793          	zext.b	a5,a5
    30008c18:	f6fb6ce3          	bltu	s6,a5,30008b90 <finsh_thread_entry+0x90>
    30008c1c:	19759463          	bne	a1,s7,30008da4 <finsh_thread_entry+0x2a4>
    30008c20:	00000c93          	li	s9,0
    30008c24:	1180006f          	j	30008d3c <finsh_thread_entry+0x23c>
    30008c28:	00200713          	li	a4,2
    30008c2c:	fee792e3          	bne	a5,a4,30008c10 <finsh_thread_entry+0x110>
    30008c30:	04042023          	sw	zero,64(s0)
    30008c34:	04100793          	li	a5,65
    30008c38:	00f59c63          	bne	a1,a5,30008c50 <finsh_thread_entry+0x150>
    30008c3c:	04645783          	lhu	a5,70(s0)
    30008c40:	f40788e3          	beqz	a5,30008b90 <finsh_thread_entry+0x90>
    30008c44:	fff7879b          	addiw	a5,a5,-1
    30008c48:	03079793          	slli	a5,a5,0x30
    30008c4c:	0280006f          	j	30008c74 <finsh_thread_entry+0x174>
    30008c50:	04200793          	li	a5,66
    30008c54:	06f59c63          	bne	a1,a5,30008ccc <finsh_thread_entry+0x1cc>
    30008c58:	04845683          	lhu	a3,72(s0)
    30008c5c:	04645703          	lhu	a4,70(s0)
    30008c60:	fff6879b          	addiw	a5,a3,-1 # fff <__stack_size+0x7ff>
    30008c64:	0007861b          	sext.w	a2,a5
    30008c68:	04c75e63          	bge	a4,a2,30008cc4 <finsh_thread_entry+0x1c4>
    30008c6c:	0017071b          	addiw	a4,a4,1
    30008c70:	03071793          	slli	a5,a4,0x30
    30008c74:	0307d793          	srli	a5,a5,0x30
    30008c78:	00279593          	slli	a1,a5,0x2
    30008c7c:	00f585b3          	add	a1,a1,a5
    30008c80:	00459593          	slli	a1,a1,0x4
    30008c84:	04a58593          	addi	a1,a1,74
    30008c88:	04f41323          	sh	a5,70(s0)
    30008c8c:	00b405b3          	add	a1,s0,a1
    30008c90:	05000613          	li	a2,80
    30008c94:	1da40513          	addi	a0,s0,474
    30008c98:	eb0f70ef          	jal	ra,30000348 <memcpy>
    30008c9c:	0004b403          	ld	s0,0(s1)
    30008ca0:	1da40513          	addi	a0,s0,474
    30008ca4:	e34f70ef          	jal	ra,300002d8 <strlen>
    30008ca8:	03051513          	slli	a0,a0,0x30
    30008cac:	03055513          	srli	a0,a0,0x30
    30008cb0:	22a41623          	sh	a0,556(s0)
    30008cb4:	22a41723          	sh	a0,558(s0)
    30008cb8:	00040513          	mv	a0,s0
    30008cbc:	bbdff0ef          	jal	ra,30008878 <shell_handle_history.isra.0>
    30008cc0:	ed1ff06f          	j	30008b90 <finsh_thread_entry+0x90>
    30008cc4:	ec0686e3          	beqz	a3,30008b90 <finsh_thread_entry+0x90>
    30008cc8:	f81ff06f          	j	30008c48 <finsh_thread_entry+0x148>
    30008ccc:	04400793          	li	a5,68
    30008cd0:	02f59463          	bne	a1,a5,30008cf8 <finsh_thread_entry+0x1f8>
    30008cd4:	22e45783          	lhu	a5,558(s0)
    30008cd8:	ea078ce3          	beqz	a5,30008b90 <finsh_thread_entry+0x90>
    30008cdc:	00090513          	mv	a0,s2
    30008ce0:	fd5f90ef          	jal	ra,30002cb4 <rt_kprintf>
    30008ce4:	0004b703          	ld	a4,0(s1)
    30008ce8:	22e75783          	lhu	a5,558(a4)
    30008cec:	fff7879b          	addiw	a5,a5,-1
    30008cf0:	22f71723          	sh	a5,558(a4)
    30008cf4:	e9dff06f          	j	30008b90 <finsh_thread_entry+0x90>
    30008cf8:	04300793          	li	a5,67
    30008cfc:	f0f59ae3          	bne	a1,a5,30008c10 <finsh_thread_entry+0x110>
    30008d00:	22c45703          	lhu	a4,556(s0)
    30008d04:	22e45783          	lhu	a5,558(s0)
    30008d08:	e8e7f4e3          	bgeu	a5,a4,30008b90 <finsh_thread_entry+0x90>
    30008d0c:	00f407b3          	add	a5,s0,a5
    30008d10:	1da7c583          	lbu	a1,474(a5)
    30008d14:	4fff8517          	auipc	a0,0x4fff8
    30008d18:	cc450513          	addi	a0,a0,-828 # 800009d8 <__FUNCTION__.6+0x110>
    30008d1c:	f99f90ef          	jal	ra,30002cb4 <rt_kprintf>
    30008d20:	0004b703          	ld	a4,0(s1)
    30008d24:	22e75783          	lhu	a5,558(a4)
    30008d28:	0017879b          	addiw	a5,a5,1
    30008d2c:	fc5ff06f          	j	30008cf0 <finsh_thread_entry+0x1f0>
    30008d30:	00090513          	mv	a0,s2
    30008d34:	f81f90ef          	jal	ra,30002cb4 <rt_kprintf>
    30008d38:	001c8c9b          	addiw	s9,s9,1
    30008d3c:	0004b403          	ld	s0,0(s1)
    30008d40:	22e45783          	lhu	a5,558(s0)
    30008d44:	fefcc6e3          	blt	s9,a5,30008d30 <finsh_thread_entry+0x230>
    30008d48:	4fff9517          	auipc	a0,0x4fff9
    30008d4c:	8e850513          	addi	a0,a0,-1816 # 80001630 <__FUNCTION__.6+0x40>
    30008d50:	f65f90ef          	jal	ra,30002cb4 <rt_kprintf>
    30008d54:	35c020ef          	jal	ra,3000b0b0 <msh_is_used>
    30008d58:	00100793          	li	a5,1
    30008d5c:	1da40413          	addi	s0,s0,474
    30008d60:	00f51663          	bne	a0,a5,30008d6c <finsh_thread_entry+0x26c>
    30008d64:	00040513          	mv	a0,s0
    30008d68:	059020ef          	jal	ra,3000b5c0 <msh_auto_complete>
    30008d6c:	a41ff0ef          	jal	ra,300087ac <finsh_get_prompt>
    30008d70:	00050593          	mv	a1,a0
    30008d74:	00040613          	mv	a2,s0
    30008d78:	4fffa517          	auipc	a0,0x4fffa
    30008d7c:	97050513          	addi	a0,a0,-1680 # 800026e8 <_romfs+0x88>
    30008d80:	f35f90ef          	jal	ra,30002cb4 <rt_kprintf>
    30008d84:	0004b403          	ld	s0,0(s1)
    30008d88:	1da40513          	addi	a0,s0,474
    30008d8c:	d4cf70ef          	jal	ra,300002d8 <strlen>
    30008d90:	03051513          	slli	a0,a0,0x30
    30008d94:	03055513          	srli	a0,a0,0x30
    30008d98:	22a41623          	sh	a0,556(s0)
    30008d9c:	22a41723          	sh	a0,558(s0)
    30008da0:	df1ff06f          	j	30008b90 <finsh_thread_entry+0x90>
    30008da4:	01858663          	beq	a1,s8,30008db0 <finsh_thread_entry+0x2b0>
    30008da8:	00800793          	li	a5,8
    30008dac:	0af59c63          	bne	a1,a5,30008e64 <finsh_thread_entry+0x364>
    30008db0:	22e45583          	lhu	a1,558(s0)
    30008db4:	dc058ee3          	beqz	a1,30008b90 <finsh_thread_entry+0x90>
    30008db8:	22c45783          	lhu	a5,556(s0)
    30008dbc:	fff5861b          	addiw	a2,a1,-1
    30008dc0:	03061613          	slli	a2,a2,0x30
    30008dc4:	fff7879b          	addiw	a5,a5,-1
    30008dc8:	03079793          	slli	a5,a5,0x30
    30008dcc:	0307d793          	srli	a5,a5,0x30
    30008dd0:	03065613          	srli	a2,a2,0x30
    30008dd4:	22f41623          	sh	a5,556(s0)
    30008dd8:	22c41723          	sh	a2,558(s0)
    30008ddc:	06f67463          	bgeu	a2,a5,30008e44 <finsh_thread_entry+0x344>
    30008de0:	1da60513          	addi	a0,a2,474
    30008de4:	1da58593          	addi	a1,a1,474
    30008de8:	40c7863b          	subw	a2,a5,a2
    30008dec:	00b405b3          	add	a1,s0,a1
    30008df0:	00a40533          	add	a0,s0,a0
    30008df4:	e98f90ef          	jal	ra,3000248c <rt_memmove>
    30008df8:	0004b783          	ld	a5,0(s1)
    30008dfc:	4fffa517          	auipc	a0,0x4fffa
    30008e00:	94450513          	addi	a0,a0,-1724 # 80002740 <_romfs+0xe0>
    30008e04:	22c7d703          	lhu	a4,556(a5)
    30008e08:	00e78733          	add	a4,a5,a4
    30008e0c:	1c070d23          	sb	zero,474(a4)
    30008e10:	22e7d583          	lhu	a1,558(a5)
    30008e14:	1da58593          	addi	a1,a1,474
    30008e18:	00b785b3          	add	a1,a5,a1
    30008e1c:	e99f90ef          	jal	ra,30002cb4 <rt_kprintf>
    30008e20:	0004b783          	ld	a5,0(s1)
    30008e24:	22e7d403          	lhu	s0,558(a5)
    30008e28:	0004b783          	ld	a5,0(s1)
    30008e2c:	22c7d783          	lhu	a5,556(a5)
    30008e30:	d687c0e3          	blt	a5,s0,30008b90 <finsh_thread_entry+0x90>
    30008e34:	00090513          	mv	a0,s2
    30008e38:	e7df90ef          	jal	ra,30002cb4 <rt_kprintf>
    30008e3c:	0014041b          	addiw	s0,s0,1
    30008e40:	fe9ff06f          	j	30008e28 <finsh_thread_entry+0x328>
    30008e44:	4fffa517          	auipc	a0,0x4fffa
    30008e48:	90450513          	addi	a0,a0,-1788 # 80002748 <_romfs+0xe8>
    30008e4c:	e69f90ef          	jal	ra,30002cb4 <rt_kprintf>
    30008e50:	0004b783          	ld	a5,0(s1)
    30008e54:	22c7d703          	lhu	a4,556(a5)
    30008e58:	00e787b3          	add	a5,a5,a4
    30008e5c:	1c078d23          	sb	zero,474(a5)
    30008e60:	d31ff06f          	j	30008b90 <finsh_thread_entry+0x90>
    30008e64:	00d00713          	li	a4,13
    30008e68:	22c45783          	lhu	a5,556(s0)
    30008e6c:	00e58663          	beq	a1,a4,30008e78 <finsh_thread_entry+0x378>
    30008e70:	00a00713          	li	a4,10
    30008e74:	16e59063          	bne	a1,a4,30008fd4 <finsh_thread_entry+0x4d4>
    30008e78:	06078a63          	beqz	a5,30008eec <finsh_thread_entry+0x3ec>
    30008e7c:	04845d03          	lhu	s10,72(s0)
    30008e80:	00400713          	li	a4,4
    30008e84:	1da40c93          	addi	s9,s0,474
    30008e88:	000d079b          	sext.w	a5,s10
    30008e8c:	0da77463          	bgeu	a4,s10,30008f54 <finsh_thread_entry+0x454>
    30008e90:	18a40d93          	addi	s11,s0,394
    30008e94:	05000613          	li	a2,80
    30008e98:	000c8593          	mv	a1,s9
    30008e9c:	000d8513          	mv	a0,s11
    30008ea0:	cacf70ef          	jal	ra,3000034c <memcmp>
    30008ea4:	04050463          	beqz	a0,30008eec <finsh_thread_entry+0x3ec>
    30008ea8:	04a40d13          	addi	s10,s0,74
    30008eac:	000d0513          	mv	a0,s10
    30008eb0:	050d0d13          	addi	s10,s10,80
    30008eb4:	05000613          	li	a2,80
    30008eb8:	000d0593          	mv	a1,s10
    30008ebc:	c8cf70ef          	jal	ra,30000348 <memcpy>
    30008ec0:	ffad96e3          	bne	s11,s10,30008eac <finsh_thread_entry+0x3ac>
    30008ec4:	05000613          	li	a2,80
    30008ec8:	00000593          	li	a1,0
    30008ecc:	000d8513          	mv	a0,s11
    30008ed0:	c74f70ef          	jal	ra,30000344 <memset>
    30008ed4:	22c45603          	lhu	a2,556(s0)
    30008ed8:	000c8593          	mv	a1,s9
    30008edc:	000d8513          	mv	a0,s11
    30008ee0:	c68f70ef          	jal	ra,30000348 <memcpy>
    30008ee4:	00500793          	li	a5,5
    30008ee8:	04f41423          	sh	a5,72(s0)
    30008eec:	04845783          	lhu	a5,72(s0)
    30008ef0:	04f41323          	sh	a5,70(s0)
    30008ef4:	1bc020ef          	jal	ra,3000b0b0 <msh_is_used>
    30008ef8:	00100793          	li	a5,1
    30008efc:	02f51863          	bne	a0,a5,30008f2c <finsh_thread_entry+0x42c>
    30008f00:	0004b783          	ld	a5,0(s1)
    30008f04:	0447c783          	lbu	a5,68(a5)
    30008f08:	0017f793          	andi	a5,a5,1
    30008f0c:	00078863          	beqz	a5,30008f1c <finsh_thread_entry+0x41c>
    30008f10:	4fff8517          	auipc	a0,0x4fff8
    30008f14:	72050513          	addi	a0,a0,1824 # 80001630 <__FUNCTION__.6+0x40>
    30008f18:	d9df90ef          	jal	ra,30002cb4 <rt_kprintf>
    30008f1c:	0004b503          	ld	a0,0(s1)
    30008f20:	22c55583          	lhu	a1,556(a0)
    30008f24:	1da50513          	addi	a0,a0,474
    30008f28:	190020ef          	jal	ra,3000b0b8 <msh_exec>
    30008f2c:	881ff0ef          	jal	ra,300087ac <finsh_get_prompt>
    30008f30:	d85f90ef          	jal	ra,30002cb4 <rt_kprintf>
    30008f34:	0004b503          	ld	a0,0(s1)
    30008f38:	05100613          	li	a2,81
    30008f3c:	00000593          	li	a1,0
    30008f40:	1da50513          	addi	a0,a0,474
    30008f44:	c00f70ef          	jal	ra,30000344 <memset>
    30008f48:	0004b783          	ld	a5,0(s1)
    30008f4c:	2207a623          	sw	zero,556(a5)
    30008f50:	c41ff06f          	j	30008b90 <finsh_thread_entry+0x90>
    30008f54:	020d0663          	beqz	s10,30008f80 <finsh_thread_entry+0x480>
    30008f58:	fff7879b          	addiw	a5,a5,-1
    30008f5c:	00279513          	slli	a0,a5,0x2
    30008f60:	00f50533          	add	a0,a0,a5
    30008f64:	00451513          	slli	a0,a0,0x4
    30008f68:	04a50513          	addi	a0,a0,74
    30008f6c:	05000613          	li	a2,80
    30008f70:	000c8593          	mv	a1,s9
    30008f74:	00a40533          	add	a0,s0,a0
    30008f78:	bd4f70ef          	jal	ra,3000034c <memcmp>
    30008f7c:	f60508e3          	beqz	a0,30008eec <finsh_thread_entry+0x3ec>
    30008f80:	002d1513          	slli	a0,s10,0x2
    30008f84:	01a50533          	add	a0,a0,s10
    30008f88:	00451513          	slli	a0,a0,0x4
    30008f8c:	04a50513          	addi	a0,a0,74
    30008f90:	05000613          	li	a2,80
    30008f94:	00000593          	li	a1,0
    30008f98:	05a41323          	sh	s10,70(s0)
    30008f9c:	00a40533          	add	a0,s0,a0
    30008fa0:	ba4f70ef          	jal	ra,30000344 <memset>
    30008fa4:	04845783          	lhu	a5,72(s0)
    30008fa8:	22c45603          	lhu	a2,556(s0)
    30008fac:	000c8593          	mv	a1,s9
    30008fb0:	00279513          	slli	a0,a5,0x2
    30008fb4:	00f50533          	add	a0,a0,a5
    30008fb8:	00451513          	slli	a0,a0,0x4
    30008fbc:	04a50513          	addi	a0,a0,74
    30008fc0:	00a40533          	add	a0,s0,a0
    30008fc4:	b84f70ef          	jal	ra,30000348 <memcpy>
    30008fc8:	04845783          	lhu	a5,72(s0)
    30008fcc:	0017879b          	addiw	a5,a5,1
    30008fd0:	f19ff06f          	j	30008ee8 <finsh_thread_entry+0x3e8>
    30008fd4:	04f00713          	li	a4,79
    30008fd8:	00f77463          	bgeu	a4,a5,30008fe0 <finsh_thread_entry+0x4e0>
    30008fdc:	22041623          	sh	zero,556(s0)
    30008fe0:	22e45503          	lhu	a0,558(s0)
    30008fe4:	22c45783          	lhu	a5,556(s0)
    30008fe8:	0005061b          	sext.w	a2,a0
    30008fec:	0af57463          	bgeu	a0,a5,30009094 <finsh_thread_entry+0x594>
    30008ff0:	1da60593          	addi	a1,a2,474
    30008ff4:	1db50513          	addi	a0,a0,475
    30008ff8:	40c7863b          	subw	a2,a5,a2
    30008ffc:	00b405b3          	add	a1,s0,a1
    30009000:	00a40533          	add	a0,s0,a0
    30009004:	c88f90ef          	jal	ra,3000248c <rt_memmove>
    30009008:	0004b583          	ld	a1,0(s1)
    3000900c:	22e5d703          	lhu	a4,558(a1)
    30009010:	00070793          	mv	a5,a4
    30009014:	00e58733          	add	a4,a1,a4
    30009018:	1d970d23          	sb	s9,474(a4)
    3000901c:	0445c703          	lbu	a4,68(a1)
    30009020:	00177713          	andi	a4,a4,1
    30009024:	00070c63          	beqz	a4,3000903c <finsh_thread_entry+0x53c>
    30009028:	1da7879b          	addiw	a5,a5,474
    3000902c:	00f585b3          	add	a1,a1,a5
    30009030:	4fff9517          	auipc	a0,0x4fff9
    30009034:	fe050513          	addi	a0,a0,-32 # 80002010 <__fsym___cmd_list_fd_name+0x28>
    30009038:	c7df90ef          	jal	ra,30002cb4 <rt_kprintf>
    3000903c:	0004b783          	ld	a5,0(s1)
    30009040:	22e7d403          	lhu	s0,558(a5)
    30009044:	0004b783          	ld	a5,0(s1)
    30009048:	22c7d783          	lhu	a5,556(a5)
    3000904c:	02f44c63          	blt	s0,a5,30009084 <finsh_thread_entry+0x584>
    30009050:	0004b703          	ld	a4,0(s1)
    30009054:	22c75783          	lhu	a5,556(a4)
    30009058:	22e75683          	lhu	a3,558(a4)
    3000905c:	0017879b          	addiw	a5,a5,1
    30009060:	03079793          	slli	a5,a5,0x30
    30009064:	0016869b          	addiw	a3,a3,1
    30009068:	0307d793          	srli	a5,a5,0x30
    3000906c:	22d71723          	sh	a3,558(a4)
    30009070:	22f71623          	sh	a5,556(a4)
    30009074:	04f00693          	li	a3,79
    30009078:	b0f6fce3          	bgeu	a3,a5,30008b90 <finsh_thread_entry+0x90>
    3000907c:	22072623          	sw	zero,556(a4)
    30009080:	b11ff06f          	j	30008b90 <finsh_thread_entry+0x90>
    30009084:	00090513          	mv	a0,s2
    30009088:	c2df90ef          	jal	ra,30002cb4 <rt_kprintf>
    3000908c:	0014041b          	addiw	s0,s0,1
    30009090:	fb5ff06f          	j	30009044 <finsh_thread_entry+0x544>
    30009094:	00f407b3          	add	a5,s0,a5
    30009098:	1d978d23          	sb	s9,474(a5)
    3000909c:	04444783          	lbu	a5,68(s0)
    300090a0:	0017f793          	andi	a5,a5,1
    300090a4:	fa0786e3          	beqz	a5,30009050 <finsh_thread_entry+0x550>
    300090a8:	4fff8517          	auipc	a0,0x4fff8
    300090ac:	93050513          	addi	a0,a0,-1744 # 800009d8 <__FUNCTION__.6+0x110>
    300090b0:	c05f90ef          	jal	ra,30002cb4 <rt_kprintf>
    300090b4:	f9dff06f          	j	30009050 <finsh_thread_entry+0x550>

00000000300090b8 <rt_list_len>:
    300090b8:	00050793          	mv	a5,a0
    300090bc:	00050713          	mv	a4,a0
    300090c0:	00000513          	li	a0,0
    300090c4:	00073703          	ld	a4,0(a4)
    300090c8:	00f71463          	bne	a4,a5,300090d0 <rt_list_len+0x18>
    300090cc:	00008067          	ret
    300090d0:	0015051b          	addiw	a0,a0,1
    300090d4:	ff1ff06f          	j	300090c4 <rt_list_len+0xc>

00000000300090d8 <hello>:
    300090d8:	ff010113          	addi	sp,sp,-16
    300090dc:	4fff9517          	auipc	a0,0x4fff9
    300090e0:	6c450513          	addi	a0,a0,1732 # 800027a0 <__FUNCTION__.6+0x18>
    300090e4:	00113423          	sd	ra,8(sp)
    300090e8:	bcdf90ef          	jal	ra,30002cb4 <rt_kprintf>
    300090ec:	00813083          	ld	ra,8(sp)
    300090f0:	00000513          	li	a0,0
    300090f4:	01010113          	addi	sp,sp,16
    300090f8:	00008067          	ret

00000000300090fc <clear>:
    300090fc:	ff010113          	addi	sp,sp,-16
    30009100:	4fff9517          	auipc	a0,0x4fff9
    30009104:	6b850513          	addi	a0,a0,1720 # 800027b8 <__FUNCTION__.6+0x30>
    30009108:	00113423          	sd	ra,8(sp)
    3000910c:	ba9f90ef          	jal	ra,30002cb4 <rt_kprintf>
    30009110:	00813083          	ld	ra,8(sp)
    30009114:	00000513          	li	a0,0
    30009118:	01010113          	addi	sp,sp,16
    3000911c:	00008067          	ret

0000000030009120 <show_wait_queue>:
    30009120:	fd010113          	addi	sp,sp,-48
    30009124:	00913c23          	sd	s1,24(sp)
    30009128:	00053483          	ld	s1,0(a0)
    3000912c:	02813023          	sd	s0,32(sp)
    30009130:	01213823          	sd	s2,16(sp)
    30009134:	01313423          	sd	s3,8(sp)
    30009138:	02113423          	sd	ra,40(sp)
    3000913c:	00050413          	mv	s0,a0
    30009140:	4fff9917          	auipc	s2,0x4fff9
    30009144:	ed090913          	addi	s2,s2,-304 # 80002010 <__fsym___cmd_list_fd_name+0x28>
    30009148:	4fff9997          	auipc	s3,0x4fff9
    3000914c:	eb098993          	addi	s3,s3,-336 # 80001ff8 <__fsym___cmd_list_fd_name+0x10>
    30009150:	02849063          	bne	s1,s0,30009170 <show_wait_queue+0x50>
    30009154:	02813083          	ld	ra,40(sp)
    30009158:	02013403          	ld	s0,32(sp)
    3000915c:	01813483          	ld	s1,24(sp)
    30009160:	01013903          	ld	s2,16(sp)
    30009164:	00813983          	ld	s3,8(sp)
    30009168:	03010113          	addi	sp,sp,48
    3000916c:	00008067          	ret
    30009170:	fd848593          	addi	a1,s1,-40
    30009174:	00090513          	mv	a0,s2
    30009178:	b3df90ef          	jal	ra,30002cb4 <rt_kprintf>
    3000917c:	0004b783          	ld	a5,0(s1)
    30009180:	00878663          	beq	a5,s0,3000918c <show_wait_queue+0x6c>
    30009184:	00098513          	mv	a0,s3
    30009188:	b2df90ef          	jal	ra,30002cb4 <rt_kprintf>
    3000918c:	0004b483          	ld	s1,0(s1)
    30009190:	fc1ff06f          	j	30009150 <show_wait_queue+0x30>

0000000030009194 <version>:
    30009194:	ff010113          	addi	sp,sp,-16
    30009198:	00113423          	sd	ra,8(sp)
    3000919c:	bc5f90ef          	jal	ra,30002d60 <rt_show_version>
    300091a0:	00813083          	ld	ra,8(sp)
    300091a4:	00000513          	li	a0,0
    300091a8:	01010113          	addi	sp,sp,16
    300091ac:	00008067          	ret

00000000300091b0 <list>:
    300091b0:	fd010113          	addi	sp,sp,-48
    300091b4:	4fff9517          	auipc	a0,0x4fff9
    300091b8:	60c50513          	addi	a0,a0,1548 # 800027c0 <__FUNCTION__.6+0x38>
    300091bc:	02813023          	sd	s0,32(sp)
    300091c0:	01213823          	sd	s2,16(sp)
    300091c4:	01313423          	sd	s3,8(sp)
    300091c8:	01413023          	sd	s4,0(sp)
    300091cc:	02113423          	sd	ra,40(sp)
    300091d0:	00913c23          	sd	s1,24(sp)
    300091d4:	94818913          	addi	s2,gp,-1720 # 80004340 <_syscall_table_end>
    300091d8:	addf90ef          	jal	ra,30002cb4 <rt_kprintf>
    300091dc:	4fff9997          	auipc	s3,0x4fff9
    300091e0:	5fc98993          	addi	s3,s3,1532 # 800027d8 <__FUNCTION__.6+0x50>
    300091e4:	9401b403          	ld	s0,-1728(gp) # 80004338 <_syscall_table_begin>
    300091e8:	4fff9a17          	auipc	s4,0x4fff9
    300091ec:	5f8a0a13          	addi	s4,s4,1528 # 800027e0 <__FUNCTION__.6+0x58>
    300091f0:	00093783          	ld	a5,0(s2)
    300091f4:	02f46463          	bltu	s0,a5,3000921c <list+0x6c>
    300091f8:	02813083          	ld	ra,40(sp)
    300091fc:	02013403          	ld	s0,32(sp)
    30009200:	01813483          	ld	s1,24(sp)
    30009204:	01013903          	ld	s2,16(sp)
    30009208:	00813983          	ld	s3,8(sp)
    3000920c:	00013a03          	ld	s4,0(sp)
    30009210:	00000513          	li	a0,0
    30009214:	03010113          	addi	sp,sp,48
    30009218:	00008067          	ret
    3000921c:	00043483          	ld	s1,0(s0)
    30009220:	00200613          	li	a2,2
    30009224:	00098593          	mv	a1,s3
    30009228:	00048513          	mv	a0,s1
    3000922c:	914f70ef          	jal	ra,30000340 <strncmp>
    30009230:	00050a63          	beqz	a0,30009244 <list+0x94>
    30009234:	00843603          	ld	a2,8(s0)
    30009238:	00048593          	mv	a1,s1
    3000923c:	000a0513          	mv	a0,s4
    30009240:	a75f90ef          	jal	ra,30002cb4 <rt_kprintf>
    30009244:	01840413          	addi	s0,s0,24
    30009248:	fa9ff06f          	j	300091f0 <list+0x40>

000000003000924c <list_get_next>:
    3000924c:	0145a783          	lw	a5,20(a1)
    30009250:	0005ac23          	sw	zero,24(a1)
    30009254:	0c078863          	beqz	a5,30009324 <list_get_next+0xd8>
    30009258:	0105c783          	lbu	a5,16(a1)
    3000925c:	fd010113          	addi	sp,sp,-48
    30009260:	02813023          	sd	s0,32(sp)
    30009264:	00913c23          	sd	s1,24(sp)
    30009268:	02113423          	sd	ra,40(sp)
    3000926c:	01213823          	sd	s2,16(sp)
    30009270:	01313423          	sd	s3,8(sp)
    30009274:	00050413          	mv	s0,a0
    30009278:	00058493          	mv	s1,a1
    3000927c:	00000513          	li	a0,0
    30009280:	02078e63          	beqz	a5,300092bc <list_get_next+0x70>
    30009284:	0005b983          	ld	s3,0(a1)
    30009288:	00000913          	li	s2,0
    3000928c:	00041663          	bnez	s0,30009298 <list_get_next+0x4c>
    30009290:	00098413          	mv	s0,s3
    30009294:	00100913          	li	s2,1
    30009298:	b0dfb0ef          	jal	ra,30004da4 <rt_hw_interrupt_disable>
    3000929c:	00050713          	mv	a4,a0
    300092a0:	02091c63          	bnez	s2,300092d8 <list_get_next+0x8c>
    300092a4:	ffc44783          	lbu	a5,-4(s0)
    300092a8:	0104c683          	lbu	a3,16(s1)
    300092ac:	07f7f793          	andi	a5,a5,127
    300092b0:	02f68463          	beq	a3,a5,300092d8 <list_get_next+0x8c>
    300092b4:	af9fb0ef          	jal	ra,30004dac <rt_hw_interrupt_enable>
    300092b8:	00000513          	li	a0,0
    300092bc:	02813083          	ld	ra,40(sp)
    300092c0:	02013403          	ld	s0,32(sp)
    300092c4:	01813483          	ld	s1,24(sp)
    300092c8:	01013903          	ld	s2,16(sp)
    300092cc:	00813983          	ld	s3,8(sp)
    300092d0:	03010113          	addi	sp,sp,48
    300092d4:	00008067          	ret
    300092d8:	0084b603          	ld	a2,8(s1)
    300092dc:	00000793          	li	a5,0
    300092e0:	00043403          	ld	s0,0(s0)
    300092e4:	0007891b          	sext.w	s2,a5
    300092e8:	02898a63          	beq	s3,s0,3000931c <list_get_next+0xd0>
    300092ec:	00379693          	slli	a3,a5,0x3
    300092f0:	0144a903          	lw	s2,20(s1)
    300092f4:	00d606b3          	add	a3,a2,a3
    300092f8:	00178793          	addi	a5,a5,1
    300092fc:	0086b023          	sd	s0,0(a3)
    30009300:	0007869b          	sext.w	a3,a5
    30009304:	fcd91ee3          	bne	s2,a3,300092e0 <list_get_next+0x94>
    30009308:	00070513          	mv	a0,a4
    3000930c:	aa1fb0ef          	jal	ra,30004dac <rt_hw_interrupt_enable>
    30009310:	00040513          	mv	a0,s0
    30009314:	0124ac23          	sw	s2,24(s1)
    30009318:	fa5ff06f          	j	300092bc <list_get_next+0x70>
    3000931c:	00000413          	li	s0,0
    30009320:	fe9ff06f          	j	30009308 <list_get_next+0xbc>
    30009324:	00000513          	li	a0,0
    30009328:	00008067          	ret

000000003000932c <object_split.constprop.0>:
    3000932c:	fe010113          	addi	sp,sp,-32
    30009330:	00813823          	sd	s0,16(sp)
    30009334:	00913423          	sd	s1,8(sp)
    30009338:	00113c23          	sd	ra,24(sp)
    3000933c:	01500413          	li	s0,21
    30009340:	4fff9497          	auipc	s1,0x4fff9
    30009344:	4b048493          	addi	s1,s1,1200 # 800027f0 <__FUNCTION__.6+0x68>
    30009348:	fff4041b          	addiw	s0,s0,-1
    3000934c:	00041c63          	bnez	s0,30009364 <object_split.constprop.0+0x38>
    30009350:	01813083          	ld	ra,24(sp)
    30009354:	01013403          	ld	s0,16(sp)
    30009358:	00813483          	ld	s1,8(sp)
    3000935c:	02010113          	addi	sp,sp,32
    30009360:	00008067          	ret
    30009364:	00048513          	mv	a0,s1
    30009368:	94df90ef          	jal	ra,30002cb4 <rt_kprintf>
    3000936c:	fddff06f          	j	30009348 <object_split.constprop.0+0x1c>

0000000030009370 <list_timer>:
    30009370:	f5010113          	addi	sp,sp,-176
    30009374:	00a00513          	li	a0,10
    30009378:	0a113423          	sd	ra,168(sp)
    3000937c:	0a813023          	sd	s0,160(sp)
    30009380:	09413023          	sd	s4,128(sp)
    30009384:	07513c23          	sd	s5,120(sp)
    30009388:	07613823          	sd	s6,112(sp)
    3000938c:	07713423          	sd	s7,104(sp)
    30009390:	08913c23          	sd	s1,152(sp)
    30009394:	09213823          	sd	s2,144(sp)
    30009398:	09313423          	sd	s3,136(sp)
    3000939c:	f59fa0ef          	jal	ra,300042f4 <rt_object_get_information>
    300093a0:	00850513          	addi	a0,a0,8
    300093a4:	00a00793          	li	a5,10
    300093a8:	4fff7617          	auipc	a2,0x4fff7
    300093ac:	39060613          	addi	a2,a2,912 # 80000738 <__fsym___cmd_reboot_name+0xe0>
    300093b0:	01400593          	li	a1,20
    300093b4:	00a13023          	sd	a0,0(sp)
    300093b8:	00f10823          	sb	a5,16(sp)
    300093bc:	4fff9517          	auipc	a0,0x4fff9
    300093c0:	43c50513          	addi	a0,a0,1084 # 800027f8 <__FUNCTION__.6+0x70>
    300093c4:	00800793          	li	a5,8
    300093c8:	02010a13          	addi	s4,sp,32
    300093cc:	00f12a23          	sw	a5,20(sp)
    300093d0:	01413423          	sd	s4,8(sp)
    300093d4:	00012c23          	sw	zero,24(sp)
    300093d8:	8ddf90ef          	jal	ra,30002cb4 <rt_kprintf>
    300093dc:	f51ff0ef          	jal	ra,3000932c <object_split.constprop.0>
    300093e0:	4fff9517          	auipc	a0,0x4fff9
    300093e4:	44050513          	addi	a0,a0,1088 # 80002820 <__FUNCTION__.6+0x98>
    300093e8:	8cdf90ef          	jal	ra,30002cb4 <rt_kprintf>
    300093ec:	00000413          	li	s0,0
    300093f0:	4fff9a97          	auipc	s5,0x4fff9
    300093f4:	458a8a93          	addi	s5,s5,1112 # 80002848 <__FUNCTION__.6+0xc0>
    300093f8:	4fff9b17          	auipc	s6,0x4fff9
    300093fc:	478b0b13          	addi	s6,s6,1144 # 80002870 <__FUNCTION__.6+0xe8>
    30009400:	4fff9b97          	auipc	s7,0x4fff9
    30009404:	460b8b93          	addi	s7,s7,1120 # 80002860 <__FUNCTION__.6+0xd8>
    30009408:	00040513          	mv	a0,s0
    3000940c:	00010593          	mv	a1,sp
    30009410:	e3dff0ef          	jal	ra,3000924c <list_get_next>
    30009414:	00050413          	mv	s0,a0
    30009418:	000a0993          	mv	s3,s4
    3000941c:	00000913          	li	s2,0
    30009420:	01812783          	lw	a5,24(sp)
    30009424:	04f94663          	blt	s2,a5,30009470 <list_timer+0x100>
    30009428:	fe0410e3          	bnez	s0,30009408 <list_timer+0x98>
    3000942c:	b0cfa0ef          	jal	ra,30003738 <rt_tick_get>
    30009430:	0005059b          	sext.w	a1,a0
    30009434:	4fff9517          	auipc	a0,0x4fff9
    30009438:	44c50513          	addi	a0,a0,1100 # 80002880 <__FUNCTION__.6+0xf8>
    3000943c:	879f90ef          	jal	ra,30002cb4 <rt_kprintf>
    30009440:	0a813083          	ld	ra,168(sp)
    30009444:	0a013403          	ld	s0,160(sp)
    30009448:	09813483          	ld	s1,152(sp)
    3000944c:	09013903          	ld	s2,144(sp)
    30009450:	08813983          	ld	s3,136(sp)
    30009454:	08013a03          	ld	s4,128(sp)
    30009458:	07813a83          	ld	s5,120(sp)
    3000945c:	07013b03          	ld	s6,112(sp)
    30009460:	06813b83          	ld	s7,104(sp)
    30009464:	00000513          	li	a0,0
    30009468:	0b010113          	addi	sp,sp,176
    3000946c:	00008067          	ret
    30009470:	0009b483          	ld	s1,0(s3)
    30009474:	931fb0ef          	jal	ra,30004da4 <rt_hw_interrupt_disable>
    30009478:	01014703          	lbu	a4,16(sp)
    3000947c:	ffc4c783          	lbu	a5,-4(s1)
    30009480:	07f7f793          	andi	a5,a5,127
    30009484:	00f70a63          	beq	a4,a5,30009498 <list_timer+0x128>
    30009488:	925fb0ef          	jal	ra,30004dac <rt_hw_interrupt_enable>
    3000948c:	0019091b          	addiw	s2,s2,1
    30009490:	00898993          	addi	s3,s3,8
    30009494:	f8dff06f          	j	30009420 <list_timer+0xb0>
    30009498:	915fb0ef          	jal	ra,30004dac <rt_hw_interrupt_enable>
    3000949c:	0344a783          	lw	a5,52(s1)
    300094a0:	0304a703          	lw	a4,48(s1)
    300094a4:	000a8513          	mv	a0,s5
    300094a8:	fe848693          	addi	a3,s1,-24
    300094ac:	01400613          	li	a2,20
    300094b0:	01400593          	li	a1,20
    300094b4:	801f90ef          	jal	ra,30002cb4 <rt_kprintf>
    300094b8:	ffd4c783          	lbu	a5,-3(s1)
    300094bc:	000b8513          	mv	a0,s7
    300094c0:	0017f793          	andi	a5,a5,1
    300094c4:	00079463          	bnez	a5,300094cc <list_timer+0x15c>
    300094c8:	000b0513          	mv	a0,s6
    300094cc:	fe8f90ef          	jal	ra,30002cb4 <rt_kprintf>
    300094d0:	fbdff06f          	j	3000948c <list_timer+0x11c>

00000000300094d4 <list_thread>:
    300094d4:	e2010113          	addi	sp,sp,-480
    300094d8:	00100513          	li	a0,1
    300094dc:	1c113c23          	sd	ra,472(sp)
    300094e0:	1c913423          	sd	s1,456(sp)
    300094e4:	1b413823          	sd	s4,432(sp)
    300094e8:	1b513423          	sd	s5,424(sp)
    300094ec:	1b613023          	sd	s6,416(sp)
    300094f0:	19713c23          	sd	s7,408(sp)
    300094f4:	1c813823          	sd	s0,464(sp)
    300094f8:	1d213023          	sd	s2,448(sp)
    300094fc:	1b313c23          	sd	s3,440(sp)
    30009500:	19813823          	sd	s8,400(sp)
    30009504:	19913423          	sd	s9,392(sp)
    30009508:	19a13023          	sd	s10,384(sp)
    3000950c:	17b13c23          	sd	s11,376(sp)
    30009510:	de5fa0ef          	jal	ra,300042f4 <rt_object_get_information>
    30009514:	00850513          	addi	a0,a0,8
    30009518:	00100793          	li	a5,1
    3000951c:	4fff9617          	auipc	a2,0x4fff9
    30009520:	37c60613          	addi	a2,a2,892 # 80002898 <__FUNCTION__.6+0x110>
    30009524:	01400593          	li	a1,20
    30009528:	02a13423          	sd	a0,40(sp)
    3000952c:	02f10c23          	sb	a5,56(sp)
    30009530:	4fff9517          	auipc	a0,0x4fff9
    30009534:	37050513          	addi	a0,a0,880 # 800028a0 <__FUNCTION__.6+0x118>
    30009538:	00800793          	li	a5,8
    3000953c:	04810a13          	addi	s4,sp,72
    30009540:	02f12e23          	sw	a5,60(sp)
    30009544:	03413823          	sd	s4,48(sp)
    30009548:	04012023          	sw	zero,64(sp)
    3000954c:	f68f90ef          	jal	ra,30002cb4 <rt_kprintf>
    30009550:	dddff0ef          	jal	ra,3000932c <object_split.constprop.0>
    30009554:	4fff9517          	auipc	a0,0x4fff9
    30009558:	39450513          	addi	a0,a0,916 # 800028e8 <__FUNCTION__.6+0x160>
    3000955c:	f58f90ef          	jal	ra,30002cb4 <rt_kprintf>
    30009560:	00000493          	li	s1,0
    30009564:	4fff9a97          	auipc	s5,0x4fff9
    30009568:	3c4a8a93          	addi	s5,s5,964 # 80002928 <__FUNCTION__.6+0x1a0>
    3000956c:	00100b13          	li	s6,1
    30009570:	4fff9b97          	auipc	s7,0x4fff9
    30009574:	418b8b93          	addi	s7,s7,1048 # 80002988 <__FUNCTION__.6+0x200>
    30009578:	00048513          	mv	a0,s1
    3000957c:	02810593          	addi	a1,sp,40
    30009580:	ccdff0ef          	jal	ra,3000924c <list_get_next>
    30009584:	00050493          	mv	s1,a0
    30009588:	000a0993          	mv	s3,s4
    3000958c:	00000913          	li	s2,0
    30009590:	02300c13          	li	s8,35
    30009594:	00200c93          	li	s9,2
    30009598:	00400d13          	li	s10,4
    3000959c:	00300d93          	li	s11,3
    300095a0:	04012783          	lw	a5,64(sp)
    300095a4:	04f94463          	blt	s2,a5,300095ec <list_thread+0x118>
    300095a8:	fc0498e3          	bnez	s1,30009578 <list_thread+0xa4>
    300095ac:	1d813083          	ld	ra,472(sp)
    300095b0:	1d013403          	ld	s0,464(sp)
    300095b4:	1c813483          	ld	s1,456(sp)
    300095b8:	1c013903          	ld	s2,448(sp)
    300095bc:	1b813983          	ld	s3,440(sp)
    300095c0:	1b013a03          	ld	s4,432(sp)
    300095c4:	1a813a83          	ld	s5,424(sp)
    300095c8:	1a013b03          	ld	s6,416(sp)
    300095cc:	19813b83          	ld	s7,408(sp)
    300095d0:	19013c03          	ld	s8,400(sp)
    300095d4:	18813c83          	ld	s9,392(sp)
    300095d8:	18013d03          	ld	s10,384(sp)
    300095dc:	17813d83          	ld	s11,376(sp)
    300095e0:	00000513          	li	a0,0
    300095e4:	1e010113          	addi	sp,sp,480
    300095e8:	00008067          	ret
    300095ec:	0009b403          	ld	s0,0(s3)
    300095f0:	fb4fb0ef          	jal	ra,30004da4 <rt_hw_interrupt_disable>
    300095f4:	03814683          	lbu	a3,56(sp)
    300095f8:	ffc44703          	lbu	a4,-4(s0)
    300095fc:	07f77713          	andi	a4,a4,127
    30009600:	00e68a63          	beq	a3,a4,30009614 <list_thread+0x140>
    30009604:	fa8fb0ef          	jal	ra,30004dac <rt_hw_interrupt_enable>
    30009608:	0019091b          	addiw	s2,s2,1
    3000960c:	00898993          	addi	s3,s3,8
    30009610:	f91ff06f          	j	300095a0 <list_thread+0xcc>
    30009614:	fe840693          	addi	a3,s0,-24
    30009618:	00068593          	mv	a1,a3
    3000961c:	0e800613          	li	a2,232
    30009620:	00a13423          	sd	a0,8(sp)
    30009624:	08810513          	addi	a0,sp,136
    30009628:	00d13023          	sd	a3,0(sp)
    3000962c:	d1df60ef          	jal	ra,30000348 <memcpy>
    30009630:	00813783          	ld	a5,8(sp)
    30009634:	00078513          	mv	a0,a5
    30009638:	f74fb0ef          	jal	ra,30004dac <rt_hw_interrupt_enable>
    3000963c:	05144703          	lbu	a4,81(s0)
    30009640:	00013683          	ld	a3,0(sp)
    30009644:	000a8513          	mv	a0,s5
    30009648:	01400613          	li	a2,20
    3000964c:	01400593          	li	a1,20
    30009650:	e64f90ef          	jal	ra,30002cb4 <rt_kprintf>
    30009654:	05044783          	lbu	a5,80(s0)
    30009658:	4fff9517          	auipc	a0,0x4fff9
    3000965c:	2e050513          	addi	a0,a0,736 # 80002938 <__FUNCTION__.6+0x1b0>
    30009660:	0077f793          	andi	a5,a5,7
    30009664:	03678a63          	beq	a5,s6,30009698 <list_thread+0x1c4>
    30009668:	4fff9517          	auipc	a0,0x4fff9
    3000966c:	2e050513          	addi	a0,a0,736 # 80002948 <__FUNCTION__.6+0x1c0>
    30009670:	03978463          	beq	a5,s9,30009698 <list_thread+0x1c4>
    30009674:	4fff9517          	auipc	a0,0x4fff9
    30009678:	2e450513          	addi	a0,a0,740 # 80002958 <__FUNCTION__.6+0x1d0>
    3000967c:	00078e63          	beqz	a5,30009698 <list_thread+0x1c4>
    30009680:	4fff9517          	auipc	a0,0x4fff9
    30009684:	2e850513          	addi	a0,a0,744 # 80002968 <__FUNCTION__.6+0x1e0>
    30009688:	01a78863          	beq	a5,s10,30009698 <list_thread+0x1c4>
    3000968c:	01b79863          	bne	a5,s11,3000969c <list_thread+0x1c8>
    30009690:	4fff9517          	auipc	a0,0x4fff9
    30009694:	2e850513          	addi	a0,a0,744 # 80002978 <__FUNCTION__.6+0x1f0>
    30009698:	e1cf90ef          	jal	ra,30002cb4 <rt_kprintf>
    3000969c:	03843803          	ld	a6,56(s0)
    300096a0:	00080693          	mv	a3,a6
    300096a4:	0006c783          	lbu	a5,0(a3)
    300096a8:	07878863          	beq	a5,s8,30009718 <list_thread+0x244>
    300096ac:	04042603          	lw	a2,64(s0)
    300096b0:	04843783          	ld	a5,72(s0)
    300096b4:	06843703          	ld	a4,104(s0)
    300096b8:	02061593          	slli	a1,a2,0x20
    300096bc:	0205d593          	srli	a1,a1,0x20
    300096c0:	00b80833          	add	a6,a6,a1
    300096c4:	40d806b3          	sub	a3,a6,a3
    300096c8:	00169513          	slli	a0,a3,0x1
    300096cc:	00d50533          	add	a0,a0,a3
    300096d0:	00351513          	slli	a0,a0,0x3
    300096d4:	00d50533          	add	a0,a0,a3
    300096d8:	00251513          	slli	a0,a0,0x2
    300096dc:	00c13c23          	sd	a2,24(sp)
    300096e0:	00f13823          	sd	a5,16(sp)
    300096e4:	00e13423          	sd	a4,8(sp)
    300096e8:	01013023          	sd	a6,0(sp)
    300096ec:	a85fb0ef          	jal	ra,30005170 <__udivdi3>
    300096f0:	02043583          	ld	a1,32(s0)
    300096f4:	00013803          	ld	a6,0(sp)
    300096f8:	01013783          	ld	a5,16(sp)
    300096fc:	00813703          	ld	a4,8(sp)
    30009700:	01813603          	ld	a2,24(sp)
    30009704:	00050693          	mv	a3,a0
    30009708:	40b805b3          	sub	a1,a6,a1
    3000970c:	000b8513          	mv	a0,s7
    30009710:	da4f90ef          	jal	ra,30002cb4 <rt_kprintf>
    30009714:	ef5ff06f          	j	30009608 <list_thread+0x134>
    30009718:	00168693          	addi	a3,a3,1
    3000971c:	f89ff06f          	j	300096a4 <list_thread+0x1d0>

0000000030009720 <list_sem>:
    30009720:	f4010113          	addi	sp,sp,-192
    30009724:	00200513          	li	a0,2
    30009728:	0a113c23          	sd	ra,184(sp)
    3000972c:	0a913423          	sd	s1,168(sp)
    30009730:	09513423          	sd	s5,136(sp)
    30009734:	09613023          	sd	s6,128(sp)
    30009738:	07713c23          	sd	s7,120(sp)
    3000973c:	07813823          	sd	s8,112(sp)
    30009740:	0a813823          	sd	s0,176(sp)
    30009744:	0b213023          	sd	s2,160(sp)
    30009748:	09313c23          	sd	s3,152(sp)
    3000974c:	09413823          	sd	s4,144(sp)
    30009750:	ba5fa0ef          	jal	ra,300042f4 <rt_object_get_information>
    30009754:	00850513          	addi	a0,a0,8
    30009758:	00200793          	li	a5,2
    3000975c:	4fff9617          	auipc	a2,0x4fff9
    30009760:	25460613          	addi	a2,a2,596 # 800029b0 <__FUNCTION__.6+0x228>
    30009764:	01400593          	li	a1,20
    30009768:	00a13823          	sd	a0,16(sp)
    3000976c:	02f10023          	sb	a5,32(sp)
    30009770:	4fff9517          	auipc	a0,0x4fff9
    30009774:	25050513          	addi	a0,a0,592 # 800029c0 <__FUNCTION__.6+0x238>
    30009778:	00800793          	li	a5,8
    3000977c:	03010a93          	addi	s5,sp,48
    30009780:	02f12223          	sw	a5,36(sp)
    30009784:	01513c23          	sd	s5,24(sp)
    30009788:	02012423          	sw	zero,40(sp)
    3000978c:	d28f90ef          	jal	ra,30002cb4 <rt_kprintf>
    30009790:	b9dff0ef          	jal	ra,3000932c <object_split.constprop.0>
    30009794:	4fff9517          	auipc	a0,0x4fff9
    30009798:	24c50513          	addi	a0,a0,588 # 800029e0 <__FUNCTION__.6+0x258>
    3000979c:	d18f90ef          	jal	ra,30002cb4 <rt_kprintf>
    300097a0:	00000493          	li	s1,0
    300097a4:	4fff9b17          	auipc	s6,0x4fff9
    300097a8:	264b0b13          	addi	s6,s6,612 # 80002a08 <__FUNCTION__.6+0x280>
    300097ac:	4fff9b97          	auipc	s7,0x4fff9
    300097b0:	24cb8b93          	addi	s7,s7,588 # 800029f8 <__FUNCTION__.6+0x270>
    300097b4:	4fff8c17          	auipc	s8,0x4fff8
    300097b8:	e7cc0c13          	addi	s8,s8,-388 # 80001630 <__FUNCTION__.6+0x40>
    300097bc:	00048513          	mv	a0,s1
    300097c0:	01010593          	addi	a1,sp,16
    300097c4:	a89ff0ef          	jal	ra,3000924c <list_get_next>
    300097c8:	00050493          	mv	s1,a0
    300097cc:	000a8a13          	mv	s4,s5
    300097d0:	00000993          	li	s3,0
    300097d4:	02812783          	lw	a5,40(sp)
    300097d8:	02f9ce63          	blt	s3,a5,30009814 <list_sem+0xf4>
    300097dc:	fe0490e3          	bnez	s1,300097bc <list_sem+0x9c>
    300097e0:	0b813083          	ld	ra,184(sp)
    300097e4:	0b013403          	ld	s0,176(sp)
    300097e8:	0a813483          	ld	s1,168(sp)
    300097ec:	0a013903          	ld	s2,160(sp)
    300097f0:	09813983          	ld	s3,152(sp)
    300097f4:	09013a03          	ld	s4,144(sp)
    300097f8:	08813a83          	ld	s5,136(sp)
    300097fc:	08013b03          	ld	s6,128(sp)
    30009800:	07813b83          	ld	s7,120(sp)
    30009804:	07013c03          	ld	s8,112(sp)
    30009808:	00000513          	li	a0,0
    3000980c:	0c010113          	addi	sp,sp,192
    30009810:	00008067          	ret
    30009814:	000a3403          	ld	s0,0(s4)
    30009818:	d8cfb0ef          	jal	ra,30004da4 <rt_hw_interrupt_disable>
    3000981c:	02014703          	lbu	a4,32(sp)
    30009820:	ffc44783          	lbu	a5,-4(s0)
    30009824:	07f7f793          	andi	a5,a5,127
    30009828:	00f70a63          	beq	a4,a5,3000983c <list_sem+0x11c>
    3000982c:	d80fb0ef          	jal	ra,30004dac <rt_hw_interrupt_enable>
    30009830:	0019899b          	addiw	s3,s3,1
    30009834:	008a0a13          	addi	s4,s4,8
    30009838:	f9dff06f          	j	300097d4 <list_sem+0xb4>
    3000983c:	d70fb0ef          	jal	ra,30004dac <rt_hw_interrupt_enable>
    30009840:	01043783          	ld	a5,16(s0)
    30009844:	fe840693          	addi	a3,s0,-24
    30009848:	01040913          	addi	s2,s0,16
    3000984c:	00d13423          	sd	a3,8(sp)
    30009850:	00090513          	mv	a0,s2
    30009854:	02f90c63          	beq	s2,a5,3000988c <list_sem+0x16c>
    30009858:	861ff0ef          	jal	ra,300090b8 <rt_list_len>
    3000985c:	02045703          	lhu	a4,32(s0)
    30009860:	00813683          	ld	a3,8(sp)
    30009864:	0005079b          	sext.w	a5,a0
    30009868:	01400613          	li	a2,20
    3000986c:	01400593          	li	a1,20
    30009870:	000b8513          	mv	a0,s7
    30009874:	c40f90ef          	jal	ra,30002cb4 <rt_kprintf>
    30009878:	00090513          	mv	a0,s2
    3000987c:	8a5ff0ef          	jal	ra,30009120 <show_wait_queue>
    30009880:	000c0513          	mv	a0,s8
    30009884:	c30f90ef          	jal	ra,30002cb4 <rt_kprintf>
    30009888:	fa9ff06f          	j	30009830 <list_sem+0x110>
    3000988c:	82dff0ef          	jal	ra,300090b8 <rt_list_len>
    30009890:	02045703          	lhu	a4,32(s0)
    30009894:	00813683          	ld	a3,8(sp)
    30009898:	0005079b          	sext.w	a5,a0
    3000989c:	01400613          	li	a2,20
    300098a0:	01400593          	li	a1,20
    300098a4:	000b0513          	mv	a0,s6
    300098a8:	c0cf90ef          	jal	ra,30002cb4 <rt_kprintf>
    300098ac:	f85ff06f          	j	30009830 <list_sem+0x110>

00000000300098b0 <list_event>:
    300098b0:	f4010113          	addi	sp,sp,-192
    300098b4:	00400513          	li	a0,4
    300098b8:	0a113c23          	sd	ra,184(sp)
    300098bc:	0a913423          	sd	s1,168(sp)
    300098c0:	09513423          	sd	s5,136(sp)
    300098c4:	09613023          	sd	s6,128(sp)
    300098c8:	07713c23          	sd	s7,120(sp)
    300098cc:	07813823          	sd	s8,112(sp)
    300098d0:	0a813823          	sd	s0,176(sp)
    300098d4:	0b213023          	sd	s2,160(sp)
    300098d8:	09313c23          	sd	s3,152(sp)
    300098dc:	09413823          	sd	s4,144(sp)
    300098e0:	a15fa0ef          	jal	ra,300042f4 <rt_object_get_information>
    300098e4:	00850513          	addi	a0,a0,8
    300098e8:	00400793          	li	a5,4
    300098ec:	4fff9617          	auipc	a2,0x4fff9
    300098f0:	12c60613          	addi	a2,a2,300 # 80002a18 <__FUNCTION__.6+0x290>
    300098f4:	01400593          	li	a1,20
    300098f8:	00a13823          	sd	a0,16(sp)
    300098fc:	02f10023          	sb	a5,32(sp)
    30009900:	4fff9517          	auipc	a0,0x4fff9
    30009904:	12050513          	addi	a0,a0,288 # 80002a20 <__FUNCTION__.6+0x298>
    30009908:	00800793          	li	a5,8
    3000990c:	03010a93          	addi	s5,sp,48
    30009910:	02f12223          	sw	a5,36(sp)
    30009914:	01513c23          	sd	s5,24(sp)
    30009918:	02012423          	sw	zero,40(sp)
    3000991c:	b98f90ef          	jal	ra,30002cb4 <rt_kprintf>
    30009920:	a0dff0ef          	jal	ra,3000932c <object_split.constprop.0>
    30009924:	4fff9517          	auipc	a0,0x4fff9
    30009928:	12450513          	addi	a0,a0,292 # 80002a48 <__FUNCTION__.6+0x2c0>
    3000992c:	b88f90ef          	jal	ra,30002cb4 <rt_kprintf>
    30009930:	00000493          	li	s1,0
    30009934:	4fff9b17          	auipc	s6,0x4fff9
    30009938:	14cb0b13          	addi	s6,s6,332 # 80002a80 <__FUNCTION__.6+0x2f8>
    3000993c:	4fff9b97          	auipc	s7,0x4fff9
    30009940:	12cb8b93          	addi	s7,s7,300 # 80002a68 <__FUNCTION__.6+0x2e0>
    30009944:	4fff8c17          	auipc	s8,0x4fff8
    30009948:	cecc0c13          	addi	s8,s8,-788 # 80001630 <__FUNCTION__.6+0x40>
    3000994c:	00048513          	mv	a0,s1
    30009950:	01010593          	addi	a1,sp,16
    30009954:	8f9ff0ef          	jal	ra,3000924c <list_get_next>
    30009958:	00050493          	mv	s1,a0
    3000995c:	000a8993          	mv	s3,s5
    30009960:	00000913          	li	s2,0
    30009964:	02812783          	lw	a5,40(sp)
    30009968:	02f94e63          	blt	s2,a5,300099a4 <list_event+0xf4>
    3000996c:	fe0490e3          	bnez	s1,3000994c <list_event+0x9c>
    30009970:	0b813083          	ld	ra,184(sp)
    30009974:	0b013403          	ld	s0,176(sp)
    30009978:	0a813483          	ld	s1,168(sp)
    3000997c:	0a013903          	ld	s2,160(sp)
    30009980:	09813983          	ld	s3,152(sp)
    30009984:	09013a03          	ld	s4,144(sp)
    30009988:	08813a83          	ld	s5,136(sp)
    3000998c:	08013b03          	ld	s6,128(sp)
    30009990:	07813b83          	ld	s7,120(sp)
    30009994:	07013c03          	ld	s8,112(sp)
    30009998:	00000513          	li	a0,0
    3000999c:	0c010113          	addi	sp,sp,192
    300099a0:	00008067          	ret
    300099a4:	0009b403          	ld	s0,0(s3)
    300099a8:	bfcfb0ef          	jal	ra,30004da4 <rt_hw_interrupt_disable>
    300099ac:	02014703          	lbu	a4,32(sp)
    300099b0:	ffc44783          	lbu	a5,-4(s0)
    300099b4:	07f7f793          	andi	a5,a5,127
    300099b8:	00f70a63          	beq	a4,a5,300099cc <list_event+0x11c>
    300099bc:	bf0fb0ef          	jal	ra,30004dac <rt_hw_interrupt_enable>
    300099c0:	0019091b          	addiw	s2,s2,1
    300099c4:	00898993          	addi	s3,s3,8
    300099c8:	f9dff06f          	j	30009964 <list_event+0xb4>
    300099cc:	be0fb0ef          	jal	ra,30004dac <rt_hw_interrupt_enable>
    300099d0:	01043783          	ld	a5,16(s0)
    300099d4:	01040a13          	addi	s4,s0,16
    300099d8:	fe840693          	addi	a3,s0,-24
    300099dc:	04fa0063          	beq	s4,a5,30009a1c <list_event+0x16c>
    300099e0:	000a0513          	mv	a0,s4
    300099e4:	00d13423          	sd	a3,8(sp)
    300099e8:	ed0ff0ef          	jal	ra,300090b8 <rt_list_len>
    300099ec:	02042703          	lw	a4,32(s0)
    300099f0:	00813683          	ld	a3,8(sp)
    300099f4:	0005079b          	sext.w	a5,a0
    300099f8:	01400613          	li	a2,20
    300099fc:	01400593          	li	a1,20
    30009a00:	000b8513          	mv	a0,s7
    30009a04:	ab0f90ef          	jal	ra,30002cb4 <rt_kprintf>
    30009a08:	000a0513          	mv	a0,s4
    30009a0c:	f14ff0ef          	jal	ra,30009120 <show_wait_queue>
    30009a10:	000c0513          	mv	a0,s8
    30009a14:	aa0f90ef          	jal	ra,30002cb4 <rt_kprintf>
    30009a18:	fa9ff06f          	j	300099c0 <list_event+0x110>
    30009a1c:	02042703          	lw	a4,32(s0)
    30009a20:	01400613          	li	a2,20
    30009a24:	01400593          	li	a1,20
    30009a28:	000b0513          	mv	a0,s6
    30009a2c:	a88f90ef          	jal	ra,30002cb4 <rt_kprintf>
    30009a30:	f91ff06f          	j	300099c0 <list_event+0x110>

0000000030009a34 <list_mutex>:
    30009a34:	f5010113          	addi	sp,sp,-176
    30009a38:	00300513          	li	a0,3
    30009a3c:	0a113423          	sd	ra,168(sp)
    30009a40:	0a813023          	sd	s0,160(sp)
    30009a44:	09413023          	sd	s4,128(sp)
    30009a48:	07513c23          	sd	s5,120(sp)
    30009a4c:	08913c23          	sd	s1,152(sp)
    30009a50:	09213823          	sd	s2,144(sp)
    30009a54:	09313423          	sd	s3,136(sp)
    30009a58:	89dfa0ef          	jal	ra,300042f4 <rt_object_get_information>
    30009a5c:	00850513          	addi	a0,a0,8
    30009a60:	00300793          	li	a5,3
    30009a64:	4fff9617          	auipc	a2,0x4fff9
    30009a68:	03460613          	addi	a2,a2,52 # 80002a98 <__FUNCTION__.6+0x310>
    30009a6c:	01400593          	li	a1,20
    30009a70:	00a13823          	sd	a0,16(sp)
    30009a74:	02f10023          	sb	a5,32(sp)
    30009a78:	4fff9517          	auipc	a0,0x4fff9
    30009a7c:	02850513          	addi	a0,a0,40 # 80002aa0 <__FUNCTION__.6+0x318>
    30009a80:	00800793          	li	a5,8
    30009a84:	03010a13          	addi	s4,sp,48
    30009a88:	02f12223          	sw	a5,36(sp)
    30009a8c:	01413c23          	sd	s4,24(sp)
    30009a90:	02012423          	sw	zero,40(sp)
    30009a94:	a20f90ef          	jal	ra,30002cb4 <rt_kprintf>
    30009a98:	895ff0ef          	jal	ra,3000932c <object_split.constprop.0>
    30009a9c:	4fff9517          	auipc	a0,0x4fff9
    30009aa0:	02c50513          	addi	a0,a0,44 # 80002ac8 <__FUNCTION__.6+0x340>
    30009aa4:	a10f90ef          	jal	ra,30002cb4 <rt_kprintf>
    30009aa8:	00000413          	li	s0,0
    30009aac:	4fff9a97          	auipc	s5,0x4fff9
    30009ab0:	03ca8a93          	addi	s5,s5,60 # 80002ae8 <__FUNCTION__.6+0x360>
    30009ab4:	00040513          	mv	a0,s0
    30009ab8:	01010593          	addi	a1,sp,16
    30009abc:	f90ff0ef          	jal	ra,3000924c <list_get_next>
    30009ac0:	00050413          	mv	s0,a0
    30009ac4:	000a0993          	mv	s3,s4
    30009ac8:	00000913          	li	s2,0
    30009acc:	02812783          	lw	a5,40(sp)
    30009ad0:	02f94863          	blt	s2,a5,30009b00 <list_mutex+0xcc>
    30009ad4:	fe0410e3          	bnez	s0,30009ab4 <list_mutex+0x80>
    30009ad8:	0a813083          	ld	ra,168(sp)
    30009adc:	0a013403          	ld	s0,160(sp)
    30009ae0:	09813483          	ld	s1,152(sp)
    30009ae4:	09013903          	ld	s2,144(sp)
    30009ae8:	08813983          	ld	s3,136(sp)
    30009aec:	08013a03          	ld	s4,128(sp)
    30009af0:	07813a83          	ld	s5,120(sp)
    30009af4:	00000513          	li	a0,0
    30009af8:	0b010113          	addi	sp,sp,176
    30009afc:	00008067          	ret
    30009b00:	0009b483          	ld	s1,0(s3)
    30009b04:	aa0fb0ef          	jal	ra,30004da4 <rt_hw_interrupt_disable>
    30009b08:	02014703          	lbu	a4,32(sp)
    30009b0c:	ffc4c783          	lbu	a5,-4(s1)
    30009b10:	07f7f793          	andi	a5,a5,127
    30009b14:	00f70a63          	beq	a4,a5,30009b28 <list_mutex+0xf4>
    30009b18:	a94fb0ef          	jal	ra,30004dac <rt_hw_interrupt_enable>
    30009b1c:	0019091b          	addiw	s2,s2,1
    30009b20:	00898993          	addi	s3,s3,8
    30009b24:	fa9ff06f          	j	30009acc <list_mutex+0x98>
    30009b28:	a84fb0ef          	jal	ra,30004dac <rt_hw_interrupt_enable>
    30009b2c:	fe848693          	addi	a3,s1,-24
    30009b30:	01048513          	addi	a0,s1,16
    30009b34:	00d13423          	sd	a3,8(sp)
    30009b38:	d80ff0ef          	jal	ra,300090b8 <rt_list_len>
    30009b3c:	0234c803          	lbu	a6,35(s1)
    30009b40:	0284b783          	ld	a5,40(s1)
    30009b44:	00813683          	ld	a3,8(sp)
    30009b48:	0005089b          	sext.w	a7,a0
    30009b4c:	01400713          	li	a4,20
    30009b50:	01400613          	li	a2,20
    30009b54:	01400593          	li	a1,20
    30009b58:	000a8513          	mv	a0,s5
    30009b5c:	958f90ef          	jal	ra,30002cb4 <rt_kprintf>
    30009b60:	fbdff06f          	j	30009b1c <list_mutex+0xe8>

0000000030009b64 <list_mailbox>:
    30009b64:	f4010113          	addi	sp,sp,-192
    30009b68:	00500513          	li	a0,5
    30009b6c:	0a113c23          	sd	ra,184(sp)
    30009b70:	0a913423          	sd	s1,168(sp)
    30009b74:	09513423          	sd	s5,136(sp)
    30009b78:	09613023          	sd	s6,128(sp)
    30009b7c:	07713c23          	sd	s7,120(sp)
    30009b80:	07813823          	sd	s8,112(sp)
    30009b84:	0a813823          	sd	s0,176(sp)
    30009b88:	0b213023          	sd	s2,160(sp)
    30009b8c:	09313c23          	sd	s3,152(sp)
    30009b90:	09413823          	sd	s4,144(sp)
    30009b94:	f60fa0ef          	jal	ra,300042f4 <rt_object_get_information>
    30009b98:	00850513          	addi	a0,a0,8
    30009b9c:	00500793          	li	a5,5
    30009ba0:	4fff9617          	auipc	a2,0x4fff9
    30009ba4:	f6060613          	addi	a2,a2,-160 # 80002b00 <__FUNCTION__.6+0x378>
    30009ba8:	01400593          	li	a1,20
    30009bac:	00a13823          	sd	a0,16(sp)
    30009bb0:	02f10023          	sb	a5,32(sp)
    30009bb4:	4fff9517          	auipc	a0,0x4fff9
    30009bb8:	f5450513          	addi	a0,a0,-172 # 80002b08 <__FUNCTION__.6+0x380>
    30009bbc:	00800793          	li	a5,8
    30009bc0:	03010a93          	addi	s5,sp,48
    30009bc4:	02f12223          	sw	a5,36(sp)
    30009bc8:	01513c23          	sd	s5,24(sp)
    30009bcc:	02012423          	sw	zero,40(sp)
    30009bd0:	8e4f90ef          	jal	ra,30002cb4 <rt_kprintf>
    30009bd4:	f58ff0ef          	jal	ra,3000932c <object_split.constprop.0>
    30009bd8:	4fff9517          	auipc	a0,0x4fff9
    30009bdc:	f5850513          	addi	a0,a0,-168 # 80002b30 <__FUNCTION__.6+0x3a8>
    30009be0:	8d4f90ef          	jal	ra,30002cb4 <rt_kprintf>
    30009be4:	00000493          	li	s1,0
    30009be8:	4fff9b17          	auipc	s6,0x4fff9
    30009bec:	f80b0b13          	addi	s6,s6,-128 # 80002b68 <__FUNCTION__.6+0x3e0>
    30009bf0:	4fff9b97          	auipc	s7,0x4fff9
    30009bf4:	f60b8b93          	addi	s7,s7,-160 # 80002b50 <__FUNCTION__.6+0x3c8>
    30009bf8:	4fff8c17          	auipc	s8,0x4fff8
    30009bfc:	a38c0c13          	addi	s8,s8,-1480 # 80001630 <__FUNCTION__.6+0x40>
    30009c00:	00048513          	mv	a0,s1
    30009c04:	01010593          	addi	a1,sp,16
    30009c08:	e44ff0ef          	jal	ra,3000924c <list_get_next>
    30009c0c:	00050493          	mv	s1,a0
    30009c10:	000a8a13          	mv	s4,s5
    30009c14:	00000993          	li	s3,0
    30009c18:	02812783          	lw	a5,40(sp)
    30009c1c:	02f9ce63          	blt	s3,a5,30009c58 <list_mailbox+0xf4>
    30009c20:	fe0490e3          	bnez	s1,30009c00 <list_mailbox+0x9c>
    30009c24:	0b813083          	ld	ra,184(sp)
    30009c28:	0b013403          	ld	s0,176(sp)
    30009c2c:	0a813483          	ld	s1,168(sp)
    30009c30:	0a013903          	ld	s2,160(sp)
    30009c34:	09813983          	ld	s3,152(sp)
    30009c38:	09013a03          	ld	s4,144(sp)
    30009c3c:	08813a83          	ld	s5,136(sp)
    30009c40:	08013b03          	ld	s6,128(sp)
    30009c44:	07813b83          	ld	s7,120(sp)
    30009c48:	07013c03          	ld	s8,112(sp)
    30009c4c:	00000513          	li	a0,0
    30009c50:	0c010113          	addi	sp,sp,192
    30009c54:	00008067          	ret
    30009c58:	000a3403          	ld	s0,0(s4)
    30009c5c:	948fb0ef          	jal	ra,30004da4 <rt_hw_interrupt_disable>
    30009c60:	02014703          	lbu	a4,32(sp)
    30009c64:	ffc44783          	lbu	a5,-4(s0)
    30009c68:	07f7f793          	andi	a5,a5,127
    30009c6c:	00f70a63          	beq	a4,a5,30009c80 <list_mailbox+0x11c>
    30009c70:	93cfb0ef          	jal	ra,30004dac <rt_hw_interrupt_enable>
    30009c74:	0019899b          	addiw	s3,s3,1
    30009c78:	008a0a13          	addi	s4,s4,8
    30009c7c:	f9dff06f          	j	30009c18 <list_mailbox+0xb4>
    30009c80:	92cfb0ef          	jal	ra,30004dac <rt_hw_interrupt_enable>
    30009c84:	01043783          	ld	a5,16(s0)
    30009c88:	fe840693          	addi	a3,s0,-24
    30009c8c:	01040913          	addi	s2,s0,16
    30009c90:	00d13423          	sd	a3,8(sp)
    30009c94:	00090513          	mv	a0,s2
    30009c98:	02f90e63          	beq	s2,a5,30009cd4 <list_mailbox+0x170>
    30009c9c:	c1cff0ef          	jal	ra,300090b8 <rt_list_len>
    30009ca0:	02845783          	lhu	a5,40(s0)
    30009ca4:	02a45703          	lhu	a4,42(s0)
    30009ca8:	00813683          	ld	a3,8(sp)
    30009cac:	0005081b          	sext.w	a6,a0
    30009cb0:	01400613          	li	a2,20
    30009cb4:	01400593          	li	a1,20
    30009cb8:	000b8513          	mv	a0,s7
    30009cbc:	ff9f80ef          	jal	ra,30002cb4 <rt_kprintf>
    30009cc0:	00090513          	mv	a0,s2
    30009cc4:	c5cff0ef          	jal	ra,30009120 <show_wait_queue>
    30009cc8:	000c0513          	mv	a0,s8
    30009ccc:	fe9f80ef          	jal	ra,30002cb4 <rt_kprintf>
    30009cd0:	fa5ff06f          	j	30009c74 <list_mailbox+0x110>
    30009cd4:	be4ff0ef          	jal	ra,300090b8 <rt_list_len>
    30009cd8:	02845783          	lhu	a5,40(s0)
    30009cdc:	02a45703          	lhu	a4,42(s0)
    30009ce0:	00813683          	ld	a3,8(sp)
    30009ce4:	0005081b          	sext.w	a6,a0
    30009ce8:	01400613          	li	a2,20
    30009cec:	01400593          	li	a1,20
    30009cf0:	000b0513          	mv	a0,s6
    30009cf4:	fc1f80ef          	jal	ra,30002cb4 <rt_kprintf>
    30009cf8:	f7dff06f          	j	30009c74 <list_mailbox+0x110>

0000000030009cfc <list_msgqueue>:
    30009cfc:	f4010113          	addi	sp,sp,-192
    30009d00:	00600513          	li	a0,6
    30009d04:	0a113c23          	sd	ra,184(sp)
    30009d08:	0a913423          	sd	s1,168(sp)
    30009d0c:	09513423          	sd	s5,136(sp)
    30009d10:	09613023          	sd	s6,128(sp)
    30009d14:	07713c23          	sd	s7,120(sp)
    30009d18:	07813823          	sd	s8,112(sp)
    30009d1c:	0a813823          	sd	s0,176(sp)
    30009d20:	0b213023          	sd	s2,160(sp)
    30009d24:	09313c23          	sd	s3,152(sp)
    30009d28:	09413823          	sd	s4,144(sp)
    30009d2c:	dc8fa0ef          	jal	ra,300042f4 <rt_object_get_information>
    30009d30:	00850513          	addi	a0,a0,8
    30009d34:	00600793          	li	a5,6
    30009d38:	4fff9617          	auipc	a2,0x4fff9
    30009d3c:	e4860613          	addi	a2,a2,-440 # 80002b80 <__FUNCTION__.6+0x3f8>
    30009d40:	01400593          	li	a1,20
    30009d44:	00a13823          	sd	a0,16(sp)
    30009d48:	02f10023          	sb	a5,32(sp)
    30009d4c:	4fff9517          	auipc	a0,0x4fff9
    30009d50:	e4450513          	addi	a0,a0,-444 # 80002b90 <__FUNCTION__.6+0x408>
    30009d54:	00800793          	li	a5,8
    30009d58:	03010a93          	addi	s5,sp,48
    30009d5c:	02f12223          	sw	a5,36(sp)
    30009d60:	01513c23          	sd	s5,24(sp)
    30009d64:	02012423          	sw	zero,40(sp)
    30009d68:	f4df80ef          	jal	ra,30002cb4 <rt_kprintf>
    30009d6c:	dc0ff0ef          	jal	ra,3000932c <object_split.constprop.0>
    30009d70:	4fff9517          	auipc	a0,0x4fff9
    30009d74:	e4050513          	addi	a0,a0,-448 # 80002bb0 <__FUNCTION__.6+0x428>
    30009d78:	f3df80ef          	jal	ra,30002cb4 <rt_kprintf>
    30009d7c:	00000493          	li	s1,0
    30009d80:	4fff9b17          	auipc	s6,0x4fff9
    30009d84:	e60b0b13          	addi	s6,s6,-416 # 80002be0 <__FUNCTION__.6+0x458>
    30009d88:	4fff9b97          	auipc	s7,0x4fff9
    30009d8c:	e40b8b93          	addi	s7,s7,-448 # 80002bc8 <__FUNCTION__.6+0x440>
    30009d90:	4fff8c17          	auipc	s8,0x4fff8
    30009d94:	8a0c0c13          	addi	s8,s8,-1888 # 80001630 <__FUNCTION__.6+0x40>
    30009d98:	00048513          	mv	a0,s1
    30009d9c:	01010593          	addi	a1,sp,16
    30009da0:	cacff0ef          	jal	ra,3000924c <list_get_next>
    30009da4:	00050493          	mv	s1,a0
    30009da8:	000a8a13          	mv	s4,s5
    30009dac:	00000993          	li	s3,0
    30009db0:	02812783          	lw	a5,40(sp)
    30009db4:	02f9ce63          	blt	s3,a5,30009df0 <list_msgqueue+0xf4>
    30009db8:	fe0490e3          	bnez	s1,30009d98 <list_msgqueue+0x9c>
    30009dbc:	0b813083          	ld	ra,184(sp)
    30009dc0:	0b013403          	ld	s0,176(sp)
    30009dc4:	0a813483          	ld	s1,168(sp)
    30009dc8:	0a013903          	ld	s2,160(sp)
    30009dcc:	09813983          	ld	s3,152(sp)
    30009dd0:	09013a03          	ld	s4,144(sp)
    30009dd4:	08813a83          	ld	s5,136(sp)
    30009dd8:	08013b03          	ld	s6,128(sp)
    30009ddc:	07813b83          	ld	s7,120(sp)
    30009de0:	07013c03          	ld	s8,112(sp)
    30009de4:	00000513          	li	a0,0
    30009de8:	0c010113          	addi	sp,sp,192
    30009dec:	00008067          	ret
    30009df0:	000a3403          	ld	s0,0(s4)
    30009df4:	fb1fa0ef          	jal	ra,30004da4 <rt_hw_interrupt_disable>
    30009df8:	02014703          	lbu	a4,32(sp)
    30009dfc:	ffc44783          	lbu	a5,-4(s0)
    30009e00:	07f7f793          	andi	a5,a5,127
    30009e04:	00f70a63          	beq	a4,a5,30009e18 <list_msgqueue+0x11c>
    30009e08:	fa5fa0ef          	jal	ra,30004dac <rt_hw_interrupt_enable>
    30009e0c:	0019899b          	addiw	s3,s3,1
    30009e10:	008a0a13          	addi	s4,s4,8
    30009e14:	f9dff06f          	j	30009db0 <list_msgqueue+0xb4>
    30009e18:	f95fa0ef          	jal	ra,30004dac <rt_hw_interrupt_enable>
    30009e1c:	01043783          	ld	a5,16(s0)
    30009e20:	fe840693          	addi	a3,s0,-24
    30009e24:	01040913          	addi	s2,s0,16
    30009e28:	00d13423          	sd	a3,8(sp)
    30009e2c:	00090513          	mv	a0,s2
    30009e30:	02f90c63          	beq	s2,a5,30009e68 <list_msgqueue+0x16c>
    30009e34:	a84ff0ef          	jal	ra,300090b8 <rt_list_len>
    30009e38:	02c45703          	lhu	a4,44(s0)
    30009e3c:	00813683          	ld	a3,8(sp)
    30009e40:	0005079b          	sext.w	a5,a0
    30009e44:	01400613          	li	a2,20
    30009e48:	01400593          	li	a1,20
    30009e4c:	000b8513          	mv	a0,s7
    30009e50:	e65f80ef          	jal	ra,30002cb4 <rt_kprintf>
    30009e54:	00090513          	mv	a0,s2
    30009e58:	ac8ff0ef          	jal	ra,30009120 <show_wait_queue>
    30009e5c:	000c0513          	mv	a0,s8
    30009e60:	e55f80ef          	jal	ra,30002cb4 <rt_kprintf>
    30009e64:	fa9ff06f          	j	30009e0c <list_msgqueue+0x110>
    30009e68:	a50ff0ef          	jal	ra,300090b8 <rt_list_len>
    30009e6c:	02c45703          	lhu	a4,44(s0)
    30009e70:	00813683          	ld	a3,8(sp)
    30009e74:	0005079b          	sext.w	a5,a0
    30009e78:	01400613          	li	a2,20
    30009e7c:	01400593          	li	a1,20
    30009e80:	000b0513          	mv	a0,s6
    30009e84:	e31f80ef          	jal	ra,30002cb4 <rt_kprintf>
    30009e88:	f85ff06f          	j	30009e0c <list_msgqueue+0x110>

0000000030009e8c <list_mempool>:
    30009e8c:	f5010113          	addi	sp,sp,-176
    30009e90:	00800513          	li	a0,8
    30009e94:	0a113423          	sd	ra,168(sp)
    30009e98:	08913c23          	sd	s1,152(sp)
    30009e9c:	09413023          	sd	s4,128(sp)
    30009ea0:	07513c23          	sd	s5,120(sp)
    30009ea4:	07613823          	sd	s6,112(sp)
    30009ea8:	07713423          	sd	s7,104(sp)
    30009eac:	0a813023          	sd	s0,160(sp)
    30009eb0:	09213823          	sd	s2,144(sp)
    30009eb4:	09313423          	sd	s3,136(sp)
    30009eb8:	07813023          	sd	s8,96(sp)
    30009ebc:	c38fa0ef          	jal	ra,300042f4 <rt_object_get_information>
    30009ec0:	00850513          	addi	a0,a0,8
    30009ec4:	00800793          	li	a5,8
    30009ec8:	4fff9617          	auipc	a2,0x4fff9
    30009ecc:	d3060613          	addi	a2,a2,-720 # 80002bf8 <__FUNCTION__.6+0x470>
    30009ed0:	01400593          	li	a1,20
    30009ed4:	00a13023          	sd	a0,0(sp)
    30009ed8:	02010a13          	addi	s4,sp,32
    30009edc:	4fff9517          	auipc	a0,0x4fff9
    30009ee0:	d2450513          	addi	a0,a0,-732 # 80002c00 <__FUNCTION__.6+0x478>
    30009ee4:	00f10823          	sb	a5,16(sp)
    30009ee8:	00f12a23          	sw	a5,20(sp)
    30009eec:	01413423          	sd	s4,8(sp)
    30009ef0:	00012c23          	sw	zero,24(sp)
    30009ef4:	dc1f80ef          	jal	ra,30002cb4 <rt_kprintf>
    30009ef8:	c34ff0ef          	jal	ra,3000932c <object_split.constprop.0>
    30009efc:	4fff9517          	auipc	a0,0x4fff9
    30009f00:	d2c50513          	addi	a0,a0,-724 # 80002c28 <__FUNCTION__.6+0x4a0>
    30009f04:	db1f80ef          	jal	ra,30002cb4 <rt_kprintf>
    30009f08:	00000493          	li	s1,0
    30009f0c:	4fff9a97          	auipc	s5,0x4fff9
    30009f10:	d64a8a93          	addi	s5,s5,-668 # 80002c70 <__FUNCTION__.6+0x4e8>
    30009f14:	4fff9b17          	auipc	s6,0x4fff9
    30009f18:	d3cb0b13          	addi	s6,s6,-708 # 80002c50 <__FUNCTION__.6+0x4c8>
    30009f1c:	4fff7b97          	auipc	s7,0x4fff7
    30009f20:	714b8b93          	addi	s7,s7,1812 # 80001630 <__FUNCTION__.6+0x40>
    30009f24:	00048513          	mv	a0,s1
    30009f28:	00010593          	mv	a1,sp
    30009f2c:	b20ff0ef          	jal	ra,3000924c <list_get_next>
    30009f30:	00050493          	mv	s1,a0
    30009f34:	000a0993          	mv	s3,s4
    30009f38:	00000913          	li	s2,0
    30009f3c:	01812783          	lw	a5,24(sp)
    30009f40:	02f94e63          	blt	s2,a5,30009f7c <list_mempool+0xf0>
    30009f44:	fe0490e3          	bnez	s1,30009f24 <list_mempool+0x98>
    30009f48:	0a813083          	ld	ra,168(sp)
    30009f4c:	0a013403          	ld	s0,160(sp)
    30009f50:	09813483          	ld	s1,152(sp)
    30009f54:	09013903          	ld	s2,144(sp)
    30009f58:	08813983          	ld	s3,136(sp)
    30009f5c:	08013a03          	ld	s4,128(sp)
    30009f60:	07813a83          	ld	s5,120(sp)
    30009f64:	07013b03          	ld	s6,112(sp)
    30009f68:	06813b83          	ld	s7,104(sp)
    30009f6c:	06013c03          	ld	s8,96(sp)
    30009f70:	00000513          	li	a0,0
    30009f74:	0b010113          	addi	sp,sp,176
    30009f78:	00008067          	ret
    30009f7c:	0009b403          	ld	s0,0(s3)
    30009f80:	e25fa0ef          	jal	ra,30004da4 <rt_hw_interrupt_disable>
    30009f84:	01014703          	lbu	a4,16(sp)
    30009f88:	ffc44783          	lbu	a5,-4(s0)
    30009f8c:	07f7f793          	andi	a5,a5,127
    30009f90:	00f70a63          	beq	a4,a5,30009fa4 <list_mempool+0x118>
    30009f94:	e19fa0ef          	jal	ra,30004dac <rt_hw_interrupt_enable>
    30009f98:	0019091b          	addiw	s2,s2,1
    30009f9c:	00898993          	addi	s3,s3,8
    30009fa0:	f9dff06f          	j	30009f3c <list_mempool+0xb0>
    30009fa4:	e09fa0ef          	jal	ra,30004dac <rt_hw_interrupt_enable>
    30009fa8:	04043783          	ld	a5,64(s0)
    30009fac:	00000893          	li	a7,0
    30009fb0:	fe840693          	addi	a3,s0,-24
    30009fb4:	04040c13          	addi	s8,s0,64
    30009fb8:	02fc1c63          	bne	s8,a5,30009ff0 <list_mempool+0x164>
    30009fbc:	02043703          	ld	a4,32(s0)
    30009fc0:	03043783          	ld	a5,48(s0)
    30009fc4:	03843803          	ld	a6,56(s0)
    30009fc8:	02088a63          	beqz	a7,30009ffc <list_mempool+0x170>
    30009fcc:	01400613          	li	a2,20
    30009fd0:	01400593          	li	a1,20
    30009fd4:	000b0513          	mv	a0,s6
    30009fd8:	cddf80ef          	jal	ra,30002cb4 <rt_kprintf>
    30009fdc:	000c0513          	mv	a0,s8
    30009fe0:	940ff0ef          	jal	ra,30009120 <show_wait_queue>
    30009fe4:	000b8513          	mv	a0,s7
    30009fe8:	ccdf80ef          	jal	ra,30002cb4 <rt_kprintf>
    30009fec:	fadff06f          	j	30009f98 <list_mempool+0x10c>
    30009ff0:	0007b783          	ld	a5,0(a5)
    30009ff4:	0018889b          	addiw	a7,a7,1
    30009ff8:	fc1ff06f          	j	30009fb8 <list_mempool+0x12c>
    30009ffc:	00000893          	li	a7,0
    3000a000:	01400613          	li	a2,20
    3000a004:	01400593          	li	a1,20
    3000a008:	000a8513          	mv	a0,s5
    3000a00c:	ca9f80ef          	jal	ra,30002cb4 <rt_kprintf>
    3000a010:	f89ff06f          	j	30009f98 <list_mempool+0x10c>

000000003000a014 <list_device>:
    3000a014:	f5010113          	addi	sp,sp,-176
    3000a018:	00900513          	li	a0,9
    3000a01c:	0a113423          	sd	ra,168(sp)
    3000a020:	0a813023          	sd	s0,160(sp)
    3000a024:	09413023          	sd	s4,128(sp)
    3000a028:	07513c23          	sd	s5,120(sp)
    3000a02c:	07613823          	sd	s6,112(sp)
    3000a030:	07713423          	sd	s7,104(sp)
    3000a034:	07813023          	sd	s8,96(sp)
    3000a038:	08913c23          	sd	s1,152(sp)
    3000a03c:	09213823          	sd	s2,144(sp)
    3000a040:	09313423          	sd	s3,136(sp)
    3000a044:	ab0fa0ef          	jal	ra,300042f4 <rt_object_get_information>
    3000a048:	00850513          	addi	a0,a0,8
    3000a04c:	00900793          	li	a5,9
    3000a050:	4fff8617          	auipc	a2,0x4fff8
    3000a054:	e8060613          	addi	a2,a2,-384 # 80001ed0 <CSWTCH.17+0xc0>
    3000a058:	01400593          	li	a1,20
    3000a05c:	00a13023          	sd	a0,0(sp)
    3000a060:	00f10823          	sb	a5,16(sp)
    3000a064:	4fff9517          	auipc	a0,0x4fff9
    3000a068:	c3450513          	addi	a0,a0,-972 # 80002c98 <__FUNCTION__.6+0x510>
    3000a06c:	00800793          	li	a5,8
    3000a070:	02010a13          	addi	s4,sp,32
    3000a074:	00f12a23          	sw	a5,20(sp)
    3000a078:	01413423          	sd	s4,8(sp)
    3000a07c:	00012c23          	sw	zero,24(sp)
    3000a080:	c35f80ef          	jal	ra,30002cb4 <rt_kprintf>
    3000a084:	aa8ff0ef          	jal	ra,3000932c <object_split.constprop.0>
    3000a088:	4fff9517          	auipc	a0,0x4fff9
    3000a08c:	c3850513          	addi	a0,a0,-968 # 80002cc0 <__FUNCTION__.6+0x538>
    3000a090:	c25f80ef          	jal	ra,30002cb4 <rt_kprintf>
    3000a094:	00000413          	li	s0,0
    3000a098:	01600a93          	li	s5,22
    3000a09c:	4fff9b17          	auipc	s6,0x4fff9
    3000a0a0:	bf4b0b13          	addi	s6,s6,-1036 # 80002c90 <__FUNCTION__.6+0x508>
    3000a0a4:	4fff9b97          	auipc	s7,0x4fff9
    3000a0a8:	c44b8b93          	addi	s7,s7,-956 # 80002ce8 <__FUNCTION__.6+0x560>
    3000a0ac:	4fff9c17          	auipc	s8,0x4fff9
    3000a0b0:	dbcc0c13          	addi	s8,s8,-580 # 80002e68 <device_type_str>
    3000a0b4:	00040513          	mv	a0,s0
    3000a0b8:	00010593          	mv	a1,sp
    3000a0bc:	990ff0ef          	jal	ra,3000924c <list_get_next>
    3000a0c0:	00050413          	mv	s0,a0
    3000a0c4:	000a0993          	mv	s3,s4
    3000a0c8:	00000913          	li	s2,0
    3000a0cc:	01812783          	lw	a5,24(sp)
    3000a0d0:	02f94e63          	blt	s2,a5,3000a10c <list_device+0xf8>
    3000a0d4:	fe0410e3          	bnez	s0,3000a0b4 <list_device+0xa0>
    3000a0d8:	0a813083          	ld	ra,168(sp)
    3000a0dc:	0a013403          	ld	s0,160(sp)
    3000a0e0:	09813483          	ld	s1,152(sp)
    3000a0e4:	09013903          	ld	s2,144(sp)
    3000a0e8:	08813983          	ld	s3,136(sp)
    3000a0ec:	08013a03          	ld	s4,128(sp)
    3000a0f0:	07813a83          	ld	s5,120(sp)
    3000a0f4:	07013b03          	ld	s6,112(sp)
    3000a0f8:	06813b83          	ld	s7,104(sp)
    3000a0fc:	06013c03          	ld	s8,96(sp)
    3000a100:	00000513          	li	a0,0
    3000a104:	0b010113          	addi	sp,sp,176
    3000a108:	00008067          	ret
    3000a10c:	0009b483          	ld	s1,0(s3)
    3000a110:	c95fa0ef          	jal	ra,30004da4 <rt_hw_interrupt_disable>
    3000a114:	01014703          	lbu	a4,16(sp)
    3000a118:	ffc4c783          	lbu	a5,-4(s1)
    3000a11c:	07f7f793          	andi	a5,a5,127
    3000a120:	00f70a63          	beq	a4,a5,3000a134 <list_device+0x120>
    3000a124:	c89fa0ef          	jal	ra,30004dac <rt_hw_interrupt_enable>
    3000a128:	0019091b          	addiw	s2,s2,1
    3000a12c:	00898993          	addi	s3,s3,8
    3000a130:	f9dff06f          	j	3000a0cc <list_device+0xb8>
    3000a134:	c79fa0ef          	jal	ra,30004dac <rt_hw_interrupt_enable>
    3000a138:	0104a783          	lw	a5,16(s1)
    3000a13c:	fe848693          	addi	a3,s1,-24
    3000a140:	000b0713          	mv	a4,s6
    3000a144:	00faea63          	bltu	s5,a5,3000a158 <list_device+0x144>
    3000a148:	02079713          	slli	a4,a5,0x20
    3000a14c:	01d75793          	srli	a5,a4,0x1d
    3000a150:	00fc07b3          	add	a5,s8,a5
    3000a154:	0007b703          	ld	a4,0(a5)
    3000a158:	0184c783          	lbu	a5,24(s1)
    3000a15c:	01400613          	li	a2,20
    3000a160:	01400593          	li	a1,20
    3000a164:	000b8513          	mv	a0,s7
    3000a168:	b4df80ef          	jal	ra,30002cb4 <rt_kprintf>
    3000a16c:	fbdff06f          	j	3000a128 <list_device+0x114>

000000003000a170 <cmd_ls>:
    3000a170:	ff010113          	addi	sp,sp,-16
    3000a174:	00113423          	sd	ra,8(sp)
    3000a178:	00100793          	li	a5,1
    3000a17c:	02f51063          	bne	a0,a5,3000a19c <cmd_ls+0x2c>
    3000a180:	4fffa517          	auipc	a0,0x4fffa
    3000a184:	f7850513          	addi	a0,a0,-136 # 800040f8 <working_directory>
    3000a188:	db8fc0ef          	jal	ra,30006740 <ls>
    3000a18c:	00813083          	ld	ra,8(sp)
    3000a190:	00000513          	li	a0,0
    3000a194:	01010113          	addi	sp,sp,16
    3000a198:	00008067          	ret
    3000a19c:	0085b503          	ld	a0,8(a1)
    3000a1a0:	fe9ff06f          	j	3000a188 <cmd_ls+0x18>

000000003000a1a4 <cmd_pwd>:
    3000a1a4:	ff010113          	addi	sp,sp,-16
    3000a1a8:	4fffa517          	auipc	a0,0x4fffa
    3000a1ac:	93850513          	addi	a0,a0,-1736 # 80003ae0 <__fsym___cmd_ls_name+0x40>
    3000a1b0:	4fffa597          	auipc	a1,0x4fffa
    3000a1b4:	f4858593          	addi	a1,a1,-184 # 800040f8 <working_directory>
    3000a1b8:	00113423          	sd	ra,8(sp)
    3000a1bc:	af9f80ef          	jal	ra,30002cb4 <rt_kprintf>
    3000a1c0:	00813083          	ld	ra,8(sp)
    3000a1c4:	00000513          	li	a0,0
    3000a1c8:	01010113          	addi	sp,sp,16
    3000a1cc:	00008067          	ret

000000003000a1d0 <directory_delete_for_msh>:
    3000a1d0:	24050063          	beqz	a0,3000a410 <directory_delete_for_msh+0x240>
    3000a1d4:	f8010113          	addi	sp,sp,-128
    3000a1d8:	06913423          	sd	s1,104(sp)
    3000a1dc:	00050493          	mv	s1,a0
    3000a1e0:	10000513          	li	a0,256
    3000a1e4:	06813823          	sd	s0,112(sp)
    3000a1e8:	07213023          	sd	s2,96(sp)
    3000a1ec:	05313c23          	sd	s3,88(sp)
    3000a1f0:	06113c23          	sd	ra,120(sp)
    3000a1f4:	05413823          	sd	s4,80(sp)
    3000a1f8:	05513423          	sd	s5,72(sp)
    3000a1fc:	05613023          	sd	s6,64(sp)
    3000a200:	03713c23          	sd	s7,56(sp)
    3000a204:	03813823          	sd	s8,48(sp)
    3000a208:	03913423          	sd	s9,40(sp)
    3000a20c:	03a13023          	sd	s10,32(sp)
    3000a210:	01b13c23          	sd	s11,24(sp)
    3000a214:	00058913          	mv	s2,a1
    3000a218:	00060993          	mv	s3,a2
    3000a21c:	ce4f70ef          	jal	ra,30001700 <rt_malloc>
    3000a220:	00050413          	mv	s0,a0
    3000a224:	1a050863          	beqz	a0,3000a3d4 <directory_delete_for_msh+0x204>
    3000a228:	00048513          	mv	a0,s1
    3000a22c:	ef0fd0ef          	jal	ra,3000791c <opendir>
    3000a230:	00050a13          	mv	s4,a0
    3000a234:	0a050463          	beqz	a0,3000a2dc <directory_delete_for_msh+0x10c>
    3000a238:	4fff8b17          	auipc	s6,0x4fff8
    3000a23c:	f20b0b13          	addi	s6,s6,-224 # 80002158 <__fsym___cmd_list_fd_name+0x170>
    3000a240:	4fff8b97          	auipc	s7,0x4fff8
    3000a244:	d60b8b93          	addi	s7,s7,-672 # 80001fa0 <CSWTCH.17+0x190>
    3000a248:	00100c13          	li	s8,1
    3000a24c:	00200c93          	li	s9,2
    3000a250:	4fff9d17          	auipc	s10,0x4fff9
    3000a254:	118d0d13          	addi	s10,s10,280 # 80003368 <__fsym_hello_name+0x20>
    3000a258:	4fff9d97          	auipc	s11,0x4fff9
    3000a25c:	0f8d8d93          	addi	s11,s11,248 # 80003350 <__fsym_hello_name+0x8>
    3000a260:	000a0513          	mv	a0,s4
    3000a264:	f7cfd0ef          	jal	ra,300079e0 <readdir>
    3000a268:	00050a93          	mv	s5,a0
    3000a26c:	0e050663          	beqz	a0,3000a358 <directory_delete_for_msh+0x188>
    3000a270:	00450693          	addi	a3,a0,4
    3000a274:	00068593          	mv	a1,a3
    3000a278:	4fff8517          	auipc	a0,0x4fff8
    3000a27c:	04850513          	addi	a0,a0,72 # 800022c0 <__fsym_ls_name+0x78>
    3000a280:	00d13423          	sd	a3,8(sp)
    3000a284:	b1cf80ef          	jal	ra,300025a0 <rt_strcmp>
    3000a288:	00813683          	ld	a3,8(sp)
    3000a28c:	fc050ae3          	beqz	a0,3000a260 <directory_delete_for_msh+0x90>
    3000a290:	00068593          	mv	a1,a3
    3000a294:	000b0513          	mv	a0,s6
    3000a298:	b08f80ef          	jal	ra,300025a0 <rt_strcmp>
    3000a29c:	00813683          	ld	a3,8(sp)
    3000a2a0:	fc0500e3          	beqz	a0,3000a260 <directory_delete_for_msh+0x90>
    3000a2a4:	00048613          	mv	a2,s1
    3000a2a8:	000b8593          	mv	a1,s7
    3000a2ac:	00040513          	mv	a0,s0
    3000a2b0:	955f80ef          	jal	ra,30002c04 <rt_sprintf>
    3000a2b4:	000ac783          	lbu	a5,0(s5)
    3000a2b8:	09879463          	bne	a5,s8,3000a340 <directory_delete_for_msh+0x170>
    3000a2bc:	00040513          	mv	a0,s0
    3000a2c0:	e04fd0ef          	jal	ra,300078c4 <unlink>
    3000a2c4:	06050663          	beqz	a0,3000a330 <directory_delete_for_msh+0x160>
    3000a2c8:	f8091ce3          	bnez	s2,3000a260 <directory_delete_for_msh+0x90>
    3000a2cc:	00040593          	mv	a1,s0
    3000a2d0:	000d8513          	mv	a0,s11
    3000a2d4:	9e1f80ef          	jal	ra,30002cb4 <rt_kprintf>
    3000a2d8:	f89ff06f          	j	3000a260 <directory_delete_for_msh+0x90>
    3000a2dc:	00091a63          	bnez	s2,3000a2f0 <directory_delete_for_msh+0x120>
    3000a2e0:	00048593          	mv	a1,s1
    3000a2e4:	4fff9517          	auipc	a0,0x4fff9
    3000a2e8:	06c50513          	addi	a0,a0,108 # 80003350 <__fsym_hello_name+0x8>
    3000a2ec:	9c9f80ef          	jal	ra,30002cb4 <rt_kprintf>
    3000a2f0:	00040513          	mv	a0,s0
    3000a2f4:	07013403          	ld	s0,112(sp)
    3000a2f8:	07813083          	ld	ra,120(sp)
    3000a2fc:	06813483          	ld	s1,104(sp)
    3000a300:	06013903          	ld	s2,96(sp)
    3000a304:	05813983          	ld	s3,88(sp)
    3000a308:	05013a03          	ld	s4,80(sp)
    3000a30c:	04813a83          	ld	s5,72(sp)
    3000a310:	04013b03          	ld	s6,64(sp)
    3000a314:	03813b83          	ld	s7,56(sp)
    3000a318:	03013c03          	ld	s8,48(sp)
    3000a31c:	02813c83          	ld	s9,40(sp)
    3000a320:	02013d03          	ld	s10,32(sp)
    3000a324:	01813d83          	ld	s11,24(sp)
    3000a328:	08010113          	addi	sp,sp,128
    3000a32c:	ef4f706f          	j	30001a20 <rt_free>
    3000a330:	f20988e3          	beqz	s3,3000a260 <directory_delete_for_msh+0x90>
    3000a334:	00040593          	mv	a1,s0
    3000a338:	000d0513          	mv	a0,s10
    3000a33c:	f99ff06f          	j	3000a2d4 <directory_delete_for_msh+0x104>
    3000a340:	f39790e3          	bne	a5,s9,3000a260 <directory_delete_for_msh+0x90>
    3000a344:	00098613          	mv	a2,s3
    3000a348:	00090593          	mv	a1,s2
    3000a34c:	00040513          	mv	a0,s0
    3000a350:	e81ff0ef          	jal	ra,3000a1d0 <directory_delete_for_msh>
    3000a354:	f0dff06f          	j	3000a260 <directory_delete_for_msh+0x90>
    3000a358:	000a0513          	mv	a0,s4
    3000a35c:	fb4fd0ef          	jal	ra,30007b10 <closedir>
    3000a360:	00040513          	mv	a0,s0
    3000a364:	ebcf70ef          	jal	ra,30001a20 <rt_free>
    3000a368:	00048513          	mv	a0,s1
    3000a36c:	d58fd0ef          	jal	ra,300078c4 <unlink>
    3000a370:	04050863          	beqz	a0,3000a3c0 <directory_delete_for_msh+0x1f0>
    3000a374:	06091063          	bnez	s2,3000a3d4 <directory_delete_for_msh+0x204>
    3000a378:	00048593          	mv	a1,s1
    3000a37c:	4fff9517          	auipc	a0,0x4fff9
    3000a380:	fd450513          	addi	a0,a0,-44 # 80003350 <__fsym_hello_name+0x8>
    3000a384:	07013403          	ld	s0,112(sp)
    3000a388:	07813083          	ld	ra,120(sp)
    3000a38c:	06813483          	ld	s1,104(sp)
    3000a390:	06013903          	ld	s2,96(sp)
    3000a394:	05813983          	ld	s3,88(sp)
    3000a398:	05013a03          	ld	s4,80(sp)
    3000a39c:	04813a83          	ld	s5,72(sp)
    3000a3a0:	04013b03          	ld	s6,64(sp)
    3000a3a4:	03813b83          	ld	s7,56(sp)
    3000a3a8:	03013c03          	ld	s8,48(sp)
    3000a3ac:	02813c83          	ld	s9,40(sp)
    3000a3b0:	02013d03          	ld	s10,32(sp)
    3000a3b4:	01813d83          	ld	s11,24(sp)
    3000a3b8:	08010113          	addi	sp,sp,128
    3000a3bc:	8f9f806f          	j	30002cb4 <rt_kprintf>
    3000a3c0:	00098a63          	beqz	s3,3000a3d4 <directory_delete_for_msh+0x204>
    3000a3c4:	00048593          	mv	a1,s1
    3000a3c8:	4fff9517          	auipc	a0,0x4fff9
    3000a3cc:	fb050513          	addi	a0,a0,-80 # 80003378 <__fsym_hello_name+0x30>
    3000a3d0:	fb5ff06f          	j	3000a384 <directory_delete_for_msh+0x1b4>
    3000a3d4:	07813083          	ld	ra,120(sp)
    3000a3d8:	07013403          	ld	s0,112(sp)
    3000a3dc:	06813483          	ld	s1,104(sp)
    3000a3e0:	06013903          	ld	s2,96(sp)
    3000a3e4:	05813983          	ld	s3,88(sp)
    3000a3e8:	05013a03          	ld	s4,80(sp)
    3000a3ec:	04813a83          	ld	s5,72(sp)
    3000a3f0:	04013b03          	ld	s6,64(sp)
    3000a3f4:	03813b83          	ld	s7,56(sp)
    3000a3f8:	03013c03          	ld	s8,48(sp)
    3000a3fc:	02813c83          	ld	s9,40(sp)
    3000a400:	02013d03          	ld	s10,32(sp)
    3000a404:	01813d83          	ld	s11,24(sp)
    3000a408:	08010113          	addi	sp,sp,128
    3000a40c:	00008067          	ret
    3000a410:	00008067          	ret

000000003000a414 <cmd_rm>:
    3000a414:	f1010113          	addi	sp,sp,-240
    3000a418:	0e113423          	sd	ra,232(sp)
    3000a41c:	0e813023          	sd	s0,224(sp)
    3000a420:	0c913c23          	sd	s1,216(sp)
    3000a424:	0d213823          	sd	s2,208(sp)
    3000a428:	0d313423          	sd	s3,200(sp)
    3000a42c:	0d413023          	sd	s4,192(sp)
    3000a430:	0b513c23          	sd	s5,184(sp)
    3000a434:	0b613823          	sd	s6,176(sp)
    3000a438:	0b713423          	sd	s7,168(sp)
    3000a43c:	0b813023          	sd	s8,160(sp)
    3000a440:	09913c23          	sd	s9,152(sp)
    3000a444:	09a13823          	sd	s10,144(sp)
    3000a448:	09b13423          	sd	s11,136(sp)
    3000a44c:	00100793          	li	a5,1
    3000a450:	04f51e63          	bne	a0,a5,3000a4ac <cmd_rm+0x98>
    3000a454:	4fff9517          	auipc	a0,0x4fff9
    3000a458:	f3c50513          	addi	a0,a0,-196 # 80003390 <__fsym_hello_name+0x48>
    3000a45c:	859f80ef          	jal	ra,30002cb4 <rt_kprintf>
    3000a460:	4fff9517          	auipc	a0,0x4fff9
    3000a464:	f5050513          	addi	a0,a0,-176 # 800033b0 <__fsym_hello_name+0x68>
    3000a468:	84df80ef          	jal	ra,30002cb4 <rt_kprintf>
    3000a46c:	0e813083          	ld	ra,232(sp)
    3000a470:	0e013403          	ld	s0,224(sp)
    3000a474:	0d813483          	ld	s1,216(sp)
    3000a478:	0d013903          	ld	s2,208(sp)
    3000a47c:	0c813983          	ld	s3,200(sp)
    3000a480:	0c013a03          	ld	s4,192(sp)
    3000a484:	0b813a83          	ld	s5,184(sp)
    3000a488:	0b013b03          	ld	s6,176(sp)
    3000a48c:	0a813b83          	ld	s7,168(sp)
    3000a490:	0a013c03          	ld	s8,160(sp)
    3000a494:	09813c83          	ld	s9,152(sp)
    3000a498:	09013d03          	ld	s10,144(sp)
    3000a49c:	08813d83          	ld	s11,136(sp)
    3000a4a0:	00000513          	li	a0,0
    3000a4a4:	0f010113          	addi	sp,sp,240
    3000a4a8:	00008067          	ret
    3000a4ac:	0085b783          	ld	a5,8(a1)
    3000a4b0:	02d00713          	li	a4,45
    3000a4b4:	00050493          	mv	s1,a0
    3000a4b8:	0007c683          	lbu	a3,0(a5)
    3000a4bc:	00058413          	mv	s0,a1
    3000a4c0:	00000993          	li	s3,0
    3000a4c4:	00000a93          	li	s5,0
    3000a4c8:	00000913          	li	s2,0
    3000a4cc:	02e69263          	bne	a3,a4,3000a4f0 <cmd_rm+0xdc>
    3000a4d0:	07200713          	li	a4,114
    3000a4d4:	07600693          	li	a3,118
    3000a4d8:	02d00613          	li	a2,45
    3000a4dc:	06600513          	li	a0,102
    3000a4e0:	0007c583          	lbu	a1,0(a5)
    3000a4e4:	06059c63          	bnez	a1,3000a55c <cmd_rm+0x148>
    3000a4e8:	fff4849b          	addiw	s1,s1,-1
    3000a4ec:	00840413          	addi	s0,s0,8
    3000a4f0:	00840413          	addi	s0,s0,8
    3000a4f4:	00100a13          	li	s4,1
    3000a4f8:	4fff9b17          	auipc	s6,0x4fff9
    3000a4fc:	f18b0b13          	addi	s6,s6,-232 # 80003410 <__fsym_hello_name+0xc8>
    3000a500:	00004bb7          	lui	s7,0x4
    3000a504:	00008c37          	lui	s8,0x8
    3000a508:	4fff9c97          	auipc	s9,0x4fff9
    3000a50c:	e60c8c93          	addi	s9,s9,-416 # 80003368 <__fsym_hello_name+0x20>
    3000a510:	4fff9d17          	auipc	s10,0x4fff9
    3000a514:	e40d0d13          	addi	s10,s10,-448 # 80003350 <__fsym_hello_name+0x8>
    3000a518:	4fff9d97          	auipc	s11,0x4fff9
    3000a51c:	ed0d8d93          	addi	s11,s11,-304 # 800033e8 <__fsym_hello_name+0xa0>
    3000a520:	f49a56e3          	bge	s4,s1,3000a46c <cmd_rm+0x58>
    3000a524:	00043503          	ld	a0,0(s0)
    3000a528:	00010593          	mv	a1,sp
    3000a52c:	bc4fd0ef          	jal	ra,300078f0 <stat>
    3000a530:	0a051e63          	bnez	a0,3000a5ec <cmd_rm+0x1d8>
    3000a534:	01012783          	lw	a5,16(sp)
    3000a538:	0177f733          	and	a4,a5,s7
    3000a53c:	0007071b          	sext.w	a4,a4
    3000a540:	06070a63          	beqz	a4,3000a5b4 <cmd_rm+0x1a0>
    3000a544:	00043503          	ld	a0,0(s0)
    3000a548:	040a9a63          	bnez	s5,3000a59c <cmd_rm+0x188>
    3000a54c:	00050593          	mv	a1,a0
    3000a550:	000d8513          	mv	a0,s11
    3000a554:	f60f80ef          	jal	ra,30002cb4 <rt_kprintf>
    3000a558:	0500006f          	j	3000a5a8 <cmd_rm+0x194>
    3000a55c:	02e58663          	beq	a1,a4,3000a588 <cmd_rm+0x174>
    3000a560:	00b76e63          	bltu	a4,a1,3000a57c <cmd_rm+0x168>
    3000a564:	02c58463          	beq	a1,a2,3000a58c <cmd_rm+0x178>
    3000a568:	02a58663          	beq	a1,a0,3000a594 <cmd_rm+0x180>
    3000a56c:	4fff9517          	auipc	a0,0x4fff9
    3000a570:	e6450513          	addi	a0,a0,-412 # 800033d0 <__fsym_hello_name+0x88>
    3000a574:	f40f80ef          	jal	ra,30002cb4 <rt_kprintf>
    3000a578:	ef5ff06f          	j	3000a46c <cmd_rm+0x58>
    3000a57c:	fed598e3          	bne	a1,a3,3000a56c <cmd_rm+0x158>
    3000a580:	00100993          	li	s3,1
    3000a584:	0080006f          	j	3000a58c <cmd_rm+0x178>
    3000a588:	00100a93          	li	s5,1
    3000a58c:	00178793          	addi	a5,a5,1
    3000a590:	f51ff06f          	j	3000a4e0 <cmd_rm+0xcc>
    3000a594:	00100913          	li	s2,1
    3000a598:	ff5ff06f          	j	3000a58c <cmd_rm+0x178>
    3000a59c:	00098613          	mv	a2,s3
    3000a5a0:	00090593          	mv	a1,s2
    3000a5a4:	c2dff0ef          	jal	ra,3000a1d0 <directory_delete_for_msh>
    3000a5a8:	001a0a1b          	addiw	s4,s4,1
    3000a5ac:	00840413          	addi	s0,s0,8
    3000a5b0:	f71ff06f          	j	3000a520 <cmd_rm+0x10c>
    3000a5b4:	0187f7b3          	and	a5,a5,s8
    3000a5b8:	0007879b          	sext.w	a5,a5
    3000a5bc:	fe0786e3          	beqz	a5,3000a5a8 <cmd_rm+0x194>
    3000a5c0:	00043503          	ld	a0,0(s0)
    3000a5c4:	b00fd0ef          	jal	ra,300078c4 <unlink>
    3000a5c8:	00050a63          	beqz	a0,3000a5dc <cmd_rm+0x1c8>
    3000a5cc:	fc091ee3          	bnez	s2,3000a5a8 <cmd_rm+0x194>
    3000a5d0:	00043583          	ld	a1,0(s0)
    3000a5d4:	000d0513          	mv	a0,s10
    3000a5d8:	f7dff06f          	j	3000a554 <cmd_rm+0x140>
    3000a5dc:	fc0986e3          	beqz	s3,3000a5a8 <cmd_rm+0x194>
    3000a5e0:	00043583          	ld	a1,0(s0)
    3000a5e4:	000c8513          	mv	a0,s9
    3000a5e8:	f6dff06f          	j	3000a554 <cmd_rm+0x140>
    3000a5ec:	fa091ee3          	bnez	s2,3000a5a8 <cmd_rm+0x194>
    3000a5f0:	00043583          	ld	a1,0(s0)
    3000a5f4:	000b0513          	mv	a0,s6
    3000a5f8:	f5dff06f          	j	3000a554 <cmd_rm+0x140>

000000003000a5fc <cmd_mkfs>:
    3000a5fc:	ff010113          	addi	sp,sp,-16
    3000a600:	00813023          	sd	s0,0(sp)
    3000a604:	00113423          	sd	ra,8(sp)
    3000a608:	00200793          	li	a5,2
    3000a60c:	00058413          	mv	s0,a1
    3000a610:	02f51663          	bne	a0,a5,3000a63c <cmd_mkfs+0x40>
    3000a614:	0085b583          	ld	a1,8(a1)
    3000a618:	4fff9517          	auipc	a0,0x4fff9
    3000a61c:	e2850513          	addi	a0,a0,-472 # 80003440 <__fsym_hello_name+0xf8>
    3000a620:	c79fc0ef          	jal	ra,30007298 <dfs_mkfs>
    3000a624:	00050593          	mv	a1,a0
    3000a628:	04050463          	beqz	a0,3000a670 <cmd_mkfs+0x74>
    3000a62c:	4fff9517          	auipc	a0,0x4fff9
    3000a630:	e4450513          	addi	a0,a0,-444 # 80003470 <__fsym_hello_name+0x128>
    3000a634:	e80f80ef          	jal	ra,30002cb4 <rt_kprintf>
    3000a638:	0380006f          	j	3000a670 <cmd_mkfs+0x74>
    3000a63c:	00400793          	li	a5,4
    3000a640:	02f51263          	bne	a0,a5,3000a664 <cmd_mkfs+0x68>
    3000a644:	00843503          	ld	a0,8(s0)
    3000a648:	4fff9597          	auipc	a1,0x4fff9
    3000a64c:	e0058593          	addi	a1,a1,-512 # 80003448 <__fsym_hello_name+0x100>
    3000a650:	cedf50ef          	jal	ra,3000033c <strcmp>
    3000a654:	00051e63          	bnez	a0,3000a670 <cmd_mkfs+0x74>
    3000a658:	01843583          	ld	a1,24(s0)
    3000a65c:	01043503          	ld	a0,16(s0)
    3000a660:	fc1ff06f          	j	3000a620 <cmd_mkfs+0x24>
    3000a664:	4fff9517          	auipc	a0,0x4fff9
    3000a668:	dec50513          	addi	a0,a0,-532 # 80003450 <__fsym_hello_name+0x108>
    3000a66c:	e48f80ef          	jal	ra,30002cb4 <rt_kprintf>
    3000a670:	00813083          	ld	ra,8(sp)
    3000a674:	00013403          	ld	s0,0(sp)
    3000a678:	00000513          	li	a0,0
    3000a67c:	01010113          	addi	sp,sp,16
    3000a680:	00008067          	ret

000000003000a684 <cmd_mount>:
    3000a684:	fd010113          	addi	sp,sp,-48
    3000a688:	02113423          	sd	ra,40(sp)
    3000a68c:	02813023          	sd	s0,32(sp)
    3000a690:	00913c23          	sd	s1,24(sp)
    3000a694:	01213823          	sd	s2,16(sp)
    3000a698:	00100793          	li	a5,1
    3000a69c:	06f51c63          	bne	a0,a5,3000a714 <cmd_mount+0x90>
    3000a6a0:	4fff9517          	auipc	a0,0x4fff9
    3000a6a4:	de850513          	addi	a0,a0,-536 # 80003488 <__fsym_hello_name+0x140>
    3000a6a8:	e0cf80ef          	jal	ra,30002cb4 <rt_kprintf>
    3000a6ac:	4fff9517          	auipc	a0,0x4fff9
    3000a6b0:	dfc50513          	addi	a0,a0,-516 # 800034a8 <__fsym_hello_name+0x160>
    3000a6b4:	e00f80ef          	jal	ra,30002cb4 <rt_kprintf>
    3000a6b8:	50003417          	auipc	s0,0x50003
    3000a6bc:	ad040413          	addi	s0,s0,-1328 # 8000d188 <filesystem_table>
    3000a6c0:	4fff9917          	auipc	s2,0x4fff9
    3000a6c4:	e0890913          	addi	s2,s2,-504 # 800034c8 <__fsym_hello_name+0x180>
    3000a6c8:	50003497          	auipc	s1,0x50003
    3000a6cc:	b0048493          	addi	s1,s1,-1280 # 8000d1c8 <fslock>
    3000a6d0:	00843683          	ld	a3,8(s0)
    3000a6d4:	00068c63          	beqz	a3,3000a6ec <cmd_mount+0x68>
    3000a6d8:	01043783          	ld	a5,16(s0)
    3000a6dc:	00043603          	ld	a2,0(s0)
    3000a6e0:	00090513          	mv	a0,s2
    3000a6e4:	0007b583          	ld	a1,0(a5)
    3000a6e8:	dccf80ef          	jal	ra,30002cb4 <rt_kprintf>
    3000a6ec:	02040413          	addi	s0,s0,32
    3000a6f0:	fe9410e3          	bne	s0,s1,3000a6d0 <cmd_mount+0x4c>
    3000a6f4:	00000413          	li	s0,0
    3000a6f8:	02813083          	ld	ra,40(sp)
    3000a6fc:	00040513          	mv	a0,s0
    3000a700:	02013403          	ld	s0,32(sp)
    3000a704:	01813483          	ld	s1,24(sp)
    3000a708:	01013903          	ld	s2,16(sp)
    3000a70c:	03010113          	addi	sp,sp,48
    3000a710:	00008067          	ret
    3000a714:	00400793          	li	a5,4
    3000a718:	06f51663          	bne	a0,a5,3000a784 <cmd_mount+0x100>
    3000a71c:	0085b403          	ld	s0,8(a1)
    3000a720:	0105b483          	ld	s1,16(a1)
    3000a724:	0185b603          	ld	a2,24(a1)
    3000a728:	4fff9517          	auipc	a0,0x4fff9
    3000a72c:	db850513          	addi	a0,a0,-584 # 800034e0 <__fsym_hello_name+0x198>
    3000a730:	00040593          	mv	a1,s0
    3000a734:	00048693          	mv	a3,s1
    3000a738:	00c13423          	sd	a2,8(sp)
    3000a73c:	d78f80ef          	jal	ra,30002cb4 <rt_kprintf>
    3000a740:	00813603          	ld	a2,8(sp)
    3000a744:	00040513          	mv	a0,s0
    3000a748:	00000713          	li	a4,0
    3000a74c:	00000693          	li	a3,0
    3000a750:	00048593          	mv	a1,s1
    3000a754:	fe0fc0ef          	jal	ra,30006f34 <dfs_mount>
    3000a758:	00050413          	mv	s0,a0
    3000a75c:	00051a63          	bnez	a0,3000a770 <cmd_mount+0xec>
    3000a760:	4fff9517          	auipc	a0,0x4fff9
    3000a764:	da850513          	addi	a0,a0,-600 # 80003508 <__fsym_hello_name+0x1c0>
    3000a768:	d4cf80ef          	jal	ra,30002cb4 <rt_kprintf>
    3000a76c:	f8dff06f          	j	3000a6f8 <cmd_mount+0x74>
    3000a770:	4fff9517          	auipc	a0,0x4fff9
    3000a774:	da850513          	addi	a0,a0,-600 # 80003518 <__fsym_hello_name+0x1d0>
    3000a778:	d3cf80ef          	jal	ra,30002cb4 <rt_kprintf>
    3000a77c:	fff00413          	li	s0,-1
    3000a780:	f79ff06f          	j	3000a6f8 <cmd_mount+0x74>
    3000a784:	4fff9517          	auipc	a0,0x4fff9
    3000a788:	da450513          	addi	a0,a0,-604 # 80003528 <__fsym_hello_name+0x1e0>
    3000a78c:	fedff06f          	j	3000a778 <cmd_mount+0xf4>

000000003000a790 <cmd_umount>:
    3000a790:	ff010113          	addi	sp,sp,-16
    3000a794:	00813023          	sd	s0,0(sp)
    3000a798:	00113423          	sd	ra,8(sp)
    3000a79c:	00200793          	li	a5,2
    3000a7a0:	0085b403          	ld	s0,8(a1)
    3000a7a4:	02f50263          	beq	a0,a5,3000a7c8 <cmd_umount+0x38>
    3000a7a8:	4fff9517          	auipc	a0,0x4fff9
    3000a7ac:	db050513          	addi	a0,a0,-592 # 80003558 <__fsym_hello_name+0x210>
    3000a7b0:	d04f80ef          	jal	ra,30002cb4 <rt_kprintf>
    3000a7b4:	fff00513          	li	a0,-1
    3000a7b8:	00813083          	ld	ra,8(sp)
    3000a7bc:	00013403          	ld	s0,0(sp)
    3000a7c0:	01010113          	addi	sp,sp,16
    3000a7c4:	00008067          	ret
    3000a7c8:	4fff9517          	auipc	a0,0x4fff9
    3000a7cc:	db050513          	addi	a0,a0,-592 # 80003578 <__fsym_hello_name+0x230>
    3000a7d0:	00040593          	mv	a1,s0
    3000a7d4:	ce0f80ef          	jal	ra,30002cb4 <rt_kprintf>
    3000a7d8:	00040513          	mv	a0,s0
    3000a7dc:	9d9fc0ef          	jal	ra,300071b4 <dfs_unmount>
    3000a7e0:	00055863          	bgez	a0,3000a7f0 <cmd_umount+0x60>
    3000a7e4:	4fff9517          	auipc	a0,0x4fff9
    3000a7e8:	d3450513          	addi	a0,a0,-716 # 80003518 <__fsym_hello_name+0x1d0>
    3000a7ec:	fc5ff06f          	j	3000a7b0 <cmd_umount+0x20>
    3000a7f0:	4fff9517          	auipc	a0,0x4fff9
    3000a7f4:	d1850513          	addi	a0,a0,-744 # 80003508 <__fsym_hello_name+0x1c0>
    3000a7f8:	cbcf80ef          	jal	ra,30002cb4 <rt_kprintf>
    3000a7fc:	00000513          	li	a0,0
    3000a800:	fb9ff06f          	j	3000a7b8 <cmd_umount+0x28>

000000003000a804 <cmd_tail>:
    3000a804:	fc010113          	addi	sp,sp,-64
    3000a808:	02113c23          	sd	ra,56(sp)
    3000a80c:	02813823          	sd	s0,48(sp)
    3000a810:	02913423          	sd	s1,40(sp)
    3000a814:	03213023          	sd	s2,32(sp)
    3000a818:	01313c23          	sd	s3,24(sp)
    3000a81c:	01413823          	sd	s4,16(sp)
    3000a820:	000107a3          	sb	zero,15(sp)
    3000a824:	00100713          	li	a4,1
    3000a828:	02a74a63          	blt	a4,a0,3000a85c <cmd_tail+0x58>
    3000a82c:	4fff9517          	auipc	a0,0x4fff9
    3000a830:	d5c50513          	addi	a0,a0,-676 # 80003588 <__fsym_hello_name+0x240>
    3000a834:	c80f80ef          	jal	ra,30002cb4 <rt_kprintf>
    3000a838:	fff00513          	li	a0,-1
    3000a83c:	03813083          	ld	ra,56(sp)
    3000a840:	03013403          	ld	s0,48(sp)
    3000a844:	02813483          	ld	s1,40(sp)
    3000a848:	02013903          	ld	s2,32(sp)
    3000a84c:	01813983          	ld	s3,24(sp)
    3000a850:	01013a03          	ld	s4,16(sp)
    3000a854:	04010113          	addi	sp,sp,64
    3000a858:	00008067          	ret
    3000a85c:	00050793          	mv	a5,a0
    3000a860:	00200713          	li	a4,2
    3000a864:	0085b503          	ld	a0,8(a1)
    3000a868:	00058413          	mv	s0,a1
    3000a86c:	06e78663          	beq	a5,a4,3000a8d8 <cmd_tail+0xd4>
    3000a870:	4fff9597          	auipc	a1,0x4fff9
    3000a874:	d4058593          	addi	a1,a1,-704 # 800035b0 <__fsym_hello_name+0x268>
    3000a878:	d29f70ef          	jal	ra,300025a0 <rt_strcmp>
    3000a87c:	fa0518e3          	bnez	a0,3000a82c <cmd_tail+0x28>
    3000a880:	01043503          	ld	a0,16(s0)
    3000a884:	02b00793          	li	a5,43
    3000a888:	00054703          	lbu	a4,0(a0)
    3000a88c:	02f70c63          	beq	a4,a5,3000a8c4 <cmd_tail+0xc0>
    3000a890:	af1f50ef          	jal	ra,30000380 <atoi>
    3000a894:	0005091b          	sext.w	s2,a0
    3000a898:	00000993          	li	s3,0
    3000a89c:	01843503          	ld	a0,24(s0)
    3000a8a0:	00000593          	li	a1,0
    3000a8a4:	d45fc0ef          	jal	ra,300075e8 <open>
    3000a8a8:	00050413          	mv	s0,a0
    3000a8ac:	00000493          	li	s1,0
    3000a8b0:	00a00a13          	li	s4,10
    3000a8b4:	02055e63          	bgez	a0,3000a8f0 <cmd_tail+0xec>
    3000a8b8:	4fff9517          	auipc	a0,0x4fff9
    3000a8bc:	d0050513          	addi	a0,a0,-768 # 800035b8 <__fsym_hello_name+0x270>
    3000a8c0:	f75ff06f          	j	3000a834 <cmd_tail+0x30>
    3000a8c4:	00150513          	addi	a0,a0,1
    3000a8c8:	ab9f50ef          	jal	ra,30000380 <atoi>
    3000a8cc:	0005099b          	sext.w	s3,a0
    3000a8d0:	00000913          	li	s2,0
    3000a8d4:	fc9ff06f          	j	3000a89c <cmd_tail+0x98>
    3000a8d8:	00000993          	li	s3,0
    3000a8dc:	00a00913          	li	s2,10
    3000a8e0:	fc1ff06f          	j	3000a8a0 <cmd_tail+0x9c>
    3000a8e4:	00f14783          	lbu	a5,15(sp)
    3000a8e8:	01479463          	bne	a5,s4,3000a8f0 <cmd_tail+0xec>
    3000a8ec:	0014849b          	addiw	s1,s1,1
    3000a8f0:	00100613          	li	a2,1
    3000a8f4:	00f10593          	addi	a1,sp,15
    3000a8f8:	00040513          	mv	a0,s0
    3000a8fc:	e01fc0ef          	jal	ra,300076fc <read>
    3000a900:	fea042e3          	bgtz	a0,3000a8e4 <cmd_tail+0xe0>
    3000a904:	00048593          	mv	a1,s1
    3000a908:	4fff9517          	auipc	a0,0x4fff9
    3000a90c:	cc850513          	addi	a0,a0,-824 # 800035d0 <__fsym_hello_name+0x288>
    3000a910:	ba4f80ef          	jal	ra,30002cb4 <rt_kprintf>
    3000a914:	00098663          	beqz	s3,3000a920 <cmd_tail+0x11c>
    3000a918:	0099f663          	bgeu	s3,s1,3000a924 <cmd_tail+0x120>
    3000a91c:	4134893b          	subw	s2,s1,s3
    3000a920:	0124fe63          	bgeu	s1,s2,3000a93c <cmd_tail+0x138>
    3000a924:	4fff9517          	auipc	a0,0x4fff9
    3000a928:	ccc50513          	addi	a0,a0,-820 # 800035f0 <__fsym_hello_name+0x2a8>
    3000a92c:	b88f80ef          	jal	ra,30002cb4 <rt_kprintf>
    3000a930:	00040513          	mv	a0,s0
    3000a934:	d61fc0ef          	jal	ra,30007694 <close>
    3000a938:	f01ff06f          	j	3000a838 <cmd_tail+0x34>
    3000a93c:	00090593          	mv	a1,s2
    3000a940:	4fff9517          	auipc	a0,0x4fff9
    3000a944:	cf050513          	addi	a0,a0,-784 # 80003630 <__fsym_hello_name+0x2e8>
    3000a948:	b6cf80ef          	jal	ra,30002cb4 <rt_kprintf>
    3000a94c:	00000613          	li	a2,0
    3000a950:	00000593          	li	a1,0
    3000a954:	00040513          	mv	a0,s0
    3000a958:	412484bb          	subw	s1,s1,s2
    3000a95c:	e89fc0ef          	jal	ra,300077e4 <lseek>
    3000a960:	00000913          	li	s2,0
    3000a964:	00a00993          	li	s3,10
    3000a968:	4fff6a17          	auipc	s4,0x4fff6
    3000a96c:	070a0a13          	addi	s4,s4,112 # 800009d8 <__FUNCTION__.6+0x110>
    3000a970:	00100613          	li	a2,1
    3000a974:	00f10593          	addi	a1,sp,15
    3000a978:	00040513          	mv	a0,s0
    3000a97c:	d81fc0ef          	jal	ra,300076fc <read>
    3000a980:	02a04063          	bgtz	a0,3000a9a0 <cmd_tail+0x19c>
    3000a984:	4fff7517          	auipc	a0,0x4fff7
    3000a988:	cac50513          	addi	a0,a0,-852 # 80001630 <__FUNCTION__.6+0x40>
    3000a98c:	b28f80ef          	jal	ra,30002cb4 <rt_kprintf>
    3000a990:	00040513          	mv	a0,s0
    3000a994:	d01fc0ef          	jal	ra,30007694 <close>
    3000a998:	00000513          	li	a0,0
    3000a99c:	ea1ff06f          	j	3000a83c <cmd_tail+0x38>
    3000a9a0:	00f14583          	lbu	a1,15(sp)
    3000a9a4:	01359463          	bne	a1,s3,3000a9ac <cmd_tail+0x1a8>
    3000a9a8:	0019091b          	addiw	s2,s2,1
    3000a9ac:	fd24f2e3          	bgeu	s1,s2,3000a970 <cmd_tail+0x16c>
    3000a9b0:	000a0513          	mv	a0,s4
    3000a9b4:	b00f80ef          	jal	ra,30002cb4 <rt_kprintf>
    3000a9b8:	fb9ff06f          	j	3000a970 <cmd_tail+0x16c>

000000003000a9bc <cmd_cp>:
    3000a9bc:	ff010113          	addi	sp,sp,-16
    3000a9c0:	00113423          	sd	ra,8(sp)
    3000a9c4:	00300713          	li	a4,3
    3000a9c8:	02e50663          	beq	a0,a4,3000a9f4 <cmd_cp+0x38>
    3000a9cc:	4fff9517          	auipc	a0,0x4fff9
    3000a9d0:	c8450513          	addi	a0,a0,-892 # 80003650 <__fsym_hello_name+0x308>
    3000a9d4:	ae0f80ef          	jal	ra,30002cb4 <rt_kprintf>
    3000a9d8:	4fff9517          	auipc	a0,0x4fff9
    3000a9dc:	c9050513          	addi	a0,a0,-880 # 80003668 <__fsym_hello_name+0x320>
    3000a9e0:	ad4f80ef          	jal	ra,30002cb4 <rt_kprintf>
    3000a9e4:	00813083          	ld	ra,8(sp)
    3000a9e8:	00000513          	li	a0,0
    3000a9ec:	01010113          	addi	sp,sp,16
    3000a9f0:	00008067          	ret
    3000a9f4:	00058793          	mv	a5,a1
    3000a9f8:	0087b503          	ld	a0,8(a5)
    3000a9fc:	0105b583          	ld	a1,16(a1)
    3000aa00:	8acfc0ef          	jal	ra,30006aac <copy>
    3000aa04:	fe1ff06f          	j	3000a9e4 <cmd_cp+0x28>

000000003000aa08 <cmd_mv>:
    3000aa08:	fe010113          	addi	sp,sp,-32
    3000aa0c:	00113c23          	sd	ra,24(sp)
    3000aa10:	00813823          	sd	s0,16(sp)
    3000aa14:	00913423          	sd	s1,8(sp)
    3000aa18:	01213023          	sd	s2,0(sp)
    3000aa1c:	00300793          	li	a5,3
    3000aa20:	02f50e63          	beq	a0,a5,3000aa5c <cmd_mv+0x54>
    3000aa24:	4fff9517          	auipc	a0,0x4fff9
    3000aa28:	c5c50513          	addi	a0,a0,-932 # 80003680 <__fsym_hello_name+0x338>
    3000aa2c:	a88f80ef          	jal	ra,30002cb4 <rt_kprintf>
    3000aa30:	4fff9517          	auipc	a0,0x4fff9
    3000aa34:	c6850513          	addi	a0,a0,-920 # 80003698 <__fsym_hello_name+0x350>
    3000aa38:	a7cf80ef          	jal	ra,30002cb4 <rt_kprintf>
    3000aa3c:	00000913          	li	s2,0
    3000aa40:	01813083          	ld	ra,24(sp)
    3000aa44:	01013403          	ld	s0,16(sp)
    3000aa48:	00813483          	ld	s1,8(sp)
    3000aa4c:	00090513          	mv	a0,s2
    3000aa50:	00013903          	ld	s2,0(sp)
    3000aa54:	02010113          	addi	sp,sp,32
    3000aa58:	00008067          	ret
    3000aa5c:	0105b603          	ld	a2,16(a1)
    3000aa60:	00058413          	mv	s0,a1
    3000aa64:	0085b583          	ld	a1,8(a1)
    3000aa68:	4fff9517          	auipc	a0,0x4fff9
    3000aa6c:	c6850513          	addi	a0,a0,-920 # 800036d0 <__fsym_hello_name+0x388>
    3000aa70:	a44f80ef          	jal	ra,30002cb4 <rt_kprintf>
    3000aa74:	01043503          	ld	a0,16(s0)
    3000aa78:	00000613          	li	a2,0
    3000aa7c:	000105b7          	lui	a1,0x10
    3000aa80:	b69fc0ef          	jal	ra,300075e8 <open>
    3000aa84:	08054c63          	bltz	a0,3000ab1c <cmd_mv+0x114>
    3000aa88:	c0dfc0ef          	jal	ra,30007694 <close>
    3000aa8c:	10000513          	li	a0,256
    3000aa90:	c71f60ef          	jal	ra,30001700 <rt_malloc>
    3000aa94:	00050493          	mv	s1,a0
    3000aa98:	00051c63          	bnez	a0,3000aab0 <cmd_mv+0xa8>
    3000aa9c:	4fff7517          	auipc	a0,0x4fff7
    3000aaa0:	59450513          	addi	a0,a0,1428 # 80002030 <__fsym___cmd_list_fd_name+0x48>
    3000aaa4:	a10f80ef          	jal	ra,30002cb4 <rt_kprintf>
    3000aaa8:	ffb00913          	li	s2,-5
    3000aaac:	f95ff06f          	j	3000aa40 <cmd_mv+0x38>
    3000aab0:	00843903          	ld	s2,8(s0)
    3000aab4:	00090513          	mv	a0,s2
    3000aab8:	b0df70ef          	jal	ra,300025c4 <rt_strlen>
    3000aabc:	00843783          	ld	a5,8(s0)
    3000aac0:	00a90733          	add	a4,s2,a0
    3000aac4:	02f00693          	li	a3,47
    3000aac8:	00f70663          	beq	a4,a5,3000aad4 <cmd_mv+0xcc>
    3000aacc:	00074603          	lbu	a2,0(a4)
    3000aad0:	04d61263          	bne	a2,a3,3000ab14 <cmd_mv+0x10c>
    3000aad4:	01043683          	ld	a3,16(s0)
    3000aad8:	4fff7617          	auipc	a2,0x4fff7
    3000aadc:	4c860613          	addi	a2,a2,1224 # 80001fa0 <CSWTCH.17+0x190>
    3000aae0:	0ff00593          	li	a1,255
    3000aae4:	00048513          	mv	a0,s1
    3000aae8:	8d8f80ef          	jal	ra,30002bc0 <rt_snprintf>
    3000aaec:	00843503          	ld	a0,8(s0)
    3000aaf0:	00048593          	mv	a1,s1
    3000aaf4:	00000913          	li	s2,0
    3000aaf8:	da1fc0ef          	jal	ra,30007898 <rename>
    3000aafc:	f40482e3          	beqz	s1,3000aa40 <cmd_mv+0x38>
    3000ab00:	01043783          	ld	a5,16(s0)
    3000ab04:	f2f48ee3          	beq	s1,a5,3000aa40 <cmd_mv+0x38>
    3000ab08:	00048513          	mv	a0,s1
    3000ab0c:	f15f60ef          	jal	ra,30001a20 <rt_free>
    3000ab10:	f31ff06f          	j	3000aa40 <cmd_mv+0x38>
    3000ab14:	fff70713          	addi	a4,a4,-1
    3000ab18:	fb1ff06f          	j	3000aac8 <cmd_mv+0xc0>
    3000ab1c:	01043503          	ld	a0,16(s0)
    3000ab20:	00000613          	li	a2,0
    3000ab24:	00000593          	li	a1,0
    3000ab28:	ac1fc0ef          	jal	ra,300075e8 <open>
    3000ab2c:	00054863          	bltz	a0,3000ab3c <cmd_mv+0x134>
    3000ab30:	b65fc0ef          	jal	ra,30007694 <close>
    3000ab34:	01043503          	ld	a0,16(s0)
    3000ab38:	d8dfc0ef          	jal	ra,300078c4 <unlink>
    3000ab3c:	01043483          	ld	s1,16(s0)
    3000ab40:	fadff06f          	j	3000aaec <cmd_mv+0xe4>

000000003000ab44 <cmd_cat>:
    3000ab44:	fe010113          	addi	sp,sp,-32
    3000ab48:	00113c23          	sd	ra,24(sp)
    3000ab4c:	00813823          	sd	s0,16(sp)
    3000ab50:	00913423          	sd	s1,8(sp)
    3000ab54:	01213023          	sd	s2,0(sp)
    3000ab58:	00100793          	li	a5,1
    3000ab5c:	04f51c63          	bne	a0,a5,3000abb4 <cmd_cat+0x70>
    3000ab60:	4fff9517          	auipc	a0,0x4fff9
    3000ab64:	b8050513          	addi	a0,a0,-1152 # 800036e0 <__fsym_hello_name+0x398>
    3000ab68:	94cf80ef          	jal	ra,30002cb4 <rt_kprintf>
    3000ab6c:	4fff9517          	auipc	a0,0x4fff9
    3000ab70:	b8c50513          	addi	a0,a0,-1140 # 800036f8 <__fsym_hello_name+0x3b0>
    3000ab74:	940f80ef          	jal	ra,30002cb4 <rt_kprintf>
    3000ab78:	01813083          	ld	ra,24(sp)
    3000ab7c:	01013403          	ld	s0,16(sp)
    3000ab80:	00813483          	ld	s1,8(sp)
    3000ab84:	00013903          	ld	s2,0(sp)
    3000ab88:	00000513          	li	a0,0
    3000ab8c:	02010113          	addi	sp,sp,32
    3000ab90:	00008067          	ret
    3000ab94:	00349793          	slli	a5,s1,0x3
    3000ab98:	00f907b3          	add	a5,s2,a5
    3000ab9c:	0007b503          	ld	a0,0(a5)
    3000aba0:	e9cfb0ef          	jal	ra,3000623c <cat>
    3000aba4:	00148493          	addi	s1,s1,1
    3000aba8:	0004879b          	sext.w	a5,s1
    3000abac:	fe87c4e3          	blt	a5,s0,3000ab94 <cmd_cat+0x50>
    3000abb0:	fc9ff06f          	j	3000ab78 <cmd_cat+0x34>
    3000abb4:	00050413          	mv	s0,a0
    3000abb8:	00058913          	mv	s2,a1
    3000abbc:	00000493          	li	s1,0
    3000abc0:	fe5ff06f          	j	3000aba4 <cmd_cat+0x60>

000000003000abc4 <cmd_cd>:
    3000abc4:	ff010113          	addi	sp,sp,-16
    3000abc8:	00113423          	sd	ra,8(sp)
    3000abcc:	00813023          	sd	s0,0(sp)
    3000abd0:	00100793          	li	a5,1
    3000abd4:	02f51663          	bne	a0,a5,3000ac00 <cmd_cd+0x3c>
    3000abd8:	4fff9597          	auipc	a1,0x4fff9
    3000abdc:	52058593          	addi	a1,a1,1312 # 800040f8 <working_directory>
    3000abe0:	4fff9517          	auipc	a0,0x4fff9
    3000abe4:	f0050513          	addi	a0,a0,-256 # 80003ae0 <__fsym___cmd_ls_name+0x40>
    3000abe8:	8ccf80ef          	jal	ra,30002cb4 <rt_kprintf>
    3000abec:	00813083          	ld	ra,8(sp)
    3000abf0:	00013403          	ld	s0,0(sp)
    3000abf4:	00000513          	li	a0,0
    3000abf8:	01010113          	addi	sp,sp,16
    3000abfc:	00008067          	ret
    3000ac00:	00200793          	li	a5,2
    3000ac04:	fef514e3          	bne	a0,a5,3000abec <cmd_cd+0x28>
    3000ac08:	0085b503          	ld	a0,8(a1)
    3000ac0c:	00058413          	mv	s0,a1
    3000ac10:	f7dfc0ef          	jal	ra,30007b8c <chdir>
    3000ac14:	fc050ce3          	beqz	a0,3000abec <cmd_cd+0x28>
    3000ac18:	00843583          	ld	a1,8(s0)
    3000ac1c:	4fff9517          	auipc	a0,0x4fff9
    3000ac20:	af450513          	addi	a0,a0,-1292 # 80003710 <__fsym_hello_name+0x3c8>
    3000ac24:	fc5ff06f          	j	3000abe8 <cmd_cd+0x24>

000000003000ac28 <cmd_mkdir>:
    3000ac28:	ff010113          	addi	sp,sp,-16
    3000ac2c:	00113423          	sd	ra,8(sp)
    3000ac30:	00100713          	li	a4,1
    3000ac34:	02e51663          	bne	a0,a4,3000ac60 <cmd_mkdir+0x38>
    3000ac38:	4fff9517          	auipc	a0,0x4fff9
    3000ac3c:	af050513          	addi	a0,a0,-1296 # 80003728 <__fsym_hello_name+0x3e0>
    3000ac40:	874f80ef          	jal	ra,30002cb4 <rt_kprintf>
    3000ac44:	4fff9517          	auipc	a0,0x4fff9
    3000ac48:	b0c50513          	addi	a0,a0,-1268 # 80003750 <__fsym_hello_name+0x408>
    3000ac4c:	868f80ef          	jal	ra,30002cb4 <rt_kprintf>
    3000ac50:	00813083          	ld	ra,8(sp)
    3000ac54:	00000513          	li	a0,0
    3000ac58:	01010113          	addi	sp,sp,16
    3000ac5c:	00008067          	ret
    3000ac60:	00058793          	mv	a5,a1
    3000ac64:	0087b503          	ld	a0,8(a5)
    3000ac68:	00000593          	li	a1,0
    3000ac6c:	8ddfc0ef          	jal	ra,30007548 <mkdir>
    3000ac70:	fe1ff06f          	j	3000ac50 <cmd_mkdir+0x28>

000000003000ac74 <cmd_df>:
    3000ac74:	ff010113          	addi	sp,sp,-16
    3000ac78:	00113423          	sd	ra,8(sp)
    3000ac7c:	00813023          	sd	s0,0(sp)
    3000ac80:	00200793          	li	a5,2
    3000ac84:	00f50a63          	beq	a0,a5,3000ac98 <cmd_df+0x24>
    3000ac88:	4fff7517          	auipc	a0,0x4fff7
    3000ac8c:	37050513          	addi	a0,a0,880 # 80001ff8 <__fsym___cmd_list_fd_name+0x10>
    3000ac90:	fa8fc0ef          	jal	ra,30007438 <df>
    3000ac94:	03c0006f          	j	3000acd0 <cmd_df+0x5c>
    3000ac98:	0085b403          	ld	s0,8(a1)
    3000ac9c:	4fff9597          	auipc	a1,0x4fff9
    3000aca0:	aec58593          	addi	a1,a1,-1300 # 80003788 <__fsym_hello_name+0x440>
    3000aca4:	00040513          	mv	a0,s0
    3000aca8:	e94f50ef          	jal	ra,3000033c <strcmp>
    3000acac:	00050c63          	beqz	a0,3000acc4 <cmd_df+0x50>
    3000acb0:	4fff9597          	auipc	a1,0x4fff9
    3000acb4:	ae058593          	addi	a1,a1,-1312 # 80003790 <__fsym_hello_name+0x448>
    3000acb8:	00040513          	mv	a0,s0
    3000acbc:	e80f50ef          	jal	ra,3000033c <strcmp>
    3000acc0:	02051263          	bnez	a0,3000ace4 <cmd_df+0x70>
    3000acc4:	4fff9517          	auipc	a0,0x4fff9
    3000acc8:	ad450513          	addi	a0,a0,-1324 # 80003798 <__fsym_hello_name+0x450>
    3000accc:	fe9f70ef          	jal	ra,30002cb4 <rt_kprintf>
    3000acd0:	00813083          	ld	ra,8(sp)
    3000acd4:	00013403          	ld	s0,0(sp)
    3000acd8:	00000513          	li	a0,0
    3000acdc:	01010113          	addi	sp,sp,16
    3000ace0:	00008067          	ret
    3000ace4:	00040513          	mv	a0,s0
    3000ace8:	fa9ff06f          	j	3000ac90 <cmd_df+0x1c>

000000003000acec <cmd_echo>:
    3000acec:	fd010113          	addi	sp,sp,-48
    3000acf0:	02813023          	sd	s0,32(sp)
    3000acf4:	02113423          	sd	ra,40(sp)
    3000acf8:	00913c23          	sd	s1,24(sp)
    3000acfc:	00200793          	li	a5,2
    3000ad00:	00058413          	mv	s0,a1
    3000ad04:	00f51c63          	bne	a0,a5,3000ad1c <cmd_echo+0x30>
    3000ad08:	0085b583          	ld	a1,8(a1)
    3000ad0c:	4fff9517          	auipc	a0,0x4fff9
    3000ad10:	dd450513          	addi	a0,a0,-556 # 80003ae0 <__fsym___cmd_ls_name+0x40>
    3000ad14:	fa1f70ef          	jal	ra,30002cb4 <rt_kprintf>
    3000ad18:	04c0006f          	j	3000ad64 <cmd_echo+0x78>
    3000ad1c:	00300793          	li	a5,3
    3000ad20:	06f51663          	bne	a0,a5,3000ad8c <cmd_echo+0xa0>
    3000ad24:	01043503          	ld	a0,16(s0)
    3000ad28:	00000613          	li	a2,0
    3000ad2c:	44200593          	li	a1,1090
    3000ad30:	8b9fc0ef          	jal	ra,300075e8 <open>
    3000ad34:	00050493          	mv	s1,a0
    3000ad38:	04054263          	bltz	a0,3000ad7c <cmd_echo+0x90>
    3000ad3c:	00843583          	ld	a1,8(s0)
    3000ad40:	00058513          	mv	a0,a1
    3000ad44:	00b13423          	sd	a1,8(sp)
    3000ad48:	d90f50ef          	jal	ra,300002d8 <strlen>
    3000ad4c:	00813583          	ld	a1,8(sp)
    3000ad50:	00050613          	mv	a2,a0
    3000ad54:	00048513          	mv	a0,s1
    3000ad58:	a19fc0ef          	jal	ra,30007770 <write>
    3000ad5c:	00048513          	mv	a0,s1
    3000ad60:	935fc0ef          	jal	ra,30007694 <close>
    3000ad64:	02813083          	ld	ra,40(sp)
    3000ad68:	02013403          	ld	s0,32(sp)
    3000ad6c:	01813483          	ld	s1,24(sp)
    3000ad70:	00000513          	li	a0,0
    3000ad74:	03010113          	addi	sp,sp,48
    3000ad78:	00008067          	ret
    3000ad7c:	01043583          	ld	a1,16(s0)
    3000ad80:	4fff9517          	auipc	a0,0x4fff9
    3000ad84:	a2850513          	addi	a0,a0,-1496 # 800037a8 <__fsym_hello_name+0x460>
    3000ad88:	f8dff06f          	j	3000ad14 <cmd_echo+0x28>
    3000ad8c:	4fff9517          	auipc	a0,0x4fff9
    3000ad90:	a3450513          	addi	a0,a0,-1484 # 800037c0 <__fsym_hello_name+0x478>
    3000ad94:	f21f70ef          	jal	ra,30002cb4 <rt_kprintf>
    3000ad98:	fcdff06f          	j	3000ad64 <cmd_echo+0x78>

000000003000ad9c <msh_exec_script>:
    3000ad9c:	22058463          	beqz	a1,3000afc4 <msh_exec_script+0x228>
    3000ada0:	fa010113          	addi	sp,sp,-96
    3000ada4:	04813823          	sd	s0,80(sp)
    3000ada8:	05213023          	sd	s2,64(sp)
    3000adac:	04113c23          	sd	ra,88(sp)
    3000adb0:	04913423          	sd	s1,72(sp)
    3000adb4:	03313c23          	sd	s3,56(sp)
    3000adb8:	03413823          	sd	s4,48(sp)
    3000adbc:	03513423          	sd	s5,40(sp)
    3000adc0:	03613023          	sd	s6,32(sp)
    3000adc4:	01713c23          	sd	s7,24(sp)
    3000adc8:	00050913          	mv	s2,a0
    3000adcc:	00000413          	li	s0,0
    3000add0:	02000713          	li	a4,32
    3000add4:	00900693          	li	a3,9
    3000add8:	008907b3          	add	a5,s2,s0
    3000addc:	0007c783          	lbu	a5,0(a5)
    3000ade0:	0004099b          	sext.w	s3,s0
    3000ade4:	00e78663          	beq	a5,a4,3000adf0 <msh_exec_script+0x54>
    3000ade8:	00d78463          	beq	a5,a3,3000adf0 <msh_exec_script+0x54>
    3000adec:	12b9c863          	blt	s3,a1,3000af1c <msh_exec_script+0x180>
    3000adf0:	0209851b          	addiw	a0,s3,32
    3000adf4:	90df60ef          	jal	ra,30001700 <rt_malloc>
    3000adf8:	00050493          	mv	s1,a0
    3000adfc:	ffb00793          	li	a5,-5
    3000ae00:	12050863          	beqz	a0,3000af30 <msh_exec_script+0x194>
    3000ae04:	00040613          	mv	a2,s0
    3000ae08:	00090593          	mv	a1,s2
    3000ae0c:	d3cf50ef          	jal	ra,30000348 <memcpy>
    3000ae10:	00848433          	add	s0,s1,s0
    3000ae14:	00040023          	sb	zero,0(s0)
    3000ae18:	4fff9597          	auipc	a1,0x4fff9
    3000ae1c:	9d058593          	addi	a1,a1,-1584 # 800037e8 <__fsym_hello_name+0x4a0>
    3000ae20:	00048513          	mv	a0,s1
    3000ae24:	d2cf50ef          	jal	ra,30000350 <strstr>
    3000ae28:	00051e63          	bnez	a0,3000ae44 <msh_exec_script+0xa8>
    3000ae2c:	4fff9597          	auipc	a1,0x4fff9
    3000ae30:	9c458593          	addi	a1,a1,-1596 # 800037f0 <__fsym_hello_name+0x4a8>
    3000ae34:	00048513          	mv	a0,s1
    3000ae38:	d18f50ef          	jal	ra,30000350 <strstr>
    3000ae3c:	fff00413          	li	s0,-1
    3000ae40:	04050663          	beqz	a0,3000ae8c <msh_exec_script+0xf0>
    3000ae44:	00000613          	li	a2,0
    3000ae48:	00000593          	li	a1,0
    3000ae4c:	00048513          	mv	a0,s1
    3000ae50:	f98fc0ef          	jal	ra,300075e8 <open>
    3000ae54:	00050413          	mv	s0,a0
    3000ae58:	02055a63          	bgez	a0,3000ae8c <msh_exec_script+0xf0>
    3000ae5c:	00090713          	mv	a4,s2
    3000ae60:	00098693          	mv	a3,s3
    3000ae64:	4fff9617          	auipc	a2,0x4fff9
    3000ae68:	99460613          	addi	a2,a2,-1644 # 800037f8 <__fsym_hello_name+0x4b0>
    3000ae6c:	01f9859b          	addiw	a1,s3,31
    3000ae70:	00048513          	mv	a0,s1
    3000ae74:	d4df70ef          	jal	ra,30002bc0 <rt_snprintf>
    3000ae78:	00000613          	li	a2,0
    3000ae7c:	00000593          	li	a1,0
    3000ae80:	00048513          	mv	a0,s1
    3000ae84:	f64fc0ef          	jal	ra,300075e8 <open>
    3000ae88:	00050413          	mv	s0,a0
    3000ae8c:	00048513          	mv	a0,s1
    3000ae90:	b91f60ef          	jal	ra,30001a20 <rt_free>
    3000ae94:	fff00793          	li	a5,-1
    3000ae98:	08044c63          	bltz	s0,3000af30 <msh_exec_script+0x194>
    3000ae9c:	10000513          	li	a0,256
    3000aea0:	861f60ef          	jal	ra,30001700 <rt_malloc>
    3000aea4:	00050493          	mv	s1,a0
    3000aea8:	06050e63          	beqz	a0,3000af24 <msh_exec_script+0x188>
    3000aeac:	00a00a13          	li	s4,10
    3000aeb0:	00d00a93          	li	s5,13
    3000aeb4:	10000b13          	li	s6,256
    3000aeb8:	02000b93          	li	s7,32
    3000aebc:	00100613          	li	a2,1
    3000aec0:	00f10593          	addi	a1,sp,15
    3000aec4:	00040513          	mv	a0,s0
    3000aec8:	835fc0ef          	jal	ra,300076fc <read>
    3000aecc:	00100793          	li	a5,1
    3000aed0:	0cf51e63          	bne	a0,a5,3000afac <msh_exec_script+0x210>
    3000aed4:	00f14783          	lbu	a5,15(sp)
    3000aed8:	ff4782e3          	beq	a5,s4,3000aebc <msh_exec_script+0x120>
    3000aedc:	ff5780e3          	beq	a5,s5,3000aebc <msh_exec_script+0x120>
    3000aee0:	00f48023          	sb	a5,0(s1)
    3000aee4:	00100913          	li	s2,1
    3000aee8:	00100613          	li	a2,1
    3000aeec:	00f10593          	addi	a1,sp,15
    3000aef0:	00040513          	mv	a0,s0
    3000aef4:	809fc0ef          	jal	ra,300076fc <read>
    3000aef8:	00100713          	li	a4,1
    3000aefc:	0009099b          	sext.w	s3,s2
    3000af00:	012487b3          	add	a5,s1,s2
    3000af04:	00e51863          	bne	a0,a4,3000af14 <msh_exec_script+0x178>
    3000af08:	00f14703          	lbu	a4,15(sp)
    3000af0c:	01470463          	beq	a4,s4,3000af14 <msh_exec_script+0x178>
    3000af10:	05571863          	bne	a4,s5,3000af60 <msh_exec_script+0x1c4>
    3000af14:	00078023          	sb	zero,0(a5)
    3000af18:	0580006f          	j	3000af70 <msh_exec_script+0x1d4>
    3000af1c:	00140413          	addi	s0,s0,1
    3000af20:	eb9ff06f          	j	3000add8 <msh_exec_script+0x3c>
    3000af24:	00040513          	mv	a0,s0
    3000af28:	f6cfc0ef          	jal	ra,30007694 <close>
    3000af2c:	ffb00793          	li	a5,-5
    3000af30:	05813083          	ld	ra,88(sp)
    3000af34:	05013403          	ld	s0,80(sp)
    3000af38:	04813483          	ld	s1,72(sp)
    3000af3c:	04013903          	ld	s2,64(sp)
    3000af40:	03813983          	ld	s3,56(sp)
    3000af44:	03013a03          	ld	s4,48(sp)
    3000af48:	02813a83          	ld	s5,40(sp)
    3000af4c:	02013b03          	ld	s6,32(sp)
    3000af50:	01813b83          	ld	s7,24(sp)
    3000af54:	00078513          	mv	a0,a5
    3000af58:	06010113          	addi	sp,sp,96
    3000af5c:	00008067          	ret
    3000af60:	00e78023          	sb	a4,0(a5)
    3000af64:	00190913          	addi	s2,s2,1
    3000af68:	f96910e3          	bne	s2,s6,3000aee8 <msh_exec_script+0x14c>
    3000af6c:	10000993          	li	s3,256
    3000af70:	00000793          	li	a5,0
    3000af74:	00900693          	li	a3,9
    3000af78:	00f48733          	add	a4,s1,a5
    3000af7c:	00074703          	lbu	a4,0(a4)
    3000af80:	01770463          	beq	a4,s7,3000af88 <msh_exec_script+0x1ec>
    3000af84:	00d71863          	bne	a4,a3,3000af94 <msh_exec_script+0x1f8>
    3000af88:	00178793          	addi	a5,a5,1
    3000af8c:	0007861b          	sext.w	a2,a5
    3000af90:	ff3644e3          	blt	a2,s3,3000af78 <msh_exec_script+0x1dc>
    3000af94:	02300793          	li	a5,35
    3000af98:	f2f702e3          	beq	a4,a5,3000aebc <msh_exec_script+0x120>
    3000af9c:	00098593          	mv	a1,s3
    3000afa0:	00048513          	mv	a0,s1
    3000afa4:	114000ef          	jal	ra,3000b0b8 <msh_exec>
    3000afa8:	f11ff06f          	j	3000aeb8 <msh_exec_script+0x11c>
    3000afac:	00040513          	mv	a0,s0
    3000afb0:	ee4fc0ef          	jal	ra,30007694 <close>
    3000afb4:	00048513          	mv	a0,s1
    3000afb8:	a69f60ef          	jal	ra,30001a20 <rt_free>
    3000afbc:	00000793          	li	a5,0
    3000afc0:	f71ff06f          	j	3000af30 <msh_exec_script+0x194>
    3000afc4:	fff00793          	li	a5,-1
    3000afc8:	00078513          	mv	a0,a5
    3000afcc:	00008067          	ret

000000003000afd0 <msh_help>:
    3000afd0:	fd010113          	addi	sp,sp,-48
    3000afd4:	4fff9517          	auipc	a0,0x4fff9
    3000afd8:	adc50513          	addi	a0,a0,-1316 # 80003ab0 <__fsym___cmd_ls_name+0x10>
    3000afdc:	02813023          	sd	s0,32(sp)
    3000afe0:	01213823          	sd	s2,16(sp)
    3000afe4:	01313423          	sd	s3,8(sp)
    3000afe8:	01413023          	sd	s4,0(sp)
    3000afec:	02113423          	sd	ra,40(sp)
    3000aff0:	00913c23          	sd	s1,24(sp)
    3000aff4:	94818913          	addi	s2,gp,-1720 # 80004340 <_syscall_table_end>
    3000aff8:	cbdf70ef          	jal	ra,30002cb4 <rt_kprintf>
    3000affc:	4fff9997          	auipc	s3,0x4fff9
    3000b000:	ad498993          	addi	s3,s3,-1324 # 80003ad0 <__fsym___cmd_ls_name+0x30>
    3000b004:	9401b403          	ld	s0,-1728(gp) # 80004338 <_syscall_table_begin>
    3000b008:	4fff9a17          	auipc	s4,0x4fff9
    3000b00c:	ad0a0a13          	addi	s4,s4,-1328 # 80003ad8 <__fsym___cmd_ls_name+0x38>
    3000b010:	00093783          	ld	a5,0(s2)
    3000b014:	02f46a63          	bltu	s0,a5,3000b048 <msh_help+0x78>
    3000b018:	4fff6517          	auipc	a0,0x4fff6
    3000b01c:	61850513          	addi	a0,a0,1560 # 80001630 <__FUNCTION__.6+0x40>
    3000b020:	c95f70ef          	jal	ra,30002cb4 <rt_kprintf>
    3000b024:	02813083          	ld	ra,40(sp)
    3000b028:	02013403          	ld	s0,32(sp)
    3000b02c:	01813483          	ld	s1,24(sp)
    3000b030:	01013903          	ld	s2,16(sp)
    3000b034:	00813983          	ld	s3,8(sp)
    3000b038:	00013a03          	ld	s4,0(sp)
    3000b03c:	00000513          	li	a0,0
    3000b040:	03010113          	addi	sp,sp,48
    3000b044:	00008067          	ret
    3000b048:	00043483          	ld	s1,0(s0)
    3000b04c:	00600613          	li	a2,6
    3000b050:	00098593          	mv	a1,s3
    3000b054:	00048513          	mv	a0,s1
    3000b058:	ae8f50ef          	jal	ra,30000340 <strncmp>
    3000b05c:	00051a63          	bnez	a0,3000b070 <msh_help+0xa0>
    3000b060:	00843603          	ld	a2,8(s0)
    3000b064:	00648593          	addi	a1,s1,6
    3000b068:	000a0513          	mv	a0,s4
    3000b06c:	c49f70ef          	jal	ra,30002cb4 <rt_kprintf>
    3000b070:	01840413          	addi	s0,s0,24
    3000b074:	f9dff06f          	j	3000b010 <msh_help+0x40>

000000003000b078 <cmd_ps>:
    3000b078:	ff010113          	addi	sp,sp,-16
    3000b07c:	00113423          	sd	ra,8(sp)
    3000b080:	c54fe0ef          	jal	ra,300094d4 <list_thread>
    3000b084:	00813083          	ld	ra,8(sp)
    3000b088:	00000513          	li	a0,0
    3000b08c:	01010113          	addi	sp,sp,16
    3000b090:	00008067          	ret

000000003000b094 <cmd_free>:
    3000b094:	ff010113          	addi	sp,sp,-16
    3000b098:	00113423          	sd	ra,8(sp)
    3000b09c:	940f60ef          	jal	ra,300011dc <list_mem>
    3000b0a0:	00813083          	ld	ra,8(sp)
    3000b0a4:	00000513          	li	a0,0
    3000b0a8:	01010113          	addi	sp,sp,16
    3000b0ac:	00008067          	ret

000000003000b0b0 <msh_is_used>:
    3000b0b0:	00100513          	li	a0,1
    3000b0b4:	00008067          	ret

000000003000b0b8 <msh_exec>:
    3000b0b8:	f6010113          	addi	sp,sp,-160
    3000b0bc:	08813823          	sd	s0,144(sp)
    3000b0c0:	08913423          	sd	s1,136(sp)
    3000b0c4:	08113c23          	sd	ra,152(sp)
    3000b0c8:	09213023          	sd	s2,128(sp)
    3000b0cc:	07313c23          	sd	s3,120(sp)
    3000b0d0:	07413823          	sd	s4,112(sp)
    3000b0d4:	07513423          	sd	s5,104(sp)
    3000b0d8:	07613023          	sd	s6,96(sp)
    3000b0dc:	05713c23          	sd	s7,88(sp)
    3000b0e0:	00050493          	mv	s1,a0
    3000b0e4:	00058413          	mv	s0,a1
    3000b0e8:	02000693          	li	a3,32
    3000b0ec:	00900713          	li	a4,9
    3000b0f0:	04041063          	bnez	s0,3000b130 <msh_exec+0x78>
    3000b0f4:	00000513          	li	a0,0
    3000b0f8:	09813083          	ld	ra,152(sp)
    3000b0fc:	09013403          	ld	s0,144(sp)
    3000b100:	08813483          	ld	s1,136(sp)
    3000b104:	08013903          	ld	s2,128(sp)
    3000b108:	07813983          	ld	s3,120(sp)
    3000b10c:	07013a03          	ld	s4,112(sp)
    3000b110:	06813a83          	ld	s5,104(sp)
    3000b114:	06013b03          	ld	s6,96(sp)
    3000b118:	05813b83          	ld	s7,88(sp)
    3000b11c:	0a010113          	addi	sp,sp,160
    3000b120:	00008067          	ret
    3000b124:	00148493          	addi	s1,s1,1
    3000b128:	fff40413          	addi	s0,s0,-1
    3000b12c:	fc5ff06f          	j	3000b0f0 <msh_exec+0x38>
    3000b130:	0004c783          	lbu	a5,0(s1)
    3000b134:	fed788e3          	beq	a5,a3,3000b124 <msh_exec+0x6c>
    3000b138:	fee786e3          	beq	a5,a4,3000b124 <msh_exec+0x6c>
    3000b13c:	00000793          	li	a5,0
    3000b140:	02000693          	li	a3,32
    3000b144:	00900613          	li	a2,9
    3000b148:	00f48733          	add	a4,s1,a5
    3000b14c:	00074703          	lbu	a4,0(a4)
    3000b150:	0cd70263          	beq	a4,a3,3000b214 <msh_exec+0x15c>
    3000b154:	0cc70063          	beq	a4,a2,3000b214 <msh_exec+0x15c>
    3000b158:	0af41a63          	bne	s0,a5,3000b20c <msh_exec+0x154>
    3000b15c:	00078b1b          	sext.w	s6,a5
    3000b160:	9401b983          	ld	s3,-1728(gp) # 80004338 <_syscall_table_begin>
    3000b164:	9481ba83          	ld	s5,-1720(gp) # 80004340 <_syscall_table_end>
    3000b168:	4fff9b97          	auipc	s7,0x4fff9
    3000b16c:	968b8b93          	addi	s7,s7,-1688 # 80003ad0 <__fsym___cmd_ls_name+0x30>
    3000b170:	0067891b          	addiw	s2,a5,6
    3000b174:	0b59f263          	bgeu	s3,s5,3000b218 <msh_exec+0x160>
    3000b178:	0009ba03          	ld	s4,0(s3)
    3000b17c:	00600613          	li	a2,6
    3000b180:	000b8593          	mv	a1,s7
    3000b184:	000a0513          	mv	a0,s4
    3000b188:	9b8f50ef          	jal	ra,30000340 <strncmp>
    3000b18c:	0c051463          	bnez	a0,3000b254 <msh_exec+0x19c>
    3000b190:	000b0613          	mv	a2,s6
    3000b194:	00048593          	mv	a1,s1
    3000b198:	006a0513          	addi	a0,s4,6
    3000b19c:	9a4f50ef          	jal	ra,30000340 <strncmp>
    3000b1a0:	0a051a63          	bnez	a0,3000b254 <msh_exec+0x19c>
    3000b1a4:	012a0a33          	add	s4,s4,s2
    3000b1a8:	000a4783          	lbu	a5,0(s4)
    3000b1ac:	0a079463          	bnez	a5,3000b254 <msh_exec+0x19c>
    3000b1b0:	0109b983          	ld	s3,16(s3)
    3000b1b4:	06098263          	beqz	s3,3000b218 <msh_exec+0x160>
    3000b1b8:	05000613          	li	a2,80
    3000b1bc:	00000593          	li	a1,0
    3000b1c0:	00010513          	mv	a0,sp
    3000b1c4:	980f50ef          	jal	ra,30000344 <memset>
    3000b1c8:	00010913          	mv	s2,sp
    3000b1cc:	00010613          	mv	a2,sp
    3000b1d0:	00048793          	mv	a5,s1
    3000b1d4:	00000713          	li	a4,0
    3000b1d8:	00000693          	li	a3,0
    3000b1dc:	02000813          	li	a6,32
    3000b1e0:	00900893          	li	a7,9
    3000b1e4:	00a00313          	li	t1,10
    3000b1e8:	02200593          	li	a1,34
    3000b1ec:	05c00e13          	li	t3,92
    3000b1f0:	0007c503          	lbu	a0,0(a5)
    3000b1f4:	01050463          	beq	a0,a6,3000b1fc <msh_exec+0x144>
    3000b1f8:	07151a63          	bne	a0,a7,3000b26c <msh_exec+0x1b4>
    3000b1fc:	06876063          	bltu	a4,s0,3000b25c <msh_exec+0x1a4>
    3000b200:	00a00793          	li	a5,10
    3000b204:	06f68663          	beq	a3,a5,3000b270 <msh_exec+0x1b8>
    3000b208:	0d40006f          	j	3000b2dc <msh_exec+0x224>
    3000b20c:	00178793          	addi	a5,a5,1
    3000b210:	f39ff06f          	j	3000b148 <msh_exec+0x90>
    3000b214:	f40794e3          	bnez	a5,3000b15c <msh_exec+0xa4>
    3000b218:	0004059b          	sext.w	a1,s0
    3000b21c:	00048513          	mv	a0,s1
    3000b220:	b7dff0ef          	jal	ra,3000ad9c <msh_exec_script>
    3000b224:	00048793          	mv	a5,s1
    3000b228:	ec0506e3          	beqz	a0,3000b0f4 <msh_exec+0x3c>
    3000b22c:	0007c703          	lbu	a4,0(a5)
    3000b230:	0df77713          	andi	a4,a4,223
    3000b234:	10071863          	bnez	a4,3000b344 <msh_exec+0x28c>
    3000b238:	4fff9517          	auipc	a0,0x4fff9
    3000b23c:	8d850513          	addi	a0,a0,-1832 # 80003b10 <__fsym___cmd_ls_name+0x70>
    3000b240:	00078023          	sb	zero,0(a5)
    3000b244:	00048593          	mv	a1,s1
    3000b248:	a6df70ef          	jal	ra,30002cb4 <rt_kprintf>
    3000b24c:	fff00513          	li	a0,-1
    3000b250:	ea9ff06f          	j	3000b0f8 <msh_exec+0x40>
    3000b254:	01898993          	addi	s3,s3,24
    3000b258:	f1dff06f          	j	3000b174 <msh_exec+0xbc>
    3000b25c:	00078023          	sb	zero,0(a5)
    3000b260:	00170713          	addi	a4,a4,1
    3000b264:	00178793          	addi	a5,a5,1
    3000b268:	f89ff06f          	j	3000b1f0 <msh_exec+0x138>
    3000b26c:	04669663          	bne	a3,t1,3000b2b8 <msh_exec+0x200>
    3000b270:	4fff9517          	auipc	a0,0x4fff9
    3000b274:	87850513          	addi	a0,a0,-1928 # 80003ae8 <__fsym___cmd_ls_name+0x48>
    3000b278:	a3df70ef          	jal	ra,30002cb4 <rt_kprintf>
    3000b27c:	05010413          	addi	s0,sp,80
    3000b280:	4fff9497          	auipc	s1,0x4fff9
    3000b284:	88848493          	addi	s1,s1,-1912 # 80003b08 <__fsym___cmd_ls_name+0x68>
    3000b288:	00093583          	ld	a1,0(s2)
    3000b28c:	00048513          	mv	a0,s1
    3000b290:	00890913          	addi	s2,s2,8
    3000b294:	a21f70ef          	jal	ra,30002cb4 <rt_kprintf>
    3000b298:	fe8918e3          	bne	s2,s0,3000b288 <msh_exec+0x1d0>
    3000b29c:	4fff6517          	auipc	a0,0x4fff6
    3000b2a0:	39450513          	addi	a0,a0,916 # 80001630 <__FUNCTION__.6+0x40>
    3000b2a4:	a11f70ef          	jal	ra,30002cb4 <rt_kprintf>
    3000b2a8:	00a00513          	li	a0,10
    3000b2ac:	00010593          	mv	a1,sp
    3000b2b0:	000980e7          	jalr	s3
    3000b2b4:	e45ff06f          	j	3000b0f8 <msh_exec+0x40>
    3000b2b8:	02877263          	bgeu	a4,s0,3000b2dc <msh_exec+0x224>
    3000b2bc:	00168693          	addi	a3,a3,1
    3000b2c0:	06b51263          	bne	a0,a1,3000b324 <msh_exec+0x26c>
    3000b2c4:	00178793          	addi	a5,a5,1
    3000b2c8:	00170713          	addi	a4,a4,1
    3000b2cc:	00f63023          	sd	a5,0(a2)
    3000b2d0:	0007c503          	lbu	a0,0(a5)
    3000b2d4:	02b50a63          	beq	a0,a1,3000b308 <msh_exec+0x250>
    3000b2d8:	00876863          	bltu	a4,s0,3000b2e8 <msh_exec+0x230>
    3000b2dc:	0006851b          	sext.w	a0,a3
    3000b2e0:	fc0696e3          	bnez	a3,3000b2ac <msh_exec+0x1f4>
    3000b2e4:	f35ff06f          	j	3000b218 <msh_exec+0x160>
    3000b2e8:	01c51a63          	bne	a0,t3,3000b2fc <msh_exec+0x244>
    3000b2ec:	0017c503          	lbu	a0,1(a5)
    3000b2f0:	00b51663          	bne	a0,a1,3000b2fc <msh_exec+0x244>
    3000b2f4:	00178793          	addi	a5,a5,1
    3000b2f8:	00170713          	addi	a4,a4,1
    3000b2fc:	00178793          	addi	a5,a5,1
    3000b300:	00170713          	addi	a4,a4,1
    3000b304:	fcdff06f          	j	3000b2d0 <msh_exec+0x218>
    3000b308:	fc877ae3          	bgeu	a4,s0,3000b2dc <msh_exec+0x224>
    3000b30c:	00078023          	sb	zero,0(a5)
    3000b310:	00170713          	addi	a4,a4,1
    3000b314:	00178793          	addi	a5,a5,1
    3000b318:	fc8772e3          	bgeu	a4,s0,3000b2dc <msh_exec+0x224>
    3000b31c:	00860613          	addi	a2,a2,8
    3000b320:	ed1ff06f          	j	3000b1f0 <msh_exec+0x138>
    3000b324:	00f63023          	sd	a5,0(a2)
    3000b328:	0007c503          	lbu	a0,0(a5)
    3000b32c:	ff0506e3          	beq	a0,a6,3000b318 <msh_exec+0x260>
    3000b330:	ff1504e3          	beq	a0,a7,3000b318 <msh_exec+0x260>
    3000b334:	fae404e3          	beq	s0,a4,3000b2dc <msh_exec+0x224>
    3000b338:	00178793          	addi	a5,a5,1
    3000b33c:	00170713          	addi	a4,a4,1
    3000b340:	fe9ff06f          	j	3000b328 <msh_exec+0x270>
    3000b344:	00178793          	addi	a5,a5,1
    3000b348:	ee5ff06f          	j	3000b22c <msh_exec+0x174>

000000003000b34c <msh_auto_complete_path>:
    3000b34c:	26050863          	beqz	a0,3000b5bc <msh_auto_complete_path+0x270>
    3000b350:	fc010113          	addi	sp,sp,-64
    3000b354:	03213023          	sd	s2,32(sp)
    3000b358:	00050913          	mv	s2,a0
    3000b35c:	10000513          	li	a0,256
    3000b360:	02813823          	sd	s0,48(sp)
    3000b364:	02113c23          	sd	ra,56(sp)
    3000b368:	02913423          	sd	s1,40(sp)
    3000b36c:	01313c23          	sd	s3,24(sp)
    3000b370:	01413823          	sd	s4,16(sp)
    3000b374:	01513423          	sd	s5,8(sp)
    3000b378:	b88f60ef          	jal	ra,30001700 <rt_malloc>
    3000b37c:	00050413          	mv	s0,a0
    3000b380:	20050c63          	beqz	a0,3000b598 <msh_auto_complete_path+0x24c>
    3000b384:	00094783          	lbu	a5,0(s2)
    3000b388:	02f00493          	li	s1,47
    3000b38c:	0a978663          	beq	a5,s1,3000b438 <msh_auto_complete_path+0xec>
    3000b390:	10000593          	li	a1,256
    3000b394:	8b1fc0ef          	jal	ra,30007c44 <getcwd>
    3000b398:	00040513          	mv	a0,s0
    3000b39c:	a28f70ef          	jal	ra,300025c4 <rt_strlen>
    3000b3a0:	00a40533          	add	a0,s0,a0
    3000b3a4:	fff54783          	lbu	a5,-1(a0)
    3000b3a8:	00978a63          	beq	a5,s1,3000b3bc <msh_auto_complete_path+0x70>
    3000b3ac:	4fff7597          	auipc	a1,0x4fff7
    3000b3b0:	c4c58593          	addi	a1,a1,-948 # 80001ff8 <__fsym___cmd_list_fd_name+0x10>
    3000b3b4:	00040513          	mv	a0,s0
    3000b3b8:	f4df40ef          	jal	ra,30000304 <strcat>
    3000b3bc:	00190793          	addi	a5,s2,1
    3000b3c0:	00000493          	li	s1,0
    3000b3c4:	02f00693          	li	a3,47
    3000b3c8:	fff7c703          	lbu	a4,-1(a5)
    3000b3cc:	06d70a63          	beq	a4,a3,3000b440 <msh_auto_complete_path+0xf4>
    3000b3d0:	06071a63          	bnez	a4,3000b444 <msh_auto_complete_path+0xf8>
    3000b3d4:	00049463          	bnez	s1,3000b3dc <msh_auto_complete_path+0x90>
    3000b3d8:	00090493          	mv	s1,s2
    3000b3dc:	00040793          	mv	a5,s0
    3000b3e0:	0007c703          	lbu	a4,0(a5)
    3000b3e4:	06071463          	bnez	a4,3000b44c <msh_auto_complete_path+0x100>
    3000b3e8:	00078713          	mv	a4,a5
    3000b3ec:	00090993          	mv	s3,s2
    3000b3f0:	06999263          	bne	s3,s1,3000b454 <msh_auto_complete_path+0x108>
    3000b3f4:	41298933          	sub	s2,s3,s2
    3000b3f8:	012787b3          	add	a5,a5,s2
    3000b3fc:	00078023          	sb	zero,0(a5)
    3000b400:	00040513          	mv	a0,s0
    3000b404:	d18fc0ef          	jal	ra,3000791c <opendir>
    3000b408:	00050a13          	mv	s4,a0
    3000b40c:	04051e63          	bnez	a0,3000b468 <msh_auto_complete_path+0x11c>
    3000b410:	00040513          	mv	a0,s0
    3000b414:	03013403          	ld	s0,48(sp)
    3000b418:	03813083          	ld	ra,56(sp)
    3000b41c:	02813483          	ld	s1,40(sp)
    3000b420:	02013903          	ld	s2,32(sp)
    3000b424:	01813983          	ld	s3,24(sp)
    3000b428:	01013a03          	ld	s4,16(sp)
    3000b42c:	00813a83          	ld	s5,8(sp)
    3000b430:	04010113          	addi	sp,sp,64
    3000b434:	decf606f          	j	30001a20 <rt_free>
    3000b438:	00050023          	sb	zero,0(a0)
    3000b43c:	f81ff06f          	j	3000b3bc <msh_auto_complete_path+0x70>
    3000b440:	00078493          	mv	s1,a5
    3000b444:	00178793          	addi	a5,a5,1
    3000b448:	f81ff06f          	j	3000b3c8 <msh_auto_complete_path+0x7c>
    3000b44c:	00178793          	addi	a5,a5,1
    3000b450:	f91ff06f          	j	3000b3e0 <msh_auto_complete_path+0x94>
    3000b454:	0009c683          	lbu	a3,0(s3)
    3000b458:	00198993          	addi	s3,s3,1
    3000b45c:	00170713          	addi	a4,a4,1
    3000b460:	fed70fa3          	sb	a3,-1(a4)
    3000b464:	f8dff06f          	j	3000b3f0 <msh_auto_complete_path+0xa4>
    3000b468:	0009c783          	lbu	a5,0(s3)
    3000b46c:	02079463          	bnez	a5,3000b494 <msh_auto_complete_path+0x148>
    3000b470:	4fff8497          	auipc	s1,0x4fff8
    3000b474:	67048493          	addi	s1,s1,1648 # 80003ae0 <__fsym___cmd_ls_name+0x40>
    3000b478:	000a0513          	mv	a0,s4
    3000b47c:	d64fc0ef          	jal	ra,300079e0 <readdir>
    3000b480:	10050663          	beqz	a0,3000b58c <msh_auto_complete_path+0x240>
    3000b484:	00450593          	addi	a1,a0,4
    3000b488:	00048513          	mv	a0,s1
    3000b48c:	829f70ef          	jal	ra,30002cb4 <rt_kprintf>
    3000b490:	fe9ff06f          	j	3000b478 <msh_auto_complete_path+0x12c>
    3000b494:	00000913          	li	s2,0
    3000b498:	000a0513          	mv	a0,s4
    3000b49c:	d44fc0ef          	jal	ra,300079e0 <readdir>
    3000b4a0:	06050c63          	beqz	a0,3000b518 <msh_auto_complete_path+0x1cc>
    3000b4a4:	00450993          	addi	s3,a0,4
    3000b4a8:	00048513          	mv	a0,s1
    3000b4ac:	918f70ef          	jal	ra,300025c4 <rt_strlen>
    3000b4b0:	00050613          	mv	a2,a0
    3000b4b4:	00098593          	mv	a1,s3
    3000b4b8:	00048513          	mv	a0,s1
    3000b4bc:	e85f40ef          	jal	ra,30000340 <strncmp>
    3000b4c0:	fc051ce3          	bnez	a0,3000b498 <msh_auto_complete_path+0x14c>
    3000b4c4:	00091e63          	bnez	s2,3000b4e0 <msh_auto_complete_path+0x194>
    3000b4c8:	00098513          	mv	a0,s3
    3000b4cc:	8f8f70ef          	jal	ra,300025c4 <rt_strlen>
    3000b4d0:	00050913          	mv	s2,a0
    3000b4d4:	00098593          	mv	a1,s3
    3000b4d8:	00040513          	mv	a0,s0
    3000b4dc:	e01f40ef          	jal	ra,300002dc <strcpy>
    3000b4e0:	00098793          	mv	a5,s3
    3000b4e4:	00040713          	mv	a4,s0
    3000b4e8:	0007c603          	lbu	a2,0(a5)
    3000b4ec:	00060863          	beqz	a2,3000b4fc <msh_auto_complete_path+0x1b0>
    3000b4f0:	00074683          	lbu	a3,0(a4)
    3000b4f4:	00068463          	beqz	a3,3000b4fc <msh_auto_complete_path+0x1b0>
    3000b4f8:	00d60a63          	beq	a2,a3,3000b50c <msh_auto_complete_path+0x1c0>
    3000b4fc:	413787bb          	subw	a5,a5,s3
    3000b500:	f927fce3          	bgeu	a5,s2,3000b498 <msh_auto_complete_path+0x14c>
    3000b504:	00078913          	mv	s2,a5
    3000b508:	f91ff06f          	j	3000b498 <msh_auto_complete_path+0x14c>
    3000b50c:	00178793          	addi	a5,a5,1
    3000b510:	00170713          	addi	a4,a4,1
    3000b514:	fd5ff06f          	j	3000b4e8 <msh_auto_complete_path+0x19c>
    3000b518:	06090a63          	beqz	s2,3000b58c <msh_auto_complete_path+0x240>
    3000b51c:	00040513          	mv	a0,s0
    3000b520:	8a4f70ef          	jal	ra,300025c4 <rt_strlen>
    3000b524:	04a97863          	bgeu	s2,a0,3000b574 <msh_auto_complete_path+0x228>
    3000b528:	000a0513          	mv	a0,s4
    3000b52c:	d7cfc0ef          	jal	ra,30007aa8 <rewinddir>
    3000b530:	4fff8a97          	auipc	s5,0x4fff8
    3000b534:	5b0a8a93          	addi	s5,s5,1456 # 80003ae0 <__fsym___cmd_ls_name+0x40>
    3000b538:	000a0513          	mv	a0,s4
    3000b53c:	ca4fc0ef          	jal	ra,300079e0 <readdir>
    3000b540:	02050a63          	beqz	a0,3000b574 <msh_auto_complete_path+0x228>
    3000b544:	00450993          	addi	s3,a0,4
    3000b548:	00048513          	mv	a0,s1
    3000b54c:	878f70ef          	jal	ra,300025c4 <rt_strlen>
    3000b550:	00050613          	mv	a2,a0
    3000b554:	00098593          	mv	a1,s3
    3000b558:	00048513          	mv	a0,s1
    3000b55c:	de5f40ef          	jal	ra,30000340 <strncmp>
    3000b560:	fc051ce3          	bnez	a0,3000b538 <msh_auto_complete_path+0x1ec>
    3000b564:	00098593          	mv	a1,s3
    3000b568:	000a8513          	mv	a0,s5
    3000b56c:	f48f70ef          	jal	ra,30002cb4 <rt_kprintf>
    3000b570:	fc9ff06f          	j	3000b538 <msh_auto_complete_path+0x1ec>
    3000b574:	00048513          	mv	a0,s1
    3000b578:	00090613          	mv	a2,s2
    3000b57c:	00040593          	mv	a1,s0
    3000b580:	012484b3          	add	s1,s1,s2
    3000b584:	dc5f40ef          	jal	ra,30000348 <memcpy>
    3000b588:	00048023          	sb	zero,0(s1)
    3000b58c:	000a0513          	mv	a0,s4
    3000b590:	d80fc0ef          	jal	ra,30007b10 <closedir>
    3000b594:	e7dff06f          	j	3000b410 <msh_auto_complete_path+0xc4>
    3000b598:	03813083          	ld	ra,56(sp)
    3000b59c:	03013403          	ld	s0,48(sp)
    3000b5a0:	02813483          	ld	s1,40(sp)
    3000b5a4:	02013903          	ld	s2,32(sp)
    3000b5a8:	01813983          	ld	s3,24(sp)
    3000b5ac:	01013a03          	ld	s4,16(sp)
    3000b5b0:	00813a83          	ld	s5,8(sp)
    3000b5b4:	04010113          	addi	sp,sp,64
    3000b5b8:	00008067          	ret
    3000b5bc:	00008067          	ret

000000003000b5c0 <msh_auto_complete>:
    3000b5c0:	00054783          	lbu	a5,0(a0)
    3000b5c4:	00079863          	bnez	a5,3000b5d4 <msh_auto_complete+0x14>
    3000b5c8:	00000593          	li	a1,0
    3000b5cc:	00000513          	li	a0,0
    3000b5d0:	a01ff06f          	j	3000afd0 <msh_help>
    3000b5d4:	fb010113          	addi	sp,sp,-80
    3000b5d8:	04813023          	sd	s0,64(sp)
    3000b5dc:	04113423          	sd	ra,72(sp)
    3000b5e0:	00050413          	mv	s0,a0
    3000b5e4:	02913c23          	sd	s1,56(sp)
    3000b5e8:	03213823          	sd	s2,48(sp)
    3000b5ec:	03313423          	sd	s3,40(sp)
    3000b5f0:	03413023          	sd	s4,32(sp)
    3000b5f4:	01513c23          	sd	s5,24(sp)
    3000b5f8:	01613823          	sd	s6,16(sp)
    3000b5fc:	01713423          	sd	s7,8(sp)
    3000b600:	fc5f60ef          	jal	ra,300025c4 <rt_strlen>
    3000b604:	00a40533          	add	a0,s0,a0
    3000b608:	02000793          	li	a5,32
    3000b60c:	00850a63          	beq	a0,s0,3000b620 <msh_auto_complete+0x60>
    3000b610:	00054703          	lbu	a4,0(a0)
    3000b614:	06f71863          	bne	a4,a5,3000b684 <msh_auto_complete+0xc4>
    3000b618:	00150513          	addi	a0,a0,1
    3000b61c:	d31ff0ef          	jal	ra,3000b34c <msh_auto_complete_path>
    3000b620:	9401b983          	ld	s3,-1728(gp) # 80004338 <_syscall_table_begin>
    3000b624:	00000b93          	li	s7,0
    3000b628:	00000493          	li	s1,0
    3000b62c:	94818a13          	addi	s4,gp,-1720 # 80004340 <_syscall_table_end>
    3000b630:	4fff8a97          	auipc	s5,0x4fff8
    3000b634:	4a0a8a93          	addi	s5,s5,1184 # 80003ad0 <__fsym___cmd_ls_name+0x30>
    3000b638:	4fff8b17          	auipc	s6,0x4fff8
    3000b63c:	4a8b0b13          	addi	s6,s6,1192 # 80003ae0 <__fsym___cmd_ls_name+0x40>
    3000b640:	000a3783          	ld	a5,0(s4)
    3000b644:	04f9e463          	bltu	s3,a5,3000b68c <msh_auto_complete+0xcc>
    3000b648:	0e0b8263          	beqz	s7,3000b72c <msh_auto_complete+0x16c>
    3000b64c:	00040513          	mv	a0,s0
    3000b650:	04013403          	ld	s0,64(sp)
    3000b654:	04813083          	ld	ra,72(sp)
    3000b658:	03013903          	ld	s2,48(sp)
    3000b65c:	02813983          	ld	s3,40(sp)
    3000b660:	02013a03          	ld	s4,32(sp)
    3000b664:	01813a83          	ld	s5,24(sp)
    3000b668:	01013b03          	ld	s6,16(sp)
    3000b66c:	00048613          	mv	a2,s1
    3000b670:	000b8593          	mv	a1,s7
    3000b674:	03813483          	ld	s1,56(sp)
    3000b678:	00813b83          	ld	s7,8(sp)
    3000b67c:	05010113          	addi	sp,sp,80
    3000b680:	e9df606f          	j	3000251c <rt_strncpy>
    3000b684:	fff50513          	addi	a0,a0,-1
    3000b688:	f85ff06f          	j	3000b60c <msh_auto_complete+0x4c>
    3000b68c:	0009b903          	ld	s2,0(s3)
    3000b690:	00600613          	li	a2,6
    3000b694:	000a8593          	mv	a1,s5
    3000b698:	00090513          	mv	a0,s2
    3000b69c:	ca5f40ef          	jal	ra,30000340 <strncmp>
    3000b6a0:	06051663          	bnez	a0,3000b70c <msh_auto_complete+0x14c>
    3000b6a4:	00040513          	mv	a0,s0
    3000b6a8:	c31f40ef          	jal	ra,300002d8 <strlen>
    3000b6ac:	00690913          	addi	s2,s2,6
    3000b6b0:	00050613          	mv	a2,a0
    3000b6b4:	00090593          	mv	a1,s2
    3000b6b8:	00040513          	mv	a0,s0
    3000b6bc:	c85f40ef          	jal	ra,30000340 <strncmp>
    3000b6c0:	04051663          	bnez	a0,3000b70c <msh_auto_complete+0x14c>
    3000b6c4:	00049a63          	bnez	s1,3000b6d8 <msh_auto_complete+0x118>
    3000b6c8:	00090513          	mv	a0,s2
    3000b6cc:	c0df40ef          	jal	ra,300002d8 <strlen>
    3000b6d0:	0005049b          	sext.w	s1,a0
    3000b6d4:	00090b93          	mv	s7,s2
    3000b6d8:	000b8793          	mv	a5,s7
    3000b6dc:	00090713          	mv	a4,s2
    3000b6e0:	0007c603          	lbu	a2,0(a5)
    3000b6e4:	02061863          	bnez	a2,3000b714 <msh_auto_complete+0x154>
    3000b6e8:	417787b3          	sub	a5,a5,s7
    3000b6ec:	00078713          	mv	a4,a5
    3000b6f0:	0007879b          	sext.w	a5,a5
    3000b6f4:	00f4d463          	bge	s1,a5,3000b6fc <msh_auto_complete+0x13c>
    3000b6f8:	00048713          	mv	a4,s1
    3000b6fc:	00090593          	mv	a1,s2
    3000b700:	000b0513          	mv	a0,s6
    3000b704:	0007049b          	sext.w	s1,a4
    3000b708:	dacf70ef          	jal	ra,30002cb4 <rt_kprintf>
    3000b70c:	01898993          	addi	s3,s3,24
    3000b710:	f31ff06f          	j	3000b640 <msh_auto_complete+0x80>
    3000b714:	00074683          	lbu	a3,0(a4)
    3000b718:	fc0688e3          	beqz	a3,3000b6e8 <msh_auto_complete+0x128>
    3000b71c:	fcd616e3          	bne	a2,a3,3000b6e8 <msh_auto_complete+0x128>
    3000b720:	00178793          	addi	a5,a5,1
    3000b724:	00170713          	addi	a4,a4,1
    3000b728:	fb9ff06f          	j	3000b6e0 <msh_auto_complete+0x120>
    3000b72c:	04813083          	ld	ra,72(sp)
    3000b730:	04013403          	ld	s0,64(sp)
    3000b734:	03813483          	ld	s1,56(sp)
    3000b738:	03013903          	ld	s2,48(sp)
    3000b73c:	02813983          	ld	s3,40(sp)
    3000b740:	02013a03          	ld	s4,32(sp)
    3000b744:	01813a83          	ld	s5,24(sp)
    3000b748:	01013b03          	ld	s6,16(sp)
    3000b74c:	00813b83          	ld	s7,8(sp)
    3000b750:	05010113          	addi	sp,sp,80
    3000b754:	00008067          	ret

000000003000b758 <rt_serial_control>:
    3000b758:	fe010113          	addi	sp,sp,-32
    3000b75c:	00813823          	sd	s0,16(sp)
    3000b760:	00913423          	sd	s1,8(sp)
    3000b764:	01213023          	sd	s2,0(sp)
    3000b768:	00113c23          	sd	ra,24(sp)
    3000b76c:	00050413          	mv	s0,a0
    3000b770:	00058913          	mv	s2,a1
    3000b774:	00060493          	mv	s1,a2
    3000b778:	00051e63          	bnez	a0,3000b794 <rt_serial_control+0x3c>
    3000b77c:	3dc00613          	li	a2,988
    3000b780:	4fff8597          	auipc	a1,0x4fff8
    3000b784:	56858593          	addi	a1,a1,1384 # 80003ce8 <__FUNCTION__.15>
    3000b788:	4fff5517          	auipc	a0,0x4fff5
    3000b78c:	01050513          	addi	a0,a0,16 # 80000798 <__FUNCTION__.6+0x10>
    3000b790:	ea8f70ef          	jal	ra,30002e38 <rt_assert_handler>
    3000b794:	00200793          	li	a5,2
    3000b798:	02f90063          	beq	s2,a5,3000b7b8 <rt_serial_control+0x60>
    3000b79c:	00300793          	li	a5,3
    3000b7a0:	04f90063          	beq	s2,a5,3000b7e0 <rt_serial_control+0x88>
    3000b7a4:	00100793          	li	a5,1
    3000b7a8:	08f91c63          	bne	s2,a5,3000b840 <rt_serial_control+0xe8>
    3000b7ac:	02c45783          	lhu	a5,44(s0)
    3000b7b0:	fdf7f793          	andi	a5,a5,-33
    3000b7b4:	00c0006f          	j	3000b7c0 <rt_serial_control+0x68>
    3000b7b8:	02c45783          	lhu	a5,44(s0)
    3000b7bc:	0207e793          	ori	a5,a5,32
    3000b7c0:	02f41623          	sh	a5,44(s0)
    3000b7c4:	00000513          	li	a0,0
    3000b7c8:	01813083          	ld	ra,24(sp)
    3000b7cc:	01013403          	ld	s0,16(sp)
    3000b7d0:	00813483          	ld	s1,8(sp)
    3000b7d4:	00013903          	ld	s2,0(sp)
    3000b7d8:	02010113          	addi	sp,sp,32
    3000b7dc:	00008067          	ret
    3000b7e0:	fe0482e3          	beqz	s1,3000b7c4 <rt_serial_control+0x6c>
    3000b7e4:	0044a703          	lw	a4,4(s1)
    3000b7e8:	08843783          	ld	a5,136(s0)
    3000b7ec:	03044683          	lbu	a3,48(s0)
    3000b7f0:	00a7571b          	srliw	a4,a4,0xa
    3000b7f4:	02a7d793          	srli	a5,a5,0x2a
    3000b7f8:	03071713          	slli	a4,a4,0x30
    3000b7fc:	03079793          	slli	a5,a5,0x30
    3000b800:	03075713          	srli	a4,a4,0x30
    3000b804:	0307d793          	srli	a5,a5,0x30
    3000b808:	00f70663          	beq	a4,a5,3000b814 <rt_serial_control+0xbc>
    3000b80c:	00700513          	li	a0,7
    3000b810:	fa069ce3          	bnez	a3,3000b7c8 <rt_serial_control+0x70>
    3000b814:	0004a783          	lw	a5,0(s1)
    3000b818:	08f42423          	sw	a5,136(s0)
    3000b81c:	0044a783          	lw	a5,4(s1)
    3000b820:	08f42623          	sw	a5,140(s0)
    3000b824:	fa0680e3          	beqz	a3,3000b7c4 <rt_serial_control+0x6c>
    3000b828:	08043783          	ld	a5,128(s0)
    3000b82c:	00048593          	mv	a1,s1
    3000b830:	00040513          	mv	a0,s0
    3000b834:	0007b783          	ld	a5,0(a5)
    3000b838:	000780e7          	jalr	a5
    3000b83c:	f89ff06f          	j	3000b7c4 <rt_serial_control+0x6c>
    3000b840:	08043783          	ld	a5,128(s0)
    3000b844:	00040513          	mv	a0,s0
    3000b848:	01013403          	ld	s0,16(sp)
    3000b84c:	01813083          	ld	ra,24(sp)
    3000b850:	0087b783          	ld	a5,8(a5)
    3000b854:	00048613          	mv	a2,s1
    3000b858:	00090593          	mv	a1,s2
    3000b85c:	00813483          	ld	s1,8(sp)
    3000b860:	00013903          	ld	s2,0(sp)
    3000b864:	02010113          	addi	sp,sp,32
    3000b868:	00078067          	jr	a5

000000003000b86c <_serial_fifo_calc_recved_len>:
    3000b86c:	fe010113          	addi	sp,sp,-32
    3000b870:	00913423          	sd	s1,8(sp)
    3000b874:	09053483          	ld	s1,144(a0)
    3000b878:	00813823          	sd	s0,16(sp)
    3000b87c:	00113c23          	sd	ra,24(sp)
    3000b880:	00050413          	mv	s0,a0
    3000b884:	00049e63          	bnez	s1,3000b8a0 <_serial_fifo_calc_recved_len+0x34>
    3000b888:	17100613          	li	a2,369
    3000b88c:	4fff8597          	auipc	a1,0x4fff8
    3000b890:	4dc58593          	addi	a1,a1,1244 # 80003d68 <__FUNCTION__.8>
    3000b894:	4fff8517          	auipc	a0,0x4fff8
    3000b898:	32450513          	addi	a0,a0,804 # 80003bb8 <__fsym___cmd_help_name+0x10>
    3000b89c:	d9cf70ef          	jal	ra,30002e38 <rt_assert_handler>
    3000b8a0:	0084d703          	lhu	a4,8(s1)
    3000b8a4:	00a4d783          	lhu	a5,10(s1)
    3000b8a8:	02f71a63          	bne	a4,a5,3000b8dc <_serial_fifo_calc_recved_len+0x70>
    3000b8ac:	00c4a783          	lw	a5,12(s1)
    3000b8b0:	00000513          	li	a0,0
    3000b8b4:	00078a63          	beqz	a5,3000b8c8 <_serial_fifo_calc_recved_len+0x5c>
    3000b8b8:	08843503          	ld	a0,136(s0)
    3000b8bc:	02a55513          	srli	a0,a0,0x2a
    3000b8c0:	03051513          	slli	a0,a0,0x30
    3000b8c4:	03055513          	srli	a0,a0,0x30
    3000b8c8:	01813083          	ld	ra,24(sp)
    3000b8cc:	01013403          	ld	s0,16(sp)
    3000b8d0:	00813483          	ld	s1,8(sp)
    3000b8d4:	02010113          	addi	sp,sp,32
    3000b8d8:	00008067          	ret
    3000b8dc:	00e7f663          	bgeu	a5,a4,3000b8e8 <_serial_fifo_calc_recved_len+0x7c>
    3000b8e0:	40f7053b          	subw	a0,a4,a5
    3000b8e4:	fe5ff06f          	j	3000b8c8 <_serial_fifo_calc_recved_len+0x5c>
    3000b8e8:	08843503          	ld	a0,136(s0)
    3000b8ec:	40e787bb          	subw	a5,a5,a4
    3000b8f0:	02a55513          	srli	a0,a0,0x2a
    3000b8f4:	0105151b          	slliw	a0,a0,0x10
    3000b8f8:	0105551b          	srliw	a0,a0,0x10
    3000b8fc:	40f5053b          	subw	a0,a0,a5
    3000b900:	fc9ff06f          	j	3000b8c8 <_serial_fifo_calc_recved_len+0x5c>

000000003000b904 <rt_serial_init>:
    3000b904:	ff010113          	addi	sp,sp,-16
    3000b908:	00813023          	sd	s0,0(sp)
    3000b90c:	00113423          	sd	ra,8(sp)
    3000b910:	00050413          	mv	s0,a0
    3000b914:	00051e63          	bnez	a0,3000b930 <rt_serial_init+0x2c>
    3000b918:	24000613          	li	a2,576
    3000b91c:	4fff8597          	auipc	a1,0x4fff8
    3000b920:	3fc58593          	addi	a1,a1,1020 # 80003d18 <__FUNCTION__.3>
    3000b924:	4fff5517          	auipc	a0,0x4fff5
    3000b928:	e7450513          	addi	a0,a0,-396 # 80000798 <__FUNCTION__.6+0x10>
    3000b92c:	d0cf70ef          	jal	ra,30002e38 <rt_assert_handler>
    3000b930:	08043783          	ld	a5,128(s0)
    3000b934:	08043823          	sd	zero,144(s0)
    3000b938:	08043c23          	sd	zero,152(s0)
    3000b93c:	0007b783          	ld	a5,0(a5)
    3000b940:	00078e63          	beqz	a5,3000b95c <rt_serial_init+0x58>
    3000b944:	08840593          	addi	a1,s0,136
    3000b948:	00040513          	mv	a0,s0
    3000b94c:	00013403          	ld	s0,0(sp)
    3000b950:	00813083          	ld	ra,8(sp)
    3000b954:	01010113          	addi	sp,sp,16
    3000b958:	00078067          	jr	a5
    3000b95c:	00813083          	ld	ra,8(sp)
    3000b960:	00013403          	ld	s0,0(sp)
    3000b964:	00000513          	li	a0,0
    3000b968:	01010113          	addi	sp,sp,16
    3000b96c:	00008067          	ret

000000003000b970 <rt_serial_open>:
    3000b970:	fd010113          	addi	sp,sp,-48
    3000b974:	02813023          	sd	s0,32(sp)
    3000b978:	00913c23          	sd	s1,24(sp)
    3000b97c:	02113423          	sd	ra,40(sp)
    3000b980:	01213823          	sd	s2,16(sp)
    3000b984:	01313423          	sd	s3,8(sp)
    3000b988:	01413023          	sd	s4,0(sp)
    3000b98c:	00050413          	mv	s0,a0
    3000b990:	00058493          	mv	s1,a1
    3000b994:	00051e63          	bnez	a0,3000b9b0 <rt_serial_open+0x40>
    3000b998:	25300613          	li	a2,595
    3000b99c:	4fff8597          	auipc	a1,0x4fff8
    3000b9a0:	38c58593          	addi	a1,a1,908 # 80003d28 <__FUNCTION__.4>
    3000b9a4:	4fff5517          	auipc	a0,0x4fff5
    3000b9a8:	df450513          	addi	a0,a0,-524 # 80000798 <__FUNCTION__.6+0x10>
    3000b9ac:	c8cf70ef          	jal	ra,30002e38 <rt_assert_handler>
    3000b9b0:	2004f713          	andi	a4,s1,512
    3000b9b4:	00070a63          	beqz	a4,3000b9c8 <rt_serial_open+0x58>
    3000b9b8:	02c45783          	lhu	a5,44(s0)
    3000b9bc:	ff800513          	li	a0,-8
    3000b9c0:	2007f793          	andi	a5,a5,512
    3000b9c4:	16078a63          	beqz	a5,3000bb38 <rt_serial_open+0x1c8>
    3000b9c8:	000017b7          	lui	a5,0x1
    3000b9cc:	80078793          	addi	a5,a5,-2048 # 800 <__stack_size>
    3000b9d0:	00f4f9b3          	and	s3,s1,a5
    3000b9d4:	00098a63          	beqz	s3,3000b9e8 <rt_serial_open+0x78>
    3000b9d8:	02c45683          	lhu	a3,44(s0)
    3000b9dc:	ff800513          	li	a0,-8
    3000b9e0:	00f6f7b3          	and	a5,a3,a5
    3000b9e4:	14078a63          	beqz	a5,3000bb38 <rt_serial_open+0x1c8>
    3000b9e8:	1004f793          	andi	a5,s1,256
    3000b9ec:	00078a63          	beqz	a5,3000ba00 <rt_serial_open+0x90>
    3000b9f0:	02c45683          	lhu	a3,44(s0)
    3000b9f4:	ff800513          	li	a0,-8
    3000b9f8:	1006f693          	andi	a3,a3,256
    3000b9fc:	12068e63          	beqz	a3,3000bb38 <rt_serial_open+0x1c8>
    3000ba00:	4004fa13          	andi	s4,s1,1024
    3000ba04:	000a0a63          	beqz	s4,3000ba18 <rt_serial_open+0xa8>
    3000ba08:	02c45683          	lhu	a3,44(s0)
    3000ba0c:	ff800513          	li	a0,-8
    3000ba10:	4006f693          	andi	a3,a3,1024
    3000ba14:	12068263          	beqz	a3,3000bb38 <rt_serial_open+0x1c8>
    3000ba18:	0404f693          	andi	a3,s1,64
    3000ba1c:	04000913          	li	s2,64
    3000ba20:	00069663          	bnez	a3,3000ba2c <rt_serial_open+0xbc>
    3000ba24:	02e45903          	lhu	s2,46(s0)
    3000ba28:	04097913          	andi	s2,s2,64
    3000ba2c:	09043683          	ld	a3,144(s0)
    3000ba30:	0ff4f493          	zext.b	s1,s1
    3000ba34:	02941723          	sh	s1,46(s0)
    3000ba38:	1e069a63          	bnez	a3,3000bc2c <rt_serial_open+0x2bc>
    3000ba3c:	10078e63          	beqz	a5,3000bb58 <rt_serial_open+0x1e8>
    3000ba40:	08843503          	ld	a0,136(s0)
    3000ba44:	02a55513          	srli	a0,a0,0x2a
    3000ba48:	03051513          	slli	a0,a0,0x30
    3000ba4c:	03055513          	srli	a0,a0,0x30
    3000ba50:	01050513          	addi	a0,a0,16
    3000ba54:	cadf50ef          	jal	ra,30001700 <rt_malloc>
    3000ba58:	00050493          	mv	s1,a0
    3000ba5c:	00051e63          	bnez	a0,3000ba78 <rt_serial_open+0x108>
    3000ba60:	27200613          	li	a2,626
    3000ba64:	4fff8597          	auipc	a1,0x4fff8
    3000ba68:	2c458593          	addi	a1,a1,708 # 80003d28 <__FUNCTION__.4>
    3000ba6c:	4fff8517          	auipc	a0,0x4fff8
    3000ba70:	14c50513          	addi	a0,a0,332 # 80003bb8 <__fsym___cmd_help_name+0x10>
    3000ba74:	bc4f70ef          	jal	ra,30002e38 <rt_assert_handler>
    3000ba78:	08843603          	ld	a2,136(s0)
    3000ba7c:	01048513          	addi	a0,s1,16
    3000ba80:	00000593          	li	a1,0
    3000ba84:	02a65613          	srli	a2,a2,0x2a
    3000ba88:	03061613          	slli	a2,a2,0x30
    3000ba8c:	03065613          	srli	a2,a2,0x30
    3000ba90:	00a4b023          	sd	a0,0(s1)
    3000ba94:	86df60ef          	jal	ra,30002300 <rt_memset>
    3000ba98:	0004b423          	sd	zero,8(s1)
    3000ba9c:	02e45783          	lhu	a5,46(s0)
    3000baa0:	08943823          	sd	s1,144(s0)
    3000baa4:	10000613          	li	a2,256
    3000baa8:	1007e793          	ori	a5,a5,256
    3000baac:	02f41723          	sh	a5,46(s0)
    3000bab0:	08043783          	ld	a5,128(s0)
    3000bab4:	01000593          	li	a1,16
    3000bab8:	00040513          	mv	a0,s0
    3000babc:	0087b783          	ld	a5,8(a5)
    3000bac0:	000780e7          	jalr	a5
    3000bac4:	09843783          	ld	a5,152(s0)
    3000bac8:	1e079663          	bnez	a5,3000bcb4 <rt_serial_open+0x344>
    3000bacc:	160a0e63          	beqz	s4,3000bc48 <rt_serial_open+0x2d8>
    3000bad0:	01800513          	li	a0,24
    3000bad4:	c2df50ef          	jal	ra,30001700 <rt_malloc>
    3000bad8:	00050493          	mv	s1,a0
    3000badc:	00051e63          	bnez	a0,3000baf8 <rt_serial_open+0x188>
    3000bae0:	2b100613          	li	a2,689
    3000bae4:	4fff8597          	auipc	a1,0x4fff8
    3000bae8:	24458593          	addi	a1,a1,580 # 80003d28 <__FUNCTION__.4>
    3000baec:	4fff8517          	auipc	a0,0x4fff8
    3000baf0:	0fc50513          	addi	a0,a0,252 # 80003be8 <__fsym___cmd_help_name+0x40>
    3000baf4:	b44f70ef          	jal	ra,30002e38 <rt_assert_handler>
    3000baf8:	00048513          	mv	a0,s1
    3000bafc:	6d5000ef          	jal	ra,3000c9d0 <rt_completion_init>
    3000bb00:	02e45783          	lhu	a5,46(s0)
    3000bb04:	08943c23          	sd	s1,152(s0)
    3000bb08:	40000613          	li	a2,1024
    3000bb0c:	4007e793          	ori	a5,a5,1024
    3000bb10:	02f41723          	sh	a5,46(s0)
    3000bb14:	08043783          	ld	a5,128(s0)
    3000bb18:	01000593          	li	a1,16
    3000bb1c:	0087b783          	ld	a5,8(a5)
    3000bb20:	00040513          	mv	a0,s0
    3000bb24:	000780e7          	jalr	a5
    3000bb28:	02e45783          	lhu	a5,46(s0)
    3000bb2c:	00000513          	li	a0,0
    3000bb30:	00f96933          	or	s2,s2,a5
    3000bb34:	03241723          	sh	s2,46(s0)
    3000bb38:	02813083          	ld	ra,40(sp)
    3000bb3c:	02013403          	ld	s0,32(sp)
    3000bb40:	01813483          	ld	s1,24(sp)
    3000bb44:	01013903          	ld	s2,16(sp)
    3000bb48:	00813983          	ld	s3,8(sp)
    3000bb4c:	00013a03          	ld	s4,0(sp)
    3000bb50:	03010113          	addi	sp,sp,48
    3000bb54:	00008067          	ret
    3000bb58:	f60706e3          	beqz	a4,3000bac4 <rt_serial_open+0x154>
    3000bb5c:	08c42783          	lw	a5,140(s0)
    3000bb60:	04000737          	lui	a4,0x4000
    3000bb64:	c0070713          	addi	a4,a4,-1024 # 3fffc00 <__stack_size+0x3fff400>
    3000bb68:	00e7f7b3          	and	a5,a5,a4
    3000bb6c:	04079263          	bnez	a5,3000bbb0 <rt_serial_open+0x240>
    3000bb70:	00400513          	li	a0,4
    3000bb74:	b8df50ef          	jal	ra,30001700 <rt_malloc>
    3000bb78:	00050493          	mv	s1,a0
    3000bb7c:	00051e63          	bnez	a0,3000bb98 <rt_serial_open+0x228>
    3000bb80:	28500613          	li	a2,645
    3000bb84:	4fff8597          	auipc	a1,0x4fff8
    3000bb88:	1a458593          	addi	a1,a1,420 # 80003d28 <__FUNCTION__.4>
    3000bb8c:	4fff8517          	auipc	a0,0x4fff8
    3000bb90:	04450513          	addi	a0,a0,68 # 80003bd0 <__fsym___cmd_help_name+0x28>
    3000bb94:	aa4f70ef          	jal	ra,30002e38 <rt_assert_handler>
    3000bb98:	0004a023          	sw	zero,0(s1)
    3000bb9c:	08943823          	sd	s1,144(s0)
    3000bba0:	02e45783          	lhu	a5,46(s0)
    3000bba4:	2007e793          	ori	a5,a5,512
    3000bba8:	02f41723          	sh	a5,46(s0)
    3000bbac:	f19ff06f          	j	3000bac4 <rt_serial_open+0x154>
    3000bbb0:	08843503          	ld	a0,136(s0)
    3000bbb4:	02a55513          	srli	a0,a0,0x2a
    3000bbb8:	03051513          	slli	a0,a0,0x30
    3000bbbc:	03055513          	srli	a0,a0,0x30
    3000bbc0:	01050513          	addi	a0,a0,16
    3000bbc4:	b3df50ef          	jal	ra,30001700 <rt_malloc>
    3000bbc8:	00050493          	mv	s1,a0
    3000bbcc:	00051e63          	bnez	a0,3000bbe8 <rt_serial_open+0x278>
    3000bbd0:	28e00613          	li	a2,654
    3000bbd4:	4fff8597          	auipc	a1,0x4fff8
    3000bbd8:	15458593          	addi	a1,a1,340 # 80003d28 <__FUNCTION__.4>
    3000bbdc:	4fff8517          	auipc	a0,0x4fff8
    3000bbe0:	fdc50513          	addi	a0,a0,-36 # 80003bb8 <__fsym___cmd_help_name+0x10>
    3000bbe4:	a54f70ef          	jal	ra,30002e38 <rt_assert_handler>
    3000bbe8:	08843603          	ld	a2,136(s0)
    3000bbec:	01048513          	addi	a0,s1,16
    3000bbf0:	00a4b023          	sd	a0,0(s1)
    3000bbf4:	02a65613          	srli	a2,a2,0x2a
    3000bbf8:	03061613          	slli	a2,a2,0x30
    3000bbfc:	03065613          	srli	a2,a2,0x30
    3000bc00:	00000593          	li	a1,0
    3000bc04:	efcf60ef          	jal	ra,30002300 <rt_memset>
    3000bc08:	0004b423          	sd	zero,8(s1)
    3000bc0c:	08043783          	ld	a5,128(s0)
    3000bc10:	08943823          	sd	s1,144(s0)
    3000bc14:	20000613          	li	a2,512
    3000bc18:	0087b783          	ld	a5,8(a5)
    3000bc1c:	00300593          	li	a1,3
    3000bc20:	00040513          	mv	a0,s0
    3000bc24:	000780e7          	jalr	a5
    3000bc28:	f79ff06f          	j	3000bba0 <rt_serial_open+0x230>
    3000bc2c:	00078863          	beqz	a5,3000bc3c <rt_serial_open+0x2cc>
    3000bc30:	1004e493          	ori	s1,s1,256
    3000bc34:	02941723          	sh	s1,46(s0)
    3000bc38:	e8dff06f          	j	3000bac4 <rt_serial_open+0x154>
    3000bc3c:	e80704e3          	beqz	a4,3000bac4 <rt_serial_open+0x154>
    3000bc40:	2004e493          	ori	s1,s1,512
    3000bc44:	ff1ff06f          	j	3000bc34 <rt_serial_open+0x2c4>
    3000bc48:	ee0980e3          	beqz	s3,3000bb28 <rt_serial_open+0x1b8>
    3000bc4c:	04800513          	li	a0,72
    3000bc50:	ab1f50ef          	jal	ra,30001700 <rt_malloc>
    3000bc54:	00050493          	mv	s1,a0
    3000bc58:	00051e63          	bnez	a0,3000bc74 <rt_serial_open+0x304>
    3000bc5c:	2c000613          	li	a2,704
    3000bc60:	4fff8597          	auipc	a1,0x4fff8
    3000bc64:	0c858593          	addi	a1,a1,200 # 80003d28 <__FUNCTION__.4>
    3000bc68:	4fff8517          	auipc	a0,0x4fff8
    3000bc6c:	f9850513          	addi	a0,a0,-104 # 80003c00 <__fsym___cmd_help_name+0x58>
    3000bc70:	9c8f70ef          	jal	ra,30002e38 <rt_assert_handler>
    3000bc74:	00400613          	li	a2,4
    3000bc78:	00800593          	li	a1,8
    3000bc7c:	0004a023          	sw	zero,0(s1)
    3000bc80:	00000693          	li	a3,0
    3000bc84:	00848513          	addi	a0,s1,8
    3000bc88:	06d000ef          	jal	ra,3000c4f4 <rt_data_queue_init>
    3000bc8c:	02e45783          	lhu	a5,46(s0)
    3000bc90:	00001637          	lui	a2,0x1
    3000bc94:	80060613          	addi	a2,a2,-2048 # 800 <__stack_size>
    3000bc98:	00c7e7b3          	or	a5,a5,a2
    3000bc9c:	02f41723          	sh	a5,46(s0)
    3000bca0:	08043783          	ld	a5,128(s0)
    3000bca4:	08943c23          	sd	s1,152(s0)
    3000bca8:	00300593          	li	a1,3
    3000bcac:	0087b783          	ld	a5,8(a5)
    3000bcb0:	e71ff06f          	j	3000bb20 <rt_serial_open+0x1b0>
    3000bcb4:	02e45783          	lhu	a5,46(s0)
    3000bcb8:	000a0863          	beqz	s4,3000bcc8 <rt_serial_open+0x358>
    3000bcbc:	4007e793          	ori	a5,a5,1024
    3000bcc0:	02f41723          	sh	a5,46(s0)
    3000bcc4:	e65ff06f          	j	3000bb28 <rt_serial_open+0x1b8>
    3000bcc8:	e60980e3          	beqz	s3,3000bb28 <rt_serial_open+0x1b8>
    3000bccc:	00001737          	lui	a4,0x1
    3000bcd0:	80070713          	addi	a4,a4,-2048 # 800 <__stack_size>
    3000bcd4:	00e7e7b3          	or	a5,a5,a4
    3000bcd8:	fe9ff06f          	j	3000bcc0 <rt_serial_open+0x350>

000000003000bcdc <rt_serial_write>:
    3000bcdc:	fc010113          	addi	sp,sp,-64
    3000bce0:	02813823          	sd	s0,48(sp)
    3000bce4:	02913423          	sd	s1,40(sp)
    3000bce8:	01313c23          	sd	s3,24(sp)
    3000bcec:	02113c23          	sd	ra,56(sp)
    3000bcf0:	03213023          	sd	s2,32(sp)
    3000bcf4:	01413823          	sd	s4,16(sp)
    3000bcf8:	01513423          	sd	s5,8(sp)
    3000bcfc:	01613023          	sd	s6,0(sp)
    3000bd00:	00050413          	mv	s0,a0
    3000bd04:	00060493          	mv	s1,a2
    3000bd08:	00068993          	mv	s3,a3
    3000bd0c:	00051e63          	bnez	a0,3000bd28 <rt_serial_write+0x4c>
    3000bd10:	36100613          	li	a2,865
    3000bd14:	4fff8597          	auipc	a1,0x4fff8
    3000bd18:	fc458593          	addi	a1,a1,-60 # 80003cd8 <__FUNCTION__.14>
    3000bd1c:	4fff5517          	auipc	a0,0x4fff5
    3000bd20:	a7c50513          	addi	a0,a0,-1412 # 80000798 <__FUNCTION__.6+0x10>
    3000bd24:	914f70ef          	jal	ra,30002e38 <rt_assert_handler>
    3000bd28:	04098263          	beqz	s3,3000bd6c <rt_serial_write+0x90>
    3000bd2c:	02e45783          	lhu	a5,46(s0)
    3000bd30:	0009899b          	sext.w	s3,s3
    3000bd34:	00098913          	mv	s2,s3
    3000bd38:	4007f713          	andi	a4,a5,1024
    3000bd3c:	0a070e63          	beqz	a4,3000bdf8 <rt_serial_write+0x11c>
    3000bd40:	09843a03          	ld	s4,152(s0)
    3000bd44:	000a1e63          	bnez	s4,3000bd60 <rt_serial_write+0x84>
    3000bd48:	14100613          	li	a2,321
    3000bd4c:	4fff8597          	auipc	a1,0x4fff8
    3000bd50:	f7c58593          	addi	a1,a1,-132 # 80003cc8 <__FUNCTION__.13>
    3000bd54:	4fff8517          	auipc	a0,0x4fff8
    3000bd58:	ec450513          	addi	a0,a0,-316 # 80003c18 <__fsym___cmd_help_name+0x70>
    3000bd5c:	8dcf70ef          	jal	ra,30002e38 <rt_assert_handler>
    3000bd60:	00a00b13          	li	s6,10
    3000bd64:	fff00a93          	li	s5,-1
    3000bd68:	02091863          	bnez	s2,3000bd98 <rt_serial_write+0xbc>
    3000bd6c:	03813083          	ld	ra,56(sp)
    3000bd70:	03013403          	ld	s0,48(sp)
    3000bd74:	02813483          	ld	s1,40(sp)
    3000bd78:	02013903          	ld	s2,32(sp)
    3000bd7c:	01013a03          	ld	s4,16(sp)
    3000bd80:	00813a83          	ld	s5,8(sp)
    3000bd84:	00013b03          	ld	s6,0(sp)
    3000bd88:	00098513          	mv	a0,s3
    3000bd8c:	01813983          	ld	s3,24(sp)
    3000bd90:	04010113          	addi	sp,sp,64
    3000bd94:	00008067          	ret
    3000bd98:	08043783          	ld	a5,128(s0)
    3000bd9c:	0107b703          	ld	a4,16(a5)
    3000bda0:	0004c783          	lbu	a5,0(s1)
    3000bda4:	03679863          	bne	a5,s6,3000bdd4 <rt_serial_write+0xf8>
    3000bda8:	02e45783          	lhu	a5,46(s0)
    3000bdac:	0407f793          	andi	a5,a5,64
    3000bdb0:	02078263          	beqz	a5,3000bdd4 <rt_serial_write+0xf8>
    3000bdb4:	00d00593          	li	a1,13
    3000bdb8:	00040513          	mv	a0,s0
    3000bdbc:	000700e7          	jalr	a4
    3000bdc0:	01551a63          	bne	a0,s5,3000bdd4 <rt_serial_write+0xf8>
    3000bdc4:	fff00593          	li	a1,-1
    3000bdc8:	000a0513          	mv	a0,s4
    3000bdcc:	455000ef          	jal	ra,3000ca20 <rt_completion_wait>
    3000bdd0:	f99ff06f          	j	3000bd68 <rt_serial_write+0x8c>
    3000bdd4:	08043783          	ld	a5,128(s0)
    3000bdd8:	0004c583          	lbu	a1,0(s1)
    3000bddc:	00040513          	mv	a0,s0
    3000bde0:	0107b783          	ld	a5,16(a5)
    3000bde4:	000780e7          	jalr	a5
    3000bde8:	fd550ee3          	beq	a0,s5,3000bdc4 <rt_serial_write+0xe8>
    3000bdec:	00148493          	addi	s1,s1,1
    3000bdf0:	fff9091b          	addiw	s2,s2,-1
    3000bdf4:	f75ff06f          	j	3000bd68 <rt_serial_write+0x8c>
    3000bdf8:	00b7d793          	srli	a5,a5,0xb
    3000bdfc:	0017f793          	andi	a5,a5,1
    3000be00:	00a00a13          	li	s4,10
    3000be04:	0a078a63          	beqz	a5,3000beb8 <rt_serial_write+0x1dc>
    3000be08:	09843983          	ld	s3,152(s0)
    3000be0c:	fff00693          	li	a3,-1
    3000be10:	00090613          	mv	a2,s2
    3000be14:	00048593          	mv	a1,s1
    3000be18:	00898513          	addi	a0,s3,8
    3000be1c:	7a8000ef          	jal	ra,3000c5c4 <rt_data_queue_push>
    3000be20:	04051463          	bnez	a0,3000be68 <rt_serial_write+0x18c>
    3000be24:	f81f80ef          	jal	ra,30004da4 <rt_hw_interrupt_disable>
    3000be28:	0009a703          	lw	a4,0(s3)
    3000be2c:	00100793          	li	a5,1
    3000be30:	02f70863          	beq	a4,a5,3000be60 <rt_serial_write+0x184>
    3000be34:	00f9a023          	sw	a5,0(s3)
    3000be38:	f75f80ef          	jal	ra,30004dac <rt_hw_interrupt_enable>
    3000be3c:	08043783          	ld	a5,128(s0)
    3000be40:	00200693          	li	a3,2
    3000be44:	00090613          	mv	a2,s2
    3000be48:	0207b783          	ld	a5,32(a5)
    3000be4c:	00048593          	mv	a1,s1
    3000be50:	00040513          	mv	a0,s0
    3000be54:	000780e7          	jalr	a5
    3000be58:	00090993          	mv	s3,s2
    3000be5c:	f11ff06f          	j	3000bd6c <rt_serial_write+0x90>
    3000be60:	f4df80ef          	jal	ra,30004dac <rt_hw_interrupt_enable>
    3000be64:	ff5ff06f          	j	3000be58 <rt_serial_write+0x17c>
    3000be68:	c5cf60ef          	jal	ra,300022c4 <rt_set_errno>
    3000be6c:	00000913          	li	s2,0
    3000be70:	fe9ff06f          	j	3000be58 <rt_serial_write+0x17c>
    3000be74:	0004c783          	lbu	a5,0(s1)
    3000be78:	03479263          	bne	a5,s4,3000be9c <rt_serial_write+0x1c0>
    3000be7c:	02e45783          	lhu	a5,46(s0)
    3000be80:	0407f793          	andi	a5,a5,64
    3000be84:	00078c63          	beqz	a5,3000be9c <rt_serial_write+0x1c0>
    3000be88:	08043783          	ld	a5,128(s0)
    3000be8c:	00d00593          	li	a1,13
    3000be90:	00040513          	mv	a0,s0
    3000be94:	0107b783          	ld	a5,16(a5)
    3000be98:	000780e7          	jalr	a5
    3000be9c:	08043783          	ld	a5,128(s0)
    3000bea0:	0004c583          	lbu	a1,0(s1)
    3000bea4:	00040513          	mv	a0,s0
    3000bea8:	0107b783          	ld	a5,16(a5)
    3000beac:	00148493          	addi	s1,s1,1
    3000beb0:	fff9091b          	addiw	s2,s2,-1
    3000beb4:	000780e7          	jalr	a5
    3000beb8:	fa091ee3          	bnez	s2,3000be74 <rt_serial_write+0x198>
    3000bebc:	eb1ff06f          	j	3000bd6c <rt_serial_write+0x90>

000000003000bec0 <rt_serial_read>:
    3000bec0:	fc010113          	addi	sp,sp,-64
    3000bec4:	02813823          	sd	s0,48(sp)
    3000bec8:	02913423          	sd	s1,40(sp)
    3000becc:	03213023          	sd	s2,32(sp)
    3000bed0:	02113c23          	sd	ra,56(sp)
    3000bed4:	01313c23          	sd	s3,24(sp)
    3000bed8:	01413823          	sd	s4,16(sp)
    3000bedc:	01513423          	sd	s5,8(sp)
    3000bee0:	01613023          	sd	s6,0(sp)
    3000bee4:	00050413          	mv	s0,a0
    3000bee8:	00060913          	mv	s2,a2
    3000beec:	00068493          	mv	s1,a3
    3000bef0:	00051e63          	bnez	a0,3000bf0c <rt_serial_read+0x4c>
    3000bef4:	34700613          	li	a2,839
    3000bef8:	4fff8597          	auipc	a1,0x4fff8
    3000befc:	dc058593          	addi	a1,a1,-576 # 80003cb8 <__FUNCTION__.11>
    3000bf00:	4fff5517          	auipc	a0,0x4fff5
    3000bf04:	89850513          	addi	a0,a0,-1896 # 80000798 <__FUNCTION__.6+0x10>
    3000bf08:	f31f60ef          	jal	ra,30002e38 <rt_assert_handler>
    3000bf0c:	06048263          	beqz	s1,3000bf70 <rt_serial_read+0xb0>
    3000bf10:	02e45783          	lhu	a5,46(s0)
    3000bf14:	0004849b          	sext.w	s1,s1
    3000bf18:	1007f713          	andi	a4,a5,256
    3000bf1c:	0c070a63          	beqz	a4,3000bff0 <rt_serial_read+0x130>
    3000bf20:	09043983          	ld	s3,144(s0)
    3000bf24:	00099e63          	bnez	s3,3000bf40 <rt_serial_read+0x80>
    3000bf28:	11100613          	li	a2,273
    3000bf2c:	4fff8597          	auipc	a1,0x4fff8
    3000bf30:	d7c58593          	addi	a1,a1,-644 # 80003ca8 <__FUNCTION__.10>
    3000bf34:	4fff8517          	auipc	a0,0x4fff8
    3000bf38:	c8450513          	addi	a0,a0,-892 # 80003bb8 <__fsym___cmd_help_name+0x10>
    3000bf3c:	efdf60ef          	jal	ra,30002e38 <rt_assert_handler>
    3000bf40:	00048a13          	mv	s4,s1
    3000bf44:	00100a93          	li	s5,1
    3000bf48:	020a0263          	beqz	s4,3000bf6c <rt_serial_read+0xac>
    3000bf4c:	e59f80ef          	jal	ra,30004da4 <rt_hw_interrupt_disable>
    3000bf50:	00a9d783          	lhu	a5,10(s3)
    3000bf54:	0089d703          	lhu	a4,8(s3)
    3000bf58:	00c9a603          	lw	a2,12(s3)
    3000bf5c:	00050693          	mv	a3,a0
    3000bf60:	02f71e63          	bne	a4,a5,3000bf9c <rt_serial_read+0xdc>
    3000bf64:	02061c63          	bnez	a2,3000bf9c <rt_serial_read+0xdc>
    3000bf68:	e45f80ef          	jal	ra,30004dac <rt_hw_interrupt_enable>
    3000bf6c:	414484bb          	subw	s1,s1,s4
    3000bf70:	03813083          	ld	ra,56(sp)
    3000bf74:	03013403          	ld	s0,48(sp)
    3000bf78:	02013903          	ld	s2,32(sp)
    3000bf7c:	01813983          	ld	s3,24(sp)
    3000bf80:	01013a03          	ld	s4,16(sp)
    3000bf84:	00813a83          	ld	s5,8(sp)
    3000bf88:	00013b03          	ld	s6,0(sp)
    3000bf8c:	00048513          	mv	a0,s1
    3000bf90:	02813483          	ld	s1,40(sp)
    3000bf94:	04010113          	addi	sp,sp,64
    3000bf98:	00008067          	ret
    3000bf9c:	0009b703          	ld	a4,0(s3)
    3000bfa0:	00f70733          	add	a4,a4,a5
    3000bfa4:	00074b03          	lbu	s6,0(a4)
    3000bfa8:	08843703          	ld	a4,136(s0)
    3000bfac:	0017879b          	addiw	a5,a5,1
    3000bfb0:	03079793          	slli	a5,a5,0x30
    3000bfb4:	02a75713          	srli	a4,a4,0x2a
    3000bfb8:	03071713          	slli	a4,a4,0x30
    3000bfbc:	0307d793          	srli	a5,a5,0x30
    3000bfc0:	03075713          	srli	a4,a4,0x30
    3000bfc4:	00e7e463          	bltu	a5,a4,3000bfcc <rt_serial_read+0x10c>
    3000bfc8:	00000793          	li	a5,0
    3000bfcc:	00f99523          	sh	a5,10(s3)
    3000bfd0:	01561463          	bne	a2,s5,3000bfd8 <rt_serial_read+0x118>
    3000bfd4:	0009a623          	sw	zero,12(s3)
    3000bfd8:	00068513          	mv	a0,a3
    3000bfdc:	dd1f80ef          	jal	ra,30004dac <rt_hw_interrupt_enable>
    3000bfe0:	00190913          	addi	s2,s2,1
    3000bfe4:	ff690fa3          	sb	s6,-1(s2)
    3000bfe8:	fffa0a1b          	addiw	s4,s4,-1
    3000bfec:	f5dff06f          	j	3000bf48 <rt_serial_read+0x88>
    3000bff0:	2007f793          	andi	a5,a5,512
    3000bff4:	00048993          	mv	s3,s1
    3000bff8:	04079463          	bnez	a5,3000c040 <rt_serial_read+0x180>
    3000bffc:	fff00a13          	li	s4,-1
    3000c000:	00a00a93          	li	s5,10
    3000c004:	02098a63          	beqz	s3,3000c038 <rt_serial_read+0x178>
    3000c008:	08043783          	ld	a5,128(s0)
    3000c00c:	00040513          	mv	a0,s0
    3000c010:	0187b783          	ld	a5,24(a5)
    3000c014:	000780e7          	jalr	a5
    3000c018:	03450063          	beq	a0,s4,3000c038 <rt_serial_read+0x178>
    3000c01c:	00a90023          	sb	a0,0(s2)
    3000c020:	02e45783          	lhu	a5,46(s0)
    3000c024:	00190913          	addi	s2,s2,1
    3000c028:	fff9899b          	addiw	s3,s3,-1
    3000c02c:	0407f793          	andi	a5,a5,64
    3000c030:	fc078ae3          	beqz	a5,3000c004 <rt_serial_read+0x144>
    3000c034:	fd5518e3          	bne	a0,s5,3000c004 <rt_serial_read+0x144>
    3000c038:	413484bb          	subw	s1,s1,s3
    3000c03c:	f35ff06f          	j	3000bf70 <rt_serial_read+0xb0>
    3000c040:	00091e63          	bnez	s2,3000c05c <rt_serial_read+0x19c>
    3000c044:	1df00613          	li	a2,479
    3000c048:	4fff8597          	auipc	a1,0x4fff8
    3000c04c:	d4058593          	addi	a1,a1,-704 # 80003d88 <__FUNCTION__.9>
    3000c050:	4fff8517          	auipc	a0,0x4fff8
    3000c054:	bd850513          	addi	a0,a0,-1064 # 80003c28 <__fsym___cmd_help_name+0x80>
    3000c058:	de1f60ef          	jal	ra,30002e38 <rt_assert_handler>
    3000c05c:	d49f80ef          	jal	ra,30004da4 <rt_hw_interrupt_disable>
    3000c060:	08c42783          	lw	a5,140(s0)
    3000c064:	04000737          	lui	a4,0x4000
    3000c068:	c0070713          	addi	a4,a4,-1024 # 3fffc00 <__stack_size+0x3fff400>
    3000c06c:	00e7f7b3          	and	a5,a5,a4
    3000c070:	09043a03          	ld	s4,144(s0)
    3000c074:	00050a93          	mv	s5,a0
    3000c078:	08079a63          	bnez	a5,3000c10c <rt_serial_read+0x24c>
    3000c07c:	000a1e63          	bnez	s4,3000c098 <rt_serial_read+0x1d8>
    3000c080:	1e900613          	li	a2,489
    3000c084:	4fff8597          	auipc	a1,0x4fff8
    3000c088:	d0458593          	addi	a1,a1,-764 # 80003d88 <__FUNCTION__.9>
    3000c08c:	4fff8517          	auipc	a0,0x4fff8
    3000c090:	b4450513          	addi	a0,a0,-1212 # 80003bd0 <__fsym___cmd_help_name+0x28>
    3000c094:	da5f60ef          	jal	ra,30002e38 <rt_assert_handler>
    3000c098:	000a2703          	lw	a4,0(s4)
    3000c09c:	00100793          	li	a5,1
    3000c0a0:	ff900993          	li	s3,-7
    3000c0a4:	04f70663          	beq	a4,a5,3000c0f0 <rt_serial_read+0x230>
    3000c0a8:	00fa2023          	sw	a5,0(s4)
    3000c0ac:	08043783          	ld	a5,128(s0)
    3000c0b0:	0207b783          	ld	a5,32(a5)
    3000c0b4:	00079e63          	bnez	a5,3000c0d0 <rt_serial_read+0x210>
    3000c0b8:	1ee00613          	li	a2,494
    3000c0bc:	4fff8597          	auipc	a1,0x4fff8
    3000c0c0:	ccc58593          	addi	a1,a1,-820 # 80003d88 <__FUNCTION__.9>
    3000c0c4:	4fff8517          	auipc	a0,0x4fff8
    3000c0c8:	b9450513          	addi	a0,a0,-1132 # 80003c58 <__fsym___cmd_help_name+0xb0>
    3000c0cc:	d6df60ef          	jal	ra,30002e38 <rt_assert_handler>
    3000c0d0:	08043783          	ld	a5,128(s0)
    3000c0d4:	00100693          	li	a3,1
    3000c0d8:	00048613          	mv	a2,s1
    3000c0dc:	0207b783          	ld	a5,32(a5)
    3000c0e0:	00090593          	mv	a1,s2
    3000c0e4:	00040513          	mv	a0,s0
    3000c0e8:	000780e7          	jalr	a5
    3000c0ec:	00000993          	li	s3,0
    3000c0f0:	000a8513          	mv	a0,s5
    3000c0f4:	cb9f80ef          	jal	ra,30004dac <rt_hw_interrupt_enable>
    3000c0f8:	e6098ce3          	beqz	s3,3000bf70 <rt_serial_read+0xb0>
    3000c0fc:	ff900513          	li	a0,-7
    3000c100:	9c4f60ef          	jal	ra,300022c4 <rt_set_errno>
    3000c104:	00000493          	li	s1,0
    3000c108:	e69ff06f          	j	3000bf70 <rt_serial_read+0xb0>
    3000c10c:	00040513          	mv	a0,s0
    3000c110:	f5cff0ef          	jal	ra,3000b86c <_serial_fifo_calc_recved_len>
    3000c114:	00050993          	mv	s3,a0
    3000c118:	000a1e63          	bnez	s4,3000c134 <rt_serial_read+0x274>
    3000c11c:	1fe00613          	li	a2,510
    3000c120:	4fff8597          	auipc	a1,0x4fff8
    3000c124:	c6858593          	addi	a1,a1,-920 # 80003d88 <__FUNCTION__.9>
    3000c128:	4fff8517          	auipc	a0,0x4fff8
    3000c12c:	a9050513          	addi	a0,a0,-1392 # 80003bb8 <__fsym___cmd_help_name+0x10>
    3000c130:	d09f60ef          	jal	ra,30002e38 <rt_assert_handler>
    3000c134:	0009879b          	sext.w	a5,s3
    3000c138:	00f4d463          	bge	s1,a5,3000c140 <rt_serial_read+0x280>
    3000c13c:	00048993          	mv	s3,s1
    3000c140:	08843783          	ld	a5,136(s0)
    3000c144:	00aa5603          	lhu	a2,10(s4)
    3000c148:	000a3583          	ld	a1,0(s4)
    3000c14c:	02a7d793          	srli	a5,a5,0x2a
    3000c150:	03079793          	slli	a5,a5,0x30
    3000c154:	0307d793          	srli	a5,a5,0x30
    3000c158:	01360733          	add	a4,a2,s3
    3000c15c:	00c585b3          	add	a1,a1,a2
    3000c160:	0af77263          	bgeu	a4,a5,3000c204 <rt_serial_read+0x344>
    3000c164:	00098613          	mv	a2,s3
    3000c168:	00090513          	mv	a0,s2
    3000c16c:	a40f60ef          	jal	ra,300023ac <rt_memcpy>
    3000c170:	09043483          	ld	s1,144(s0)
    3000c174:	00049e63          	bnez	s1,3000c190 <rt_serial_read+0x2d0>
    3000c178:	19c00613          	li	a2,412
    3000c17c:	4fff8597          	auipc	a1,0x4fff8
    3000c180:	bcc58593          	addi	a1,a1,-1076 # 80003d48 <__FUNCTION__.7>
    3000c184:	4fff8517          	auipc	a0,0x4fff8
    3000c188:	a3450513          	addi	a0,a0,-1484 # 80003bb8 <__fsym___cmd_help_name+0x10>
    3000c18c:	cadf60ef          	jal	ra,30002e38 <rt_assert_handler>
    3000c190:	00040513          	mv	a0,s0
    3000c194:	ed8ff0ef          	jal	ra,3000b86c <_serial_fifo_calc_recved_len>
    3000c198:	01357e63          	bgeu	a0,s3,3000c1b4 <rt_serial_read+0x2f4>
    3000c19c:	19d00613          	li	a2,413
    3000c1a0:	4fff8597          	auipc	a1,0x4fff8
    3000c1a4:	ba858593          	addi	a1,a1,-1112 # 80003d48 <__FUNCTION__.7>
    3000c1a8:	4fff8517          	auipc	a0,0x4fff8
    3000c1ac:	ad850513          	addi	a0,a0,-1320 # 80003c80 <__fsym___cmd_help_name+0xd8>
    3000c1b0:	c89f60ef          	jal	ra,30002e38 <rt_assert_handler>
    3000c1b4:	00c4a783          	lw	a5,12(s1)
    3000c1b8:	00078663          	beqz	a5,3000c1c4 <rt_serial_read+0x304>
    3000c1bc:	00098463          	beqz	s3,3000c1c4 <rt_serial_read+0x304>
    3000c1c0:	0004a623          	sw	zero,12(s1)
    3000c1c4:	00a4d503          	lhu	a0,10(s1)
    3000c1c8:	08843583          	ld	a1,136(s0)
    3000c1cc:	013507bb          	addw	a5,a0,s3
    3000c1d0:	03079513          	slli	a0,a5,0x30
    3000c1d4:	02a5d593          	srli	a1,a1,0x2a
    3000c1d8:	03055513          	srli	a0,a0,0x30
    3000c1dc:	03059593          	slli	a1,a1,0x30
    3000c1e0:	00a49523          	sh	a0,10(s1)
    3000c1e4:	0305d593          	srli	a1,a1,0x30
    3000c1e8:	00b56663          	bltu	a0,a1,3000c1f4 <rt_serial_read+0x334>
    3000c1ec:	fcdf80ef          	jal	ra,300051b8 <__umoddi3>
    3000c1f0:	00a49523          	sh	a0,10(s1)
    3000c1f4:	000a8513          	mv	a0,s5
    3000c1f8:	bb5f80ef          	jal	ra,30004dac <rt_hw_interrupt_enable>
    3000c1fc:	0009849b          	sext.w	s1,s3
    3000c200:	d71ff06f          	j	3000bf70 <rt_serial_read+0xb0>
    3000c204:	40c7863b          	subw	a2,a5,a2
    3000c208:	00090513          	mv	a0,s2
    3000c20c:	9a0f60ef          	jal	ra,300023ac <rt_memcpy>
    3000c210:	08843783          	ld	a5,136(s0)
    3000c214:	00aa5703          	lhu	a4,10(s4)
    3000c218:	000a3583          	ld	a1,0(s4)
    3000c21c:	02a7d793          	srli	a5,a5,0x2a
    3000c220:	03079793          	slli	a5,a5,0x30
    3000c224:	0307d793          	srli	a5,a5,0x30
    3000c228:	40f70633          	sub	a2,a4,a5
    3000c22c:	40e787b3          	sub	a5,a5,a4
    3000c230:	01360633          	add	a2,a2,s3
    3000c234:	00f90533          	add	a0,s2,a5
    3000c238:	f35ff06f          	j	3000c16c <rt_serial_read+0x2ac>

000000003000c23c <rt_serial_close>:
    3000c23c:	fe010113          	addi	sp,sp,-32
    3000c240:	00813823          	sd	s0,16(sp)
    3000c244:	00113c23          	sd	ra,24(sp)
    3000c248:	00913423          	sd	s1,8(sp)
    3000c24c:	00050413          	mv	s0,a0
    3000c250:	00051e63          	bnez	a0,3000c26c <rt_serial_close+0x30>
    3000c254:	2e400613          	li	a2,740
    3000c258:	4fff8597          	auipc	a1,0x4fff8
    3000c25c:	ae058593          	addi	a1,a1,-1312 # 80003d38 <__FUNCTION__.5>
    3000c260:	4fff4517          	auipc	a0,0x4fff4
    3000c264:	53850513          	addi	a0,a0,1336 # 80000798 <__FUNCTION__.6+0x10>
    3000c268:	bd1f60ef          	jal	ra,30002e38 <rt_assert_handler>
    3000c26c:	03044703          	lbu	a4,48(s0)
    3000c270:	00100793          	li	a5,1
    3000c274:	0ce7e663          	bltu	a5,a4,3000c340 <rt_serial_close+0x104>
    3000c278:	02e45783          	lhu	a5,46(s0)
    3000c27c:	08043703          	ld	a4,128(s0)
    3000c280:	1007f693          	andi	a3,a5,256
    3000c284:	00873703          	ld	a4,8(a4)
    3000c288:	0c068863          	beqz	a3,3000c358 <rt_serial_close+0x11c>
    3000c28c:	10000613          	li	a2,256
    3000c290:	01100593          	li	a1,17
    3000c294:	00040513          	mv	a0,s0
    3000c298:	000700e7          	jalr	a4
    3000c29c:	02e45783          	lhu	a5,46(s0)
    3000c2a0:	09043483          	ld	s1,144(s0)
    3000c2a4:	2f300613          	li	a2,755
    3000c2a8:	eff7f793          	andi	a5,a5,-257
    3000c2ac:	02f41723          	sh	a5,46(s0)
    3000c2b0:	10048663          	beqz	s1,3000c3bc <rt_serial_close+0x180>
    3000c2b4:	00048513          	mv	a0,s1
    3000c2b8:	f68f50ef          	jal	ra,30001a20 <rt_free>
    3000c2bc:	08043823          	sd	zero,144(s0)
    3000c2c0:	02e45783          	lhu	a5,46(s0)
    3000c2c4:	08043703          	ld	a4,128(s0)
    3000c2c8:	4007f693          	andi	a3,a5,1024
    3000c2cc:	00873703          	ld	a4,8(a4)
    3000c2d0:	10068063          	beqz	a3,3000c3d0 <rt_serial_close+0x194>
    3000c2d4:	40000613          	li	a2,1024
    3000c2d8:	01100593          	li	a1,17
    3000c2dc:	00040513          	mv	a0,s0
    3000c2e0:	000700e7          	jalr	a4
    3000c2e4:	02e45783          	lhu	a5,46(s0)
    3000c2e8:	09843483          	ld	s1,152(s0)
    3000c2ec:	bff7f793          	andi	a5,a5,-1025
    3000c2f0:	02f41723          	sh	a5,46(s0)
    3000c2f4:	00049e63          	bnez	s1,3000c310 <rt_serial_close+0xd4>
    3000c2f8:	31f00613          	li	a2,799
    3000c2fc:	4fff8597          	auipc	a1,0x4fff8
    3000c300:	a3c58593          	addi	a1,a1,-1476 # 80003d38 <__FUNCTION__.5>
    3000c304:	4fff8517          	auipc	a0,0x4fff8
    3000c308:	8e450513          	addi	a0,a0,-1820 # 80003be8 <__fsym___cmd_help_name+0x40>
    3000c30c:	b2df60ef          	jal	ra,30002e38 <rt_assert_handler>
    3000c310:	00048513          	mv	a0,s1
    3000c314:	f0cf50ef          	jal	ra,30001a20 <rt_free>
    3000c318:	08043c23          	sd	zero,152(s0)
    3000c31c:	08043783          	ld	a5,128(s0)
    3000c320:	00000613          	li	a2,0
    3000c324:	00400593          	li	a1,4
    3000c328:	0087b783          	ld	a5,8(a5)
    3000c32c:	00040513          	mv	a0,s0
    3000c330:	000780e7          	jalr	a5
    3000c334:	02c45783          	lhu	a5,44(s0)
    3000c338:	fef7f793          	andi	a5,a5,-17
    3000c33c:	02f41623          	sh	a5,44(s0)
    3000c340:	01813083          	ld	ra,24(sp)
    3000c344:	01013403          	ld	s0,16(sp)
    3000c348:	00813483          	ld	s1,8(sp)
    3000c34c:	00000513          	li	a0,0
    3000c350:	02010113          	addi	sp,sp,32
    3000c354:	00008067          	ret
    3000c358:	2007f793          	andi	a5,a5,512
    3000c35c:	f60782e3          	beqz	a5,3000c2c0 <rt_serial_close+0x84>
    3000c360:	20000613          	li	a2,512
    3000c364:	01100593          	li	a1,17
    3000c368:	00040513          	mv	a0,s0
    3000c36c:	000700e7          	jalr	a4
    3000c370:	02e45783          	lhu	a5,46(s0)
    3000c374:	04000737          	lui	a4,0x4000
    3000c378:	c0070713          	addi	a4,a4,-1024 # 3fffc00 <__stack_size+0x3fff400>
    3000c37c:	dff7f793          	andi	a5,a5,-513
    3000c380:	02f41723          	sh	a5,46(s0)
    3000c384:	08c42783          	lw	a5,140(s0)
    3000c388:	09043483          	ld	s1,144(s0)
    3000c38c:	00e7f7b3          	and	a5,a5,a4
    3000c390:	02079263          	bnez	a5,3000c3b4 <rt_serial_close+0x178>
    3000c394:	f20490e3          	bnez	s1,3000c2b4 <rt_serial_close+0x78>
    3000c398:	30500613          	li	a2,773
    3000c39c:	4fff8597          	auipc	a1,0x4fff8
    3000c3a0:	99c58593          	addi	a1,a1,-1636 # 80003d38 <__FUNCTION__.5>
    3000c3a4:	4fff8517          	auipc	a0,0x4fff8
    3000c3a8:	82c50513          	addi	a0,a0,-2004 # 80003bd0 <__fsym___cmd_help_name+0x28>
    3000c3ac:	a8df60ef          	jal	ra,30002e38 <rt_assert_handler>
    3000c3b0:	f05ff06f          	j	3000c2b4 <rt_serial_close+0x78>
    3000c3b4:	f00490e3          	bnez	s1,3000c2b4 <rt_serial_close+0x78>
    3000c3b8:	30e00613          	li	a2,782
    3000c3bc:	4fff8597          	auipc	a1,0x4fff8
    3000c3c0:	97c58593          	addi	a1,a1,-1668 # 80003d38 <__FUNCTION__.5>
    3000c3c4:	4fff7517          	auipc	a0,0x4fff7
    3000c3c8:	7f450513          	addi	a0,a0,2036 # 80003bb8 <__fsym___cmd_help_name+0x10>
    3000c3cc:	fe1ff06f          	j	3000c3ac <rt_serial_close+0x170>
    3000c3d0:	00001637          	lui	a2,0x1
    3000c3d4:	80060613          	addi	a2,a2,-2048 # 800 <__stack_size>
    3000c3d8:	00c7f7b3          	and	a5,a5,a2
    3000c3dc:	f40780e3          	beqz	a5,3000c31c <rt_serial_close+0xe0>
    3000c3e0:	01100593          	li	a1,17
    3000c3e4:	00040513          	mv	a0,s0
    3000c3e8:	000700e7          	jalr	a4
    3000c3ec:	02e45783          	lhu	a5,46(s0)
    3000c3f0:	fffff737          	lui	a4,0xfffff
    3000c3f4:	7ff70713          	addi	a4,a4,2047 # fffffffffffff7ff <__stack_start__+0xffffffff7efff7ff>
    3000c3f8:	09843483          	ld	s1,152(s0)
    3000c3fc:	00e7f7b3          	and	a5,a5,a4
    3000c400:	02f41723          	sh	a5,46(s0)
    3000c404:	00049e63          	bnez	s1,3000c420 <rt_serial_close+0x1e4>
    3000c408:	33000613          	li	a2,816
    3000c40c:	4fff8597          	auipc	a1,0x4fff8
    3000c410:	92c58593          	addi	a1,a1,-1748 # 80003d38 <__FUNCTION__.5>
    3000c414:	4fff7517          	auipc	a0,0x4fff7
    3000c418:	7ec50513          	addi	a0,a0,2028 # 80003c00 <__fsym___cmd_help_name+0x58>
    3000c41c:	a1df60ef          	jal	ra,30002e38 <rt_assert_handler>
    3000c420:	00848513          	addi	a0,s1,8
    3000c424:	528000ef          	jal	ra,3000c94c <rt_data_queue_deinit>
    3000c428:	ee9ff06f          	j	3000c310 <rt_serial_close+0xd4>

000000003000c42c <rt_hw_serial_register>:
    3000c42c:	fd010113          	addi	sp,sp,-48
    3000c430:	02813023          	sd	s0,32(sp)
    3000c434:	00913c23          	sd	s1,24(sp)
    3000c438:	01213823          	sd	s2,16(sp)
    3000c43c:	01313423          	sd	s3,8(sp)
    3000c440:	02113423          	sd	ra,40(sp)
    3000c444:	00050413          	mv	s0,a0
    3000c448:	00058493          	mv	s1,a1
    3000c44c:	00060913          	mv	s2,a2
    3000c450:	00068993          	mv	s3,a3
    3000c454:	00051e63          	bnez	a0,3000c470 <rt_hw_serial_register+0x44>
    3000c458:	49b00613          	li	a2,1179
    3000c45c:	4fff8597          	auipc	a1,0x4fff8
    3000c460:	8a458593          	addi	a1,a1,-1884 # 80003d00 <__FUNCTION__.16>
    3000c464:	4fff4517          	auipc	a0,0x4fff4
    3000c468:	14450513          	addi	a0,a0,324 # 800005a8 <__rt_init_end>
    3000c46c:	9cdf60ef          	jal	ra,30002e38 <rt_assert_handler>
    3000c470:	fffff797          	auipc	a5,0xfffff
    3000c474:	49478793          	addi	a5,a5,1172 # 3000b904 <rt_serial_init>
    3000c478:	04f43423          	sd	a5,72(s0)
    3000c47c:	fffff797          	auipc	a5,0xfffff
    3000c480:	4f478793          	addi	a5,a5,1268 # 3000b970 <rt_serial_open>
    3000c484:	04f43823          	sd	a5,80(s0)
    3000c488:	00000797          	auipc	a5,0x0
    3000c48c:	db478793          	addi	a5,a5,-588 # 3000c23c <rt_serial_close>
    3000c490:	04f43c23          	sd	a5,88(s0)
    3000c494:	00000797          	auipc	a5,0x0
    3000c498:	a2c78793          	addi	a5,a5,-1492 # 3000bec0 <rt_serial_read>
    3000c49c:	06f43023          	sd	a5,96(s0)
    3000c4a0:	00000797          	auipc	a5,0x0
    3000c4a4:	83c78793          	addi	a5,a5,-1988 # 3000bcdc <rt_serial_write>
    3000c4a8:	06f43423          	sd	a5,104(s0)
    3000c4ac:	fffff797          	auipc	a5,0xfffff
    3000c4b0:	2ac78793          	addi	a5,a5,684 # 3000b758 <rt_serial_control>
    3000c4b4:	07343c23          	sd	s3,120(s0)
    3000c4b8:	02042423          	sw	zero,40(s0)
    3000c4bc:	02043c23          	sd	zero,56(s0)
    3000c4c0:	04043023          	sd	zero,64(s0)
    3000c4c4:	06f43823          	sd	a5,112(s0)
    3000c4c8:	00040513          	mv	a0,s0
    3000c4cc:	02013403          	ld	s0,32(sp)
    3000c4d0:	02813083          	ld	ra,40(sp)
    3000c4d4:	00813983          	ld	s3,8(sp)
    3000c4d8:	03091613          	slli	a2,s2,0x30
    3000c4dc:	00048593          	mv	a1,s1
    3000c4e0:	01013903          	ld	s2,16(sp)
    3000c4e4:	01813483          	ld	s1,24(sp)
    3000c4e8:	03065613          	srli	a2,a2,0x30
    3000c4ec:	03010113          	addi	sp,sp,48
    3000c4f0:	f54f406f          	j	30000c44 <rt_device_register>

000000003000c4f4 <rt_data_queue_init>:
    3000c4f4:	fd010113          	addi	sp,sp,-48
    3000c4f8:	02813023          	sd	s0,32(sp)
    3000c4fc:	00913c23          	sd	s1,24(sp)
    3000c500:	01213823          	sd	s2,16(sp)
    3000c504:	01313423          	sd	s3,8(sp)
    3000c508:	02113423          	sd	ra,40(sp)
    3000c50c:	00050413          	mv	s0,a0
    3000c510:	00058493          	mv	s1,a1
    3000c514:	00060913          	mv	s2,a2
    3000c518:	00068993          	mv	s3,a3
    3000c51c:	00051e63          	bnez	a0,3000c538 <rt_data_queue_init+0x44>
    3000c520:	01e00613          	li	a2,30
    3000c524:	4fff8597          	auipc	a1,0x4fff8
    3000c528:	90458593          	addi	a1,a1,-1788 # 80003e28 <__FUNCTION__.6>
    3000c52c:	4fff8517          	auipc	a0,0x4fff8
    3000c530:	86c50513          	addi	a0,a0,-1940 # 80003d98 <__FUNCTION__.9+0x10>
    3000c534:	905f60ef          	jal	ra,30002e38 <rt_assert_handler>
    3000c538:	00049e63          	bnez	s1,3000c554 <rt_data_queue_init+0x60>
    3000c53c:	01f00613          	li	a2,31
    3000c540:	4fff8597          	auipc	a1,0x4fff8
    3000c544:	8e858593          	addi	a1,a1,-1816 # 80003e28 <__FUNCTION__.6>
    3000c548:	4fff8517          	auipc	a0,0x4fff8
    3000c54c:	86850513          	addi	a0,a0,-1944 # 80003db0 <__FUNCTION__.9+0x28>
    3000c550:	8e9f60ef          	jal	ra,30002e38 <rt_assert_handler>
    3000c554:	bead17b7          	lui	a5,0xbead1
    3000c558:	e0e78793          	addi	a5,a5,-498 # ffffffffbead0e0e <__stack_start__+0xffffffff3dad0e0e>
    3000c55c:	00f42023          	sw	a5,0(s0)
    3000c560:	000087b7          	lui	a5,0x8
    3000c564:	00f42423          	sw	a5,8(s0)
    3000c568:	01840793          	addi	a5,s0,24
    3000c56c:	02f43023          	sd	a5,32(s0)
    3000c570:	00f43c23          	sd	a5,24(s0)
    3000c574:	02840793          	addi	a5,s0,40
    3000c578:	02f43823          	sd	a5,48(s0)
    3000c57c:	02f43423          	sd	a5,40(s0)
    3000c580:	03343c23          	sd	s3,56(s0)
    3000c584:	00941223          	sh	s1,4(s0)
    3000c588:	01241323          	sh	s2,6(s0)
    3000c58c:	00449513          	slli	a0,s1,0x4
    3000c590:	970f50ef          	jal	ra,30001700 <rt_malloc>
    3000c594:	00050793          	mv	a5,a0
    3000c598:	00a43823          	sd	a0,16(s0)
    3000c59c:	00000513          	li	a0,0
    3000c5a0:	00079463          	bnez	a5,3000c5a8 <rt_data_queue_init+0xb4>
    3000c5a4:	ffb00513          	li	a0,-5
    3000c5a8:	02813083          	ld	ra,40(sp)
    3000c5ac:	02013403          	ld	s0,32(sp)
    3000c5b0:	01813483          	ld	s1,24(sp)
    3000c5b4:	01013903          	ld	s2,16(sp)
    3000c5b8:	00813983          	ld	s3,8(sp)
    3000c5bc:	03010113          	addi	sp,sp,48
    3000c5c0:	00008067          	ret

000000003000c5c4 <rt_data_queue_push>:
    3000c5c4:	f8010113          	addi	sp,sp,-128
    3000c5c8:	06813823          	sd	s0,112(sp)
    3000c5cc:	05413823          	sd	s4,80(sp)
    3000c5d0:	05513423          	sd	s5,72(sp)
    3000c5d4:	06113c23          	sd	ra,120(sp)
    3000c5d8:	06913423          	sd	s1,104(sp)
    3000c5dc:	07213023          	sd	s2,96(sp)
    3000c5e0:	05313c23          	sd	s3,88(sp)
    3000c5e4:	05613023          	sd	s6,64(sp)
    3000c5e8:	03713c23          	sd	s7,56(sp)
    3000c5ec:	03813823          	sd	s8,48(sp)
    3000c5f0:	03913423          	sd	s9,40(sp)
    3000c5f4:	03a13023          	sd	s10,32(sp)
    3000c5f8:	01b13c23          	sd	s11,24(sp)
    3000c5fc:	00d12623          	sw	a3,12(sp)
    3000c600:	00050413          	mv	s0,a0
    3000c604:	00058a93          	mv	s5,a1
    3000c608:	00060a13          	mv	s4,a2
    3000c60c:	00051e63          	bnez	a0,3000c628 <rt_data_queue_push+0x64>
    3000c610:	04200613          	li	a2,66
    3000c614:	4fff7597          	auipc	a1,0x4fff7
    3000c618:	7fc58593          	addi	a1,a1,2044 # 80003e10 <__FUNCTION__.5>
    3000c61c:	4fff7517          	auipc	a0,0x4fff7
    3000c620:	77c50513          	addi	a0,a0,1916 # 80003d98 <__FUNCTION__.9+0x10>
    3000c624:	815f60ef          	jal	ra,30002e38 <rt_assert_handler>
    3000c628:	00042703          	lw	a4,0(s0)
    3000c62c:	bead17b7          	lui	a5,0xbead1
    3000c630:	e0e78793          	addi	a5,a5,-498 # ffffffffbead0e0e <__stack_start__+0xffffffff3dad0e0e>
    3000c634:	00f70e63          	beq	a4,a5,3000c650 <rt_data_queue_push+0x8c>
    3000c638:	04300613          	li	a2,67
    3000c63c:	4fff7597          	auipc	a1,0x4fff7
    3000c640:	7d458593          	addi	a1,a1,2004 # 80003e10 <__FUNCTION__.5>
    3000c644:	4fff7517          	auipc	a0,0x4fff7
    3000c648:	77c50513          	addi	a0,a0,1916 # 80003dc0 <__FUNCTION__.9+0x38>
    3000c64c:	fecf60ef          	jal	ra,30002e38 <rt_assert_handler>
    3000c650:	d58f70ef          	jal	ra,30003ba8 <rt_thread_self>
    3000c654:	00050493          	mv	s1,a0
    3000c658:	f4cf80ef          	jal	ra,30004da4 <rt_hw_interrupt_disable>
    3000c65c:	00050913          	mv	s2,a0
    3000c660:	4fff7b17          	auipc	s6,0x4fff7
    3000c664:	7b0b0b13          	addi	s6,s6,1968 # 80003e10 <__FUNCTION__.5>
    3000c668:	4fff4c97          	auipc	s9,0x4fff4
    3000c66c:	448c8c93          	addi	s9,s9,1096 # 80000ab0 <__FUNCTION__.6+0x1e8>
    3000c670:	4fff4d17          	auipc	s10,0x4fff4
    3000c674:	468d0d13          	addi	s10,s10,1128 # 80000ad8 <__FUNCTION__.6+0x210>
    3000c678:	02848b93          	addi	s7,s1,40
    3000c67c:	01840d93          	addi	s11,s0,24
    3000c680:	08848c13          	addi	s8,s1,136
    3000c684:	00842783          	lw	a5,8(s0)
    3000c688:	1007c263          	bltz	a5,3000c78c <rt_data_queue_push+0x1c8>
    3000c68c:	00843783          	ld	a5,8(s0)
    3000c690:	00008737          	lui	a4,0x8
    3000c694:	fff70713          	addi	a4,a4,-1 # 7fff <__stack_size+0x77ff>
    3000c698:	0107d793          	srli	a5,a5,0x10
    3000c69c:	00e7f7b3          	and	a5,a5,a4
    3000c6a0:	01043683          	ld	a3,16(s0)
    3000c6a4:	03079793          	slli	a5,a5,0x30
    3000c6a8:	0307d793          	srli	a5,a5,0x30
    3000c6ac:	00479613          	slli	a2,a5,0x4
    3000c6b0:	00c686b3          	add	a3,a3,a2
    3000c6b4:	0017879b          	addiw	a5,a5,1
    3000c6b8:	0156b023          	sd	s5,0(a3)
    3000c6bc:	0146b423          	sd	s4,8(a3)
    3000c6c0:	00f777b3          	and	a5,a4,a5
    3000c6c4:	00445683          	lhu	a3,4(s0)
    3000c6c8:	03079793          	slli	a5,a5,0x30
    3000c6cc:	0307d793          	srli	a5,a5,0x30
    3000c6d0:	00f69463          	bne	a3,a5,3000c6d8 <rt_data_queue_push+0x114>
    3000c6d4:	00000793          	li	a5,0
    3000c6d8:	00842603          	lw	a2,8(s0)
    3000c6dc:	800105b7          	lui	a1,0x80010
    3000c6e0:	00e7f6b3          	and	a3,a5,a4
    3000c6e4:	fff58593          	addi	a1,a1,-1 # ffffffff8000ffff <__stack_start__+0xfffffffeff00ffff>
    3000c6e8:	0106969b          	slliw	a3,a3,0x10
    3000c6ec:	00b67633          	and	a2,a2,a1
    3000c6f0:	00d66633          	or	a2,a2,a3
    3000c6f4:	ffff86b7          	lui	a3,0xffff8
    3000c6f8:	fff68693          	addi	a3,a3,-1 # ffffffffffff7fff <__stack_start__+0xffffffff7eff7fff>
    3000c6fc:	00c6f6b3          	and	a3,a3,a2
    3000c700:	00d42423          	sw	a3,8(s0)
    3000c704:	00843683          	ld	a3,8(s0)
    3000c708:	00e6f733          	and	a4,a3,a4
    3000c70c:	03071713          	slli	a4,a4,0x30
    3000c710:	03075713          	srli	a4,a4,0x30
    3000c714:	00f71a63          	bne	a4,a5,3000c728 <rt_data_queue_push+0x164>
    3000c718:	00842783          	lw	a5,8(s0)
    3000c71c:	80000737          	lui	a4,0x80000
    3000c720:	00e7e7b3          	or	a5,a5,a4
    3000c724:	00f42423          	sw	a5,8(s0)
    3000c728:	02843503          	ld	a0,40(s0)
    3000c72c:	02840793          	addi	a5,s0,40
    3000c730:	00000993          	li	s3,0
    3000c734:	0ef50863          	beq	a0,a5,3000c824 <rt_data_queue_push+0x260>
    3000c738:	fd850513          	addi	a0,a0,-40
    3000c73c:	8e1f70ef          	jal	ra,3000401c <rt_thread_resume>
    3000c740:	00090513          	mv	a0,s2
    3000c744:	e68f80ef          	jal	ra,30004dac <rt_hw_interrupt_enable>
    3000c748:	bd8f80ef          	jal	ra,30004b20 <rt_schedule>
    3000c74c:	07813083          	ld	ra,120(sp)
    3000c750:	07013403          	ld	s0,112(sp)
    3000c754:	06813483          	ld	s1,104(sp)
    3000c758:	06013903          	ld	s2,96(sp)
    3000c75c:	05013a03          	ld	s4,80(sp)
    3000c760:	04813a83          	ld	s5,72(sp)
    3000c764:	04013b03          	ld	s6,64(sp)
    3000c768:	03813b83          	ld	s7,56(sp)
    3000c76c:	03013c03          	ld	s8,48(sp)
    3000c770:	02813c83          	ld	s9,40(sp)
    3000c774:	02013d03          	ld	s10,32(sp)
    3000c778:	01813d83          	ld	s11,24(sp)
    3000c77c:	00098513          	mv	a0,s3
    3000c780:	05813983          	ld	s3,88(sp)
    3000c784:	08010113          	addi	sp,sp,128
    3000c788:	00008067          	ret
    3000c78c:	00c12783          	lw	a5,12(sp)
    3000c790:	0a078c63          	beqz	a5,3000c848 <rt_data_queue_push+0x284>
    3000c794:	e10f80ef          	jal	ra,30004da4 <rt_hw_interrupt_disable>
    3000c798:	00050993          	mv	s3,a0
    3000c79c:	ddcf80ef          	jal	ra,30004d78 <rt_interrupt_get_nest>
    3000c7a0:	02050063          	beqz	a0,3000c7c0 <rt_data_queue_push+0x1fc>
    3000c7a4:	000b0593          	mv	a1,s6
    3000c7a8:	000c8513          	mv	a0,s9
    3000c7ac:	d08f60ef          	jal	ra,30002cb4 <rt_kprintf>
    3000c7b0:	05400613          	li	a2,84
    3000c7b4:	000b0593          	mv	a1,s6
    3000c7b8:	000d0513          	mv	a0,s10
    3000c7bc:	e7cf60ef          	jal	ra,30002e38 <rt_assert_handler>
    3000c7c0:	00098513          	mv	a0,s3
    3000c7c4:	de8f80ef          	jal	ra,30004dac <rt_hw_interrupt_enable>
    3000c7c8:	00048513          	mv	a0,s1
    3000c7cc:	0604b023          	sd	zero,96(s1)
    3000c7d0:	e6cf70ef          	jal	ra,30003e3c <rt_thread_suspend>
    3000c7d4:	02043783          	ld	a5,32(s0)
    3000c7d8:	0177b023          	sd	s7,0(a5)
    3000c7dc:	02f4b823          	sd	a5,48(s1)
    3000c7e0:	00c12783          	lw	a5,12(sp)
    3000c7e4:	03743023          	sd	s7,32(s0)
    3000c7e8:	03b4b423          	sd	s11,40(s1)
    3000c7ec:	00f05e63          	blez	a5,3000c808 <rt_data_queue_push+0x244>
    3000c7f0:	00c10613          	addi	a2,sp,12
    3000c7f4:	00000593          	li	a1,0
    3000c7f8:	000c0513          	mv	a0,s8
    3000c7fc:	f91f30ef          	jal	ra,3000078c <rt_timer_control>
    3000c800:	000c0513          	mv	a0,s8
    3000c804:	d59f30ef          	jal	ra,3000055c <rt_timer_start>
    3000c808:	00090513          	mv	a0,s2
    3000c80c:	da0f80ef          	jal	ra,30004dac <rt_hw_interrupt_enable>
    3000c810:	b10f80ef          	jal	ra,30004b20 <rt_schedule>
    3000c814:	0604b983          	ld	s3,96(s1)
    3000c818:	d8cf80ef          	jal	ra,30004da4 <rt_hw_interrupt_disable>
    3000c81c:	00050913          	mv	s2,a0
    3000c820:	e60982e3          	beqz	s3,3000c684 <rt_data_queue_push+0xc0>
    3000c824:	00090513          	mv	a0,s2
    3000c828:	d84f80ef          	jal	ra,30004dac <rt_hw_interrupt_enable>
    3000c82c:	f20990e3          	bnez	s3,3000c74c <rt_data_queue_push+0x188>
    3000c830:	03843783          	ld	a5,56(s0)
    3000c834:	f0078ce3          	beqz	a5,3000c74c <rt_data_queue_push+0x188>
    3000c838:	00200593          	li	a1,2
    3000c83c:	00040513          	mv	a0,s0
    3000c840:	000780e7          	jalr	a5
    3000c844:	f09ff06f          	j	3000c74c <rt_data_queue_push+0x188>
    3000c848:	ffe00993          	li	s3,-2
    3000c84c:	fd9ff06f          	j	3000c824 <rt_data_queue_push+0x260>

000000003000c850 <rt_data_queue_reset>:
    3000c850:	fd010113          	addi	sp,sp,-48
    3000c854:	02813023          	sd	s0,32(sp)
    3000c858:	02113423          	sd	ra,40(sp)
    3000c85c:	00913c23          	sd	s1,24(sp)
    3000c860:	01213823          	sd	s2,16(sp)
    3000c864:	01313423          	sd	s3,8(sp)
    3000c868:	00050413          	mv	s0,a0
    3000c86c:	00051e63          	bnez	a0,3000c888 <rt_data_queue_reset+0x38>
    3000c870:	12900613          	li	a2,297
    3000c874:	4fff7597          	auipc	a1,0x4fff7
    3000c878:	58458593          	addi	a1,a1,1412 # 80003df8 <__FUNCTION__.2>
    3000c87c:	4fff7517          	auipc	a0,0x4fff7
    3000c880:	51c50513          	addi	a0,a0,1308 # 80003d98 <__FUNCTION__.9+0x10>
    3000c884:	db4f60ef          	jal	ra,30002e38 <rt_assert_handler>
    3000c888:	00042703          	lw	a4,0(s0)
    3000c88c:	bead17b7          	lui	a5,0xbead1
    3000c890:	e0e78793          	addi	a5,a5,-498 # ffffffffbead0e0e <__stack_start__+0xffffffff3dad0e0e>
    3000c894:	00f70e63          	beq	a4,a5,3000c8b0 <rt_data_queue_reset+0x60>
    3000c898:	12a00613          	li	a2,298
    3000c89c:	4fff7597          	auipc	a1,0x4fff7
    3000c8a0:	55c58593          	addi	a1,a1,1372 # 80003df8 <__FUNCTION__.2>
    3000c8a4:	4fff7517          	auipc	a0,0x4fff7
    3000c8a8:	51c50513          	addi	a0,a0,1308 # 80003dc0 <__FUNCTION__.9+0x38>
    3000c8ac:	d8cf60ef          	jal	ra,30002e38 <rt_assert_handler>
    3000c8b0:	cf4f80ef          	jal	ra,30004da4 <rt_hw_interrupt_disable>
    3000c8b4:	000087b7          	lui	a5,0x8
    3000c8b8:	00f42423          	sw	a5,8(s0)
    3000c8bc:	cf0f80ef          	jal	ra,30004dac <rt_hw_interrupt_enable>
    3000c8c0:	02840913          	addi	s2,s0,40
    3000c8c4:	bc0f80ef          	jal	ra,30004c84 <rt_enter_critical>
    3000c8c8:	fff00993          	li	s3,-1
    3000c8cc:	02843783          	ld	a5,40(s0)
    3000c8d0:	03279a63          	bne	a5,s2,3000c904 <rt_data_queue_reset+0xb4>
    3000c8d4:	01840913          	addi	s2,s0,24
    3000c8d8:	fff00993          	li	s3,-1
    3000c8dc:	01843783          	ld	a5,24(s0)
    3000c8e0:	05279463          	bne	a5,s2,3000c928 <rt_data_queue_reset+0xd8>
    3000c8e4:	bc8f80ef          	jal	ra,30004cac <rt_exit_critical>
    3000c8e8:	02013403          	ld	s0,32(sp)
    3000c8ec:	02813083          	ld	ra,40(sp)
    3000c8f0:	01813483          	ld	s1,24(sp)
    3000c8f4:	01013903          	ld	s2,16(sp)
    3000c8f8:	00813983          	ld	s3,8(sp)
    3000c8fc:	03010113          	addi	sp,sp,48
    3000c900:	a20f806f          	j	30004b20 <rt_schedule>
    3000c904:	ca0f80ef          	jal	ra,30004da4 <rt_hw_interrupt_disable>
    3000c908:	00050493          	mv	s1,a0
    3000c90c:	02843503          	ld	a0,40(s0)
    3000c910:	03353c23          	sd	s3,56(a0)
    3000c914:	fd850513          	addi	a0,a0,-40
    3000c918:	f04f70ef          	jal	ra,3000401c <rt_thread_resume>
    3000c91c:	00048513          	mv	a0,s1
    3000c920:	c8cf80ef          	jal	ra,30004dac <rt_hw_interrupt_enable>
    3000c924:	fa9ff06f          	j	3000c8cc <rt_data_queue_reset+0x7c>
    3000c928:	c7cf80ef          	jal	ra,30004da4 <rt_hw_interrupt_disable>
    3000c92c:	00050493          	mv	s1,a0
    3000c930:	01843503          	ld	a0,24(s0)
    3000c934:	03353c23          	sd	s3,56(a0)
    3000c938:	fd850513          	addi	a0,a0,-40
    3000c93c:	ee0f70ef          	jal	ra,3000401c <rt_thread_resume>
    3000c940:	00048513          	mv	a0,s1
    3000c944:	c68f80ef          	jal	ra,30004dac <rt_hw_interrupt_enable>
    3000c948:	f95ff06f          	j	3000c8dc <rt_data_queue_reset+0x8c>

000000003000c94c <rt_data_queue_deinit>:
    3000c94c:	ff010113          	addi	sp,sp,-16
    3000c950:	00813023          	sd	s0,0(sp)
    3000c954:	00113423          	sd	ra,8(sp)
    3000c958:	00050413          	mv	s0,a0
    3000c95c:	00051e63          	bnez	a0,3000c978 <rt_data_queue_deinit+0x2c>
    3000c960:	17100613          	li	a2,369
    3000c964:	4fff7597          	auipc	a1,0x4fff7
    3000c968:	47c58593          	addi	a1,a1,1148 # 80003de0 <__FUNCTION__.1>
    3000c96c:	4fff7517          	auipc	a0,0x4fff7
    3000c970:	42c50513          	addi	a0,a0,1068 # 80003d98 <__FUNCTION__.9+0x10>
    3000c974:	cc4f60ef          	jal	ra,30002e38 <rt_assert_handler>
    3000c978:	00042703          	lw	a4,0(s0)
    3000c97c:	bead17b7          	lui	a5,0xbead1
    3000c980:	e0e78793          	addi	a5,a5,-498 # ffffffffbead0e0e <__stack_start__+0xffffffff3dad0e0e>
    3000c984:	00f70e63          	beq	a4,a5,3000c9a0 <rt_data_queue_deinit+0x54>
    3000c988:	17200613          	li	a2,370
    3000c98c:	4fff7597          	auipc	a1,0x4fff7
    3000c990:	45458593          	addi	a1,a1,1108 # 80003de0 <__FUNCTION__.1>
    3000c994:	4fff7517          	auipc	a0,0x4fff7
    3000c998:	42c50513          	addi	a0,a0,1068 # 80003dc0 <__FUNCTION__.9+0x38>
    3000c99c:	c9cf60ef          	jal	ra,30002e38 <rt_assert_handler>
    3000c9a0:	00040513          	mv	a0,s0
    3000c9a4:	eadff0ef          	jal	ra,3000c850 <rt_data_queue_reset>
    3000c9a8:	bfcf80ef          	jal	ra,30004da4 <rt_hw_interrupt_disable>
    3000c9ac:	00042023          	sw	zero,0(s0)
    3000c9b0:	bfcf80ef          	jal	ra,30004dac <rt_hw_interrupt_enable>
    3000c9b4:	01043503          	ld	a0,16(s0)
    3000c9b8:	868f50ef          	jal	ra,30001a20 <rt_free>
    3000c9bc:	00813083          	ld	ra,8(sp)
    3000c9c0:	00013403          	ld	s0,0(sp)
    3000c9c4:	00000513          	li	a0,0
    3000c9c8:	01010113          	addi	sp,sp,16
    3000c9cc:	00008067          	ret

000000003000c9d0 <rt_completion_init>:
    3000c9d0:	ff010113          	addi	sp,sp,-16
    3000c9d4:	00813023          	sd	s0,0(sp)
    3000c9d8:	00113423          	sd	ra,8(sp)
    3000c9dc:	00050413          	mv	s0,a0
    3000c9e0:	00051e63          	bnez	a0,3000c9fc <rt_completion_init+0x2c>
    3000c9e4:	01500613          	li	a2,21
    3000c9e8:	4fff7597          	auipc	a1,0x4fff7
    3000c9ec:	4b858593          	addi	a1,a1,1208 # 80003ea0 <__FUNCTION__.2>
    3000c9f0:	4fff7517          	auipc	a0,0x4fff7
    3000c9f4:	45050513          	addi	a0,a0,1104 # 80003e40 <__FUNCTION__.6+0x18>
    3000c9f8:	c40f60ef          	jal	ra,30002e38 <rt_assert_handler>
    3000c9fc:	ba8f80ef          	jal	ra,30004da4 <rt_hw_interrupt_disable>
    3000ca00:	00840793          	addi	a5,s0,8
    3000ca04:	00042023          	sw	zero,0(s0)
    3000ca08:	00f43823          	sd	a5,16(s0)
    3000ca0c:	00f43423          	sd	a5,8(s0)
    3000ca10:	00013403          	ld	s0,0(sp)
    3000ca14:	00813083          	ld	ra,8(sp)
    3000ca18:	01010113          	addi	sp,sp,16
    3000ca1c:	b90f806f          	j	30004dac <rt_hw_interrupt_enable>

000000003000ca20 <rt_completion_wait>:
    3000ca20:	fc010113          	addi	sp,sp,-64
    3000ca24:	02813823          	sd	s0,48(sp)
    3000ca28:	02113c23          	sd	ra,56(sp)
    3000ca2c:	02913423          	sd	s1,40(sp)
    3000ca30:	03213023          	sd	s2,32(sp)
    3000ca34:	01313c23          	sd	s3,24(sp)
    3000ca38:	01413823          	sd	s4,16(sp)
    3000ca3c:	00b12623          	sw	a1,12(sp)
    3000ca40:	00050413          	mv	s0,a0
    3000ca44:	00051e63          	bnez	a0,3000ca60 <rt_completion_wait+0x40>
    3000ca48:	02400613          	li	a2,36
    3000ca4c:	4fff7597          	auipc	a1,0x4fff7
    3000ca50:	43c58593          	addi	a1,a1,1084 # 80003e88 <__FUNCTION__.1>
    3000ca54:	4fff7517          	auipc	a0,0x4fff7
    3000ca58:	3ec50513          	addi	a0,a0,1004 # 80003e40 <__FUNCTION__.6+0x18>
    3000ca5c:	bdcf60ef          	jal	ra,30002e38 <rt_assert_handler>
    3000ca60:	948f70ef          	jal	ra,30003ba8 <rt_thread_self>
    3000ca64:	00050493          	mv	s1,a0
    3000ca68:	b3cf80ef          	jal	ra,30004da4 <rt_hw_interrupt_disable>
    3000ca6c:	00042703          	lw	a4,0(s0)
    3000ca70:	00100793          	li	a5,1
    3000ca74:	00050913          	mv	s2,a0
    3000ca78:	10f70463          	beq	a4,a5,3000cb80 <rt_completion_wait+0x160>
    3000ca7c:	00843783          	ld	a5,8(s0)
    3000ca80:	00840a13          	addi	s4,s0,8
    3000ca84:	00fa0e63          	beq	s4,a5,3000caa0 <rt_completion_wait+0x80>
    3000ca88:	02d00613          	li	a2,45
    3000ca8c:	4fff7597          	auipc	a1,0x4fff7
    3000ca90:	3fc58593          	addi	a1,a1,1020 # 80003e88 <__FUNCTION__.1>
    3000ca94:	4fff7517          	auipc	a0,0x4fff7
    3000ca98:	3c450513          	addi	a0,a0,964 # 80003e58 <__FUNCTION__.6+0x30>
    3000ca9c:	b9cf60ef          	jal	ra,30002e38 <rt_assert_handler>
    3000caa0:	00c12783          	lw	a5,12(sp)
    3000caa4:	ffe00993          	li	s3,-2
    3000caa8:	0a078663          	beqz	a5,3000cb54 <rt_completion_wait+0x134>
    3000caac:	0604b023          	sd	zero,96(s1)
    3000cab0:	00048513          	mv	a0,s1
    3000cab4:	b88f70ef          	jal	ra,30003e3c <rt_thread_suspend>
    3000cab8:	01043703          	ld	a4,16(s0)
    3000cabc:	02848793          	addi	a5,s1,40
    3000cac0:	00f73023          	sd	a5,0(a4) # ffffffff80000000 <__stack_start__+0xfffffffeff000000>
    3000cac4:	02e4b823          	sd	a4,48(s1)
    3000cac8:	00f43823          	sd	a5,16(s0)
    3000cacc:	0344b423          	sd	s4,40(s1)
    3000cad0:	ad4f80ef          	jal	ra,30004da4 <rt_hw_interrupt_disable>
    3000cad4:	00050993          	mv	s3,a0
    3000cad8:	aa0f80ef          	jal	ra,30004d78 <rt_interrupt_get_nest>
    3000cadc:	02050863          	beqz	a0,3000cb0c <rt_completion_wait+0xec>
    3000cae0:	4fff7597          	auipc	a1,0x4fff7
    3000cae4:	3a858593          	addi	a1,a1,936 # 80003e88 <__FUNCTION__.1>
    3000cae8:	4fff4517          	auipc	a0,0x4fff4
    3000caec:	fc850513          	addi	a0,a0,-56 # 80000ab0 <__FUNCTION__.6+0x1e8>
    3000caf0:	9c4f60ef          	jal	ra,30002cb4 <rt_kprintf>
    3000caf4:	04000613          	li	a2,64
    3000caf8:	4fff7597          	auipc	a1,0x4fff7
    3000cafc:	39058593          	addi	a1,a1,912 # 80003e88 <__FUNCTION__.1>
    3000cb00:	4fff4517          	auipc	a0,0x4fff4
    3000cb04:	fd850513          	addi	a0,a0,-40 # 80000ad8 <__FUNCTION__.6+0x210>
    3000cb08:	b30f60ef          	jal	ra,30002e38 <rt_assert_handler>
    3000cb0c:	00098513          	mv	a0,s3
    3000cb10:	a9cf80ef          	jal	ra,30004dac <rt_hw_interrupt_enable>
    3000cb14:	00c12783          	lw	a5,12(sp)
    3000cb18:	02f05063          	blez	a5,3000cb38 <rt_completion_wait+0x118>
    3000cb1c:	08848993          	addi	s3,s1,136
    3000cb20:	00c10613          	addi	a2,sp,12
    3000cb24:	00000593          	li	a1,0
    3000cb28:	00098513          	mv	a0,s3
    3000cb2c:	c61f30ef          	jal	ra,3000078c <rt_timer_control>
    3000cb30:	00098513          	mv	a0,s3
    3000cb34:	a29f30ef          	jal	ra,3000055c <rt_timer_start>
    3000cb38:	00090513          	mv	a0,s2
    3000cb3c:	a70f80ef          	jal	ra,30004dac <rt_hw_interrupt_enable>
    3000cb40:	fe1f70ef          	jal	ra,30004b20 <rt_schedule>
    3000cb44:	0604b983          	ld	s3,96(s1)
    3000cb48:	a5cf80ef          	jal	ra,30004da4 <rt_hw_interrupt_disable>
    3000cb4c:	00050913          	mv	s2,a0
    3000cb50:	00042023          	sw	zero,0(s0)
    3000cb54:	00090513          	mv	a0,s2
    3000cb58:	a54f80ef          	jal	ra,30004dac <rt_hw_interrupt_enable>
    3000cb5c:	03813083          	ld	ra,56(sp)
    3000cb60:	03013403          	ld	s0,48(sp)
    3000cb64:	02813483          	ld	s1,40(sp)
    3000cb68:	02013903          	ld	s2,32(sp)
    3000cb6c:	01013a03          	ld	s4,16(sp)
    3000cb70:	00098513          	mv	a0,s3
    3000cb74:	01813983          	ld	s3,24(sp)
    3000cb78:	04010113          	addi	sp,sp,64
    3000cb7c:	00008067          	ret
    3000cb80:	00000993          	li	s3,0
    3000cb84:	fcdff06f          	j	3000cb50 <rt_completion_wait+0x130>

000000003000cb88 <rt_pin_mode>:
    3000cb88:	fe010113          	addi	sp,sp,-32
    3000cb8c:	01213023          	sd	s2,0(sp)
    3000cb90:	50001917          	auipc	s2,0x50001
    3000cb94:	8d890913          	addi	s2,s2,-1832 # 8000d468 <_hw_pin>
    3000cb98:	08093783          	ld	a5,128(s2)
    3000cb9c:	00813823          	sd	s0,16(sp)
    3000cba0:	00913423          	sd	s1,8(sp)
    3000cba4:	00113c23          	sd	ra,24(sp)
    3000cba8:	00050413          	mv	s0,a0
    3000cbac:	00058493          	mv	s1,a1
    3000cbb0:	00079e63          	bnez	a5,3000cbcc <rt_pin_mode+0x44>
    3000cbb4:	08a00613          	li	a2,138
    3000cbb8:	4fff7597          	auipc	a1,0x4fff7
    3000cbbc:	35858593          	addi	a1,a1,856 # 80003f10 <__FUNCTION__.3>
    3000cbc0:	4fff7517          	auipc	a0,0x4fff7
    3000cbc4:	2f850513          	addi	a0,a0,760 # 80003eb8 <__FUNCTION__.2+0x18>
    3000cbc8:	a70f60ef          	jal	ra,30002e38 <rt_assert_handler>
    3000cbcc:	08093783          	ld	a5,128(s2)
    3000cbd0:	00040593          	mv	a1,s0
    3000cbd4:	01013403          	ld	s0,16(sp)
    3000cbd8:	01813083          	ld	ra,24(sp)
    3000cbdc:	00013903          	ld	s2,0(sp)
    3000cbe0:	0007b783          	ld	a5,0(a5)
    3000cbe4:	00048613          	mv	a2,s1
    3000cbe8:	00813483          	ld	s1,8(sp)
    3000cbec:	50001517          	auipc	a0,0x50001
    3000cbf0:	87c50513          	addi	a0,a0,-1924 # 8000d468 <_hw_pin>
    3000cbf4:	02010113          	addi	sp,sp,32
    3000cbf8:	00078067          	jr	a5

000000003000cbfc <rt_pin_write>:
    3000cbfc:	fe010113          	addi	sp,sp,-32
    3000cc00:	01213023          	sd	s2,0(sp)
    3000cc04:	50001917          	auipc	s2,0x50001
    3000cc08:	86490913          	addi	s2,s2,-1948 # 8000d468 <_hw_pin>
    3000cc0c:	08093783          	ld	a5,128(s2)
    3000cc10:	00813823          	sd	s0,16(sp)
    3000cc14:	00913423          	sd	s1,8(sp)
    3000cc18:	00113c23          	sd	ra,24(sp)
    3000cc1c:	00050413          	mv	s0,a0
    3000cc20:	00058493          	mv	s1,a1
    3000cc24:	00079e63          	bnez	a5,3000cc40 <rt_pin_write+0x44>
    3000cc28:	09100613          	li	a2,145
    3000cc2c:	4fff7597          	auipc	a1,0x4fff7
    3000cc30:	2d458593          	addi	a1,a1,724 # 80003f00 <__FUNCTION__.2>
    3000cc34:	4fff7517          	auipc	a0,0x4fff7
    3000cc38:	28450513          	addi	a0,a0,644 # 80003eb8 <__FUNCTION__.2+0x18>
    3000cc3c:	9fcf60ef          	jal	ra,30002e38 <rt_assert_handler>
    3000cc40:	08093783          	ld	a5,128(s2)
    3000cc44:	00040593          	mv	a1,s0
    3000cc48:	01013403          	ld	s0,16(sp)
    3000cc4c:	01813083          	ld	ra,24(sp)
    3000cc50:	00013903          	ld	s2,0(sp)
    3000cc54:	0087b783          	ld	a5,8(a5)
    3000cc58:	00048613          	mv	a2,s1
    3000cc5c:	00813483          	ld	s1,8(sp)
    3000cc60:	50001517          	auipc	a0,0x50001
    3000cc64:	80850513          	addi	a0,a0,-2040 # 8000d468 <_hw_pin>
    3000cc68:	02010113          	addi	sp,sp,32
    3000cc6c:	00078067          	jr	a5

000000003000cc70 <rt_pin_read>:
    3000cc70:	fe010113          	addi	sp,sp,-32
    3000cc74:	00913423          	sd	s1,8(sp)
    3000cc78:	50000497          	auipc	s1,0x50000
    3000cc7c:	7f048493          	addi	s1,s1,2032 # 8000d468 <_hw_pin>
    3000cc80:	0804b783          	ld	a5,128(s1)
    3000cc84:	00813823          	sd	s0,16(sp)
    3000cc88:	00113c23          	sd	ra,24(sp)
    3000cc8c:	00050413          	mv	s0,a0
    3000cc90:	00079e63          	bnez	a5,3000ccac <rt_pin_read+0x3c>
    3000cc94:	09800613          	li	a2,152
    3000cc98:	4fff7597          	auipc	a1,0x4fff7
    3000cc9c:	25858593          	addi	a1,a1,600 # 80003ef0 <__FUNCTION__.1>
    3000cca0:	4fff7517          	auipc	a0,0x4fff7
    3000cca4:	21850513          	addi	a0,a0,536 # 80003eb8 <__FUNCTION__.2+0x18>
    3000cca8:	990f60ef          	jal	ra,30002e38 <rt_assert_handler>
    3000ccac:	0804b783          	ld	a5,128(s1)
    3000ccb0:	00040593          	mv	a1,s0
    3000ccb4:	01013403          	ld	s0,16(sp)
    3000ccb8:	01813083          	ld	ra,24(sp)
    3000ccbc:	00813483          	ld	s1,8(sp)
    3000ccc0:	0107b783          	ld	a5,16(a5)
    3000ccc4:	50000517          	auipc	a0,0x50000
    3000ccc8:	7a450513          	addi	a0,a0,1956 # 8000d468 <_hw_pin>
    3000cccc:	02010113          	addi	sp,sp,32
    3000ccd0:	00078067          	jr	a5

000000003000ccd4 <rt_pin_get>:
    3000ccd4:	fe010113          	addi	sp,sp,-32
    3000ccd8:	00913423          	sd	s1,8(sp)
    3000ccdc:	50000497          	auipc	s1,0x50000
    3000cce0:	78c48493          	addi	s1,s1,1932 # 8000d468 <_hw_pin>
    3000cce4:	0804b783          	ld	a5,128(s1)
    3000cce8:	00813823          	sd	s0,16(sp)
    3000ccec:	00113c23          	sd	ra,24(sp)
    3000ccf0:	00050413          	mv	s0,a0
    3000ccf4:	00079e63          	bnez	a5,3000cd10 <rt_pin_get+0x3c>
    3000ccf8:	09f00613          	li	a2,159
    3000ccfc:	4fff7597          	auipc	a1,0x4fff7
    3000cd00:	1e458593          	addi	a1,a1,484 # 80003ee0 <__FUNCTION__.0>
    3000cd04:	4fff7517          	auipc	a0,0x4fff7
    3000cd08:	1b450513          	addi	a0,a0,436 # 80003eb8 <__FUNCTION__.2+0x18>
    3000cd0c:	92cf60ef          	jal	ra,30002e38 <rt_assert_handler>
    3000cd10:	00044703          	lbu	a4,0(s0)
    3000cd14:	05000793          	li	a5,80
    3000cd18:	00f70e63          	beq	a4,a5,3000cd34 <rt_pin_get+0x60>
    3000cd1c:	0a000613          	li	a2,160
    3000cd20:	4fff7597          	auipc	a1,0x4fff7
    3000cd24:	1c058593          	addi	a1,a1,448 # 80003ee0 <__FUNCTION__.0>
    3000cd28:	4fff7517          	auipc	a0,0x4fff7
    3000cd2c:	1a850513          	addi	a0,a0,424 # 80003ed0 <__FUNCTION__.2+0x30>
    3000cd30:	908f60ef          	jal	ra,30002e38 <rt_assert_handler>
    3000cd34:	0804b783          	ld	a5,128(s1)
    3000cd38:	0307b783          	ld	a5,48(a5)
    3000cd3c:	00078e63          	beqz	a5,3000cd58 <rt_pin_get+0x84>
    3000cd40:	00040513          	mv	a0,s0
    3000cd44:	01013403          	ld	s0,16(sp)
    3000cd48:	01813083          	ld	ra,24(sp)
    3000cd4c:	00813483          	ld	s1,8(sp)
    3000cd50:	02010113          	addi	sp,sp,32
    3000cd54:	00078067          	jr	a5
    3000cd58:	01813083          	ld	ra,24(sp)
    3000cd5c:	01013403          	ld	s0,16(sp)
    3000cd60:	00813483          	ld	s1,8(sp)
    3000cd64:	ffa00513          	li	a0,-6
    3000cd68:	02010113          	addi	sp,sp,32
    3000cd6c:	00008067          	ret
